ARM GAS  C:\Users\mag94\AppData\Local\Temp\ccHlBd4M.s 			page 1


   1              		.syntax unified
   2              		.cpu cortex-m3
   3              		.fpu softvfp
   4              		.eabi_attribute 20, 1
   5              		.eabi_attribute 21, 1
   6              		.eabi_attribute 23, 3
   7              		.eabi_attribute 24, 1
   8              		.eabi_attribute 25, 1
   9              		.eabi_attribute 26, 1
  10              		.eabi_attribute 30, 6
  11              		.eabi_attribute 34, 1
  12              		.eabi_attribute 18, 4
  13              		.thumb
  14              		.syntax unified
  15              		.file	"Air.c"
  16              		.text
  17              	.Ltext0:
  18              		.cfi_sections	.debug_frame
  19              		.comm	DS18x8_Sensor,32,4
  20              		.comm	DS18x8_DataReady,1,1
  21              		.global	SCD30Results
  22              		.bss
  23              		.align	2
  24              		.type	SCD30Results, %object
  25              		.size	SCD30Results, 12
  26              	SCD30Results:
  27 0000 00000000 		.space	12
  27      00000000 
  27      00000000 
  28              		.comm	xQueueSCD30,12,4
  29              		.section	.rodata
  30              		.align	2
  31              	.LC0:
  32 0000 74657374 		.ascii	"test\000"
  32      00
  33 0005 000000   		.align	2
  34              	.LC1:
  35 0008 73686F77 		.ascii	"show\000"
  35      00
  36              		.section	.text.vAirInit,"ax",%progbits
  37              		.align	2
  38              		.global	vAirInit
  39              		.thumb
  40              		.thumb_func
  41              		.type	vAirInit, %function
  42              	vAirInit:
  43              	.LFB68:
  44              		.file 1 "Air.c"
   1:Air.c         **** /* ========================================
   2:Air.c         ****  *
   3:Air.c         ****  * Copyright YOUR COMPANY, THE YEAR
   4:Air.c         ****  * All Rights Reserved
   5:Air.c         ****  * UNPUBLISHED, LICENSED SOFTWARE.
   6:Air.c         ****  *
   7:Air.c         ****  * CONFIDENTIAL AND PROPRIETARY INFORMATION
   8:Air.c         ****  * WHICH IS THE PROPERTY OF your company.
   9:Air.c         ****  *
ARM GAS  C:\Users\mag94\AppData\Local\Temp\ccHlBd4M.s 			page 2


  10:Air.c         ****  * ========================================
  11:Air.c         **** */
  12:Air.c         **** 
  13:Air.c         **** 
  14:Air.c         **** #include "FreeRTOS.h"
  15:Air.c         **** #include "Air.h"
  16:Air.c         **** #include "task.h"
  17:Air.c         **** #include "queue.h"
  18:Air.c         **** #include "SCD30_v2.h"
  19:Air.c         **** 
  20:Air.c         **** float SCD30Results [3] = {0};
  21:Air.c         **** 
  22:Air.c         **** QueueHandle_t xQueueSCD30[3]; 
  23:Air.c         **** 
  24:Air.c         **** 
  25:Air.c         **** void vAirInit(){
  45              		.loc 1 25 0
  46              		.cfi_startproc
  47              		@ args = 0, pretend = 0, frame = 0
  48              		@ frame_needed = 1, uses_anonymous_args = 0
  49 0000 80B5     		push	{r7, lr}
  50              		.cfi_def_cfa_offset 8
  51              		.cfi_offset 7, -8
  52              		.cfi_offset 14, -4
  53 0002 82B0     		sub	sp, sp, #8
  54              		.cfi_def_cfa_offset 16
  55 0004 02AF     		add	r7, sp, #8
  56              		.cfi_def_cfa 7, 8
  26:Air.c         ****     vInitSCD30(2); // Starting SCD30 sensor and setting meas interval to every 2nd sec
  57              		.loc 1 26 0
  58 0006 0220     		movs	r0, #2
  59 0008 FFF7FEFF 		bl	vInitSCD30
  27:Air.c         ****   //  xTaskCreate(vTaskGetMeasSCD30, "SCD30", 1000 , NULL , 2 , NULL);
  28:Air.c         ****     xTaskCreate(vTaskTestI2C , "test" , 100 , NULL , 3 , NULL);
  60              		.loc 1 28 0
  61 000c 0023     		movs	r3, #0
  62 000e 0193     		str	r3, [sp, #4]
  63 0010 0323     		movs	r3, #3
  64 0012 0093     		str	r3, [sp]
  65 0014 0023     		movs	r3, #0
  66 0016 6422     		movs	r2, #100
  67 0018 0849     		ldr	r1, .L2
  68 001a 0948     		ldr	r0, .L2+4
  69 001c FFF7FEFF 		bl	xTaskCreate
  29:Air.c         ****     xTaskCreate(vTaskInitializeTask, "show", 100, NULL, 4, NULL);
  70              		.loc 1 29 0
  71 0020 0023     		movs	r3, #0
  72 0022 0193     		str	r3, [sp, #4]
  73 0024 0423     		movs	r3, #4
  74 0026 0093     		str	r3, [sp]
  75 0028 0023     		movs	r3, #0
  76 002a 6422     		movs	r2, #100
  77 002c 0549     		ldr	r1, .L2+8
  78 002e 0648     		ldr	r0, .L2+12
  79 0030 FFF7FEFF 		bl	xTaskCreate
  30:Air.c         ****    /* 
  31:Air.c         ****     xQueueSCD30[0] = xQueueCreate(1, sizeof(float));
ARM GAS  C:\Users\mag94\AppData\Local\Temp\ccHlBd4M.s 			page 3


  32:Air.c         ****     xQueueSCD30[1] = xQueueCreate(1, sizeof(float));
  33:Air.c         ****     xQueueSCD30[2] = xQueueCreate(1, sizeof(float));
  34:Air.c         ****     
  35:Air.c         ****     #if AIRTEST == 1
  36:Air.c         ****         vAirTestTaskInit();
  37:Air.c         ****     #endif
  38:Air.c         ****     */
  39:Air.c         **** }
  80              		.loc 1 39 0
  81 0034 00BF     		nop
  82 0036 BD46     		mov	sp, r7
  83              		.cfi_def_cfa_register 13
  84              		@ sp needed
  85 0038 80BD     		pop	{r7, pc}
  86              	.L3:
  87 003a 00BF     		.align	2
  88              	.L2:
  89 003c 00000000 		.word	.LC0
  90 0040 00000000 		.word	vTaskTestI2C
  91 0044 08000000 		.word	.LC1
  92 0048 00000000 		.word	vTaskInitializeTask
  93              		.cfi_endproc
  94              	.LFE68:
  95              		.size	vAirInit, .-vAirInit
  96              		.section	.text.vInitSCD30,"ax",%progbits
  97              		.align	2
  98              		.global	vInitSCD30
  99              		.thumb
 100              		.thumb_func
 101              		.type	vInitSCD30, %function
 102              	vInitSCD30:
 103              	.LFB69:
  40:Air.c         **** 
  41:Air.c         **** 
  42:Air.c         **** void vInitSCD30(uint16_t interval){
 104              		.loc 1 42 0
 105              		.cfi_startproc
 106              		@ args = 0, pretend = 0, frame = 8
 107              		@ frame_needed = 1, uses_anonymous_args = 0
 108 0000 80B5     		push	{r7, lr}
 109              		.cfi_def_cfa_offset 8
 110              		.cfi_offset 7, -8
 111              		.cfi_offset 14, -4
 112 0002 82B0     		sub	sp, sp, #8
 113              		.cfi_def_cfa_offset 16
 114 0004 00AF     		add	r7, sp, #0
 115              		.cfi_def_cfa_register 7
 116 0006 0346     		mov	r3, r0
 117 0008 FB80     		strh	r3, [r7, #6]	@ movhi
  43:Air.c         ****     SCD30_setMeasurementInterval(interval); // takes the input and calibrates the sensor with the r
 118              		.loc 1 43 0
 119 000a FB88     		ldrh	r3, [r7, #6]
 120 000c 1846     		mov	r0, r3
 121 000e FFF7FEFF 		bl	SCD30_setMeasurementInterval
  44:Air.c         ****     SCD30_startPeriodicMeasurment(); // read it and weep
 122              		.loc 1 44 0
 123 0012 FFF7FEFF 		bl	SCD30_startPeriodicMeasurment
ARM GAS  C:\Users\mag94\AppData\Local\Temp\ccHlBd4M.s 			page 4


  45:Air.c         **** }
 124              		.loc 1 45 0
 125 0016 00BF     		nop
 126 0018 0837     		adds	r7, r7, #8
 127              		.cfi_def_cfa_offset 8
 128 001a BD46     		mov	sp, r7
 129              		.cfi_def_cfa_register 13
 130              		@ sp needed
 131 001c 80BD     		pop	{r7, pc}
 132              		.cfi_endproc
 133              	.LFE69:
 134              		.size	vInitSCD30, .-vInitSCD30
 135 001e 00BF     		.section	.text.vTaskGetMeasSCD30,"ax",%progbits
 136              		.align	2
 137              		.global	vTaskGetMeasSCD30
 138              		.thumb
 139              		.thumb_func
 140              		.type	vTaskGetMeasSCD30, %function
 141              	vTaskGetMeasSCD30:
 142              	.LFB70:
  46:Air.c         **** 
  47:Air.c         **** void vTaskGetMeasSCD30(){
 143              		.loc 1 47 0
 144              		.cfi_startproc
 145              		@ args = 0, pretend = 0, frame = 8
 146              		@ frame_needed = 1, uses_anonymous_args = 0
 147 0000 80B5     		push	{r7, lr}
 148              		.cfi_def_cfa_offset 8
 149              		.cfi_offset 7, -8
 150              		.cfi_offset 14, -4
 151 0002 82B0     		sub	sp, sp, #8
 152              		.cfi_def_cfa_offset 16
 153 0004 00AF     		add	r7, sp, #0
 154              		.cfi_def_cfa_register 7
  48:Air.c         ****     const TickType_t xDelayms = pdMS_TO_TICKS( 2000 ); // Sets the measurement resolution.
 155              		.loc 1 48 0
 156 0006 4FF4FA63 		mov	r3, #2000
 157 000a 7B60     		str	r3, [r7, #4]
 158              	.L7:
  49:Air.c         ****     for(;;){
  50:Air.c         ****         if (SCD30_isAvailable())
 159              		.loc 1 50 0
 160 000c FFF7FEFF 		bl	SCD30_isAvailable
 161 0010 0346     		mov	r3, r0
 162 0012 002B     		cmp	r3, #0
 163 0014 FAD0     		beq	.L7
  51:Air.c         ****         {
  52:Air.c         ****             SCD30_getCarbonDioxideConcentration(SCD30Results); // Reading the data and storing them
 164              		.loc 1 52 0
 165 0016 0F48     		ldr	r0, .L8
 166 0018 FFF7FEFF 		bl	SCD30_getCarbonDioxideConcentration
  53:Air.c         ****             xQueueSendToBack(xQueueSCD30[0], &SCD30Results[0], portMAX_DELAY);
 167              		.loc 1 53 0
 168 001c 0E4B     		ldr	r3, .L8+4
 169 001e 1868     		ldr	r0, [r3]
 170 0020 0023     		movs	r3, #0
 171 0022 4FF0FF32 		mov	r2, #-1
ARM GAS  C:\Users\mag94\AppData\Local\Temp\ccHlBd4M.s 			page 5


 172 0026 0B49     		ldr	r1, .L8
 173 0028 FFF7FEFF 		bl	xQueueGenericSend
  54:Air.c         ****             xQueueSendToBack(xQueueSCD30[1], &SCD30Results[1], portMAX_DELAY);
 174              		.loc 1 54 0
 175 002c 0A4B     		ldr	r3, .L8+4
 176 002e 5868     		ldr	r0, [r3, #4]
 177 0030 0023     		movs	r3, #0
 178 0032 4FF0FF32 		mov	r2, #-1
 179 0036 0949     		ldr	r1, .L8+8
 180 0038 FFF7FEFF 		bl	xQueueGenericSend
  55:Air.c         ****             xQueueSendToBack(xQueueSCD30[2], &SCD30Results[2], portMAX_DELAY);
 181              		.loc 1 55 0
 182 003c 064B     		ldr	r3, .L8+4
 183 003e 9868     		ldr	r0, [r3, #8]
 184 0040 0023     		movs	r3, #0
 185 0042 4FF0FF32 		mov	r2, #-1
 186 0046 0649     		ldr	r1, .L8+12
 187 0048 FFF7FEFF 		bl	xQueueGenericSend
  56:Air.c         ****             vTaskDelay(xDelayms);
 188              		.loc 1 56 0
 189 004c 7868     		ldr	r0, [r7, #4]
 190 004e FFF7FEFF 		bl	vTaskDelay
  57:Air.c         ****         }
  58:Air.c         ****     }
 191              		.loc 1 58 0
 192 0052 DBE7     		b	.L7
 193              	.L9:
 194              		.align	2
 195              	.L8:
 196 0054 00000000 		.word	SCD30Results
 197 0058 00000000 		.word	xQueueSCD30
 198 005c 04000000 		.word	SCD30Results+4
 199 0060 08000000 		.word	SCD30Results+8
 200              		.cfi_endproc
 201              	.LFE70:
 202              		.size	vTaskGetMeasSCD30, .-vTaskGetMeasSCD30
 203              		.section	.text.vTaskInitializeTask,"ax",%progbits
 204              		.align	2
 205              		.global	vTaskInitializeTask
 206              		.thumb
 207              		.thumb_func
 208              		.type	vTaskInitializeTask, %function
 209              	vTaskInitializeTask:
 210              	.LFB71:
  59:Air.c         **** }
  60:Air.c         **** 
  61:Air.c         **** void vTaskInitializeTask()
  62:Air.c         **** {
 211              		.loc 1 62 0
 212              		.cfi_startproc
 213              		@ args = 0, pretend = 0, frame = 0
 214              		@ frame_needed = 1, uses_anonymous_args = 0
 215 0000 80B5     		push	{r7, lr}
 216              		.cfi_def_cfa_offset 8
 217              		.cfi_offset 7, -8
 218              		.cfi_offset 14, -4
 219 0002 00AF     		add	r7, sp, #0
ARM GAS  C:\Users\mag94\AppData\Local\Temp\ccHlBd4M.s 			page 6


 220              		.cfi_def_cfa_register 7
 221              	.L11:
  63:Air.c         ****     for(;;)
  64:Air.c         ****     {
  65:Air.c         ****         vInitSCD30(2);
 222              		.loc 1 65 0 discriminator 1
 223 0004 0220     		movs	r0, #2
 224 0006 FFF7FEFF 		bl	vInitSCD30
  66:Air.c         ****         vTaskDelay(portMAX_DELAY);
 225              		.loc 1 66 0 discriminator 1
 226 000a 4FF0FF30 		mov	r0, #-1
 227 000e FFF7FEFF 		bl	vTaskDelay
  67:Air.c         ****     }
 228              		.loc 1 67 0 discriminator 1
 229 0012 F7E7     		b	.L11
 230              		.cfi_endproc
 231              	.LFE71:
 232              		.size	vTaskInitializeTask, .-vTaskInitializeTask
 233              		.section	.text.vTaskTestI2C,"ax",%progbits
 234              		.align	2
 235              		.global	vTaskTestI2C
 236              		.thumb
 237              		.thumb_func
 238              		.type	vTaskTestI2C, %function
 239              	vTaskTestI2C:
 240              	.LFB72:
  68:Air.c         **** 
  69:Air.c         **** }
  70:Air.c         **** 
  71:Air.c         **** void vTaskTestI2C(){
 241              		.loc 1 71 0
 242              		.cfi_startproc
 243              		@ args = 0, pretend = 0, frame = 8
 244              		@ frame_needed = 1, uses_anonymous_args = 0
 245 0000 80B5     		push	{r7, lr}
 246              		.cfi_def_cfa_offset 8
 247              		.cfi_offset 7, -8
 248              		.cfi_offset 14, -4
 249 0002 82B0     		sub	sp, sp, #8
 250              		.cfi_def_cfa_offset 16
 251 0004 00AF     		add	r7, sp, #0
 252              		.cfi_def_cfa_register 7
  72:Air.c         ****     
  73:Air.c         ****     const TickType_t xDelaymsBeforeRead = pdMS_TO_TICKS( 300 );
 253              		.loc 1 73 0
 254 0006 4FF49673 		mov	r3, #300
 255 000a 7B60     		str	r3, [r7, #4]
 256              	.L14:
 257              	.LBB2:
  74:Air.c         ****     for(;;){
  75:Air.c         ****         unsigned char  ucMessage[]= "R";
 258              		.loc 1 75 0
 259 000c 5223     		movs	r3, #82
 260 000e 3B80     		strh	r3, [r7]	@ movhi
  76:Air.c         ****      
  77:Air.c         ****         /* Initialize buffer with packet  , slave address is 9*/
  78:Air.c         ****         (void) I2C_1_MasterWriteBuf(0x61 , ucMessage, 1 , I2C_1_MODE_COMPLETE_XFER);
ARM GAS  C:\Users\mag94\AppData\Local\Temp\ccHlBd4M.s 			page 7


 261              		.loc 1 78 0
 262 0010 3946     		mov	r1, r7
 263 0012 0023     		movs	r3, #0
 264 0014 0122     		movs	r2, #1
 265 0016 6120     		movs	r0, #97
 266 0018 FFF7FEFF 		bl	I2C_1_MasterWriteBuf
  79:Air.c         **** 
  80:Air.c         ****  
  81:Air.c         **** 
  82:Air.c         ****         //Waits until master completes write transfer 
  83:Air.c         ****         while (0u == (I2C_1_MasterStatus() & I2C_1_MSTAT_WR_CMPLT))
 267              		.loc 1 83 0
 268 001c 00BF     		nop
 269              	.L13:
 270              		.loc 1 83 0 is_stmt 0 discriminator 1
 271 001e FFF7FEFF 		bl	I2C_1_MasterStatus
 272 0022 0346     		mov	r3, r0
 273 0024 03F00203 		and	r3, r3, #2
 274 0028 002B     		cmp	r3, #0
 275 002a F8D0     		beq	.L13
  84:Air.c         ****         {
  85:Air.c         ****         } 
  86:Air.c         ****         vTaskDelay(xDelaymsBeforeRead);
 276              		.loc 1 86 0 is_stmt 1
 277 002c 7868     		ldr	r0, [r7, #4]
 278 002e FFF7FEFF 		bl	vTaskDelay
 279              	.LBE2:
  87:Air.c         ****     }
 280              		.loc 1 87 0
 281 0032 EBE7     		b	.L14
 282              		.cfi_endproc
 283              	.LFE72:
 284              		.size	vTaskTestI2C, .-vTaskTestI2C
 285              		.section	.rodata
 286 000d 000000   		.align	2
 287              	.LC2:
 288 0010 53434433 		.ascii	"SCD30Test\000"
 288      30546573 
 288      7400
 289              		.section	.text.vAirTestTaskInit,"ax",%progbits
 290              		.align	2
 291              		.global	vAirTestTaskInit
 292              		.thumb
 293              		.thumb_func
 294              		.type	vAirTestTaskInit, %function
 295              	vAirTestTaskInit:
 296              	.LFB73:
  88:Air.c         **** }
  89:Air.c         **** 
  90:Air.c         **** // ----- Test tasks ----- //
  91:Air.c         **** 
  92:Air.c         **** void vAirTestTaskInit(){
 297              		.loc 1 92 0
 298              		.cfi_startproc
 299              		@ args = 0, pretend = 0, frame = 0
 300              		@ frame_needed = 1, uses_anonymous_args = 0
 301 0000 80B5     		push	{r7, lr}
ARM GAS  C:\Users\mag94\AppData\Local\Temp\ccHlBd4M.s 			page 8


 302              		.cfi_def_cfa_offset 8
 303              		.cfi_offset 7, -8
 304              		.cfi_offset 14, -4
 305 0002 82B0     		sub	sp, sp, #8
 306              		.cfi_def_cfa_offset 16
 307 0004 02AF     		add	r7, sp, #8
 308              		.cfi_def_cfa 7, 8
  93:Air.c         **** xTaskCreate(vTaskTestSCD30, "SCD30Test", 1000, NULL, 3, NULL);
 309              		.loc 1 93 0
 310 0006 0023     		movs	r3, #0
 311 0008 0193     		str	r3, [sp, #4]
 312 000a 0323     		movs	r3, #3
 313 000c 0093     		str	r3, [sp]
 314 000e 0023     		movs	r3, #0
 315 0010 4FF47A72 		mov	r2, #1000
 316 0014 0349     		ldr	r1, .L16
 317 0016 0448     		ldr	r0, .L16+4
 318 0018 FFF7FEFF 		bl	xTaskCreate
  94:Air.c         **** }
 319              		.loc 1 94 0
 320 001c 00BF     		nop
 321 001e BD46     		mov	sp, r7
 322              		.cfi_def_cfa_register 13
 323              		@ sp needed
 324 0020 80BD     		pop	{r7, pc}
 325              	.L17:
 326 0022 00BF     		.align	2
 327              	.L16:
 328 0024 10000000 		.word	.LC2
 329 0028 00000000 		.word	vTaskTestSCD30
 330              		.cfi_endproc
 331              	.LFE73:
 332              		.size	vAirTestTaskInit, .-vAirTestTaskInit
 333              		.section	.rodata
 334 001a 0000     		.align	2
 335              	.LC3:
 336 001c 434F323A 		.ascii	"CO2: \000"
 336      2000
 337              		.global	__aeabi_f2uiz
 338 0022 0000     		.align	2
 339              	.LC4:
 340 0024 0A00     		.ascii	"\012\000"
 341 0026 0000     		.align	2
 342              	.LC5:
 343 0028 54454D50 		.ascii	"TEMP: \000"
 343      3A2000
 344 002f 00       		.align	2
 345              	.LC6:
 346 0030 52483A20 		.ascii	"RH: \000"
 346      00
 347              		.section	.text.vTaskTestSCD30,"ax",%progbits
 348              		.align	2
 349              		.global	vTaskTestSCD30
 350              		.thumb
 351              		.thumb_func
 352              		.type	vTaskTestSCD30, %function
 353              	vTaskTestSCD30:
ARM GAS  C:\Users\mag94\AppData\Local\Temp\ccHlBd4M.s 			page 9


 354              	.LFB74:
  95:Air.c         **** 
  96:Air.c         **** void vTaskTestSCD30(){
 355              		.loc 1 96 0
 356              		.cfi_startproc
 357              		@ args = 0, pretend = 0, frame = 0
 358              		@ frame_needed = 1, uses_anonymous_args = 0
 359 0000 80B5     		push	{r7, lr}
 360              		.cfi_def_cfa_offset 8
 361              		.cfi_offset 7, -8
 362              		.cfi_offset 14, -4
 363 0002 00AF     		add	r7, sp, #0
 364              		.cfi_def_cfa_register 7
 365              	.L19:
  97:Air.c         ****     static float testResults[3];
  98:Air.c         ****     for(;;){   
  99:Air.c         ****         xQueueReceive(xQueueSCD30[0],&testResults[0], portMAX_DELAY);
 366              		.loc 1 99 0 discriminator 1
 367 0004 274B     		ldr	r3, .L20
 368 0006 1B68     		ldr	r3, [r3]
 369 0008 4FF0FF32 		mov	r2, #-1
 370 000c 2649     		ldr	r1, .L20+4
 371 000e 1846     		mov	r0, r3
 372 0010 FFF7FEFF 		bl	xQueueReceive
 100:Air.c         ****         xQueueReceive(xQueueSCD30[1],&testResults[1], portMAX_DELAY);
 373              		.loc 1 100 0 discriminator 1
 374 0014 234B     		ldr	r3, .L20
 375 0016 5B68     		ldr	r3, [r3, #4]
 376 0018 4FF0FF32 		mov	r2, #-1
 377 001c 2349     		ldr	r1, .L20+8
 378 001e 1846     		mov	r0, r3
 379 0020 FFF7FEFF 		bl	xQueueReceive
 101:Air.c         ****         xQueueReceive(xQueueSCD30[2],&testResults[2], portMAX_DELAY);
 380              		.loc 1 101 0 discriminator 1
 381 0024 1F4B     		ldr	r3, .L20
 382 0026 9B68     		ldr	r3, [r3, #8]
 383 0028 4FF0FF32 		mov	r2, #-1
 384 002c 2049     		ldr	r1, .L20+12
 385 002e 1846     		mov	r0, r3
 386 0030 FFF7FEFF 		bl	xQueueReceive
 102:Air.c         **** 
 103:Air.c         ****         SW_UART_TEST_USB_PutString("CO2: ");
 387              		.loc 1 103 0 discriminator 1
 388 0034 1F48     		ldr	r0, .L20+16
 389 0036 FFF7FEFF 		bl	SW_UART_TEST_USB_PutString
 104:Air.c         ****         SW_UART_TEST_USB_PutHexInt(testResults[0]);
 390              		.loc 1 104 0 discriminator 1
 391 003a 1B4B     		ldr	r3, .L20+4
 392 003c 1B68     		ldr	r3, [r3]	@ float
 393 003e 1846     		mov	r0, r3
 394 0040 FFF7FEFF 		bl	__aeabi_f2uiz
 395 0044 0346     		mov	r3, r0
 396 0046 9BB2     		uxth	r3, r3
 397 0048 1846     		mov	r0, r3
 398 004a FFF7FEFF 		bl	SW_UART_TEST_USB_PutHexInt
 105:Air.c         ****         SW_UART_TEST_USB_PutString("\n");
 399              		.loc 1 105 0 discriminator 1
ARM GAS  C:\Users\mag94\AppData\Local\Temp\ccHlBd4M.s 			page 10


 400 004e 1A48     		ldr	r0, .L20+20
 401 0050 FFF7FEFF 		bl	SW_UART_TEST_USB_PutString
 106:Air.c         ****         SW_UART_TEST_USB_PutString("TEMP: ");
 402              		.loc 1 106 0 discriminator 1
 403 0054 1948     		ldr	r0, .L20+24
 404 0056 FFF7FEFF 		bl	SW_UART_TEST_USB_PutString
 107:Air.c         ****         SW_UART_TEST_USB_PutHexInt(testResults[1]);
 405              		.loc 1 107 0 discriminator 1
 406 005a 134B     		ldr	r3, .L20+4
 407 005c 5B68     		ldr	r3, [r3, #4]	@ float
 408 005e 1846     		mov	r0, r3
 409 0060 FFF7FEFF 		bl	__aeabi_f2uiz
 410 0064 0346     		mov	r3, r0
 411 0066 9BB2     		uxth	r3, r3
 412 0068 1846     		mov	r0, r3
 413 006a FFF7FEFF 		bl	SW_UART_TEST_USB_PutHexInt
 108:Air.c         ****         SW_UART_TEST_USB_PutString("\n");
 414              		.loc 1 108 0 discriminator 1
 415 006e 1248     		ldr	r0, .L20+20
 416 0070 FFF7FEFF 		bl	SW_UART_TEST_USB_PutString
 109:Air.c         ****         SW_UART_TEST_USB_PutString("RH: ");
 417              		.loc 1 109 0 discriminator 1
 418 0074 1248     		ldr	r0, .L20+28
 419 0076 FFF7FEFF 		bl	SW_UART_TEST_USB_PutString
 110:Air.c         ****         SW_UART_TEST_USB_PutHexInt(testResults[2]);
 420              		.loc 1 110 0 discriminator 1
 421 007a 0B4B     		ldr	r3, .L20+4
 422 007c 9B68     		ldr	r3, [r3, #8]	@ float
 423 007e 1846     		mov	r0, r3
 424 0080 FFF7FEFF 		bl	__aeabi_f2uiz
 425 0084 0346     		mov	r3, r0
 426 0086 9BB2     		uxth	r3, r3
 427 0088 1846     		mov	r0, r3
 428 008a FFF7FEFF 		bl	SW_UART_TEST_USB_PutHexInt
 111:Air.c         ****         SW_UART_TEST_USB_PutString("\n");
 429              		.loc 1 111 0 discriminator 1
 430 008e 0A48     		ldr	r0, .L20+20
 431 0090 FFF7FEFF 		bl	SW_UART_TEST_USB_PutString
 112:Air.c         ****         SW_UART_TEST_USB_PutString("\n");
 432              		.loc 1 112 0 discriminator 1
 433 0094 0848     		ldr	r0, .L20+20
 434 0096 FFF7FEFF 		bl	SW_UART_TEST_USB_PutString
 113:Air.c         ****         SW_UART_TEST_USB_PutString("\n");
 435              		.loc 1 113 0 discriminator 1
 436 009a 0748     		ldr	r0, .L20+20
 437 009c FFF7FEFF 		bl	SW_UART_TEST_USB_PutString
 114:Air.c         ****     }
 438              		.loc 1 114 0 discriminator 1
 439 00a0 B0E7     		b	.L19
 440              	.L21:
 441 00a2 00BF     		.align	2
 442              	.L20:
 443 00a4 00000000 		.word	xQueueSCD30
 444 00a8 0C000000 		.word	testResults.6642
 445 00ac 10000000 		.word	testResults.6642+4
 446 00b0 14000000 		.word	testResults.6642+8
 447 00b4 1C000000 		.word	.LC3
ARM GAS  C:\Users\mag94\AppData\Local\Temp\ccHlBd4M.s 			page 11


 448 00b8 24000000 		.word	.LC4
 449 00bc 28000000 		.word	.LC5
 450 00c0 30000000 		.word	.LC6
 451              		.cfi_endproc
 452              	.LFE74:
 453              		.size	vTaskTestSCD30, .-vTaskTestSCD30
 454              		.bss
 455              		.align	2
 456              	testResults.6642:
 457 000c 00000000 		.space	12
 457      00000000 
 457      00000000 
 458              		.text
 459              	.Letext0:
 460              		.file 2 "c:\\program files (x86)\\cypress\\psoc creator\\4.3\\psoc creator\\import\\gnu\\arm\\5.4.
 461              		.file 3 "c:\\program files (x86)\\cypress\\psoc creator\\4.3\\psoc creator\\import\\gnu\\arm\\5.4.
 462              		.file 4 "Generated_Source\\PSoC5/cytypes.h"
 463              		.file 5 "Generated_Source\\PSoC5/DS18x8.h"
 464              		.file 6 ".\\Source\\portable\\GCC\\ARM_CM3/portmacro.h"
 465              		.file 7 ".\\Source\\include/queue.h"
 466              		.file 8 "Generated_Source\\PSoC5/core_cm3.h"