ARM GAS  C:\Users\mag94\AppData\Local\Temp\ccqW1BIW.s 			page 1


   1              		.syntax unified
   2              		.cpu cortex-m3
   3              		.fpu softvfp
   4              		.eabi_attribute 20, 1
   5              		.eabi_attribute 21, 1
   6              		.eabi_attribute 23, 3
   7              		.eabi_attribute 24, 1
   8              		.eabi_attribute 25, 1
   9              		.eabi_attribute 26, 1
  10              		.eabi_attribute 30, 6
  11              		.eabi_attribute 34, 1
  12              		.eabi_attribute 18, 4
  13              		.thumb
  14              		.syntax unified
  15              		.file	"Data_Storage.c"
  16              		.text
  17              	.Ltext0:
  18              		.cfi_sections	.debug_frame
  19              		.comm	DS18x8_Sensor,32,4
  20              		.comm	DS18x8_DataReady,1,1
  21              		.comm	xQueueControllerData,4,4
  22              		.comm	xQueueCentralrequest,4,4
  23              		.comm	xQueueCentralData,4,4
  24              		.comm	xQueueStorageReady,4,4
  25              		.section	.rodata
  26              		.align	2
  27              	.LC0:
  28 0000 44617461 		.ascii	"Data Storage\000"
  28      2053746F 
  28      72616765 
  28      00
  29 000d 000000   		.align	2
  30              	.LC1:
  31 0010 44617461 		.ascii	"Data Queueing\000"
  31      20517565 
  31      7565696E 
  31      6700
  32              		.section	.text.vInitDataStorage,"ax",%progbits
  33              		.align	2
  34              		.global	vInitDataStorage
  35              		.thumb
  36              		.thumb_func
  37              		.type	vInitDataStorage, %function
  38              	vInitDataStorage:
  39              	.LFB69:
  40              		.file 1 "Data_Storage.c"
   1:Data_Storage.c **** /* ========================================
   2:Data_Storage.c ****  *
   3:Data_Storage.c ****  * Copyright YOUR COMPANY, THE YEAR
   4:Data_Storage.c ****  * All Rights Reserved
   5:Data_Storage.c ****  * UNPUBLISHED, LICENSED SOFTWARE.
   6:Data_Storage.c ****  *
   7:Data_Storage.c ****  * CONFIDENTIAL AND PROPRIETARY INFORMATION
   8:Data_Storage.c ****  * WHICH IS THE PROPERTY OF your company.
   9:Data_Storage.c ****  *
  10:Data_Storage.c ****  * ========================================
  11:Data_Storage.c **** */
ARM GAS  C:\Users\mag94\AppData\Local\Temp\ccqW1BIW.s 			page 2


  12:Data_Storage.c **** 
  13:Data_Storage.c **** #include "FreeRTOS.h"
  14:Data_Storage.c **** #include "Data_Storage.h"
  15:Data_Storage.c **** #include "task.h"
  16:Data_Storage.c **** #include "queue.h"
  17:Data_Storage.c **** #include <stdio.h>
  18:Data_Storage.c **** #include <stdlib.h>
  19:Data_Storage.c **** 
  20:Data_Storage.c **** struct allData{ // Struct contains all nutrients values measured, 
  21:Data_Storage.c ****     uint16  iPHval;
  22:Data_Storage.c ****     uint16  iECval;
  23:Data_Storage.c ****     uint16  iWaterT;
  24:Data_Storage.c ****     uint16  iWaterF;
  25:Data_Storage.c ****     uint16  iC02val;
  26:Data_Storage.c ****     uint16  iTempA;
  27:Data_Storage.c ****     uint16  iRHval;
  28:Data_Storage.c ****     uint16  iLightValue;
  29:Data_Storage.c **** };
  30:Data_Storage.c **** struct dataMessage{ // struct type for messages sent by the controller tasks
  31:Data_Storage.c ****     char identifier;
  32:Data_Storage.c ****     uint16 message;
  33:Data_Storage.c **** };
  34:Data_Storage.c **** 
  35:Data_Storage.c **** QueueHandle_t xQueueControllerData;     // Incoming data from controller tasks
  36:Data_Storage.c **** QueueHandle_t xQueueCentralrequest;     // Requests from central task
  37:Data_Storage.c **** QueueHandle_t xQueueCentralData;        // Data sent to central
  38:Data_Storage.c **** QueueHandle_t xQueueStorageReady;       // Struct containing new data from all sensors sent to Data
  39:Data_Storage.c **** 
  40:Data_Storage.c **** 
  41:Data_Storage.c **** void vInitDataStorage()                 // Initializing and creating tasks for the DataStorage modu
  42:Data_Storage.c **** {
  41              		.loc 1 42 0
  42              		.cfi_startproc
  43              		@ args = 0, pretend = 0, frame = 0
  44              		@ frame_needed = 1, uses_anonymous_args = 0
  45 0000 80B5     		push	{r7, lr}
  46              		.cfi_def_cfa_offset 8
  47              		.cfi_offset 7, -8
  48              		.cfi_offset 14, -4
  49 0002 82B0     		sub	sp, sp, #8
  50              		.cfi_def_cfa_offset 16
  51 0004 02AF     		add	r7, sp, #8
  52              		.cfi_def_cfa 7, 8
  43:Data_Storage.c ****     xQueueControllerData = xQueueCreate(10, sizeof(struct dataMessage));
  53              		.loc 1 43 0
  54 0006 0022     		movs	r2, #0
  55 0008 0421     		movs	r1, #4
  56 000a 0A20     		movs	r0, #10
  57 000c FFF7FEFF 		bl	xQueueGenericCreate
  58 0010 0246     		mov	r2, r0
  59 0012 1A4B     		ldr	r3, .L2
  60 0014 1A60     		str	r2, [r3]
  44:Data_Storage.c ****     xQueueCentralData = xQueueCreate(10, sizeof(struct allData));
  61              		.loc 1 44 0
  62 0016 0022     		movs	r2, #0
  63 0018 1021     		movs	r1, #16
  64 001a 0A20     		movs	r0, #10
ARM GAS  C:\Users\mag94\AppData\Local\Temp\ccqW1BIW.s 			page 3


  65 001c FFF7FEFF 		bl	xQueueGenericCreate
  66 0020 0246     		mov	r2, r0
  67 0022 174B     		ldr	r3, .L2+4
  68 0024 1A60     		str	r2, [r3]
  45:Data_Storage.c ****     xQueueCentralrequest = xQueueCreate(1 , sizeof(uint16));
  69              		.loc 1 45 0
  70 0026 0022     		movs	r2, #0
  71 0028 0221     		movs	r1, #2
  72 002a 0120     		movs	r0, #1
  73 002c FFF7FEFF 		bl	xQueueGenericCreate
  74 0030 0246     		mov	r2, r0
  75 0032 144B     		ldr	r3, .L2+8
  76 0034 1A60     		str	r2, [r3]
  46:Data_Storage.c ****     xQueueStorageReady = xQueueCreate(1 , sizeof(struct allData));
  77              		.loc 1 46 0
  78 0036 0022     		movs	r2, #0
  79 0038 1021     		movs	r1, #16
  80 003a 0120     		movs	r0, #1
  81 003c FFF7FEFF 		bl	xQueueGenericCreate
  82 0040 0246     		mov	r2, r0
  83 0042 114B     		ldr	r3, .L2+12
  84 0044 1A60     		str	r2, [r3]
  47:Data_Storage.c ****     
  48:Data_Storage.c ****     xTaskCreate(vTaskDataStorage, "Data Storage", 1000, NULL , 3 , NULL);
  85              		.loc 1 48 0
  86 0046 0023     		movs	r3, #0
  87 0048 0193     		str	r3, [sp, #4]
  88 004a 0323     		movs	r3, #3
  89 004c 0093     		str	r3, [sp]
  90 004e 0023     		movs	r3, #0
  91 0050 4FF47A72 		mov	r2, #1000
  92 0054 0D49     		ldr	r1, .L2+16
  93 0056 0E48     		ldr	r0, .L2+20
  94 0058 FFF7FEFF 		bl	xTaskCreate
  49:Data_Storage.c ****     xTaskCreate(vTaskDataQueueing, "Data Queueing", 1000, NULL, 4, NULL);
  95              		.loc 1 49 0
  96 005c 0023     		movs	r3, #0
  97 005e 0193     		str	r3, [sp, #4]
  98 0060 0423     		movs	r3, #4
  99 0062 0093     		str	r3, [sp]
 100 0064 0023     		movs	r3, #0
 101 0066 4FF47A72 		mov	r2, #1000
 102 006a 0A49     		ldr	r1, .L2+24
 103 006c 0A48     		ldr	r0, .L2+28
 104 006e FFF7FEFF 		bl	xTaskCreate
  50:Data_Storage.c ****     
  51:Data_Storage.c ****     #if Data_Storage_Test == 1
  52:Data_Storage.c ****         vTestStorageInit();
 105              		.loc 1 52 0
 106 0072 FFF7FEFF 		bl	vTestStorageInit
  53:Data_Storage.c ****     #endif
  54:Data_Storage.c **** }
 107              		.loc 1 54 0
 108 0076 00BF     		nop
 109 0078 BD46     		mov	sp, r7
 110              		.cfi_def_cfa_register 13
 111              		@ sp needed
ARM GAS  C:\Users\mag94\AppData\Local\Temp\ccqW1BIW.s 			page 4


 112 007a 80BD     		pop	{r7, pc}
 113              	.L3:
 114              		.align	2
 115              	.L2:
 116 007c 00000000 		.word	xQueueControllerData
 117 0080 00000000 		.word	xQueueCentralData
 118 0084 00000000 		.word	xQueueCentralrequest
 119 0088 00000000 		.word	xQueueStorageReady
 120 008c 00000000 		.word	.LC0
 121 0090 00000000 		.word	vTaskDataStorage
 122 0094 10000000 		.word	.LC1
 123 0098 00000000 		.word	vTaskDataQueueing
 124              		.cfi_endproc
 125              	.LFE69:
 126              		.size	vInitDataStorage, .-vInitDataStorage
 127              		.section	.text.vTaskDataQueueing,"ax",%progbits
 128              		.align	2
 129              		.global	vTaskDataQueueing
 130              		.thumb
 131              		.thumb_func
 132              		.type	vTaskDataQueueing, %function
 133              	vTaskDataQueueing:
 134              	.LFB70:
  55:Data_Storage.c **** 
  56:Data_Storage.c **** void vTaskDataQueueing()                // This task gathers datavalues from controllertasks and qu
  57:Data_Storage.c **** {                                       // alldata struct for DataStorage task
 135              		.loc 1 57 0
 136              		.cfi_startproc
 137              		@ args = 0, pretend = 0, frame = 40
 138              		@ frame_needed = 1, uses_anonymous_args = 0
 139 0000 80B5     		push	{r7, lr}
 140              		.cfi_def_cfa_offset 8
 141              		.cfi_offset 7, -8
 142              		.cfi_offset 14, -4
 143 0002 8AB0     		sub	sp, sp, #40
 144              		.cfi_def_cfa_offset 48
 145 0004 00AF     		add	r7, sp, #0
 146              		.cfi_def_cfa_register 7
  58:Data_Storage.c ****     const TickType_t xDelayms = pdMS_TO_TICKS( 100 );
 147              		.loc 1 58 0
 148 0006 6423     		movs	r3, #100
 149 0008 FB61     		str	r3, [r7, #28]
  59:Data_Storage.c ****     struct allData dataForQueue;
  60:Data_Storage.c ****     struct dataMessage recievedMessage;
  61:Data_Storage.c ****     _Bool pReady = 0, eReady = 0, wReady = 0, fReady = 0, cReady = 0, tReady = 0, rReady = 0, lRead
 150              		.loc 1 61 0
 151 000a 0023     		movs	r3, #0
 152 000c 87F82730 		strb	r3, [r7, #39]
 153 0010 0023     		movs	r3, #0
 154 0012 87F82630 		strb	r3, [r7, #38]
 155 0016 0023     		movs	r3, #0
 156 0018 87F82530 		strb	r3, [r7, #37]
 157 001c 0023     		movs	r3, #0
 158 001e 87F82430 		strb	r3, [r7, #36]
 159 0022 0023     		movs	r3, #0
 160 0024 87F82330 		strb	r3, [r7, #35]
 161 0028 0023     		movs	r3, #0
ARM GAS  C:\Users\mag94\AppData\Local\Temp\ccqW1BIW.s 			page 5


 162 002a 87F82230 		strb	r3, [r7, #34]
 163 002e 0023     		movs	r3, #0
 164 0030 87F82130 		strb	r3, [r7, #33]
 165 0034 0023     		movs	r3, #0
 166 0036 87F82030 		strb	r3, [r7, #32]
 167              	.L16:
 168              	.LBB2:
  62:Data_Storage.c ****     
  63:Data_Storage.c ****     for(;;)
  64:Data_Storage.c ****     {
  65:Data_Storage.c ****         BaseType_t  xStatus = xQueueReceive(xQueueControllerData, &recievedMessage, portMAX_DELAY);
 169              		.loc 1 65 0
 170 003a 564B     		ldr	r3, .L17
 171 003c 1B68     		ldr	r3, [r3]
 172 003e 391D     		adds	r1, r7, #4
 173 0040 4FF0FF32 		mov	r2, #-1
 174 0044 1846     		mov	r0, r3
 175 0046 FFF7FEFF 		bl	xQueueReceive
 176 004a B861     		str	r0, [r7, #24]
  66:Data_Storage.c ****         if (xStatus == pdPASS)
 177              		.loc 1 66 0
 178 004c BB69     		ldr	r3, [r7, #24]
 179 004e 012B     		cmp	r3, #1
 180 0050 64D1     		bne	.L5
  67:Data_Storage.c ****         {
  68:Data_Storage.c ****             vTaskDelay(xDelayms);
 181              		.loc 1 68 0
 182 0052 F869     		ldr	r0, [r7, #28]
 183 0054 FFF7FEFF 		bl	vTaskDelay
  69:Data_Storage.c ****             switch (recievedMessage.identifier)
 184              		.loc 1 69 0
 185 0058 3B79     		ldrb	r3, [r7, #4]	@ zero_extendqisi2
 186 005a 633B     		subs	r3, r3, #99
 187 005c 142B     		cmp	r3, #20
 188 005e 5DD8     		bhi	.L5
 189 0060 01A2     		adr	r2, .L7
 190 0062 52F823F0 		ldr	pc, [r2, r3, lsl #2]
 191 0066 00BF     		.p2align 2
 192              	.L7:
 193 0068 ED000000 		.word	.L6+1
 194 006c 1D010000 		.word	.L5+1
 195 0070 C9000000 		.word	.L8+1
 196 0074 E1000000 		.word	.L9+1
 197 0078 1D010000 		.word	.L5+1
 198 007c 1D010000 		.word	.L5+1
 199 0080 1D010000 		.word	.L5+1
 200 0084 1D010000 		.word	.L5+1
 201 0088 1D010000 		.word	.L5+1
 202 008c 11010000 		.word	.L10+1
 203 0090 1D010000 		.word	.L5+1
 204 0094 1D010000 		.word	.L5+1
 205 0098 1D010000 		.word	.L5+1
 206 009c BD000000 		.word	.L11+1
 207 00a0 1D010000 		.word	.L5+1
 208 00a4 05010000 		.word	.L12+1
 209 00a8 1D010000 		.word	.L5+1
 210 00ac F9000000 		.word	.L13+1
ARM GAS  C:\Users\mag94\AppData\Local\Temp\ccqW1BIW.s 			page 6


 211 00b0 1D010000 		.word	.L5+1
 212 00b4 1D010000 		.word	.L5+1
 213 00b8 D5000000 		.word	.L14+1
 214              		.p2align 1
 215              	.L11:
  70:Data_Storage.c ****             {
  71:Data_Storage.c ****                 case 'p':   //PHvalue
  72:Data_Storage.c ****                     dataForQueue.iPHval     = recievedMessage.message;
 216              		.loc 1 72 0
 217 00bc FB88     		ldrh	r3, [r7, #6]
 218 00be 3B81     		strh	r3, [r7, #8]	@ movhi
  73:Data_Storage.c ****                     pReady = 1;
 219              		.loc 1 73 0
 220 00c0 0123     		movs	r3, #1
 221 00c2 87F82730 		strb	r3, [r7, #39]
  74:Data_Storage.c ****                     break;
 222              		.loc 1 74 0
 223 00c6 29E0     		b	.L5
 224              	.L8:
  75:Data_Storage.c ****                 case 'e':   //ECvalue
  76:Data_Storage.c ****                     dataForQueue.iECval     = recievedMessage.message;
 225              		.loc 1 76 0
 226 00c8 FB88     		ldrh	r3, [r7, #6]
 227 00ca 7B81     		strh	r3, [r7, #10]	@ movhi
  77:Data_Storage.c ****                     eReady = 1;
 228              		.loc 1 77 0
 229 00cc 0123     		movs	r3, #1
 230 00ce 87F82630 		strb	r3, [r7, #38]
  78:Data_Storage.c ****                     break;
 231              		.loc 1 78 0
 232 00d2 23E0     		b	.L5
 233              	.L14:
  79:Data_Storage.c ****                 case 'w':   //WaterTemp
  80:Data_Storage.c ****                     dataForQueue.iWaterT    = recievedMessage.message;
 234              		.loc 1 80 0
 235 00d4 FB88     		ldrh	r3, [r7, #6]
 236 00d6 BB81     		strh	r3, [r7, #12]	@ movhi
  81:Data_Storage.c ****                     wReady = 1;
 237              		.loc 1 81 0
 238 00d8 0123     		movs	r3, #1
 239 00da 87F82530 		strb	r3, [r7, #37]
  82:Data_Storage.c ****                     break;
 240              		.loc 1 82 0
 241 00de 1DE0     		b	.L5
 242              	.L9:
  83:Data_Storage.c ****                 case 'f':   //WaterFlow
  84:Data_Storage.c ****                     dataForQueue.iWaterF    = recievedMessage.message;
 243              		.loc 1 84 0
 244 00e0 FB88     		ldrh	r3, [r7, #6]
 245 00e2 FB81     		strh	r3, [r7, #14]	@ movhi
  85:Data_Storage.c ****                     fReady = 1;
 246              		.loc 1 85 0
 247 00e4 0123     		movs	r3, #1
 248 00e6 87F82430 		strb	r3, [r7, #36]
  86:Data_Storage.c ****                     break;
 249              		.loc 1 86 0
 250 00ea 17E0     		b	.L5
ARM GAS  C:\Users\mag94\AppData\Local\Temp\ccqW1BIW.s 			page 7


 251              	.L6:
  87:Data_Storage.c ****                 case 'c':   //Co2value
  88:Data_Storage.c ****                     dataForQueue.iC02val    = recievedMessage.message;
 252              		.loc 1 88 0
 253 00ec FB88     		ldrh	r3, [r7, #6]
 254 00ee 3B82     		strh	r3, [r7, #16]	@ movhi
  89:Data_Storage.c ****                     cReady = 1;
 255              		.loc 1 89 0
 256 00f0 0123     		movs	r3, #1
 257 00f2 87F82330 		strb	r3, [r7, #35]
  90:Data_Storage.c ****                     break;
 258              		.loc 1 90 0
 259 00f6 11E0     		b	.L5
 260              	.L13:
  91:Data_Storage.c ****                 case 't':   //AirTemp
  92:Data_Storage.c ****                     dataForQueue.iTempA     = recievedMessage.message;
 261              		.loc 1 92 0
 262 00f8 FB88     		ldrh	r3, [r7, #6]
 263 00fa 7B82     		strh	r3, [r7, #18]	@ movhi
  93:Data_Storage.c ****                     tReady = 1;
 264              		.loc 1 93 0
 265 00fc 0123     		movs	r3, #1
 266 00fe 87F82230 		strb	r3, [r7, #34]
  94:Data_Storage.c ****                     break;
 267              		.loc 1 94 0
 268 0102 0BE0     		b	.L5
 269              	.L12:
  95:Data_Storage.c ****                 case 'r':   //RelativHum
  96:Data_Storage.c ****                     dataForQueue.iRHval     = recievedMessage.message;
 270              		.loc 1 96 0
 271 0104 FB88     		ldrh	r3, [r7, #6]
 272 0106 BB82     		strh	r3, [r7, #20]	@ movhi
  97:Data_Storage.c ****                     rReady = 1;
 273              		.loc 1 97 0
 274 0108 0123     		movs	r3, #1
 275 010a 87F82130 		strb	r3, [r7, #33]
  98:Data_Storage.c ****                     break;
 276              		.loc 1 98 0
 277 010e 05E0     		b	.L5
 278              	.L10:
  99:Data_Storage.c ****                 case 'l':   //lightVal
 100:Data_Storage.c ****                     dataForQueue.iLightValue= recievedMessage.message;
 279              		.loc 1 100 0
 280 0110 FB88     		ldrh	r3, [r7, #6]
 281 0112 FB82     		strh	r3, [r7, #22]	@ movhi
 101:Data_Storage.c ****                     lReady = 1;
 282              		.loc 1 101 0
 283 0114 0123     		movs	r3, #1
 284 0116 87F82030 		strb	r3, [r7, #32]
 102:Data_Storage.c ****                     break;
 285              		.loc 1 102 0
 286 011a 00BF     		nop
 287              	.L5:
 103:Data_Storage.c ****             }
 104:Data_Storage.c ****         }
 105:Data_Storage.c ****         if (pReady & eReady & wReady & fReady & cReady & tReady & rReady & lReady)
 288              		.loc 1 105 0
ARM GAS  C:\Users\mag94\AppData\Local\Temp\ccqW1BIW.s 			page 8


 289 011c 97F82720 		ldrb	r2, [r7, #39]	@ zero_extendqisi2
 290 0120 97F82630 		ldrb	r3, [r7, #38]	@ zero_extendqisi2
 291 0124 1A40     		ands	r2, r2, r3
 292 0126 97F82530 		ldrb	r3, [r7, #37]	@ zero_extendqisi2
 293 012a 1A40     		ands	r2, r2, r3
 294 012c 97F82430 		ldrb	r3, [r7, #36]	@ zero_extendqisi2
 295 0130 1A40     		ands	r2, r2, r3
 296 0132 97F82330 		ldrb	r3, [r7, #35]	@ zero_extendqisi2
 297 0136 1A40     		ands	r2, r2, r3
 298 0138 97F82230 		ldrb	r3, [r7, #34]	@ zero_extendqisi2
 299 013c 1A40     		ands	r2, r2, r3
 300 013e 97F82130 		ldrb	r3, [r7, #33]	@ zero_extendqisi2
 301 0142 1A40     		ands	r2, r2, r3
 302 0144 97F82030 		ldrb	r3, [r7, #32]	@ zero_extendqisi2
 303 0148 1340     		ands	r3, r3, r2
 304 014a 002B     		cmp	r3, #0
 305 014c 3FF475AF 		beq	.L16
 106:Data_Storage.c ****         {
 107:Data_Storage.c ****             xQueueSendToBack(xQueueStorageReady, &dataForQueue, portMAX_DELAY);
 306              		.loc 1 107 0
 307 0150 114B     		ldr	r3, .L17+4
 308 0152 1868     		ldr	r0, [r3]
 309 0154 07F10801 		add	r1, r7, #8
 310 0158 0023     		movs	r3, #0
 311 015a 4FF0FF32 		mov	r2, #-1
 312 015e FFF7FEFF 		bl	xQueueGenericSend
 108:Data_Storage.c ****             pReady = 0, eReady = 0, wReady = 0, fReady = 0, cReady = 0, tReady = 0, rReady = 0, lRe
 313              		.loc 1 108 0
 314 0162 0023     		movs	r3, #0
 315 0164 87F82730 		strb	r3, [r7, #39]
 316 0168 0023     		movs	r3, #0
 317 016a 87F82630 		strb	r3, [r7, #38]
 318 016e 0023     		movs	r3, #0
 319 0170 87F82530 		strb	r3, [r7, #37]
 320 0174 0023     		movs	r3, #0
 321 0176 87F82430 		strb	r3, [r7, #36]
 322 017a 0023     		movs	r3, #0
 323 017c 87F82330 		strb	r3, [r7, #35]
 324 0180 0023     		movs	r3, #0
 325 0182 87F82230 		strb	r3, [r7, #34]
 326 0186 0023     		movs	r3, #0
 327 0188 87F82130 		strb	r3, [r7, #33]
 328 018c 0023     		movs	r3, #0
 329 018e 87F82030 		strb	r3, [r7, #32]
 330              	.LBE2:
 109:Data_Storage.c ****         //    SW_UART_TEST_USB_PutString("AllData Queued");
 110:Data_Storage.c ****         //    SW_UART_TEST_USB_PutString("\n");
 111:Data_Storage.c ****         }
 112:Data_Storage.c ****     }
 331              		.loc 1 112 0
 332 0192 52E7     		b	.L16
 333              	.L18:
 334              		.align	2
 335              	.L17:
 336 0194 00000000 		.word	xQueueControllerData
 337 0198 00000000 		.word	xQueueStorageReady
 338              		.cfi_endproc
ARM GAS  C:\Users\mag94\AppData\Local\Temp\ccqW1BIW.s 			page 9


 339              	.LFE70:
 340              		.size	vTaskDataQueueing, .-vTaskDataQueueing
 341              		.section	.text.vTaskDataStorage,"ax",%progbits
 342              		.align	2
 343              		.global	vTaskDataStorage
 344              		.thumb
 345              		.thumb_func
 346              		.type	vTaskDataStorage, %function
 347              	vTaskDataStorage:
 348              	.LFB71:
 113:Data_Storage.c ****     
 114:Data_Storage.c **** }
 115:Data_Storage.c **** 
 116:Data_Storage.c **** 
 117:Data_Storage.c **** 
 118:Data_Storage.c **** void vTaskDataStorage()                         // This task works as a FIFO buffer for the 
 119:Data_Storage.c **** {                                               // central task to request data from
 349              		.loc 1 119 0
 350              		.cfi_startproc
 351              		@ args = 0, pretend = 0, frame = 40
 352              		@ frame_needed = 1, uses_anonymous_args = 0
 353 0000 F0B5     		push	{r4, r5, r6, r7, lr}
 354              		.cfi_def_cfa_offset 20
 355              		.cfi_offset 4, -20
 356              		.cfi_offset 5, -16
 357              		.cfi_offset 6, -12
 358              		.cfi_offset 7, -8
 359              		.cfi_offset 14, -4
 360 0002 8BB0     		sub	sp, sp, #44
 361              		.cfi_def_cfa_offset 64
 362 0004 00AF     		add	r7, sp, #0
 363              		.cfi_def_cfa_register 7
 120:Data_Storage.c ****     const TickType_t xDelayms = pdMS_TO_TICKS( 1000 ); 
 364              		.loc 1 120 0
 365 0006 4FF47A70 		mov	r0, #1000
 366 000a B861     		str	r0, [r7, #24]
 121:Data_Storage.c ****     int readPtr = 0;
 367              		.loc 1 121 0
 368 000c 0020     		movs	r0, #0
 369 000e 7862     		str	r0, [r7, #36]
 122:Data_Storage.c ****     int writePtr = 0;
 370              		.loc 1 122 0
 371 0010 0020     		movs	r0, #0
 372 0012 3862     		str	r0, [r7, #32]
 123:Data_Storage.c ****     _Bool bufferFull = 0;
 373              		.loc 1 123 0
 374 0014 0020     		movs	r0, #0
 375 0016 F877     		strb	r0, [r7, #31]
 124:Data_Storage.c ****     _Bool bufferEmpty = 1;
 376              		.loc 1 124 0
 377 0018 0120     		movs	r0, #1
 378 001a B877     		strb	r0, [r7, #30]
 125:Data_Storage.c ****     BaseType_t centralRequest;
 126:Data_Storage.c ****     const int storageSizes = 20;
 379              		.loc 1 126 0
 380 001c 1420     		movs	r0, #20
 381 001e 7861     		str	r0, [r7, #20]
ARM GAS  C:\Users\mag94\AppData\Local\Temp\ccqW1BIW.s 			page 10


 127:Data_Storage.c ****     struct allData allDataArray[storageSizes];
 382              		.loc 1 127 0
 383 0020 7869     		ldr	r0, [r7, #20]
 384 0022 0138     		subs	r0, r0, #1
 385 0024 3861     		str	r0, [r7, #16]
 386 0026 7869     		ldr	r0, [r7, #20]
 387 0028 0546     		mov	r5, r0
 388 002a 4FF00006 		mov	r6, #0
 389 002e F201     		lsls	r2, r6, #7
 390 0030 42EA5562 		orr	r2, r2, r5, lsr #25
 391 0034 E901     		lsls	r1, r5, #7
 392 0036 7A69     		ldr	r2, [r7, #20]
 393 0038 1146     		mov	r1, r2
 394 003a 4FF00002 		mov	r2, #0
 395 003e D401     		lsls	r4, r2, #7
 396 0040 44EA5164 		orr	r4, r4, r1, lsr #25
 397 0044 CB01     		lsls	r3, r1, #7
 398 0046 7B69     		ldr	r3, [r7, #20]
 399 0048 1B01     		lsls	r3, r3, #4
 400 004a 0133     		adds	r3, r3, #1
 401 004c 0733     		adds	r3, r3, #7
 402 004e DB08     		lsrs	r3, r3, #3
 403 0050 DB00     		lsls	r3, r3, #3
 404 0052 ADEB030D 		sub	sp, sp, r3
 405 0056 6B46     		mov	r3, sp
 406 0058 0133     		adds	r3, r3, #1
 407 005a 5B08     		lsrs	r3, r3, #1
 408 005c 5B00     		lsls	r3, r3, #1
 409 005e FB60     		str	r3, [r7, #12]
 410              	.L24:
 128:Data_Storage.c ****     _Bool queueStatus;
 129:Data_Storage.c ****     _Bool queueStatusCentral;
 130:Data_Storage.c ****     
 131:Data_Storage.c ****     for(;;)
 132:Data_Storage.c ****     {                               // task takes allData struct from dataQueueing task
 133:Data_Storage.c ****         if(bufferFull == 0)
 411              		.loc 1 133 0
 412 0060 FB7F     		ldrb	r3, [r7, #31]
 413 0062 83F00103 		eor	r3, r3, #1
 414 0066 DBB2     		uxtb	r3, r3
 415 0068 002B     		cmp	r3, #0
 416 006a 1BD0     		beq	.L20
 134:Data_Storage.c ****         {
 135:Data_Storage.c ****             xQueueReceive(xQueueStorageReady, &allDataArray[writePtr], portMAX_DELAY);
 417              		.loc 1 135 0
 418 006c 254B     		ldr	r3, .L25
 419 006e 1868     		ldr	r0, [r3]
 420 0070 3B6A     		ldr	r3, [r7, #32]
 421 0072 1B01     		lsls	r3, r3, #4
 422 0074 FA68     		ldr	r2, [r7, #12]
 423 0076 1344     		add	r3, r3, r2
 424 0078 4FF0FF32 		mov	r2, #-1
 425 007c 1946     		mov	r1, r3
 426 007e FFF7FEFF 		bl	xQueueReceive
 136:Data_Storage.c ****             writePtr ++;
 427              		.loc 1 136 0
 428 0082 3B6A     		ldr	r3, [r7, #32]
ARM GAS  C:\Users\mag94\AppData\Local\Temp\ccqW1BIW.s 			page 11


 429 0084 0133     		adds	r3, r3, #1
 430 0086 3B62     		str	r3, [r7, #32]
 137:Data_Storage.c ****         //    SW_UART_TEST_USB_PutString("Data in array");
 138:Data_Storage.c ****         //    SW_UART_TEST_USB_PutString("\n");
 139:Data_Storage.c ****             bufferEmpty = 0;
 431              		.loc 1 139 0
 432 0088 0023     		movs	r3, #0
 433 008a BB77     		strb	r3, [r7, #30]
 140:Data_Storage.c ****             if(writePtr >= storageSizes)
 434              		.loc 1 140 0
 435 008c 3A6A     		ldr	r2, [r7, #32]
 436 008e 7B69     		ldr	r3, [r7, #20]
 437 0090 9A42     		cmp	r2, r3
 438 0092 01DB     		blt	.L21
 141:Data_Storage.c ****             {
 142:Data_Storage.c ****                 writePtr = 0;
 439              		.loc 1 142 0
 440 0094 0023     		movs	r3, #0
 441 0096 3B62     		str	r3, [r7, #32]
 442              	.L21:
 143:Data_Storage.c ****             }
 144:Data_Storage.c ****             if(readPtr == writePtr)
 443              		.loc 1 144 0
 444 0098 7A6A     		ldr	r2, [r7, #36]
 445 009a 3B6A     		ldr	r3, [r7, #32]
 446 009c 9A42     		cmp	r2, r3
 447 009e 01D1     		bne	.L20
 145:Data_Storage.c ****             {
 146:Data_Storage.c ****                 bufferFull = 1;
 448              		.loc 1 146 0
 449 00a0 0123     		movs	r3, #1
 450 00a2 FB77     		strb	r3, [r7, #31]
 451              	.L20:
 147:Data_Storage.c ****             }
 148:Data_Storage.c ****         }
 149:Data_Storage.c ****                                         // task checks for request from central and sends allData s
 150:Data_Storage.c ****         centralRequest = xQueueReceive(xQueueCentralrequest, &queueStatusCentral, portMAX_DELAY);  
 452              		.loc 1 150 0
 453 00a4 184B     		ldr	r3, .L25+4
 454 00a6 1B68     		ldr	r3, [r3]
 455 00a8 F91D     		adds	r1, r7, #7
 456 00aa 4FF0FF32 		mov	r2, #-1
 457 00ae 1846     		mov	r0, r3
 458 00b0 FFF7FEFF 		bl	xQueueReceive
 459 00b4 B860     		str	r0, [r7, #8]
 151:Data_Storage.c ****         if(centralRequest == pdTRUE && (bufferEmpty == 0))
 460              		.loc 1 151 0
 461 00b6 BB68     		ldr	r3, [r7, #8]
 462 00b8 012B     		cmp	r3, #1
 463 00ba 1FD1     		bne	.L22
 464              		.loc 1 151 0 is_stmt 0 discriminator 1
 465 00bc BB7F     		ldrb	r3, [r7, #30]
 466 00be 83F00103 		eor	r3, r3, #1
 467 00c2 DBB2     		uxtb	r3, r3
 468 00c4 002B     		cmp	r3, #0
 469 00c6 19D0     		beq	.L22
 152:Data_Storage.c ****         {
ARM GAS  C:\Users\mag94\AppData\Local\Temp\ccqW1BIW.s 			page 12


 153:Data_Storage.c ****         //    SW_UART_TEST_USB_PutString("Sending data to central");
 154:Data_Storage.c ****         //    SW_UART_TEST_USB_PutString("\n");
 155:Data_Storage.c ****             xQueueSendToBack(xQueueCentralData, &allDataArray[readPtr], portMAX_DELAY);
 470              		.loc 1 155 0 is_stmt 1
 471 00c8 104B     		ldr	r3, .L25+8
 472 00ca 1868     		ldr	r0, [r3]
 473 00cc 7B6A     		ldr	r3, [r7, #36]
 474 00ce 1B01     		lsls	r3, r3, #4
 475 00d0 FA68     		ldr	r2, [r7, #12]
 476 00d2 D118     		adds	r1, r2, r3
 477 00d4 0023     		movs	r3, #0
 478 00d6 4FF0FF32 		mov	r2, #-1
 479 00da FFF7FEFF 		bl	xQueueGenericSend
 156:Data_Storage.c ****             readPtr ++;
 480              		.loc 1 156 0
 481 00de 7B6A     		ldr	r3, [r7, #36]
 482 00e0 0133     		adds	r3, r3, #1
 483 00e2 7B62     		str	r3, [r7, #36]
 157:Data_Storage.c ****             if(readPtr >= storageSizes)
 484              		.loc 1 157 0
 485 00e4 7A6A     		ldr	r2, [r7, #36]
 486 00e6 7B69     		ldr	r3, [r7, #20]
 487 00e8 9A42     		cmp	r2, r3
 488 00ea 01DB     		blt	.L23
 158:Data_Storage.c ****             {
 159:Data_Storage.c ****                 readPtr = 0;
 489              		.loc 1 159 0
 490 00ec 0023     		movs	r3, #0
 491 00ee 7B62     		str	r3, [r7, #36]
 492              	.L23:
 160:Data_Storage.c ****             }
 161:Data_Storage.c ****             if(readPtr == writePtr)
 493              		.loc 1 161 0
 494 00f0 7A6A     		ldr	r2, [r7, #36]
 495 00f2 3B6A     		ldr	r3, [r7, #32]
 496 00f4 9A42     		cmp	r2, r3
 497 00f6 01D1     		bne	.L22
 162:Data_Storage.c ****             {
 163:Data_Storage.c ****                 bufferEmpty = 1;
 498              		.loc 1 163 0
 499 00f8 0123     		movs	r3, #1
 500 00fa BB77     		strb	r3, [r7, #30]
 501              	.L22:
 164:Data_Storage.c ****             }    
 165:Data_Storage.c ****         } 
 166:Data_Storage.c ****         vTaskDelay(xDelayms);
 502              		.loc 1 166 0
 503 00fc B869     		ldr	r0, [r7, #24]
 504 00fe FFF7FEFF 		bl	vTaskDelay
 167:Data_Storage.c ****     }
 505              		.loc 1 167 0
 506 0102 ADE7     		b	.L24
 507              	.L26:
 508              		.align	2
 509              	.L25:
 510 0104 00000000 		.word	xQueueStorageReady
 511 0108 00000000 		.word	xQueueCentralrequest
ARM GAS  C:\Users\mag94\AppData\Local\Temp\ccqW1BIW.s 			page 13


 512 010c 00000000 		.word	xQueueCentralData
 513              		.cfi_endproc
 514              	.LFE71:
 515              		.size	vTaskDataStorage, .-vTaskDataStorage
 516              		.section	.rodata
 517 001e 0000     		.align	2
 518              	.LC2:
 519 0020 53746F72 		.ascii	"StorageTest\000"
 519      61676554 
 519      65737400 
 520              		.section	.text.vTestStorageInit,"ax",%progbits
 521              		.align	2
 522              		.global	vTestStorageInit
 523              		.thumb
 524              		.thumb_func
 525              		.type	vTestStorageInit, %function
 526              	vTestStorageInit:
 527              	.LFB72:
 168:Data_Storage.c **** }
 169:Data_Storage.c **** 
 170:Data_Storage.c **** 
 171:Data_Storage.c **** 
 172:Data_Storage.c **** 
 173:Data_Storage.c ****         // Test tasks here // 
 174:Data_Storage.c **** 
 175:Data_Storage.c **** void vTestStorageInit()
 176:Data_Storage.c **** {
 528              		.loc 1 176 0
 529              		.cfi_startproc
 530              		@ args = 0, pretend = 0, frame = 0
 531              		@ frame_needed = 1, uses_anonymous_args = 0
 532 0000 80B5     		push	{r7, lr}
 533              		.cfi_def_cfa_offset 8
 534              		.cfi_offset 7, -8
 535              		.cfi_offset 14, -4
 536 0002 82B0     		sub	sp, sp, #8
 537              		.cfi_def_cfa_offset 16
 538 0004 02AF     		add	r7, sp, #8
 539              		.cfi_def_cfa 7, 8
 177:Data_Storage.c ****     xTaskCreate(vTaskTestData, "StorageTest", 1000, NULL, 4, NULL);
 540              		.loc 1 177 0
 541 0006 0023     		movs	r3, #0
 542 0008 0193     		str	r3, [sp, #4]
 543 000a 0423     		movs	r3, #4
 544 000c 0093     		str	r3, [sp]
 545 000e 0023     		movs	r3, #0
 546 0010 4FF47A72 		mov	r2, #1000
 547 0014 0349     		ldr	r1, .L28
 548 0016 0448     		ldr	r0, .L28+4
 549 0018 FFF7FEFF 		bl	xTaskCreate
 178:Data_Storage.c **** }
 550              		.loc 1 178 0
 551 001c 00BF     		nop
 552 001e BD46     		mov	sp, r7
 553              		.cfi_def_cfa_register 13
 554              		@ sp needed
 555 0020 80BD     		pop	{r7, pc}
ARM GAS  C:\Users\mag94\AppData\Local\Temp\ccqW1BIW.s 			page 14


 556              	.L29:
 557 0022 00BF     		.align	2
 558              	.L28:
 559 0024 20000000 		.word	.LC2
 560 0028 00000000 		.word	vTaskTestData
 561              		.cfi_endproc
 562              	.LFE72:
 563              		.size	vTestStorageInit, .-vTestStorageInit
 564              		.section	.rodata
 565              		.align	2
 566              	.LC3:
 567 002c 74657374 		.ascii	"testdata:\000"
 567      64617461 
 567      3A00
 568 0036 0000     		.align	2
 569              	.LC4:
 570 0038 0A00     		.ascii	"\012\000"
 571              		.section	.text.vTaskTestData,"ax",%progbits
 572              		.align	2
 573              		.global	vTaskTestData
 574              		.thumb
 575              		.thumb_func
 576              		.type	vTaskTestData, %function
 577              	vTaskTestData:
 578              	.LFB73:
 179:Data_Storage.c **** 
 180:Data_Storage.c **** void vTaskTestData()
 181:Data_Storage.c **** {
 579              		.loc 1 181 0
 580              		.cfi_startproc
 581              		@ args = 0, pretend = 0, frame = 64
 582              		@ frame_needed = 1, uses_anonymous_args = 0
 583 0000 80B5     		push	{r7, lr}
 584              		.cfi_def_cfa_offset 8
 585              		.cfi_offset 7, -8
 586              		.cfi_offset 14, -4
 587 0002 90B0     		sub	sp, sp, #64
 588              		.cfi_def_cfa_offset 72
 589 0004 00AF     		add	r7, sp, #0
 590              		.cfi_def_cfa_register 7
 182:Data_Storage.c ****     int centralRequest = 1;
 591              		.loc 1 182 0
 592 0006 0123     		movs	r3, #1
 593 0008 BB63     		str	r3, [r7, #56]
 183:Data_Storage.c ****     struct allData testData;
 184:Data_Storage.c ****     const TickType_t xDelayms = pdMS_TO_TICKS( 1000 );
 594              		.loc 1 184 0
 595 000a 4FF47A73 		mov	r3, #1000
 596 000e FB63     		str	r3, [r7, #60]
 185:Data_Storage.c ****     
 186:Data_Storage.c ****     struct dataMessage testMessage1;
 187:Data_Storage.c ****     testMessage1.identifier = 'p';
 597              		.loc 1 187 0
 598 0010 7023     		movs	r3, #112
 599 0012 87F82430 		strb	r3, [r7, #36]
 188:Data_Storage.c ****     testMessage1.message = 1;
 600              		.loc 1 188 0
ARM GAS  C:\Users\mag94\AppData\Local\Temp\ccqW1BIW.s 			page 15


 601 0016 0123     		movs	r3, #1
 602 0018 FB84     		strh	r3, [r7, #38]	@ movhi
 189:Data_Storage.c ****     
 190:Data_Storage.c ****     struct dataMessage testMessage2;
 191:Data_Storage.c ****     testMessage2.identifier = 'e';
 603              		.loc 1 191 0
 604 001a 6523     		movs	r3, #101
 605 001c 87F82030 		strb	r3, [r7, #32]
 192:Data_Storage.c ****     testMessage2.message = 2;
 606              		.loc 1 192 0
 607 0020 0223     		movs	r3, #2
 608 0022 7B84     		strh	r3, [r7, #34]	@ movhi
 193:Data_Storage.c ****     
 194:Data_Storage.c ****     struct dataMessage testMessage3;
 195:Data_Storage.c ****     testMessage3.identifier = 'w';
 609              		.loc 1 195 0
 610 0024 7723     		movs	r3, #119
 611 0026 3B77     		strb	r3, [r7, #28]
 196:Data_Storage.c ****     testMessage3.message = 3;
 612              		.loc 1 196 0
 613 0028 0323     		movs	r3, #3
 614 002a FB83     		strh	r3, [r7, #30]	@ movhi
 197:Data_Storage.c ****     
 198:Data_Storage.c ****     struct dataMessage testMessage4;
 199:Data_Storage.c ****     testMessage4.identifier = 'f';
 615              		.loc 1 199 0
 616 002c 6623     		movs	r3, #102
 617 002e 3B76     		strb	r3, [r7, #24]
 200:Data_Storage.c ****     testMessage4.message = 4;
 618              		.loc 1 200 0
 619 0030 0423     		movs	r3, #4
 620 0032 7B83     		strh	r3, [r7, #26]	@ movhi
 201:Data_Storage.c ****     
 202:Data_Storage.c ****     struct dataMessage testMessage5;
 203:Data_Storage.c ****     testMessage5.identifier = 'c';
 621              		.loc 1 203 0
 622 0034 6323     		movs	r3, #99
 623 0036 3B75     		strb	r3, [r7, #20]
 204:Data_Storage.c ****     testMessage5.message = 5;
 624              		.loc 1 204 0
 625 0038 0523     		movs	r3, #5
 626 003a FB82     		strh	r3, [r7, #22]	@ movhi
 205:Data_Storage.c ****     
 206:Data_Storage.c ****     struct dataMessage testMessage6;
 207:Data_Storage.c ****     testMessage6.identifier = 't';
 627              		.loc 1 207 0
 628 003c 7423     		movs	r3, #116
 629 003e 3B74     		strb	r3, [r7, #16]
 208:Data_Storage.c ****     testMessage6.message = 6;
 630              		.loc 1 208 0
 631 0040 0623     		movs	r3, #6
 632 0042 7B82     		strh	r3, [r7, #18]	@ movhi
 209:Data_Storage.c ****     
 210:Data_Storage.c ****     struct dataMessage testMessage7;
 211:Data_Storage.c ****     testMessage7.identifier = 'r';
 633              		.loc 1 211 0
 634 0044 7223     		movs	r3, #114
ARM GAS  C:\Users\mag94\AppData\Local\Temp\ccqW1BIW.s 			page 16


 635 0046 3B73     		strb	r3, [r7, #12]
 212:Data_Storage.c ****     testMessage7.message = 7;
 636              		.loc 1 212 0
 637 0048 0723     		movs	r3, #7
 638 004a FB81     		strh	r3, [r7, #14]	@ movhi
 213:Data_Storage.c ****     
 214:Data_Storage.c ****     struct dataMessage testMessage8;
 215:Data_Storage.c ****     testMessage1.identifier = 'p';
 639              		.loc 1 215 0
 640 004c 7023     		movs	r3, #112
 641 004e 87F82430 		strb	r3, [r7, #36]
 216:Data_Storage.c ****     testMessage1.message = 8;
 642              		.loc 1 216 0
 643 0052 0823     		movs	r3, #8
 644 0054 FB84     		strh	r3, [r7, #38]	@ movhi
 217:Data_Storage.c ****     
 218:Data_Storage.c ****     struct dataMessage testMessage9;
 219:Data_Storage.c ****     testMessage8.identifier = 'l';
 645              		.loc 1 219 0
 646 0056 6C23     		movs	r3, #108
 647 0058 3B72     		strb	r3, [r7, #8]
 220:Data_Storage.c ****     testMessage8.message = 9;
 648              		.loc 1 220 0
 649 005a 0923     		movs	r3, #9
 650 005c 7B81     		strh	r3, [r7, #10]	@ movhi
 651              	.L31:
 221:Data_Storage.c ****     for(;;)
 222:Data_Storage.c ****     {
 223:Data_Storage.c ****         xQueueSendToBack(xQueueControllerData, &testMessage1, portMAX_DELAY);
 652              		.loc 1 223 0 discriminator 1
 653 005e 684B     		ldr	r3, .L32
 654 0060 1868     		ldr	r0, [r3]
 655 0062 07F12401 		add	r1, r7, #36
 656 0066 0023     		movs	r3, #0
 657 0068 4FF0FF32 		mov	r2, #-1
 658 006c FFF7FEFF 		bl	xQueueGenericSend
 224:Data_Storage.c ****         xQueueSendToBack(xQueueControllerData, &testMessage2, portMAX_DELAY);
 659              		.loc 1 224 0 discriminator 1
 660 0070 634B     		ldr	r3, .L32
 661 0072 1868     		ldr	r0, [r3]
 662 0074 07F12001 		add	r1, r7, #32
 663 0078 0023     		movs	r3, #0
 664 007a 4FF0FF32 		mov	r2, #-1
 665 007e FFF7FEFF 		bl	xQueueGenericSend
 225:Data_Storage.c ****         xQueueSendToBack(xQueueControllerData, &testMessage3, portMAX_DELAY);
 666              		.loc 1 225 0 discriminator 1
 667 0082 5F4B     		ldr	r3, .L32
 668 0084 1868     		ldr	r0, [r3]
 669 0086 07F11C01 		add	r1, r7, #28
 670 008a 0023     		movs	r3, #0
 671 008c 4FF0FF32 		mov	r2, #-1
 672 0090 FFF7FEFF 		bl	xQueueGenericSend
 226:Data_Storage.c ****         xQueueSendToBack(xQueueControllerData, &testMessage4, portMAX_DELAY);
 673              		.loc 1 226 0 discriminator 1
 674 0094 5A4B     		ldr	r3, .L32
 675 0096 1868     		ldr	r0, [r3]
 676 0098 07F11801 		add	r1, r7, #24
ARM GAS  C:\Users\mag94\AppData\Local\Temp\ccqW1BIW.s 			page 17


 677 009c 0023     		movs	r3, #0
 678 009e 4FF0FF32 		mov	r2, #-1
 679 00a2 FFF7FEFF 		bl	xQueueGenericSend
 227:Data_Storage.c ****         xQueueSendToBack(xQueueControllerData, &testMessage5, portMAX_DELAY);
 680              		.loc 1 227 0 discriminator 1
 681 00a6 564B     		ldr	r3, .L32
 682 00a8 1868     		ldr	r0, [r3]
 683 00aa 07F11401 		add	r1, r7, #20
 684 00ae 0023     		movs	r3, #0
 685 00b0 4FF0FF32 		mov	r2, #-1
 686 00b4 FFF7FEFF 		bl	xQueueGenericSend
 228:Data_Storage.c ****         xQueueSendToBack(xQueueControllerData, &testMessage6, portMAX_DELAY);
 687              		.loc 1 228 0 discriminator 1
 688 00b8 514B     		ldr	r3, .L32
 689 00ba 1868     		ldr	r0, [r3]
 690 00bc 07F11001 		add	r1, r7, #16
 691 00c0 0023     		movs	r3, #0
 692 00c2 4FF0FF32 		mov	r2, #-1
 693 00c6 FFF7FEFF 		bl	xQueueGenericSend
 229:Data_Storage.c ****         xQueueSendToBack(xQueueControllerData, &testMessage7, portMAX_DELAY);
 694              		.loc 1 229 0 discriminator 1
 695 00ca 4D4B     		ldr	r3, .L32
 696 00cc 1868     		ldr	r0, [r3]
 697 00ce 07F10C01 		add	r1, r7, #12
 698 00d2 0023     		movs	r3, #0
 699 00d4 4FF0FF32 		mov	r2, #-1
 700 00d8 FFF7FEFF 		bl	xQueueGenericSend
 230:Data_Storage.c ****         xQueueSendToBack(xQueueControllerData, &testMessage8, portMAX_DELAY);
 701              		.loc 1 230 0 discriminator 1
 702 00dc 484B     		ldr	r3, .L32
 703 00de 1868     		ldr	r0, [r3]
 704 00e0 07F10801 		add	r1, r7, #8
 705 00e4 0023     		movs	r3, #0
 706 00e6 4FF0FF32 		mov	r2, #-1
 707 00ea FFF7FEFF 		bl	xQueueGenericSend
 231:Data_Storage.c ****         xQueueSendToBack(xQueueControllerData, &testMessage9, portMAX_DELAY);
 708              		.loc 1 231 0 discriminator 1
 709 00ee 444B     		ldr	r3, .L32
 710 00f0 1868     		ldr	r0, [r3]
 711 00f2 391D     		adds	r1, r7, #4
 712 00f4 0023     		movs	r3, #0
 713 00f6 4FF0FF32 		mov	r2, #-1
 714 00fa FFF7FEFF 		bl	xQueueGenericSend
 232:Data_Storage.c ****         
 233:Data_Storage.c ****         xQueueSendToBack(xQueueCentralrequest, &centralRequest, portMAX_DELAY);
 715              		.loc 1 233 0 discriminator 1
 716 00fe 414B     		ldr	r3, .L32+4
 717 0100 1868     		ldr	r0, [r3]
 718 0102 07F13801 		add	r1, r7, #56
 719 0106 0023     		movs	r3, #0
 720 0108 4FF0FF32 		mov	r2, #-1
 721 010c FFF7FEFF 		bl	xQueueGenericSend
 234:Data_Storage.c ****         
 235:Data_Storage.c ****         xQueueReceive(xQueueCentralData, &testData, portMAX_DELAY);
 722              		.loc 1 235 0 discriminator 1
 723 0110 3D4B     		ldr	r3, .L32+8
 724 0112 1B68     		ldr	r3, [r3]
ARM GAS  C:\Users\mag94\AppData\Local\Temp\ccqW1BIW.s 			page 18


 725 0114 07F12801 		add	r1, r7, #40
 726 0118 4FF0FF32 		mov	r2, #-1
 727 011c 1846     		mov	r0, r3
 728 011e FFF7FEFF 		bl	xQueueReceive
 236:Data_Storage.c ****         
 237:Data_Storage.c ****         SW_UART_TEST_USB_PutString("testdata:");
 729              		.loc 1 237 0 discriminator 1
 730 0122 3A48     		ldr	r0, .L32+12
 731 0124 FFF7FEFF 		bl	SW_UART_TEST_USB_PutString
 238:Data_Storage.c ****         SW_UART_TEST_USB_PutString("\n");
 732              		.loc 1 238 0 discriminator 1
 733 0128 3948     		ldr	r0, .L32+16
 734 012a FFF7FEFF 		bl	SW_UART_TEST_USB_PutString
 239:Data_Storage.c ****         SW_UART_TEST_USB_PutHexByte(testData.iPHval);
 735              		.loc 1 239 0 discriminator 1
 736 012e 3B8D     		ldrh	r3, [r7, #40]
 737 0130 DBB2     		uxtb	r3, r3
 738 0132 1846     		mov	r0, r3
 739 0134 FFF7FEFF 		bl	SW_UART_TEST_USB_PutHexByte
 240:Data_Storage.c ****         SW_UART_TEST_USB_PutString("\n");
 740              		.loc 1 240 0 discriminator 1
 741 0138 3548     		ldr	r0, .L32+16
 742 013a FFF7FEFF 		bl	SW_UART_TEST_USB_PutString
 241:Data_Storage.c ****         SW_UART_TEST_USB_PutHexByte(testData.iECval);
 743              		.loc 1 241 0 discriminator 1
 744 013e 7B8D     		ldrh	r3, [r7, #42]
 745 0140 DBB2     		uxtb	r3, r3
 746 0142 1846     		mov	r0, r3
 747 0144 FFF7FEFF 		bl	SW_UART_TEST_USB_PutHexByte
 242:Data_Storage.c ****         SW_UART_TEST_USB_PutString("\n");
 748              		.loc 1 242 0 discriminator 1
 749 0148 3148     		ldr	r0, .L32+16
 750 014a FFF7FEFF 		bl	SW_UART_TEST_USB_PutString
 243:Data_Storage.c ****         SW_UART_TEST_USB_PutHexByte(testData.iWaterT);
 751              		.loc 1 243 0 discriminator 1
 752 014e BB8D     		ldrh	r3, [r7, #44]
 753 0150 DBB2     		uxtb	r3, r3
 754 0152 1846     		mov	r0, r3
 755 0154 FFF7FEFF 		bl	SW_UART_TEST_USB_PutHexByte
 244:Data_Storage.c ****         SW_UART_TEST_USB_PutString("\n");
 756              		.loc 1 244 0 discriminator 1
 757 0158 2D48     		ldr	r0, .L32+16
 758 015a FFF7FEFF 		bl	SW_UART_TEST_USB_PutString
 245:Data_Storage.c ****         SW_UART_TEST_USB_PutHexByte(testData.iWaterF);
 759              		.loc 1 245 0 discriminator 1
 760 015e FB8D     		ldrh	r3, [r7, #46]
 761 0160 DBB2     		uxtb	r3, r3
 762 0162 1846     		mov	r0, r3
 763 0164 FFF7FEFF 		bl	SW_UART_TEST_USB_PutHexByte
 246:Data_Storage.c ****         SW_UART_TEST_USB_PutString("\n");
 764              		.loc 1 246 0 discriminator 1
 765 0168 2948     		ldr	r0, .L32+16
 766 016a FFF7FEFF 		bl	SW_UART_TEST_USB_PutString
 247:Data_Storage.c ****         SW_UART_TEST_USB_PutHexByte(testData.iC02val);
 767              		.loc 1 247 0 discriminator 1
 768 016e 3B8E     		ldrh	r3, [r7, #48]
 769 0170 DBB2     		uxtb	r3, r3
ARM GAS  C:\Users\mag94\AppData\Local\Temp\ccqW1BIW.s 			page 19


 770 0172 1846     		mov	r0, r3
 771 0174 FFF7FEFF 		bl	SW_UART_TEST_USB_PutHexByte
 248:Data_Storage.c ****         SW_UART_TEST_USB_PutString("\n");
 772              		.loc 1 248 0 discriminator 1
 773 0178 2548     		ldr	r0, .L32+16
 774 017a FFF7FEFF 		bl	SW_UART_TEST_USB_PutString
 249:Data_Storage.c ****         SW_UART_TEST_USB_PutHexByte(testData.iTempA);
 775              		.loc 1 249 0 discriminator 1
 776 017e 7B8E     		ldrh	r3, [r7, #50]
 777 0180 DBB2     		uxtb	r3, r3
 778 0182 1846     		mov	r0, r3
 779 0184 FFF7FEFF 		bl	SW_UART_TEST_USB_PutHexByte
 250:Data_Storage.c ****         SW_UART_TEST_USB_PutString("\n");
 780              		.loc 1 250 0 discriminator 1
 781 0188 2148     		ldr	r0, .L32+16
 782 018a FFF7FEFF 		bl	SW_UART_TEST_USB_PutString
 251:Data_Storage.c ****         SW_UART_TEST_USB_PutHexByte(testData.iRHval);
 783              		.loc 1 251 0 discriminator 1
 784 018e BB8E     		ldrh	r3, [r7, #52]
 785 0190 DBB2     		uxtb	r3, r3
 786 0192 1846     		mov	r0, r3
 787 0194 FFF7FEFF 		bl	SW_UART_TEST_USB_PutHexByte
 252:Data_Storage.c ****         SW_UART_TEST_USB_PutString("\n");
 788              		.loc 1 252 0 discriminator 1
 789 0198 1D48     		ldr	r0, .L32+16
 790 019a FFF7FEFF 		bl	SW_UART_TEST_USB_PutString
 253:Data_Storage.c ****         SW_UART_TEST_USB_PutHexByte(testData.iLightValue);
 791              		.loc 1 253 0 discriminator 1
 792 019e FB8E     		ldrh	r3, [r7, #54]
 793 01a0 DBB2     		uxtb	r3, r3
 794 01a2 1846     		mov	r0, r3
 795 01a4 FFF7FEFF 		bl	SW_UART_TEST_USB_PutHexByte
 254:Data_Storage.c ****         SW_UART_TEST_USB_PutString("\n");
 796              		.loc 1 254 0 discriminator 1
 797 01a8 1948     		ldr	r0, .L32+16
 798 01aa FFF7FEFF 		bl	SW_UART_TEST_USB_PutString
 255:Data_Storage.c ****         vTaskDelay(xDelayms);
 799              		.loc 1 255 0 discriminator 1
 800 01ae F86B     		ldr	r0, [r7, #60]
 801 01b0 FFF7FEFF 		bl	vTaskDelay
 256:Data_Storage.c ****         
 257:Data_Storage.c ****         testMessage1.message ++;
 802              		.loc 1 257 0 discriminator 1
 803 01b4 FB8C     		ldrh	r3, [r7, #38]
 804 01b6 0133     		adds	r3, r3, #1
 805 01b8 9BB2     		uxth	r3, r3
 806 01ba FB84     		strh	r3, [r7, #38]	@ movhi
 258:Data_Storage.c ****         testMessage2.message ++;
 807              		.loc 1 258 0 discriminator 1
 808 01bc 7B8C     		ldrh	r3, [r7, #34]
 809 01be 0133     		adds	r3, r3, #1
 810 01c0 9BB2     		uxth	r3, r3
 811 01c2 7B84     		strh	r3, [r7, #34]	@ movhi
 259:Data_Storage.c ****         testMessage3.message ++;
 812              		.loc 1 259 0 discriminator 1
 813 01c4 FB8B     		ldrh	r3, [r7, #30]
 814 01c6 0133     		adds	r3, r3, #1
ARM GAS  C:\Users\mag94\AppData\Local\Temp\ccqW1BIW.s 			page 20


 815 01c8 9BB2     		uxth	r3, r3
 816 01ca FB83     		strh	r3, [r7, #30]	@ movhi
 260:Data_Storage.c ****         testMessage4.message ++;
 817              		.loc 1 260 0 discriminator 1
 818 01cc 7B8B     		ldrh	r3, [r7, #26]
 819 01ce 0133     		adds	r3, r3, #1
 820 01d0 9BB2     		uxth	r3, r3
 821 01d2 7B83     		strh	r3, [r7, #26]	@ movhi
 261:Data_Storage.c ****         testMessage5.message ++;
 822              		.loc 1 261 0 discriminator 1
 823 01d4 FB8A     		ldrh	r3, [r7, #22]
 824 01d6 0133     		adds	r3, r3, #1
 825 01d8 9BB2     		uxth	r3, r3
 826 01da FB82     		strh	r3, [r7, #22]	@ movhi
 262:Data_Storage.c ****         testMessage6.message ++;
 827              		.loc 1 262 0 discriminator 1
 828 01dc 7B8A     		ldrh	r3, [r7, #18]
 829 01de 0133     		adds	r3, r3, #1
 830 01e0 9BB2     		uxth	r3, r3
 831 01e2 7B82     		strh	r3, [r7, #18]	@ movhi
 263:Data_Storage.c ****         testMessage7.message ++;
 832              		.loc 1 263 0 discriminator 1
 833 01e4 FB89     		ldrh	r3, [r7, #14]
 834 01e6 0133     		adds	r3, r3, #1
 835 01e8 9BB2     		uxth	r3, r3
 836 01ea FB81     		strh	r3, [r7, #14]	@ movhi
 264:Data_Storage.c ****         testMessage8.message ++;
 837              		.loc 1 264 0 discriminator 1
 838 01ec 7B89     		ldrh	r3, [r7, #10]
 839 01ee 0133     		adds	r3, r3, #1
 840 01f0 9BB2     		uxth	r3, r3
 841 01f2 7B81     		strh	r3, [r7, #10]	@ movhi
 265:Data_Storage.c ****         testMessage9.message ++;
 842              		.loc 1 265 0 discriminator 1
 843 01f4 FB88     		ldrh	r3, [r7, #6]
 844 01f6 0133     		adds	r3, r3, #1
 845 01f8 9BB2     		uxth	r3, r3
 846 01fa FB80     		strh	r3, [r7, #6]	@ movhi
 266:Data_Storage.c ****     }    
 847              		.loc 1 266 0 discriminator 1
 848 01fc 2FE7     		b	.L31
 849              	.L33:
 850 01fe 00BF     		.align	2
 851              	.L32:
 852 0200 00000000 		.word	xQueueControllerData
 853 0204 00000000 		.word	xQueueCentralrequest
 854 0208 00000000 		.word	xQueueCentralData
 855 020c 2C000000 		.word	.LC3
 856 0210 38000000 		.word	.LC4
 857              		.cfi_endproc
 858              	.LFE73:
 859              		.size	vTaskTestData, .-vTaskTestData
 860              		.text
 861              	.Letext0:
 862              		.file 2 "c:\\program files (x86)\\cypress\\psoc creator\\4.3\\psoc creator\\import\\gnu\\arm\\5.4.
 863              		.file 3 "c:\\program files (x86)\\cypress\\psoc creator\\4.3\\psoc creator\\import\\gnu\\arm\\5.4.
 864              		.file 4 "Generated_Source\\PSoC5/cytypes.h"
ARM GAS  C:\Users\mag94\AppData\Local\Temp\ccqW1BIW.s 			page 21


 865              		.file 5 "Generated_Source\\PSoC5/DS18x8.h"
 866              		.file 6 ".\\Source\\portable\\GCC\\ARM_CM3/portmacro.h"
 867              		.file 7 ".\\Source\\include/queue.h"
 868              		.file 8 "Generated_Source\\PSoC5/core_cm3.h"