ARM GAS  C:\Users\mikke\AppData\Local\Temp\ccEsOBjK.s 			page 1


   1              		.syntax unified
   2              		.cpu cortex-m3
   3              		.fpu softvfp
   4              		.eabi_attribute 20, 1
   5              		.eabi_attribute 21, 1
   6              		.eabi_attribute 23, 3
   7              		.eabi_attribute 24, 1
   8              		.eabi_attribute 25, 1
   9              		.eabi_attribute 26, 1
  10              		.eabi_attribute 30, 6
  11              		.eabi_attribute 34, 1
  12              		.eabi_attribute 18, 4
  13              		.thumb
  14              		.syntax unified
  15              		.file	"heap_2.c"
  16              		.text
  17              	.Ltext0:
  18              		.cfi_sections	.debug_frame
  19              		.bss
  20              		.align	2
  21              	ucHeap:
  22 0000 00000000 		.space	32768
  22      00000000 
  22      00000000 
  22      00000000 
  22      00000000 
  23              		.section	.rodata
  24              		.align	1
  25              		.type	heapSTRUCT_SIZE, %object
  26              		.size	heapSTRUCT_SIZE, 2
  27              	heapSTRUCT_SIZE:
  28 0000 0800     		.short	8
  29              		.bss
  30              		.align	2
  31              	xStart:
  32 8000 00000000 		.space	8
  32      00000000 
  33              		.align	2
  34              	xEnd:
  35 8008 00000000 		.space	8
  35      00000000 
  36              		.data
  37              		.align	2
  38              		.type	xFreeBytesRemaining, %object
  39              		.size	xFreeBytesRemaining, 4
  40              	xFreeBytesRemaining:
  41 0000 F87F0000 		.word	32760
  42              		.section	.text.pvPortMalloc,"ax",%progbits
  43              		.align	2
  44              		.global	pvPortMalloc
  45              		.thumb
  46              		.thumb_func
  47              		.type	pvPortMalloc, %function
  48              	pvPortMalloc:
  49              	.LFB68:
  50              		.file 1 "Source\\portable\\MemMang\\heap_2.c"
   1:Source\portable\MemMang/heap_2.c **** /*
ARM GAS  C:\Users\mikke\AppData\Local\Temp\ccEsOBjK.s 			page 2


   2:Source\portable\MemMang/heap_2.c ****  * FreeRTOS Kernel V10.3.1
   3:Source\portable\MemMang/heap_2.c ****  * Copyright (C) 2020 Amazon.com, Inc. or its affiliates.  All Rights Reserved.
   4:Source\portable\MemMang/heap_2.c ****  *
   5:Source\portable\MemMang/heap_2.c ****  * Permission is hereby granted, free of charge, to any person obtaining a copy of
   6:Source\portable\MemMang/heap_2.c ****  * this software and associated documentation files (the "Software"), to deal in
   7:Source\portable\MemMang/heap_2.c ****  * the Software without restriction, including without limitation the rights to
   8:Source\portable\MemMang/heap_2.c ****  * use, copy, modify, merge, publish, distribute, sublicense, and/or sell copies of
   9:Source\portable\MemMang/heap_2.c ****  * the Software, and to permit persons to whom the Software is furnished to do so,
  10:Source\portable\MemMang/heap_2.c ****  * subject to the following conditions:
  11:Source\portable\MemMang/heap_2.c ****  *
  12:Source\portable\MemMang/heap_2.c ****  * The above copyright notice and this permission notice shall be included in all
  13:Source\portable\MemMang/heap_2.c ****  * copies or substantial portions of the Software.
  14:Source\portable\MemMang/heap_2.c ****  *
  15:Source\portable\MemMang/heap_2.c ****  * THE SOFTWARE IS PROVIDED "AS IS", WITHOUT WARRANTY OF ANY KIND, EXPRESS OR
  16:Source\portable\MemMang/heap_2.c ****  * IMPLIED, INCLUDING BUT NOT LIMITED TO THE WARRANTIES OF MERCHANTABILITY, FITNESS
  17:Source\portable\MemMang/heap_2.c ****  * FOR A PARTICULAR PURPOSE AND NONINFRINGEMENT. IN NO EVENT SHALL THE AUTHORS OR
  18:Source\portable\MemMang/heap_2.c ****  * COPYRIGHT HOLDERS BE LIABLE FOR ANY CLAIM, DAMAGES OR OTHER LIABILITY, WHETHER
  19:Source\portable\MemMang/heap_2.c ****  * IN AN ACTION OF CONTRACT, TORT OR OTHERWISE, ARISING FROM, OUT OF OR IN
  20:Source\portable\MemMang/heap_2.c ****  * CONNECTION WITH THE SOFTWARE OR THE USE OR OTHER DEALINGS IN THE SOFTWARE.
  21:Source\portable\MemMang/heap_2.c ****  *
  22:Source\portable\MemMang/heap_2.c ****  * http://www.FreeRTOS.org
  23:Source\portable\MemMang/heap_2.c ****  * http://aws.amazon.com/freertos
  24:Source\portable\MemMang/heap_2.c ****  *
  25:Source\portable\MemMang/heap_2.c ****  * 1 tab == 4 spaces!
  26:Source\portable\MemMang/heap_2.c ****  */
  27:Source\portable\MemMang/heap_2.c **** 
  28:Source\portable\MemMang/heap_2.c **** /*
  29:Source\portable\MemMang/heap_2.c ****  * A sample implementation of pvPortMalloc() and vPortFree() that permits
  30:Source\portable\MemMang/heap_2.c ****  * allocated blocks to be freed, but does not combine adjacent free blocks
  31:Source\portable\MemMang/heap_2.c ****  * into a single larger block (and so will fragment memory).  See heap_4.c for
  32:Source\portable\MemMang/heap_2.c ****  * an equivalent that does combine adjacent blocks into single larger blocks.
  33:Source\portable\MemMang/heap_2.c ****  *
  34:Source\portable\MemMang/heap_2.c ****  * See heap_1.c, heap_3.c and heap_4.c for alternative implementations, and the
  35:Source\portable\MemMang/heap_2.c ****  * memory management pages of http://www.FreeRTOS.org for more information.
  36:Source\portable\MemMang/heap_2.c ****  */
  37:Source\portable\MemMang/heap_2.c **** #include <stdlib.h>
  38:Source\portable\MemMang/heap_2.c **** 
  39:Source\portable\MemMang/heap_2.c **** /* Defining MPU_WRAPPERS_INCLUDED_FROM_API_FILE prevents task.h from redefining
  40:Source\portable\MemMang/heap_2.c **** all the API functions to use the MPU wrappers.  That should only be done when
  41:Source\portable\MemMang/heap_2.c **** task.h is included from an application file. */
  42:Source\portable\MemMang/heap_2.c **** #define MPU_WRAPPERS_INCLUDED_FROM_API_FILE
  43:Source\portable\MemMang/heap_2.c **** 
  44:Source\portable\MemMang/heap_2.c **** #include "FreeRTOS.h"
  45:Source\portable\MemMang/heap_2.c **** #include "task.h"
  46:Source\portable\MemMang/heap_2.c **** 
  47:Source\portable\MemMang/heap_2.c **** #undef MPU_WRAPPERS_INCLUDED_FROM_API_FILE
  48:Source\portable\MemMang/heap_2.c **** 
  49:Source\portable\MemMang/heap_2.c **** #if( configSUPPORT_DYNAMIC_ALLOCATION == 0 )
  50:Source\portable\MemMang/heap_2.c **** 	#error This file must not be used if configSUPPORT_DYNAMIC_ALLOCATION is 0
  51:Source\portable\MemMang/heap_2.c **** #endif
  52:Source\portable\MemMang/heap_2.c **** 
  53:Source\portable\MemMang/heap_2.c **** /* A few bytes might be lost to byte aligning the heap start address. */
  54:Source\portable\MemMang/heap_2.c **** #define configADJUSTED_HEAP_SIZE	( configTOTAL_HEAP_SIZE - portBYTE_ALIGNMENT )
  55:Source\portable\MemMang/heap_2.c **** 
  56:Source\portable\MemMang/heap_2.c **** /*
  57:Source\portable\MemMang/heap_2.c ****  * Initialises the heap structures before their first use.
  58:Source\portable\MemMang/heap_2.c ****  */
ARM GAS  C:\Users\mikke\AppData\Local\Temp\ccEsOBjK.s 			page 3


  59:Source\portable\MemMang/heap_2.c **** static void prvHeapInit( void );
  60:Source\portable\MemMang/heap_2.c **** 
  61:Source\portable\MemMang/heap_2.c **** /* Allocate the memory for the heap. */
  62:Source\portable\MemMang/heap_2.c **** #if( configAPPLICATION_ALLOCATED_HEAP == 1 )
  63:Source\portable\MemMang/heap_2.c **** 	/* The application writer has already defined the array used for the RTOS
  64:Source\portable\MemMang/heap_2.c **** 	heap - probably so it can be placed in a special segment or address. */
  65:Source\portable\MemMang/heap_2.c **** 	extern uint8_t ucHeap[ configTOTAL_HEAP_SIZE ];
  66:Source\portable\MemMang/heap_2.c **** #else
  67:Source\portable\MemMang/heap_2.c **** 	static uint8_t ucHeap[ configTOTAL_HEAP_SIZE ];
  68:Source\portable\MemMang/heap_2.c **** #endif /* configAPPLICATION_ALLOCATED_HEAP */
  69:Source\portable\MemMang/heap_2.c **** 
  70:Source\portable\MemMang/heap_2.c **** 
  71:Source\portable\MemMang/heap_2.c **** /* Define the linked list structure.  This is used to link free blocks in order
  72:Source\portable\MemMang/heap_2.c **** of their size. */
  73:Source\portable\MemMang/heap_2.c **** typedef struct A_BLOCK_LINK
  74:Source\portable\MemMang/heap_2.c **** {
  75:Source\portable\MemMang/heap_2.c **** 	struct A_BLOCK_LINK *pxNextFreeBlock;	/*<< The next free block in the list. */
  76:Source\portable\MemMang/heap_2.c **** 	size_t xBlockSize;						/*<< The size of the free block. */
  77:Source\portable\MemMang/heap_2.c **** } BlockLink_t;
  78:Source\portable\MemMang/heap_2.c **** 
  79:Source\portable\MemMang/heap_2.c **** 
  80:Source\portable\MemMang/heap_2.c **** static const uint16_t heapSTRUCT_SIZE	= ( ( sizeof ( BlockLink_t ) + ( portBYTE_ALIGNMENT - 1 ) ) &
  81:Source\portable\MemMang/heap_2.c **** #define heapMINIMUM_BLOCK_SIZE	( ( size_t ) ( heapSTRUCT_SIZE * 2 ) )
  82:Source\portable\MemMang/heap_2.c **** 
  83:Source\portable\MemMang/heap_2.c **** /* Create a couple of list links to mark the start and end of the list. */
  84:Source\portable\MemMang/heap_2.c **** static BlockLink_t xStart, xEnd;
  85:Source\portable\MemMang/heap_2.c **** 
  86:Source\portable\MemMang/heap_2.c **** /* Keeps track of the number of free bytes remaining, but says nothing about
  87:Source\portable\MemMang/heap_2.c **** fragmentation. */
  88:Source\portable\MemMang/heap_2.c **** static size_t xFreeBytesRemaining = configADJUSTED_HEAP_SIZE;
  89:Source\portable\MemMang/heap_2.c **** 
  90:Source\portable\MemMang/heap_2.c **** /* STATIC FUNCTIONS ARE DEFINED AS MACROS TO MINIMIZE THE FUNCTION CALL DEPTH. */
  91:Source\portable\MemMang/heap_2.c **** 
  92:Source\portable\MemMang/heap_2.c **** /*
  93:Source\portable\MemMang/heap_2.c ****  * Insert a block into the list of free blocks - which is ordered by size of
  94:Source\portable\MemMang/heap_2.c ****  * the block.  Small blocks at the start of the list and large blocks at the end
  95:Source\portable\MemMang/heap_2.c ****  * of the list.
  96:Source\portable\MemMang/heap_2.c ****  */
  97:Source\portable\MemMang/heap_2.c **** #define prvInsertBlockIntoFreeList( pxBlockToInsert )								\
  98:Source\portable\MemMang/heap_2.c **** {																					\
  99:Source\portable\MemMang/heap_2.c **** BlockLink_t *pxIterator;															\
 100:Source\portable\MemMang/heap_2.c **** size_t xBlockSize;																	\
 101:Source\portable\MemMang/heap_2.c **** 																					\
 102:Source\portable\MemMang/heap_2.c **** 	xBlockSize = pxBlockToInsert->xBlockSize;										\
 103:Source\portable\MemMang/heap_2.c **** 																					\
 104:Source\portable\MemMang/heap_2.c **** 	/* Iterate through the list until a block is found that has a larger size */	\
 105:Source\portable\MemMang/heap_2.c **** 	/* than the block we are inserting. */											\
 106:Source\portable\MemMang/heap_2.c **** 	for( pxIterator = &xStart; pxIterator->pxNextFreeBlock->xBlockSize < xBlockSize; pxIterator = pxIt
 107:Source\portable\MemMang/heap_2.c **** 	{																				\
 108:Source\portable\MemMang/heap_2.c **** 		/* There is nothing to do here - just iterate to the correct position. */	\
 109:Source\portable\MemMang/heap_2.c **** 	}																				\
 110:Source\portable\MemMang/heap_2.c **** 																					\
 111:Source\portable\MemMang/heap_2.c **** 	/* Update the list to include the block being inserted in the correct */		\
 112:Source\portable\MemMang/heap_2.c **** 	/* position. */																	\
 113:Source\portable\MemMang/heap_2.c **** 	pxBlockToInsert->pxNextFreeBlock = pxIterator->pxNextFreeBlock;					\
 114:Source\portable\MemMang/heap_2.c **** 	pxIterator->pxNextFreeBlock = pxBlockToInsert;									\
 115:Source\portable\MemMang/heap_2.c **** }
ARM GAS  C:\Users\mikke\AppData\Local\Temp\ccEsOBjK.s 			page 4


 116:Source\portable\MemMang/heap_2.c **** /*-----------------------------------------------------------*/
 117:Source\portable\MemMang/heap_2.c **** 
 118:Source\portable\MemMang/heap_2.c **** void *pvPortMalloc( size_t xWantedSize )
 119:Source\portable\MemMang/heap_2.c **** {
  51              		.loc 1 119 0
  52              		.cfi_startproc
  53              		@ args = 0, pretend = 0, frame = 32
  54              		@ frame_needed = 1, uses_anonymous_args = 0
  55 0000 80B5     		push	{r7, lr}
  56              		.cfi_def_cfa_offset 8
  57              		.cfi_offset 7, -8
  58              		.cfi_offset 14, -4
  59 0002 88B0     		sub	sp, sp, #32
  60              		.cfi_def_cfa_offset 40
  61 0004 00AF     		add	r7, sp, #0
  62              		.cfi_def_cfa_register 7
  63 0006 7860     		str	r0, [r7, #4]
 120:Source\portable\MemMang/heap_2.c **** BlockLink_t *pxBlock, *pxPreviousBlock, *pxNewBlockLink;
 121:Source\portable\MemMang/heap_2.c **** static BaseType_t xHeapHasBeenInitialised = pdFALSE;
 122:Source\portable\MemMang/heap_2.c **** void *pvReturn = NULL;
  64              		.loc 1 122 0
  65 0008 0023     		movs	r3, #0
  66 000a 7B61     		str	r3, [r7, #20]
 123:Source\portable\MemMang/heap_2.c **** 
 124:Source\portable\MemMang/heap_2.c **** 	vTaskSuspendAll();
  67              		.loc 1 124 0
  68 000c FFF7FEFF 		bl	vTaskSuspendAll
 125:Source\portable\MemMang/heap_2.c **** 	{
 126:Source\portable\MemMang/heap_2.c **** 		/* If this is the first call to malloc then the heap will require
 127:Source\portable\MemMang/heap_2.c **** 		initialisation to setup the list of free blocks. */
 128:Source\portable\MemMang/heap_2.c **** 		if( xHeapHasBeenInitialised == pdFALSE )
  69              		.loc 1 128 0
  70 0010 404B     		ldr	r3, .L13
  71 0012 1B68     		ldr	r3, [r3]
  72 0014 002B     		cmp	r3, #0
  73 0016 04D1     		bne	.L2
 129:Source\portable\MemMang/heap_2.c **** 		{
 130:Source\portable\MemMang/heap_2.c **** 			prvHeapInit();
  74              		.loc 1 130 0
  75 0018 FFF7FEFF 		bl	prvHeapInit
 131:Source\portable\MemMang/heap_2.c **** 			xHeapHasBeenInitialised = pdTRUE;
  76              		.loc 1 131 0
  77 001c 3D4B     		ldr	r3, .L13
  78 001e 0122     		movs	r2, #1
  79 0020 1A60     		str	r2, [r3]
  80              	.L2:
 132:Source\portable\MemMang/heap_2.c **** 		}
 133:Source\portable\MemMang/heap_2.c **** 
 134:Source\portable\MemMang/heap_2.c **** 		/* The wanted size is increased so it can contain a BlockLink_t
 135:Source\portable\MemMang/heap_2.c **** 		structure in addition to the requested amount of bytes. */
 136:Source\portable\MemMang/heap_2.c **** 		if( xWantedSize > 0 )
  81              		.loc 1 136 0
  82 0022 7B68     		ldr	r3, [r7, #4]
  83 0024 002B     		cmp	r3, #0
  84 0026 0ED0     		beq	.L3
 137:Source\portable\MemMang/heap_2.c **** 		{
 138:Source\portable\MemMang/heap_2.c **** 			xWantedSize += heapSTRUCT_SIZE;
ARM GAS  C:\Users\mikke\AppData\Local\Temp\ccEsOBjK.s 			page 5


  85              		.loc 1 138 0
  86 0028 0823     		movs	r3, #8
  87 002a 1A46     		mov	r2, r3
  88 002c 7B68     		ldr	r3, [r7, #4]
  89 002e 1344     		add	r3, r3, r2
  90 0030 7B60     		str	r3, [r7, #4]
 139:Source\portable\MemMang/heap_2.c **** 
 140:Source\portable\MemMang/heap_2.c **** 			/* Ensure that blocks are always aligned to the required number of bytes. */
 141:Source\portable\MemMang/heap_2.c **** 			if( ( xWantedSize & portBYTE_ALIGNMENT_MASK ) != 0 )
  91              		.loc 1 141 0
  92 0032 7B68     		ldr	r3, [r7, #4]
  93 0034 03F00703 		and	r3, r3, #7
  94 0038 002B     		cmp	r3, #0
  95 003a 04D0     		beq	.L3
 142:Source\portable\MemMang/heap_2.c **** 			{
 143:Source\portable\MemMang/heap_2.c **** 				/* Byte alignment required. */
 144:Source\portable\MemMang/heap_2.c **** 				xWantedSize += ( portBYTE_ALIGNMENT - ( xWantedSize & portBYTE_ALIGNMENT_MASK ) );
  96              		.loc 1 144 0
  97 003c 7B68     		ldr	r3, [r7, #4]
  98 003e 23F00703 		bic	r3, r3, #7
  99 0042 0833     		adds	r3, r3, #8
 100 0044 7B60     		str	r3, [r7, #4]
 101              	.L3:
 145:Source\portable\MemMang/heap_2.c **** 			}
 146:Source\portable\MemMang/heap_2.c **** 		}
 147:Source\portable\MemMang/heap_2.c **** 
 148:Source\portable\MemMang/heap_2.c **** 		if( ( xWantedSize > 0 ) && ( xWantedSize < configADJUSTED_HEAP_SIZE ) )
 102              		.loc 1 148 0
 103 0046 7B68     		ldr	r3, [r7, #4]
 104 0048 002B     		cmp	r3, #0
 105 004a 57D0     		beq	.L4
 106              		.loc 1 148 0 is_stmt 0 discriminator 1
 107 004c 7B68     		ldr	r3, [r7, #4]
 108 004e 47F6F772 		movw	r2, #32759
 109 0052 9342     		cmp	r3, r2
 110 0054 52D8     		bhi	.L4
 149:Source\portable\MemMang/heap_2.c **** 		{
 150:Source\portable\MemMang/heap_2.c **** 			/* Blocks are stored in byte order - traverse the list from the start
 151:Source\portable\MemMang/heap_2.c **** 			(smallest) block until one of adequate size is found. */
 152:Source\portable\MemMang/heap_2.c **** 			pxPreviousBlock = &xStart;
 111              		.loc 1 152 0 is_stmt 1
 112 0056 304B     		ldr	r3, .L13+4
 113 0058 BB61     		str	r3, [r7, #24]
 153:Source\portable\MemMang/heap_2.c **** 			pxBlock = xStart.pxNextFreeBlock;
 114              		.loc 1 153 0
 115 005a 2F4B     		ldr	r3, .L13+4
 116 005c 1B68     		ldr	r3, [r3]
 117 005e FB61     		str	r3, [r7, #28]
 154:Source\portable\MemMang/heap_2.c **** 			while( ( pxBlock->xBlockSize < xWantedSize ) && ( pxBlock->pxNextFreeBlock != NULL ) )
 118              		.loc 1 154 0
 119 0060 04E0     		b	.L5
 120              	.L7:
 155:Source\portable\MemMang/heap_2.c **** 			{
 156:Source\portable\MemMang/heap_2.c **** 				pxPreviousBlock = pxBlock;
 121              		.loc 1 156 0
 122 0062 FB69     		ldr	r3, [r7, #28]
 123 0064 BB61     		str	r3, [r7, #24]
ARM GAS  C:\Users\mikke\AppData\Local\Temp\ccEsOBjK.s 			page 6


 157:Source\portable\MemMang/heap_2.c **** 				pxBlock = pxBlock->pxNextFreeBlock;
 124              		.loc 1 157 0
 125 0066 FB69     		ldr	r3, [r7, #28]
 126 0068 1B68     		ldr	r3, [r3]
 127 006a FB61     		str	r3, [r7, #28]
 128              	.L5:
 154:Source\portable\MemMang/heap_2.c **** 			while( ( pxBlock->xBlockSize < xWantedSize ) && ( pxBlock->pxNextFreeBlock != NULL ) )
 129              		.loc 1 154 0
 130 006c FB69     		ldr	r3, [r7, #28]
 131 006e 5A68     		ldr	r2, [r3, #4]
 132 0070 7B68     		ldr	r3, [r7, #4]
 133 0072 9A42     		cmp	r2, r3
 134 0074 03D2     		bcs	.L6
 154:Source\portable\MemMang/heap_2.c **** 			while( ( pxBlock->xBlockSize < xWantedSize ) && ( pxBlock->pxNextFreeBlock != NULL ) )
 135              		.loc 1 154 0 is_stmt 0 discriminator 1
 136 0076 FB69     		ldr	r3, [r7, #28]
 137 0078 1B68     		ldr	r3, [r3]
 138 007a 002B     		cmp	r3, #0
 139 007c F1D1     		bne	.L7
 140              	.L6:
 158:Source\portable\MemMang/heap_2.c **** 			}
 159:Source\portable\MemMang/heap_2.c **** 
 160:Source\portable\MemMang/heap_2.c **** 			/* If we found the end marker then a block of adequate size was not found. */
 161:Source\portable\MemMang/heap_2.c **** 			if( pxBlock != &xEnd )
 141              		.loc 1 161 0 is_stmt 1
 142 007e FB69     		ldr	r3, [r7, #28]
 143 0080 264A     		ldr	r2, .L13+8
 144 0082 9342     		cmp	r3, r2
 145 0084 3AD0     		beq	.L4
 162:Source\portable\MemMang/heap_2.c **** 			{
 163:Source\portable\MemMang/heap_2.c **** 				/* Return the memory space - jumping over the BlockLink_t structure
 164:Source\portable\MemMang/heap_2.c **** 				at its start. */
 165:Source\portable\MemMang/heap_2.c **** 				pvReturn = ( void * ) ( ( ( uint8_t * ) pxPreviousBlock->pxNextFreeBlock ) + heapSTRUCT_SIZE );
 146              		.loc 1 165 0
 147 0086 BB69     		ldr	r3, [r7, #24]
 148 0088 1B68     		ldr	r3, [r3]
 149 008a 0822     		movs	r2, #8
 150 008c 1344     		add	r3, r3, r2
 151 008e 7B61     		str	r3, [r7, #20]
 166:Source\portable\MemMang/heap_2.c **** 
 167:Source\portable\MemMang/heap_2.c **** 				/* This block is being returned for use so must be taken out of the
 168:Source\portable\MemMang/heap_2.c **** 				list of free blocks. */
 169:Source\portable\MemMang/heap_2.c **** 				pxPreviousBlock->pxNextFreeBlock = pxBlock->pxNextFreeBlock;
 152              		.loc 1 169 0
 153 0090 FB69     		ldr	r3, [r7, #28]
 154 0092 1A68     		ldr	r2, [r3]
 155 0094 BB69     		ldr	r3, [r7, #24]
 156 0096 1A60     		str	r2, [r3]
 170:Source\portable\MemMang/heap_2.c **** 
 171:Source\portable\MemMang/heap_2.c **** 				/* If the block is larger than required it can be split into two. */
 172:Source\portable\MemMang/heap_2.c **** 				if( ( pxBlock->xBlockSize - xWantedSize ) > heapMINIMUM_BLOCK_SIZE )
 157              		.loc 1 172 0
 158 0098 FB69     		ldr	r3, [r7, #28]
 159 009a 5A68     		ldr	r2, [r3, #4]
 160 009c 7B68     		ldr	r3, [r7, #4]
 161 009e D31A     		subs	r3, r2, r3
 162 00a0 0822     		movs	r2, #8
ARM GAS  C:\Users\mikke\AppData\Local\Temp\ccEsOBjK.s 			page 7


 163 00a2 5200     		lsls	r2, r2, #1
 164 00a4 9342     		cmp	r3, r2
 165 00a6 22D9     		bls	.L8
 173:Source\portable\MemMang/heap_2.c **** 				{
 174:Source\portable\MemMang/heap_2.c **** 					/* This block is to be split into two.  Create a new block
 175:Source\portable\MemMang/heap_2.c **** 					following the number of bytes requested. The void cast is
 176:Source\portable\MemMang/heap_2.c **** 					used to prevent byte alignment warnings from the compiler. */
 177:Source\portable\MemMang/heap_2.c **** 					pxNewBlockLink = ( void * ) ( ( ( uint8_t * ) pxBlock ) + xWantedSize );
 166              		.loc 1 177 0
 167 00a8 FA69     		ldr	r2, [r7, #28]
 168 00aa 7B68     		ldr	r3, [r7, #4]
 169 00ac 1344     		add	r3, r3, r2
 170 00ae FB60     		str	r3, [r7, #12]
 178:Source\portable\MemMang/heap_2.c **** 
 179:Source\portable\MemMang/heap_2.c **** 					/* Calculate the sizes of two blocks split from the single
 180:Source\portable\MemMang/heap_2.c **** 					block. */
 181:Source\portable\MemMang/heap_2.c **** 					pxNewBlockLink->xBlockSize = pxBlock->xBlockSize - xWantedSize;
 171              		.loc 1 181 0
 172 00b0 FB69     		ldr	r3, [r7, #28]
 173 00b2 5A68     		ldr	r2, [r3, #4]
 174 00b4 7B68     		ldr	r3, [r7, #4]
 175 00b6 D21A     		subs	r2, r2, r3
 176 00b8 FB68     		ldr	r3, [r7, #12]
 177 00ba 5A60     		str	r2, [r3, #4]
 182:Source\portable\MemMang/heap_2.c **** 					pxBlock->xBlockSize = xWantedSize;
 178              		.loc 1 182 0
 179 00bc FB69     		ldr	r3, [r7, #28]
 180 00be 7A68     		ldr	r2, [r7, #4]
 181 00c0 5A60     		str	r2, [r3, #4]
 182              	.LBB2:
 183:Source\portable\MemMang/heap_2.c **** 
 184:Source\portable\MemMang/heap_2.c **** 					/* Insert the new block into the list of free blocks. */
 185:Source\portable\MemMang/heap_2.c **** 					prvInsertBlockIntoFreeList( ( pxNewBlockLink ) );
 183              		.loc 1 185 0
 184 00c2 FB68     		ldr	r3, [r7, #12]
 185 00c4 5B68     		ldr	r3, [r3, #4]
 186 00c6 BB60     		str	r3, [r7, #8]
 187 00c8 134B     		ldr	r3, .L13+4
 188 00ca 3B61     		str	r3, [r7, #16]
 189 00cc 02E0     		b	.L9
 190              	.L10:
 191              		.loc 1 185 0 is_stmt 0 discriminator 3
 192 00ce 3B69     		ldr	r3, [r7, #16]
 193 00d0 1B68     		ldr	r3, [r3]
 194 00d2 3B61     		str	r3, [r7, #16]
 195              	.L9:
 196              		.loc 1 185 0 discriminator 1
 197 00d4 3B69     		ldr	r3, [r7, #16]
 198 00d6 1B68     		ldr	r3, [r3]
 199 00d8 5A68     		ldr	r2, [r3, #4]
 200 00da BB68     		ldr	r3, [r7, #8]
 201 00dc 9A42     		cmp	r2, r3
 202 00de F6D3     		bcc	.L10
 203              		.loc 1 185 0 discriminator 4
 204 00e0 3B69     		ldr	r3, [r7, #16]
 205 00e2 1A68     		ldr	r2, [r3]
 206 00e4 FB68     		ldr	r3, [r7, #12]
ARM GAS  C:\Users\mikke\AppData\Local\Temp\ccEsOBjK.s 			page 8


 207 00e6 1A60     		str	r2, [r3]
 208 00e8 3B69     		ldr	r3, [r7, #16]
 209 00ea FA68     		ldr	r2, [r7, #12]
 210 00ec 1A60     		str	r2, [r3]
 211              	.L8:
 212              	.LBE2:
 186:Source\portable\MemMang/heap_2.c **** 				}
 187:Source\portable\MemMang/heap_2.c **** 
 188:Source\portable\MemMang/heap_2.c **** 				xFreeBytesRemaining -= pxBlock->xBlockSize;
 213              		.loc 1 188 0 is_stmt 1
 214 00ee 0C4B     		ldr	r3, .L13+12
 215 00f0 1A68     		ldr	r2, [r3]
 216 00f2 FB69     		ldr	r3, [r7, #28]
 217 00f4 5B68     		ldr	r3, [r3, #4]
 218 00f6 D31A     		subs	r3, r2, r3
 219 00f8 094A     		ldr	r2, .L13+12
 220 00fa 1360     		str	r3, [r2]
 221              	.L4:
 189:Source\portable\MemMang/heap_2.c **** 			}
 190:Source\portable\MemMang/heap_2.c **** 		}
 191:Source\portable\MemMang/heap_2.c **** 
 192:Source\portable\MemMang/heap_2.c **** 		traceMALLOC( pvReturn, xWantedSize );
 193:Source\portable\MemMang/heap_2.c **** 	}
 194:Source\portable\MemMang/heap_2.c **** 	( void ) xTaskResumeAll();
 222              		.loc 1 194 0
 223 00fc FFF7FEFF 		bl	xTaskResumeAll
 195:Source\portable\MemMang/heap_2.c **** 
 196:Source\portable\MemMang/heap_2.c **** 	#if( configUSE_MALLOC_FAILED_HOOK == 1 )
 197:Source\portable\MemMang/heap_2.c **** 	{
 198:Source\portable\MemMang/heap_2.c **** 		if( pvReturn == NULL )
 224              		.loc 1 198 0
 225 0100 7B69     		ldr	r3, [r7, #20]
 226 0102 002B     		cmp	r3, #0
 227 0104 01D1     		bne	.L11
 228              	.LBB3:
 199:Source\portable\MemMang/heap_2.c **** 		{
 200:Source\portable\MemMang/heap_2.c **** 			extern void vApplicationMallocFailedHook( void );
 201:Source\portable\MemMang/heap_2.c **** 			vApplicationMallocFailedHook();
 229              		.loc 1 201 0
 230 0106 FFF7FEFF 		bl	vApplicationMallocFailedHook
 231              	.L11:
 232              	.LBE3:
 202:Source\portable\MemMang/heap_2.c **** 		}
 203:Source\portable\MemMang/heap_2.c **** 	}
 204:Source\portable\MemMang/heap_2.c **** 	#endif
 205:Source\portable\MemMang/heap_2.c **** 
 206:Source\portable\MemMang/heap_2.c **** 	return pvReturn;
 233              		.loc 1 206 0
 234 010a 7B69     		ldr	r3, [r7, #20]
 207:Source\portable\MemMang/heap_2.c **** }
 235              		.loc 1 207 0
 236 010c 1846     		mov	r0, r3
 237 010e 2037     		adds	r7, r7, #32
 238              		.cfi_def_cfa_offset 8
 239 0110 BD46     		mov	sp, r7
 240              		.cfi_def_cfa_register 13
 241              		@ sp needed
ARM GAS  C:\Users\mikke\AppData\Local\Temp\ccEsOBjK.s 			page 9


 242 0112 80BD     		pop	{r7, pc}
 243              	.L14:
 244              		.align	2
 245              	.L13:
 246 0114 10800000 		.word	xHeapHasBeenInitialised.6590
 247 0118 00800000 		.word	xStart
 248 011c 08800000 		.word	xEnd
 249 0120 00000000 		.word	xFreeBytesRemaining
 250              		.cfi_endproc
 251              	.LFE68:
 252              		.size	pvPortMalloc, .-pvPortMalloc
 253              		.section	.text.vPortFree,"ax",%progbits
 254              		.align	2
 255              		.global	vPortFree
 256              		.thumb
 257              		.thumb_func
 258              		.type	vPortFree, %function
 259              	vPortFree:
 260              	.LFB69:
 208:Source\portable\MemMang/heap_2.c **** /*-----------------------------------------------------------*/
 209:Source\portable\MemMang/heap_2.c **** 
 210:Source\portable\MemMang/heap_2.c **** void vPortFree( void *pv )
 211:Source\portable\MemMang/heap_2.c **** {
 261              		.loc 1 211 0
 262              		.cfi_startproc
 263              		@ args = 0, pretend = 0, frame = 24
 264              		@ frame_needed = 1, uses_anonymous_args = 0
 265 0000 80B5     		push	{r7, lr}
 266              		.cfi_def_cfa_offset 8
 267              		.cfi_offset 7, -8
 268              		.cfi_offset 14, -4
 269 0002 86B0     		sub	sp, sp, #24
 270              		.cfi_def_cfa_offset 32
 271 0004 00AF     		add	r7, sp, #0
 272              		.cfi_def_cfa_register 7
 273 0006 7860     		str	r0, [r7, #4]
 212:Source\portable\MemMang/heap_2.c **** uint8_t *puc = ( uint8_t * ) pv;
 274              		.loc 1 212 0
 275 0008 7B68     		ldr	r3, [r7, #4]
 276 000a 3B61     		str	r3, [r7, #16]
 213:Source\portable\MemMang/heap_2.c **** BlockLink_t *pxLink;
 214:Source\portable\MemMang/heap_2.c **** 
 215:Source\portable\MemMang/heap_2.c **** 	if( pv != NULL )
 277              		.loc 1 215 0
 278 000c 7B68     		ldr	r3, [r7, #4]
 279 000e 002B     		cmp	r3, #0
 280 0010 27D0     		beq	.L19
 216:Source\portable\MemMang/heap_2.c **** 	{
 217:Source\portable\MemMang/heap_2.c **** 		/* The memory being freed will have an BlockLink_t structure immediately
 218:Source\portable\MemMang/heap_2.c **** 		before it. */
 219:Source\portable\MemMang/heap_2.c **** 		puc -= heapSTRUCT_SIZE;
 281              		.loc 1 219 0
 282 0012 0823     		movs	r3, #8
 283 0014 5B42     		negs	r3, r3
 284 0016 3A69     		ldr	r2, [r7, #16]
 285 0018 1344     		add	r3, r3, r2
 286 001a 3B61     		str	r3, [r7, #16]
ARM GAS  C:\Users\mikke\AppData\Local\Temp\ccEsOBjK.s 			page 10


 220:Source\portable\MemMang/heap_2.c **** 
 221:Source\portable\MemMang/heap_2.c **** 		/* This unexpected casting is to keep some compilers from issuing
 222:Source\portable\MemMang/heap_2.c **** 		byte alignment warnings. */
 223:Source\portable\MemMang/heap_2.c **** 		pxLink = ( void * ) puc;
 287              		.loc 1 223 0
 288 001c 3B69     		ldr	r3, [r7, #16]
 289 001e FB60     		str	r3, [r7, #12]
 224:Source\portable\MemMang/heap_2.c **** 
 225:Source\portable\MemMang/heap_2.c **** 		vTaskSuspendAll();
 290              		.loc 1 225 0
 291 0020 FFF7FEFF 		bl	vTaskSuspendAll
 292              	.LBB4:
 226:Source\portable\MemMang/heap_2.c **** 		{
 227:Source\portable\MemMang/heap_2.c **** 			/* Add this block to the list of free blocks. */
 228:Source\portable\MemMang/heap_2.c **** 			prvInsertBlockIntoFreeList( ( ( BlockLink_t * ) pxLink ) );
 293              		.loc 1 228 0
 294 0024 FB68     		ldr	r3, [r7, #12]
 295 0026 5B68     		ldr	r3, [r3, #4]
 296 0028 BB60     		str	r3, [r7, #8]
 297 002a 104B     		ldr	r3, .L20
 298 002c 7B61     		str	r3, [r7, #20]
 299 002e 02E0     		b	.L17
 300              	.L18:
 301              		.loc 1 228 0 is_stmt 0 discriminator 3
 302 0030 7B69     		ldr	r3, [r7, #20]
 303 0032 1B68     		ldr	r3, [r3]
 304 0034 7B61     		str	r3, [r7, #20]
 305              	.L17:
 306              		.loc 1 228 0 discriminator 1
 307 0036 7B69     		ldr	r3, [r7, #20]
 308 0038 1B68     		ldr	r3, [r3]
 309 003a 5A68     		ldr	r2, [r3, #4]
 310 003c BB68     		ldr	r3, [r7, #8]
 311 003e 9A42     		cmp	r2, r3
 312 0040 F6D3     		bcc	.L18
 313              		.loc 1 228 0 discriminator 4
 314 0042 7B69     		ldr	r3, [r7, #20]
 315 0044 1A68     		ldr	r2, [r3]
 316 0046 FB68     		ldr	r3, [r7, #12]
 317 0048 1A60     		str	r2, [r3]
 318 004a 7B69     		ldr	r3, [r7, #20]
 319 004c FA68     		ldr	r2, [r7, #12]
 320 004e 1A60     		str	r2, [r3]
 321              	.LBE4:
 229:Source\portable\MemMang/heap_2.c **** 			xFreeBytesRemaining += pxLink->xBlockSize;
 322              		.loc 1 229 0 is_stmt 1 discriminator 4
 323 0050 FB68     		ldr	r3, [r7, #12]
 324 0052 5A68     		ldr	r2, [r3, #4]
 325 0054 064B     		ldr	r3, .L20+4
 326 0056 1B68     		ldr	r3, [r3]
 327 0058 1344     		add	r3, r3, r2
 328 005a 054A     		ldr	r2, .L20+4
 329 005c 1360     		str	r3, [r2]
 230:Source\portable\MemMang/heap_2.c **** 			traceFREE( pv, pxLink->xBlockSize );
 231:Source\portable\MemMang/heap_2.c **** 		}
 232:Source\portable\MemMang/heap_2.c **** 		( void ) xTaskResumeAll();
 330              		.loc 1 232 0 discriminator 4
ARM GAS  C:\Users\mikke\AppData\Local\Temp\ccEsOBjK.s 			page 11


 331 005e FFF7FEFF 		bl	xTaskResumeAll
 332              	.L19:
 233:Source\portable\MemMang/heap_2.c **** 	}
 234:Source\portable\MemMang/heap_2.c **** }
 333              		.loc 1 234 0
 334 0062 00BF     		nop
 335 0064 1837     		adds	r7, r7, #24
 336              		.cfi_def_cfa_offset 8
 337 0066 BD46     		mov	sp, r7
 338              		.cfi_def_cfa_register 13
 339              		@ sp needed
 340 0068 80BD     		pop	{r7, pc}
 341              	.L21:
 342 006a 00BF     		.align	2
 343              	.L20:
 344 006c 00800000 		.word	xStart
 345 0070 00000000 		.word	xFreeBytesRemaining
 346              		.cfi_endproc
 347              	.LFE69:
 348              		.size	vPortFree, .-vPortFree
 349              		.section	.text.xPortGetFreeHeapSize,"ax",%progbits
 350              		.align	2
 351              		.global	xPortGetFreeHeapSize
 352              		.thumb
 353              		.thumb_func
 354              		.type	xPortGetFreeHeapSize, %function
 355              	xPortGetFreeHeapSize:
 356              	.LFB70:
 235:Source\portable\MemMang/heap_2.c **** /*-----------------------------------------------------------*/
 236:Source\portable\MemMang/heap_2.c **** 
 237:Source\portable\MemMang/heap_2.c **** size_t xPortGetFreeHeapSize( void )
 238:Source\portable\MemMang/heap_2.c **** {
 357              		.loc 1 238 0
 358              		.cfi_startproc
 359              		@ args = 0, pretend = 0, frame = 0
 360              		@ frame_needed = 1, uses_anonymous_args = 0
 361              		@ link register save eliminated.
 362 0000 80B4     		push	{r7}
 363              		.cfi_def_cfa_offset 4
 364              		.cfi_offset 7, -4
 365 0002 00AF     		add	r7, sp, #0
 366              		.cfi_def_cfa_register 7
 239:Source\portable\MemMang/heap_2.c **** 	return xFreeBytesRemaining;
 367              		.loc 1 239 0
 368 0004 024B     		ldr	r3, .L24
 369 0006 1B68     		ldr	r3, [r3]
 240:Source\portable\MemMang/heap_2.c **** }
 370              		.loc 1 240 0
 371 0008 1846     		mov	r0, r3
 372 000a BD46     		mov	sp, r7
 373              		.cfi_def_cfa_register 13
 374              		@ sp needed
 375 000c 80BC     		pop	{r7}
 376              		.cfi_restore 7
 377              		.cfi_def_cfa_offset 0
 378 000e 7047     		bx	lr
 379              	.L25:
ARM GAS  C:\Users\mikke\AppData\Local\Temp\ccEsOBjK.s 			page 12


 380              		.align	2
 381              	.L24:
 382 0010 00000000 		.word	xFreeBytesRemaining
 383              		.cfi_endproc
 384              	.LFE70:
 385              		.size	xPortGetFreeHeapSize, .-xPortGetFreeHeapSize
 386              		.section	.text.vPortInitialiseBlocks,"ax",%progbits
 387              		.align	2
 388              		.global	vPortInitialiseBlocks
 389              		.thumb
 390              		.thumb_func
 391              		.type	vPortInitialiseBlocks, %function
 392              	vPortInitialiseBlocks:
 393              	.LFB71:
 241:Source\portable\MemMang/heap_2.c **** /*-----------------------------------------------------------*/
 242:Source\portable\MemMang/heap_2.c **** 
 243:Source\portable\MemMang/heap_2.c **** void vPortInitialiseBlocks( void )
 244:Source\portable\MemMang/heap_2.c **** {
 394              		.loc 1 244 0
 395              		.cfi_startproc
 396              		@ args = 0, pretend = 0, frame = 0
 397              		@ frame_needed = 1, uses_anonymous_args = 0
 398              		@ link register save eliminated.
 399 0000 80B4     		push	{r7}
 400              		.cfi_def_cfa_offset 4
 401              		.cfi_offset 7, -4
 402 0002 00AF     		add	r7, sp, #0
 403              		.cfi_def_cfa_register 7
 245:Source\portable\MemMang/heap_2.c **** 	/* This just exists to keep the linker quiet. */
 246:Source\portable\MemMang/heap_2.c **** }
 404              		.loc 1 246 0
 405 0004 00BF     		nop
 406 0006 BD46     		mov	sp, r7
 407              		.cfi_def_cfa_register 13
 408              		@ sp needed
 409 0008 80BC     		pop	{r7}
 410              		.cfi_restore 7
 411              		.cfi_def_cfa_offset 0
 412 000a 7047     		bx	lr
 413              		.cfi_endproc
 414              	.LFE71:
 415              		.size	vPortInitialiseBlocks, .-vPortInitialiseBlocks
 416              		.section	.text.prvHeapInit,"ax",%progbits
 417              		.align	2
 418              		.thumb
 419              		.thumb_func
 420              		.type	prvHeapInit, %function
 421              	prvHeapInit:
 422              	.LFB72:
 247:Source\portable\MemMang/heap_2.c **** /*-----------------------------------------------------------*/
 248:Source\portable\MemMang/heap_2.c **** 
 249:Source\portable\MemMang/heap_2.c **** static void prvHeapInit( void )
 250:Source\portable\MemMang/heap_2.c **** {
 423              		.loc 1 250 0
 424              		.cfi_startproc
 425              		@ args = 0, pretend = 0, frame = 8
 426              		@ frame_needed = 1, uses_anonymous_args = 0
ARM GAS  C:\Users\mikke\AppData\Local\Temp\ccEsOBjK.s 			page 13


 427              		@ link register save eliminated.
 428 0000 80B4     		push	{r7}
 429              		.cfi_def_cfa_offset 4
 430              		.cfi_offset 7, -4
 431 0002 83B0     		sub	sp, sp, #12
 432              		.cfi_def_cfa_offset 16
 433 0004 00AF     		add	r7, sp, #0
 434              		.cfi_def_cfa_register 7
 251:Source\portable\MemMang/heap_2.c **** BlockLink_t *pxFirstFreeBlock;
 252:Source\portable\MemMang/heap_2.c **** uint8_t *pucAlignedHeap;
 253:Source\portable\MemMang/heap_2.c **** 
 254:Source\portable\MemMang/heap_2.c **** 	/* Ensure the heap starts on a correctly aligned boundary. */
 255:Source\portable\MemMang/heap_2.c **** 	pucAlignedHeap = ( uint8_t * ) ( ( ( portPOINTER_SIZE_TYPE ) &ucHeap[ portBYTE_ALIGNMENT ] ) & ( ~
 435              		.loc 1 255 0
 436 0006 0F4B     		ldr	r3, .L28
 437 0008 23F00703 		bic	r3, r3, #7
 438 000c 7B60     		str	r3, [r7, #4]
 256:Source\portable\MemMang/heap_2.c **** 
 257:Source\portable\MemMang/heap_2.c **** 	/* xStart is used to hold a pointer to the first item in the list of free
 258:Source\portable\MemMang/heap_2.c **** 	blocks.  The void cast is used to prevent compiler warnings. */
 259:Source\portable\MemMang/heap_2.c **** 	xStart.pxNextFreeBlock = ( void * ) pucAlignedHeap;
 439              		.loc 1 259 0
 440 000e 0E4A     		ldr	r2, .L28+4
 441 0010 7B68     		ldr	r3, [r7, #4]
 442 0012 1360     		str	r3, [r2]
 260:Source\portable\MemMang/heap_2.c **** 	xStart.xBlockSize = ( size_t ) 0;
 443              		.loc 1 260 0
 444 0014 0C4B     		ldr	r3, .L28+4
 445 0016 0022     		movs	r2, #0
 446 0018 5A60     		str	r2, [r3, #4]
 261:Source\portable\MemMang/heap_2.c **** 
 262:Source\portable\MemMang/heap_2.c **** 	/* xEnd is used to mark the end of the list of free blocks. */
 263:Source\portable\MemMang/heap_2.c **** 	xEnd.xBlockSize = configADJUSTED_HEAP_SIZE;
 447              		.loc 1 263 0
 448 001a 0C4B     		ldr	r3, .L28+8
 449 001c 47F6F872 		movw	r2, #32760
 450 0020 5A60     		str	r2, [r3, #4]
 264:Source\portable\MemMang/heap_2.c **** 	xEnd.pxNextFreeBlock = NULL;
 451              		.loc 1 264 0
 452 0022 0A4B     		ldr	r3, .L28+8
 453 0024 0022     		movs	r2, #0
 454 0026 1A60     		str	r2, [r3]
 265:Source\portable\MemMang/heap_2.c **** 
 266:Source\portable\MemMang/heap_2.c **** 	/* To start with there is a single free block that is sized to take up the
 267:Source\portable\MemMang/heap_2.c **** 	entire heap space. */
 268:Source\portable\MemMang/heap_2.c **** 	pxFirstFreeBlock = ( void * ) pucAlignedHeap;
 455              		.loc 1 268 0
 456 0028 7B68     		ldr	r3, [r7, #4]
 457 002a 3B60     		str	r3, [r7]
 269:Source\portable\MemMang/heap_2.c **** 	pxFirstFreeBlock->xBlockSize = configADJUSTED_HEAP_SIZE;
 458              		.loc 1 269 0
 459 002c 3B68     		ldr	r3, [r7]
 460 002e 47F6F872 		movw	r2, #32760
 461 0032 5A60     		str	r2, [r3, #4]
 270:Source\portable\MemMang/heap_2.c **** 	pxFirstFreeBlock->pxNextFreeBlock = &xEnd;
 462              		.loc 1 270 0
 463 0034 3B68     		ldr	r3, [r7]
ARM GAS  C:\Users\mikke\AppData\Local\Temp\ccEsOBjK.s 			page 14


 464 0036 054A     		ldr	r2, .L28+8
 465 0038 1A60     		str	r2, [r3]
 271:Source\portable\MemMang/heap_2.c **** }
 466              		.loc 1 271 0
 467 003a 00BF     		nop
 468 003c 0C37     		adds	r7, r7, #12
 469              		.cfi_def_cfa_offset 4
 470 003e BD46     		mov	sp, r7
 471              		.cfi_def_cfa_register 13
 472              		@ sp needed
 473 0040 80BC     		pop	{r7}
 474              		.cfi_restore 7
 475              		.cfi_def_cfa_offset 0
 476 0042 7047     		bx	lr
 477              	.L29:
 478              		.align	2
 479              	.L28:
 480 0044 08000000 		.word	ucHeap+8
 481 0048 00800000 		.word	xStart
 482 004c 08800000 		.word	xEnd
 483              		.cfi_endproc
 484              	.LFE72:
 485              		.size	prvHeapInit, .-prvHeapInit
 486              		.bss
 487              		.align	2
 488              	xHeapHasBeenInitialised.6590:
 489 8010 00000000 		.space	4
 490              		.text
 491              	.Letext0:
 492              		.file 2 "c:\\program files (x86)\\cypress\\psoc creator\\4.3\\psoc creator\\import\\gnu\\arm\\5.4.
 493              		.file 3 "c:\\program files (x86)\\cypress\\psoc creator\\4.3\\psoc creator\\import\\gnu\\arm\\5.4.
 494              		.file 4 "c:\\program files (x86)\\cypress\\psoc creator\\4.3\\psoc creator\\import\\gnu\\arm\\5.4.
 495              		.file 5 ".\\Source\\portable\\GCC\\ARM_CM3/portmacro.h"
 496              		.file 6 "Generated_Source\\PSoC5/core_cm3.h"