ARM GAS  C:\Users\mikke\AppData\Local\Temp\cclmTA2O.s 			page 1


   1              		.syntax unified
   2              		.cpu cortex-m3
   3              		.fpu softvfp
   4              		.eabi_attribute 20, 1
   5              		.eabi_attribute 21, 1
   6              		.eabi_attribute 23, 3
   7              		.eabi_attribute 24, 1
   8              		.eabi_attribute 25, 1
   9              		.eabi_attribute 26, 1
  10              		.eabi_attribute 30, 6
  11              		.eabi_attribute 34, 1
  12              		.eabi_attribute 18, 4
  13              		.thumb
  14              		.syntax unified
  15              		.file	"i2cReaction.c"
  16              		.text
  17              	.Ltext0:
  18              		.cfi_sections	.debug_frame
  19              		.comm	xQueue,4,4
  20              		.section	.text.vTaskGetI2CData,"ax",%progbits
  21              		.align	2
  22              		.global	vTaskGetI2CData
  23              		.thumb
  24              		.thumb_func
  25              		.type	vTaskGetI2CData, %function
  26              	vTaskGetI2CData:
  27              	.LFB68:
  28              		.file 1 "i2cReaction.c"
   1:i2cReaction.c **** /* ========================================
   2:i2cReaction.c ****  *
   3:i2cReaction.c ****  * Copyright YOUR COMPANY, THE YEAR
   4:i2cReaction.c ****  * All Rights Reserved
   5:i2cReaction.c ****  * UNPUBLISHED, LICENSED SOFTWARE.
   6:i2cReaction.c ****  *
   7:i2cReaction.c ****  * CONFIDENTIAL AND PROPRIETARY INFORMATION
   8:i2cReaction.c ****  * WHICH IS THE PROPERTY OF your company.
   9:i2cReaction.c ****  *
  10:i2cReaction.c ****  * ========================================
  11:i2cReaction.c **** */
  12:i2cReaction.c **** 
  13:i2cReaction.c **** /* [] END OF FILE */
  14:i2cReaction.c **** /* Scheduler include files. */
  15:i2cReaction.c **** //#include <stdlib.h>
  16:i2cReaction.c **** //#include <string.h>
  17:i2cReaction.c **** #include "FreeRTOS.h"
  18:i2cReaction.c **** #include "task.h"
  19:i2cReaction.c **** #include "queue.h"
  20:i2cReaction.c **** #include "GlobalVariables.h"
  21:i2cReaction.c **** 
  22:i2cReaction.c **** /* Demo program include files. */
  23:i2cReaction.c **** #include "i2cReaction.h"
  24:i2cReaction.c **** 
  25:i2cReaction.c **** 
  26:i2cReaction.c **** 
  27:i2cReaction.c **** 
  28:i2cReaction.c **** 
  29:i2cReaction.c **** void vTaskGetI2CData(void *pvParameters){
ARM GAS  C:\Users\mikke\AppData\Local\Temp\cclmTA2O.s 			page 2


  29              		.loc 1 29 0
  30              		.cfi_startproc
  31              		@ args = 0, pretend = 0, frame = 16
  32              		@ frame_needed = 1, uses_anonymous_args = 0
  33 0000 80B5     		push	{r7, lr}
  34              		.cfi_def_cfa_offset 8
  35              		.cfi_offset 7, -8
  36              		.cfi_offset 14, -4
  37 0002 84B0     		sub	sp, sp, #16
  38              		.cfi_def_cfa_offset 24
  39 0004 00AF     		add	r7, sp, #0
  40              		.cfi_def_cfa_register 7
  41 0006 7860     		str	r0, [r7, #4]
  30:i2cReaction.c ****     const TickType_t xDelay1000ms = pdMS_TO_TICKS(1000); 
  42              		.loc 1 30 0
  43 0008 4FF47A73 		mov	r3, #1000
  44 000c FB60     		str	r3, [r7, #12]
  31:i2cReaction.c ****     const uint8 slaveAdress = 8;
  45              		.loc 1 31 0
  46 000e 0823     		movs	r3, #8
  47 0010 FB72     		strb	r3, [r7, #11]
  32:i2cReaction.c ****     const uint8 bytesToRead = 1;
  48              		.loc 1 32 0
  49 0012 0123     		movs	r3, #1
  50 0014 BB72     		strb	r3, [r7, #10]
  51              	.L2:
  33:i2cReaction.c ****     uint8 incommingBuffer[1]; 
  34:i2cReaction.c ****     
  35:i2cReaction.c ****     for( ; ;){  
  36:i2cReaction.c ****         Pin_LED0_Write(1u);
  52              		.loc 1 36 0 discriminator 1
  53 0016 0120     		movs	r0, #1
  54 0018 FFF7FEFF 		bl	Pin_LED0_Write
  37:i2cReaction.c ****         I2C_MasterReadBuf(slaveAdress , incommingBuffer , bytesToRead , I2C_MODE_COMPLETE_XFER);
  55              		.loc 1 37 0 discriminator 1
  56 001c BA7A     		ldrb	r2, [r7, #10]	@ zero_extendqisi2
  57 001e 07F10801 		add	r1, r7, #8
  58 0022 F87A     		ldrb	r0, [r7, #11]	@ zero_extendqisi2
  59 0024 0023     		movs	r3, #0
  60 0026 FFF7FEFF 		bl	I2C_MasterReadBuf
  38:i2cReaction.c ****         xQueueSendToBack(xQueue , incommingBuffer, 0);
  61              		.loc 1 38 0 discriminator 1
  62 002a 074B     		ldr	r3, .L3
  63 002c 1868     		ldr	r0, [r3]
  64 002e 07F10801 		add	r1, r7, #8
  65 0032 0023     		movs	r3, #0
  66 0034 0022     		movs	r2, #0
  67 0036 FFF7FEFF 		bl	xQueueGenericSend
  39:i2cReaction.c ****         Pin_LED0_Write(0);
  68              		.loc 1 39 0 discriminator 1
  69 003a 0020     		movs	r0, #0
  70 003c FFF7FEFF 		bl	Pin_LED0_Write
  40:i2cReaction.c ****         vTaskDelay(xDelay1000ms);
  71              		.loc 1 40 0 discriminator 1
  72 0040 F868     		ldr	r0, [r7, #12]
  73 0042 FFF7FEFF 		bl	vTaskDelay
  41:i2cReaction.c ****     }
ARM GAS  C:\Users\mikke\AppData\Local\Temp\cclmTA2O.s 			page 3


  74              		.loc 1 41 0 discriminator 1
  75 0046 E6E7     		b	.L2
  76              	.L4:
  77              		.align	2
  78              	.L3:
  79 0048 00000000 		.word	xQueue
  80              		.cfi_endproc
  81              	.LFE68:
  82              		.size	vTaskGetI2CData, .-vTaskGetI2CData
  83              		.section	.text.vTaskGetSetLed,"ax",%progbits
  84              		.align	2
  85              		.global	vTaskGetSetLed
  86              		.thumb
  87              		.thumb_func
  88              		.type	vTaskGetSetLed, %function
  89              	vTaskGetSetLed:
  90              	.LFB69:
  42:i2cReaction.c **** }
  43:i2cReaction.c **** 
  44:i2cReaction.c **** 
  45:i2cReaction.c **** void vTaskGetSetLed(void *pvParameters){
  91              		.loc 1 45 0
  92              		.cfi_startproc
  93              		@ args = 0, pretend = 0, frame = 16
  94              		@ frame_needed = 1, uses_anonymous_args = 0
  95 0000 80B5     		push	{r7, lr}
  96              		.cfi_def_cfa_offset 8
  97              		.cfi_offset 7, -8
  98              		.cfi_offset 14, -4
  99 0002 84B0     		sub	sp, sp, #16
 100              		.cfi_def_cfa_offset 24
 101 0004 00AF     		add	r7, sp, #0
 102              		.cfi_def_cfa_register 7
 103 0006 7860     		str	r0, [r7, #4]
 104              	.L9:
  46:i2cReaction.c ****     int8_t lRecievedValue;
  47:i2cReaction.c ****     
  48:i2cReaction.c ****     for( ; ;){  
  49:i2cReaction.c ****         xQueueReceive(xQueue , &lRecievedValue , portMAX_DELAY);
 105              		.loc 1 49 0
 106 0008 104B     		ldr	r3, .L10
 107 000a 1B68     		ldr	r3, [r3]
 108 000c 07F10F01 		add	r1, r7, #15
 109 0010 4FF0FF32 		mov	r2, #-1
 110 0014 1846     		mov	r0, r3
 111 0016 FFF7FEFF 		bl	xQueueReceive
  50:i2cReaction.c ****         if(lRecievedValue == 0){
 112              		.loc 1 50 0
 113 001a 97F90F30 		ldrsb	r3, [r7, #15]
 114 001e 002B     		cmp	r3, #0
 115 0020 03D1     		bne	.L6
  51:i2cReaction.c ****            Pin_LED1_Write(1u);
 116              		.loc 1 51 0
 117 0022 0120     		movs	r0, #1
 118 0024 FFF7FEFF 		bl	Pin_LED1_Write
 119 0028 EEE7     		b	.L9
 120              	.L6:
ARM GAS  C:\Users\mikke\AppData\Local\Temp\cclmTA2O.s 			page 4


  52:i2cReaction.c ****         }
  53:i2cReaction.c ****         else if(lRecievedValue == 1){
 121              		.loc 1 53 0
 122 002a 97F90F30 		ldrsb	r3, [r7, #15]
 123 002e 012B     		cmp	r3, #1
 124 0030 03D1     		bne	.L8
  54:i2cReaction.c ****             Pin_LED2_Write(1u);
 125              		.loc 1 54 0
 126 0032 0120     		movs	r0, #1
 127 0034 FFF7FEFF 		bl	Pin_LED2_Write
 128 0038 E6E7     		b	.L9
 129              	.L8:
  55:i2cReaction.c ****         }
  56:i2cReaction.c ****         else if(lRecievedValue == 2){
 130              		.loc 1 56 0
 131 003a 97F90F30 		ldrsb	r3, [r7, #15]
 132 003e 022B     		cmp	r3, #2
 133 0040 E2D1     		bne	.L9
  57:i2cReaction.c ****             Pin_LED3_Write(1u);   
 134              		.loc 1 57 0
 135 0042 0120     		movs	r0, #1
 136 0044 FFF7FEFF 		bl	Pin_LED3_Write
  58:i2cReaction.c ****         }
  59:i2cReaction.c ****     }
 137              		.loc 1 59 0
 138 0048 DEE7     		b	.L9
 139              	.L11:
 140 004a 00BF     		.align	2
 141              	.L10:
 142 004c 00000000 		.word	xQueue
 143              		.cfi_endproc
 144              	.LFE69:
 145              		.size	vTaskGetSetLed, .-vTaskGetSetLed
 146              		.text
 147              	.Letext0:
 148              		.file 2 "c:\\program files (x86)\\cypress\\psoc creator\\4.3\\psoc creator\\import\\gnu\\arm\\5.4.
 149              		.file 3 "c:\\program files (x86)\\cypress\\psoc creator\\4.3\\psoc creator\\import\\gnu\\arm\\5.4.
 150              		.file 4 "Generated_Source\\PSoC5/cytypes.h"
 151              		.file 5 ".\\Source\\portable\\GCC\\ARM_CM3/portmacro.h"
 152              		.file 6 ".\\Source\\include/queue.h"
 153              		.file 7 "Generated_Source\\PSoC5/core_cm3.h"
 154              		.file 8 "GlobalVariables.h"