ARM GAS  C:\Users\krist\AppData\Local\Temp\ccjhvhlg.s 			page 1


   1              		.syntax unified
   2              		.cpu cortex-m3
   3              		.fpu softvfp
   4              		.eabi_attribute 20, 1
   5              		.eabi_attribute 21, 1
   6              		.eabi_attribute 23, 3
   7              		.eabi_attribute 24, 1
   8              		.eabi_attribute 25, 1
   9              		.eabi_attribute 26, 1
  10              		.eabi_attribute 30, 6
  11              		.eabi_attribute 34, 1
  12              		.eabi_attribute 18, 4
  13              		.thumb
  14              		.syntax unified
  15              		.file	"Light.c"
  16              		.text
  17              	.Ltext0:
  18              		.cfi_sections	.debug_frame
  19              		.comm	DS18x8_Sensor,32,4
  20              		.comm	DS18x8_DataReady,1,1
  21              		.comm	Light,1,1
  22              		.comm	Time,1,1
  23              		.comm	bLEDCMD,1,1
  24              		.comm	bLEDstate,1,1
  25              		.global	bAlarmState
  26              		.bss
  27              		.type	bAlarmState, %object
  28              		.size	bAlarmState, 1
  29              	bAlarmState:
  30 0000 00       		.space	1
  31              		.global	ClockAddr
  32              		.data
  33              		.type	ClockAddr, %object
  34              		.size	ClockAddr, 1
  35              	ClockAddr:
  36 0000 09       		.byte	9
  37              		.comm	Start,8,4
  38              		.comm	CurrentTime,8,4
  39              		.comm	xQueueLightValue,4,4
  40              		.comm	xQueueCurrentTime,12,4
  41              		.section	.rodata
  42              		.align	2
  43              	.LC1:
  44 0000 4C696768 		.ascii	"Light\000"
  44      7400
  45 0006 0000     		.align	2
  46              	.LC2:
  47 0008 4C696768 		.ascii	"Light controller\000"
  47      7420636F 
  47      6E74726F 
  47      6C6C6572 
  47      00
  48              		.section	.text.vLightInit,"ax",%progbits
  49              		.align	2
  50              		.global	vLightInit
  51              		.thumb
  52              		.thumb_func
ARM GAS  C:\Users\krist\AppData\Local\Temp\ccjhvhlg.s 			page 2


  53              		.type	vLightInit, %function
  54              	vLightInit:
  55              	.LFB68:
  56              		.file 1 "Light.c"
   1:Light.c       **** /* ========================================
   2:Light.c       ****  *
   3:Light.c       ****  * Copyright YOUR COMPANY, THE YEAR
   4:Light.c       ****  * All Rights Reserved
   5:Light.c       ****  * UNPUBLISHED, LICENSED SOFTWARE.
   6:Light.c       ****  *
   7:Light.c       ****  * CONFIDENTIAL AND PROPRIETARY INFORMATION
   8:Light.c       ****  * WHICH IS THE PROPERTY OF your company.
   9:Light.c       ****  *
  10:Light.c       ****  * ========================================
  11:Light.c       **** */
  12:Light.c       **** 
  13:Light.c       **** /* [] END OF FILE */
  14:Light.c       **** 
  15:Light.c       **** #include "FreeRTOS.h"
  16:Light.c       **** #include "light.h"
  17:Light.c       **** #include "task.h"
  18:Light.c       **** #include "queue.h"
  19:Light.c       **** 
  20:Light.c       **** uint8 Light; // Variable contains measured light value
  21:Light.c       **** uint8 Time;
  22:Light.c       **** _Bool bLEDCMD;
  23:Light.c       **** _Bool bLEDstate;
  24:Light.c       **** _Bool bAlarmState = 0;
  25:Light.c       **** uint8 ClockAddr = 9; // Address for Arduino clock
  26:Light.c       **** 
  27:Light.c       **** 
  28:Light.c       **** struct Clock
  29:Light.c       ****     {
  30:Light.c       ****         uint8 Sec;
  31:Light.c       ****         uint8 Min;
  32:Light.c       ****         uint8 Hour;
  33:Light.c       ****         uint8 DayOfMonth;
  34:Light.c       ****         uint8 Month;
  35:Light.c       ****         uint16 Year;
  36:Light.c       ****         
  37:Light.c       ****     };
  38:Light.c       **** struct Clock Start;
  39:Light.c       **** struct Clock CurrentTime;
  40:Light.c       **** 
  41:Light.c       **** /* Create a queue for sending the light value through UART */
  42:Light.c       **** QueueHandle_t xQueueLightValue;
  43:Light.c       **** 
  44:Light.c       **** /* Create a queue for checking the light cycle */
  45:Light.c       **** QueueHandle_t xQueueCurrentTime[3];
  46:Light.c       **** 
  47:Light.c       **** void vLightInit(){
  57              		.loc 1 47 0
  58              		.cfi_startproc
  59              		@ args = 0, pretend = 0, frame = 0
  60              		@ frame_needed = 1, uses_anonymous_args = 0
  61 0000 80B5     		push	{r7, lr}
  62              		.cfi_def_cfa_offset 8
ARM GAS  C:\Users\krist\AppData\Local\Temp\ccjhvhlg.s 			page 3


  63              		.cfi_offset 7, -8
  64              		.cfi_offset 14, -4
  65 0002 82B0     		sub	sp, sp, #8
  66              		.cfi_def_cfa_offset 16
  67 0004 02AF     		add	r7, sp, #8
  68              		.cfi_def_cfa 7, 8
  48:Light.c       ****        
  49:Light.c       ****     
  50:Light.c       ****     /*  The queue is created to hold a maximum of 1 value, each of which is
  51:Light.c       ****         large enough to hold a variable at the size of uint8. */
  52:Light.c       ****     xQueueLightValue = xQueueCreate(1, sizeof(uint8));
  69              		.loc 1 52 0
  70 0006 0022     		movs	r2, #0
  71 0008 0121     		movs	r1, #1
  72 000a 0120     		movs	r0, #1
  73 000c FFF7FEFF 		bl	xQueueGenericCreate
  74 0010 0246     		mov	r2, r0
  75 0012 1A4B     		ldr	r3, .L2
  76 0014 1A60     		str	r2, [r3]
  53:Light.c       ****     
  54:Light.c       ****     /*  Queue with current time: hour, min, sec */
  55:Light.c       ****     xQueueCurrentTime[0] = xQueueCreate(1, sizeof(uint8));
  77              		.loc 1 55 0
  78 0016 0022     		movs	r2, #0
  79 0018 0121     		movs	r1, #1
  80 001a 0120     		movs	r0, #1
  81 001c FFF7FEFF 		bl	xQueueGenericCreate
  82 0020 0246     		mov	r2, r0
  83 0022 174B     		ldr	r3, .L2+4
  84 0024 1A60     		str	r2, [r3]
  56:Light.c       ****     xQueueCurrentTime[1] = xQueueCreate(1, sizeof(uint8));
  85              		.loc 1 56 0
  86 0026 0022     		movs	r2, #0
  87 0028 0121     		movs	r1, #1
  88 002a 0120     		movs	r0, #1
  89 002c FFF7FEFF 		bl	xQueueGenericCreate
  90 0030 0246     		mov	r2, r0
  91 0032 134B     		ldr	r3, .L2+4
  92 0034 5A60     		str	r2, [r3, #4]
  57:Light.c       ****     xQueueCurrentTime[2] = xQueueCreate(1, sizeof(uint8));
  93              		.loc 1 57 0
  94 0036 0022     		movs	r2, #0
  95 0038 0121     		movs	r1, #1
  96 003a 0120     		movs	r0, #1
  97 003c FFF7FEFF 		bl	xQueueGenericCreate
  98 0040 0246     		mov	r2, r0
  99 0042 0F4B     		ldr	r3, .L2+4
 100 0044 9A60     		str	r2, [r3, #8]
  58:Light.c       ****     
  59:Light.c       ****     /*  Create the task that will control the light sensor. The task is created with
  60:Light.c       ****         priority 2. */
  61:Light.c       ****     xTaskCreate(vTaskLightMeasure, "Light", 1000 , NULL , 2 , NULL);
 101              		.loc 1 61 0
 102 0046 0023     		movs	r3, #0
 103 0048 0193     		str	r3, [sp, #4]
 104 004a 0223     		movs	r3, #2
 105 004c 0093     		str	r3, [sp]
ARM GAS  C:\Users\krist\AppData\Local\Temp\ccjhvhlg.s 			page 4


 106 004e 0023     		movs	r3, #0
 107 0050 4FF47A72 		mov	r2, #1000
 108 0054 0B49     		ldr	r1, .L2+8
 109 0056 0C48     		ldr	r0, .L2+12
 110 0058 FFF7FEFF 		bl	xTaskCreate
  62:Light.c       ****     
  63:Light.c       ****     /*  Create the controller task that will recieve external commands 
  64:Light.c       ****         and regulate the LED based on the sensor value. 
  65:Light.c       ****         The task is created with priority 2. */
  66:Light.c       ****     xTaskCreate(vTaskLightController, "Light controller", 100, NULL, 2, NULL);
 111              		.loc 1 66 0
 112 005c 0023     		movs	r3, #0
 113 005e 0193     		str	r3, [sp, #4]
 114 0060 0223     		movs	r3, #2
 115 0062 0093     		str	r3, [sp]
 116 0064 0023     		movs	r3, #0
 117 0066 6422     		movs	r2, #100
 118 0068 0849     		ldr	r1, .L2+16
 119 006a 0948     		ldr	r0, .L2+20
 120 006c FFF7FEFF 		bl	xTaskCreate
  67:Light.c       ****     
  68:Light.c       ****     /*  Create the LED task to turn on and off the LED */
  69:Light.c       ****     //xTaskCreate(vTaskLEDcontrol, "LED controller", 100, NULL, 2, NULL);
  70:Light.c       ****     
  71:Light.c       ****     /*Initialize test tasks*/
  72:Light.c       ****     #if LIGHTTEST == 1
  73:Light.c       ****         vTestLightTaskInit();
 121              		.loc 1 73 0
 122 0070 FFF7FEFF 		bl	vTestLightTaskInit
  74:Light.c       ****     #endif
  75:Light.c       **** }
 123              		.loc 1 75 0
 124 0074 00BF     		nop
 125 0076 BD46     		mov	sp, r7
 126              		.cfi_def_cfa_register 13
 127              		@ sp needed
 128 0078 80BD     		pop	{r7, pc}
 129              	.L3:
 130 007a 00BF     		.align	2
 131              	.L2:
 132 007c 00000000 		.word	xQueueLightValue
 133 0080 00000000 		.word	xQueueCurrentTime
 134 0084 00000000 		.word	.LC1
 135 0088 00000000 		.word	vTaskLightMeasure
 136 008c 08000000 		.word	.LC2
 137 0090 00000000 		.word	vTaskLightController
 138              		.cfi_endproc
 139              	.LFE68:
 140              		.size	vLightInit, .-vLightInit
 141              		.section	.text.vTaskLightMeasure,"ax",%progbits
 142              		.align	2
 143              		.global	vTaskLightMeasure
 144              		.thumb
 145              		.thumb_func
 146              		.type	vTaskLightMeasure, %function
 147              	vTaskLightMeasure:
 148              	.LFB69:
ARM GAS  C:\Users\krist\AppData\Local\Temp\ccjhvhlg.s 			page 5


  76:Light.c       **** 
  77:Light.c       **** /*  This function turns on the light sensor, periodically reads the sensor 
  78:Light.c       ****     and sends the measured value to the created queue for UART */
  79:Light.c       **** void vTaskLightMeasure(){
 149              		.loc 1 79 0
 150              		.cfi_startproc
 151              		@ args = 0, pretend = 0, frame = 8
 152              		@ frame_needed = 1, uses_anonymous_args = 0
 153 0000 80B5     		push	{r7, lr}
 154              		.cfi_def_cfa_offset 8
 155              		.cfi_offset 7, -8
 156              		.cfi_offset 14, -4
 157 0002 82B0     		sub	sp, sp, #8
 158              		.cfi_def_cfa_offset 16
 159 0004 00AF     		add	r7, sp, #0
 160              		.cfi_def_cfa_register 7
  80:Light.c       ****     Pin_5V_out_Write(1u);
 161              		.loc 1 80 0
 162 0006 0120     		movs	r0, #1
 163 0008 FFF7FEFF 		bl	Pin_5V_out_Write
  81:Light.c       ****     const TickType_t xDelayms = pdMS_TO_TICKS( 10000 ); // Sets the measurement resolution.
 164              		.loc 1 81 0
 165 000c 42F21073 		movw	r3, #10000
 166 0010 7B60     		str	r3, [r7, #4]
 167              	.L5:
 168              	.LBB2:
  82:Light.c       ****     
  83:Light.c       ****     for(;;){
  84:Light.c       ****        
  85:Light.c       ****         uint8 LightRead = Pin_LIGHT_in_Read();
 169              		.loc 1 85 0 discriminator 1
 170 0012 FFF7FEFF 		bl	Pin_LIGHT_in_Read
 171 0016 0346     		mov	r3, r0
 172 0018 FB70     		strb	r3, [r7, #3]
  86:Light.c       ****         Light = LightRead;
 173              		.loc 1 86 0 discriminator 1
 174 001a 034A     		ldr	r2, .L6
 175 001c FB78     		ldrb	r3, [r7, #3]
 176 001e 1370     		strb	r3, [r2]
  87:Light.c       ****         //xQueueSendToBack(xQueueLightValue, &Light, portMAX_DELAY);
  88:Light.c       ****         vTaskDelay(xDelayms); 
 177              		.loc 1 88 0 discriminator 1
 178 0020 7868     		ldr	r0, [r7, #4]
 179 0022 FFF7FEFF 		bl	vTaskDelay
 180              	.LBE2:
  89:Light.c       ****     }
 181              		.loc 1 89 0 discriminator 1
 182 0026 F4E7     		b	.L5
 183              	.L7:
 184              		.align	2
 185              	.L6:
 186 0028 00000000 		.word	Light
 187              		.cfi_endproc
 188              	.LFE69:
 189              		.size	vTaskLightMeasure, .-vTaskLightMeasure
 190              		.section	.rodata
 191 0019 000000   		.align	2
ARM GAS  C:\Users\krist\AppData\Local\Temp\ccjhvhlg.s 			page 6


 192              	.LC0:
 193 001c 08       		.byte	8
 194 001d 0E       		.byte	14
 195              		.section	.text.vTaskLightController,"ax",%progbits
 196              		.align	2
 197              		.global	vTaskLightController
 198              		.thumb
 199              		.thumb_func
 200              		.type	vTaskLightController, %function
 201              	vTaskLightController:
 202              	.LFB70:
  90:Light.c       **** }
  91:Light.c       **** 
  92:Light.c       **** 
  93:Light.c       **** /*  This function recieves info about which time interval there should be light, 
  94:Light.c       ****     turns on/off LED lights and periodically checks if the lights are on */
  95:Light.c       **** void vTaskLightController(){
 203              		.loc 1 95 0
 204              		.cfi_startproc
 205              		@ args = 0, pretend = 0, frame = 16
 206              		@ frame_needed = 1, uses_anonymous_args = 0
 207 0000 80B5     		push	{r7, lr}
 208              		.cfi_def_cfa_offset 8
 209              		.cfi_offset 7, -8
 210              		.cfi_offset 14, -4
 211 0002 84B0     		sub	sp, sp, #16
 212              		.cfi_def_cfa_offset 24
 213 0004 00AF     		add	r7, sp, #0
 214              		.cfi_def_cfa_register 7
  96:Light.c       ****     uint8 LightCycle[] = {8, 14}; // Input parameters with start and stop time for the light cycle
 215              		.loc 1 96 0
 216 0006 274A     		ldr	r2, .L13
 217 0008 3B1D     		adds	r3, r7, #4
 218 000a 1288     		ldrh	r2, [r2]	@ unaligned
 219 000c 1A80     		strh	r2, [r3]	@ unaligned
  97:Light.c       ****     const TickType_t xDelayms = pdMS_TO_TICKS( 10000 ); // Sets the measurement resolution.
 220              		.loc 1 97 0
 221 000e 42F21073 		movw	r3, #10000
 222 0012 FB60     		str	r3, [r7, #12]
  98:Light.c       ****     const TickType_t xShortDelayms = pdMS_TO_TICKS( 100 );
 223              		.loc 1 98 0
 224 0014 6423     		movs	r3, #100
 225 0016 BB60     		str	r3, [r7, #8]
 226              	.L12:
  99:Light.c       ****     char ArduinoClock[3]; // Array to store clock value from Arduino
 100:Light.c       ****     
 101:Light.c       ****     for(;;){
 102:Light.c       ****               
 103:Light.c       ****         /* Read current time from Arduino clock and store in array */
 104:Light.c       ****         I2C_MasterReadBuf( ClockAddr, (uint8*) ArduinoClock, 3, I2C_MODE_COMPLETE_XFER);
 227              		.loc 1 104 0
 228 0018 234B     		ldr	r3, .L13+4
 229 001a 1878     		ldrb	r0, [r3]	@ zero_extendqisi2
 230 001c 3946     		mov	r1, r7
 231 001e 0023     		movs	r3, #0
 232 0020 0322     		movs	r2, #3
 233 0022 FFF7FEFF 		bl	I2C_MasterReadBuf
ARM GAS  C:\Users\krist\AppData\Local\Temp\ccjhvhlg.s 			page 7


 105:Light.c       ****         
 106:Light.c       ****         /* Save values from array in CurrentTime struct */
 107:Light.c       ****         CurrentTime.Hour = ArduinoClock[0];
 234              		.loc 1 107 0
 235 0026 3A78     		ldrb	r2, [r7]	@ zero_extendqisi2
 236 0028 204B     		ldr	r3, .L13+8
 237 002a 9A70     		strb	r2, [r3, #2]
 108:Light.c       ****         CurrentTime.Min = ArduinoClock[1];
 238              		.loc 1 108 0
 239 002c 7A78     		ldrb	r2, [r7, #1]	@ zero_extendqisi2
 240 002e 1F4B     		ldr	r3, .L13+8
 241 0030 5A70     		strb	r2, [r3, #1]
 109:Light.c       ****         CurrentTime.Sec = ArduinoClock[2];
 242              		.loc 1 109 0
 243 0032 BA78     		ldrb	r2, [r7, #2]	@ zero_extendqisi2
 244 0034 1D4B     		ldr	r3, .L13+8
 245 0036 1A70     		strb	r2, [r3]
 110:Light.c       ****         
 111:Light.c       ****         /* Sends CurrentTime values to serial via UART, used for test */
 112:Light.c       ****         xQueueSendToBack(xQueueCurrentTime[0], &CurrentTime.Hour, portMAX_DELAY);
 246              		.loc 1 112 0
 247 0038 1D4B     		ldr	r3, .L13+12
 248 003a 1868     		ldr	r0, [r3]
 249 003c 0023     		movs	r3, #0
 250 003e 4FF0FF32 		mov	r2, #-1
 251 0042 1C49     		ldr	r1, .L13+16
 252 0044 FFF7FEFF 		bl	xQueueGenericSend
 113:Light.c       ****         xQueueSendToBack(xQueueCurrentTime[1], &CurrentTime.Min, portMAX_DELAY);
 253              		.loc 1 113 0
 254 0048 194B     		ldr	r3, .L13+12
 255 004a 5868     		ldr	r0, [r3, #4]
 256 004c 0023     		movs	r3, #0
 257 004e 4FF0FF32 		mov	r2, #-1
 258 0052 1949     		ldr	r1, .L13+20
 259 0054 FFF7FEFF 		bl	xQueueGenericSend
 114:Light.c       ****         xQueueSendToBack(xQueueCurrentTime[2], &CurrentTime.Sec, portMAX_DELAY);
 260              		.loc 1 114 0
 261 0058 154B     		ldr	r3, .L13+12
 262 005a 9868     		ldr	r0, [r3, #8]
 263 005c 0023     		movs	r3, #0
 264 005e 4FF0FF32 		mov	r2, #-1
 265 0062 1249     		ldr	r1, .L13+8
 266 0064 FFF7FEFF 		bl	xQueueGenericSend
 115:Light.c       ****         vTaskDelay(xShortDelayms);
 267              		.loc 1 115 0
 268 0068 B868     		ldr	r0, [r7, #8]
 269 006a FFF7FEFF 		bl	vTaskDelay
 116:Light.c       ****                 
 117:Light.c       ****         /*  This if-statement checks if the current hour is within the on-interval of the light cyc
 118:Light.c       ****             If so, the LED is turned on. 
 119:Light.c       ****             After a short delay, the light sensor is read to make sure that the LED is on */
 120:Light.c       ****         if((CurrentTime.Hour >= LightCycle[0]) && (CurrentTime.Hour < LightCycle[1])){
 270              		.loc 1 120 0
 271 006e 0F4B     		ldr	r3, .L13+8
 272 0070 9A78     		ldrb	r2, [r3, #2]	@ zero_extendqisi2
 273 0072 3B79     		ldrb	r3, [r7, #4]	@ zero_extendqisi2
 274 0074 9A42     		cmp	r2, r3
ARM GAS  C:\Users\krist\AppData\Local\Temp\ccjhvhlg.s 			page 8


 275 0076 0ED3     		bcc	.L9
 276              		.loc 1 120 0 is_stmt 0 discriminator 1
 277 0078 0C4B     		ldr	r3, .L13+8
 278 007a 9A78     		ldrb	r2, [r3, #2]	@ zero_extendqisi2
 279 007c 7B79     		ldrb	r3, [r7, #5]	@ zero_extendqisi2
 280 007e 9A42     		cmp	r2, r3
 281 0080 09D2     		bcs	.L9
 121:Light.c       ****             
 122:Light.c       ****             // some code that turns on the LED
 123:Light.c       ****             bLEDCMD = 1;
 282              		.loc 1 123 0 is_stmt 1
 283 0082 0E4B     		ldr	r3, .L13+24
 284 0084 0122     		movs	r2, #1
 285 0086 1A70     		strb	r2, [r3]
 124:Light.c       ****             //SW_UART_TEST_USB_PutString("Within active hours of light cycle: TRUE \n");
 125:Light.c       ****             vTaskDelay(xShortDelayms);
 286              		.loc 1 125 0
 287 0088 B868     		ldr	r0, [r7, #8]
 288 008a FFF7FEFF 		bl	vTaskDelay
 126:Light.c       ****             
 127:Light.c       ****             if(Light == 0){
 289              		.loc 1 127 0
 290 008e 0C4B     		ldr	r3, .L13+28
 291 0090 1B78     		ldrb	r3, [r3]	@ zero_extendqisi2
 292 0092 002B     		cmp	r3, #0
 293 0094 02E0     		b	.L11
 294              	.L9:
 128:Light.c       ****                 // The LED are on, all is good
 129:Light.c       ****                 //SW_UART_TEST_USB_PutString("Enough light: TRUE \n \n");
 130:Light.c       ****             }
 131:Light.c       ****             else if(Light == 1){
 132:Light.c       ****                 // The LED are not on, all is not good
 133:Light.c       ****                 //SW_UART_TEST_USB_PutString("Enough light: FALSE \n \n");
 134:Light.c       ****                 // some code to force turn on LED and send alarm
 135:Light.c       ****             }
 136:Light.c       ****             else{
 137:Light.c       ****                 //panic
 138:Light.c       ****             }    
 139:Light.c       ****         }
 140:Light.c       ****         else{
 141:Light.c       ****             // The LED should not be on
 142:Light.c       ****             bLEDCMD = 0;
 295              		.loc 1 142 0
 296 0096 094B     		ldr	r3, .L13+24
 297 0098 0022     		movs	r2, #0
 298 009a 1A70     		strb	r2, [r3]
 299              	.L11:
 143:Light.c       ****             // some code to turn off LED
 144:Light.c       ****             
 145:Light.c       ****             //SW_UART_TEST_USB_PutString("Within active hours of light cycle: FALSE \n \n");
 146:Light.c       ****         }    
 147:Light.c       ****     vTaskDelay(xDelayms); 
 300              		.loc 1 147 0
 301 009c F868     		ldr	r0, [r7, #12]
 302 009e FFF7FEFF 		bl	vTaskDelay
 148:Light.c       ****     }
 303              		.loc 1 148 0
ARM GAS  C:\Users\krist\AppData\Local\Temp\ccjhvhlg.s 			page 9


 304 00a2 B9E7     		b	.L12
 305              	.L14:
 306              		.align	2
 307              	.L13:
 308 00a4 1C000000 		.word	.LC0
 309 00a8 00000000 		.word	ClockAddr
 310 00ac 00000000 		.word	CurrentTime
 311 00b0 00000000 		.word	xQueueCurrentTime
 312 00b4 02000000 		.word	CurrentTime+2
 313 00b8 01000000 		.word	CurrentTime+1
 314 00bc 00000000 		.word	bLEDCMD
 315 00c0 00000000 		.word	Light
 316              		.cfi_endproc
 317              	.LFE70:
 318              		.size	vTaskLightController, .-vTaskLightController
 319              		.section	.text.vTaskLEDcontrol,"ax",%progbits
 320              		.align	2
 321              		.global	vTaskLEDcontrol
 322              		.thumb
 323              		.thumb_func
 324              		.type	vTaskLEDcontrol, %function
 325              	vTaskLEDcontrol:
 326              	.LFB71:
 149:Light.c       **** }
 150:Light.c       **** 
 151:Light.c       **** 
 152:Light.c       **** void vTaskLEDcontrol(){
 327              		.loc 1 152 0
 328              		.cfi_startproc
 329              		@ args = 0, pretend = 0, frame = 0
 330              		@ frame_needed = 1, uses_anonymous_args = 0
 331              		@ link register save eliminated.
 332 0000 80B4     		push	{r7}
 333              		.cfi_def_cfa_offset 4
 334              		.cfi_offset 7, -4
 335 0002 00AF     		add	r7, sp, #0
 336              		.cfi_def_cfa_register 7
 153:Light.c       ****     /*
 154:Light.c       ****     for(;;){
 155:Light.c       ****         if ( bLEDCMD == 1 && bLEDstate == 0){
 156:Light.c       ****             //tænd
 157:Light.c       ****             bLEDstate = 1;
 158:Light.c       ****         }
 159:Light.c       ****         
 160:Light.c       ****         else if (bLEDCMD == 0 && bLEDstate == 1){
 161:Light.c       ****             //sluk
 162:Light.c       ****             bLEDstate = 0;
 163:Light.c       ****         }
 164:Light.c       ****         SW_UART_TEST_USB_PutString("bLEDstate: ");
 165:Light.c       ****         SW_UART_TEST_USB_PutHexByte(bLEDstate);
 166:Light.c       ****         SW_UART_TEST_USB_PutString(" \n");
 167:Light.c       ****         
 168:Light.c       ****         
 169:Light.c       ****     } */  
 170:Light.c       **** }
 337              		.loc 1 170 0
 338 0004 00BF     		nop
ARM GAS  C:\Users\krist\AppData\Local\Temp\ccjhvhlg.s 			page 10


 339 0006 BD46     		mov	sp, r7
 340              		.cfi_def_cfa_register 13
 341              		@ sp needed
 342 0008 80BC     		pop	{r7}
 343              		.cfi_restore 7
 344              		.cfi_def_cfa_offset 0
 345 000a 7047     		bx	lr
 346              		.cfi_endproc
 347              	.LFE71:
 348              		.size	vTaskLEDcontrol, .-vTaskLEDcontrol
 349              		.section	.rodata
 350 001e 0000     		.align	2
 351              	.LC3:
 352 0020 54657374 		.ascii	"TestLight\000"
 352      4C696768 
 352      7400
 353              		.section	.text.vTestLightTaskInit,"ax",%progbits
 354              		.align	2
 355              		.global	vTestLightTaskInit
 356              		.thumb
 357              		.thumb_func
 358              		.type	vTestLightTaskInit, %function
 359              	vTestLightTaskInit:
 360              	.LFB72:
 171:Light.c       **** 
 172:Light.c       **** /* --- TEST TASK --- */
 173:Light.c       **** 
 174:Light.c       **** /*
 175:Light.c       ****     Task for testing existing implementations.
 176:Light.c       **** 
 177:Light.c       ****     DO NOT delete this functions/tasks, but comment them out if they arn't nexessary 
 178:Light.c       ****     for your current implementation/testing
 179:Light.c       ****     
 180:Light.c       ****     All test task/functions, must start with (type)Test(Task/Function/Var)(Name)
 181:Light.c       **** 
 182:Light.c       ****     
 183:Light.c       **** */
 184:Light.c       **** 
 185:Light.c       **** /* Initialize test tasks*/
 186:Light.c       **** void vTestLightTaskInit(){
 361              		.loc 1 186 0
 362              		.cfi_startproc
 363              		@ args = 0, pretend = 0, frame = 0
 364              		@ frame_needed = 1, uses_anonymous_args = 0
 365 0000 80B5     		push	{r7, lr}
 366              		.cfi_def_cfa_offset 8
 367              		.cfi_offset 7, -8
 368              		.cfi_offset 14, -4
 369 0002 82B0     		sub	sp, sp, #8
 370              		.cfi_def_cfa_offset 16
 371 0004 02AF     		add	r7, sp, #8
 372              		.cfi_def_cfa 7, 8
 187:Light.c       ****     xTaskCreate(vTestLightTask, "TestLight", 1000, NULL, 2, NULL);
 373              		.loc 1 187 0
 374 0006 0023     		movs	r3, #0
 375 0008 0193     		str	r3, [sp, #4]
 376 000a 0223     		movs	r3, #2
ARM GAS  C:\Users\krist\AppData\Local\Temp\ccjhvhlg.s 			page 11


 377 000c 0093     		str	r3, [sp]
 378 000e 0023     		movs	r3, #0
 379 0010 4FF47A72 		mov	r2, #1000
 380 0014 0349     		ldr	r1, .L17
 381 0016 0448     		ldr	r0, .L17+4
 382 0018 FFF7FEFF 		bl	xTaskCreate
 188:Light.c       **** }    
 383              		.loc 1 188 0
 384 001c 00BF     		nop
 385 001e BD46     		mov	sp, r7
 386              		.cfi_def_cfa_register 13
 387              		@ sp needed
 388 0020 80BD     		pop	{r7, pc}
 389              	.L18:
 390 0022 00BF     		.align	2
 391              	.L17:
 392 0024 20000000 		.word	.LC3
 393 0028 00000000 		.word	vTestLightTask
 394              		.cfi_endproc
 395              	.LFE72:
 396              		.size	vTestLightTaskInit, .-vTestLightTaskInit
 397              		.section	.rodata
 398 002a 0000     		.align	2
 399              	.LC4:
 400 002c 43757272 		.ascii	"Current time: \000"
 400      656E7420 
 400      74696D65 
 400      3A2000
 401 003b 00       		.align	2
 402              	.LC5:
 403 003c 3A00     		.ascii	":\000"
 404 003e 0000     		.align	2
 405              	.LC6:
 406 0040 0A00     		.ascii	"\012\000"
 407 0042 0000     		.align	2
 408              	.LC7:
 409 0044 624C4544 		.ascii	"bLEDstate: \000"
 409      73746174 
 409      653A2000 
 410              		.align	2
 411              	.LC8:
 412 0050 200A00   		.ascii	" \012\000"
 413              		.section	.text.vTestLightTask,"ax",%progbits
 414              		.align	2
 415              		.global	vTestLightTask
 416              		.thumb
 417              		.thumb_func
 418              		.type	vTestLightTask, %function
 419              	vTestLightTask:
 420              	.LFB73:
 189:Light.c       **** 
 190:Light.c       **** /* Function tests vTaskLightMeasure() by reading from the queue and sending to serial monitor */
 191:Light.c       **** void vTestLightTask(){
 421              		.loc 1 191 0
 422              		.cfi_startproc
 423              		@ args = 0, pretend = 0, frame = 8
 424              		@ frame_needed = 1, uses_anonymous_args = 0
ARM GAS  C:\Users\krist\AppData\Local\Temp\ccjhvhlg.s 			page 12


 425 0000 80B5     		push	{r7, lr}
 426              		.cfi_def_cfa_offset 8
 427              		.cfi_offset 7, -8
 428              		.cfi_offset 14, -4
 429 0002 82B0     		sub	sp, sp, #8
 430              		.cfi_def_cfa_offset 16
 431 0004 00AF     		add	r7, sp, #0
 432              		.cfi_def_cfa_register 7
 433              	.L22:
 192:Light.c       ****     //uint8 TestLightValue;
 193:Light.c       ****     uint8 TestCurrentHour;
 194:Light.c       ****     uint8 TestCurrentMin;
 195:Light.c       ****     uint8 TestCurrentSec;
 196:Light.c       ****     for(;;){
 197:Light.c       ****         //xQueueReceive(xQueueLightValue, &TestLightValue, portMAX_DELAY);
 198:Light.c       ****         xQueueReceive(xQueueCurrentTime[0], &TestCurrentHour, portMAX_DELAY);
 434              		.loc 1 198 0
 435 0006 2F4B     		ldr	r3, .L23
 436 0008 1B68     		ldr	r3, [r3]
 437 000a F91D     		adds	r1, r7, #7
 438 000c 4FF0FF32 		mov	r2, #-1
 439 0010 1846     		mov	r0, r3
 440 0012 FFF7FEFF 		bl	xQueueReceive
 199:Light.c       ****         xQueueReceive(xQueueCurrentTime[1], &TestCurrentMin, portMAX_DELAY);
 441              		.loc 1 199 0
 442 0016 2B4B     		ldr	r3, .L23
 443 0018 5B68     		ldr	r3, [r3, #4]
 444 001a B91D     		adds	r1, r7, #6
 445 001c 4FF0FF32 		mov	r2, #-1
 446 0020 1846     		mov	r0, r3
 447 0022 FFF7FEFF 		bl	xQueueReceive
 200:Light.c       ****         xQueueReceive(xQueueCurrentTime[2], &TestCurrentSec, portMAX_DELAY);
 448              		.loc 1 200 0
 449 0026 274B     		ldr	r3, .L23
 450 0028 9B68     		ldr	r3, [r3, #8]
 451 002a 791D     		adds	r1, r7, #5
 452 002c 4FF0FF32 		mov	r2, #-1
 453 0030 1846     		mov	r0, r3
 454 0032 FFF7FEFF 		bl	xQueueReceive
 201:Light.c       ****         //SW_UART_TEST_USB_PutString("Light Value: ");
 202:Light.c       ****         //SW_UART_TEST_USB_PutHexInt(TestLightValue);
 203:Light.c       ****         //SW_UART_TEST_USB_PutString("Current Hour: ");
 204:Light.c       ****         //SW_UART_TEST_USB_PutHexByte(TestCurrentHour);
 205:Light.c       ****         //SW_UART_TEST_USB_PutString("\n");
 206:Light.c       ****         
 207:Light.c       ****         if ( bLEDCMD == 1 && bLEDstate == 0){
 455              		.loc 1 207 0
 456 0036 244B     		ldr	r3, .L23+4
 457 0038 1B78     		ldrb	r3, [r3]	@ zero_extendqisi2
 458 003a 002B     		cmp	r3, #0
 459 003c 0DD0     		beq	.L20
 460              		.loc 1 207 0 is_stmt 0 discriminator 1
 461 003e 234B     		ldr	r3, .L23+8
 462 0040 1B78     		ldrb	r3, [r3]	@ zero_extendqisi2
 463 0042 83F00103 		eor	r3, r3, #1
 464 0046 DBB2     		uxtb	r3, r3
 465 0048 002B     		cmp	r3, #0
ARM GAS  C:\Users\krist\AppData\Local\Temp\ccjhvhlg.s 			page 13


 466 004a 06D0     		beq	.L20
 208:Light.c       ****             //tænd
 209:Light.c       ****             bLEDstate = 1;
 467              		.loc 1 209 0 is_stmt 1
 468 004c 1F4B     		ldr	r3, .L23+8
 469 004e 0122     		movs	r2, #1
 470 0050 1A70     		strb	r2, [r3]
 210:Light.c       ****             Pin_LightTestLED_Write( 1u ); // Turns on test LED
 471              		.loc 1 210 0
 472 0052 0120     		movs	r0, #1
 473 0054 FFF7FEFF 		bl	Pin_LightTestLED_Write
 474 0058 10E0     		b	.L21
 475              	.L20:
 211:Light.c       ****         }
 212:Light.c       ****         
 213:Light.c       ****         else if (bLEDCMD == 0 && bLEDstate == 1){
 476              		.loc 1 213 0
 477 005a 1B4B     		ldr	r3, .L23+4
 478 005c 1B78     		ldrb	r3, [r3]	@ zero_extendqisi2
 479 005e 83F00103 		eor	r3, r3, #1
 480 0062 DBB2     		uxtb	r3, r3
 481 0064 002B     		cmp	r3, #0
 482 0066 09D0     		beq	.L21
 483              		.loc 1 213 0 is_stmt 0 discriminator 1
 484 0068 184B     		ldr	r3, .L23+8
 485 006a 1B78     		ldrb	r3, [r3]	@ zero_extendqisi2
 486 006c 002B     		cmp	r3, #0
 487 006e 05D0     		beq	.L21
 214:Light.c       ****             //sluk
 215:Light.c       ****             bLEDstate = 0;
 488              		.loc 1 215 0 is_stmt 1
 489 0070 164B     		ldr	r3, .L23+8
 490 0072 0022     		movs	r2, #0
 491 0074 1A70     		strb	r2, [r3]
 216:Light.c       ****             Pin_LightTestLED_Write( 0u ); // Turns off test LED
 492              		.loc 1 216 0
 493 0076 0020     		movs	r0, #0
 494 0078 FFF7FEFF 		bl	Pin_LightTestLED_Write
 495              	.L21:
 217:Light.c       ****         }
 218:Light.c       ****         
 219:Light.c       ****         SW_UART_TEST_USB_PutString("Current time: ");
 496              		.loc 1 219 0
 497 007c 1448     		ldr	r0, .L23+12
 498 007e FFF7FEFF 		bl	SW_UART_TEST_USB_PutString
 220:Light.c       ****         SW_UART_TEST_USB_PutHexByte(TestCurrentHour);
 499              		.loc 1 220 0
 500 0082 FB79     		ldrb	r3, [r7, #7]	@ zero_extendqisi2
 501 0084 1846     		mov	r0, r3
 502 0086 FFF7FEFF 		bl	SW_UART_TEST_USB_PutHexByte
 221:Light.c       ****         SW_UART_TEST_USB_PutString(":");
 503              		.loc 1 221 0
 504 008a 1248     		ldr	r0, .L23+16
 505 008c FFF7FEFF 		bl	SW_UART_TEST_USB_PutString
 222:Light.c       ****         SW_UART_TEST_USB_PutHexByte(TestCurrentMin);
 506              		.loc 1 222 0
 507 0090 BB79     		ldrb	r3, [r7, #6]	@ zero_extendqisi2
ARM GAS  C:\Users\krist\AppData\Local\Temp\ccjhvhlg.s 			page 14


 508 0092 1846     		mov	r0, r3
 509 0094 FFF7FEFF 		bl	SW_UART_TEST_USB_PutHexByte
 223:Light.c       ****         SW_UART_TEST_USB_PutString(":");
 510              		.loc 1 223 0
 511 0098 0E48     		ldr	r0, .L23+16
 512 009a FFF7FEFF 		bl	SW_UART_TEST_USB_PutString
 224:Light.c       ****         SW_UART_TEST_USB_PutHexByte(TestCurrentSec);
 513              		.loc 1 224 0
 514 009e 7B79     		ldrb	r3, [r7, #5]	@ zero_extendqisi2
 515 00a0 1846     		mov	r0, r3
 516 00a2 FFF7FEFF 		bl	SW_UART_TEST_USB_PutHexByte
 225:Light.c       ****         SW_UART_TEST_USB_PutString("\n");
 517              		.loc 1 225 0
 518 00a6 0C48     		ldr	r0, .L23+20
 519 00a8 FFF7FEFF 		bl	SW_UART_TEST_USB_PutString
 226:Light.c       ****         SW_UART_TEST_USB_PutString("bLEDstate: ");
 520              		.loc 1 226 0
 521 00ac 0B48     		ldr	r0, .L23+24
 522 00ae FFF7FEFF 		bl	SW_UART_TEST_USB_PutString
 227:Light.c       ****         SW_UART_TEST_USB_PutHexByte(bLEDstate);
 523              		.loc 1 227 0
 524 00b2 064B     		ldr	r3, .L23+8
 525 00b4 1B78     		ldrb	r3, [r3]	@ zero_extendqisi2
 526 00b6 1846     		mov	r0, r3
 527 00b8 FFF7FEFF 		bl	SW_UART_TEST_USB_PutHexByte
 228:Light.c       ****         SW_UART_TEST_USB_PutString(" \n");
 528              		.loc 1 228 0
 529 00bc 0848     		ldr	r0, .L23+28
 530 00be FFF7FEFF 		bl	SW_UART_TEST_USB_PutString
 229:Light.c       ****         
 230:Light.c       ****     }    
 531              		.loc 1 230 0
 532 00c2 A0E7     		b	.L22
 533              	.L24:
 534              		.align	2
 535              	.L23:
 536 00c4 00000000 		.word	xQueueCurrentTime
 537 00c8 00000000 		.word	bLEDCMD
 538 00cc 00000000 		.word	bLEDstate
 539 00d0 2C000000 		.word	.LC4
 540 00d4 3C000000 		.word	.LC5
 541 00d8 40000000 		.word	.LC6
 542 00dc 44000000 		.word	.LC7
 543 00e0 50000000 		.word	.LC8
 544              		.cfi_endproc
 545              	.LFE73:
 546              		.size	vTestLightTask, .-vTestLightTask
 547              		.text
 548              	.Letext0:
 549              		.file 2 "c:\\program files (x86)\\cypress\\psoc creator\\4.3\\psoc creator\\import\\gnu\\arm\\5.4.
 550              		.file 3 "c:\\program files (x86)\\cypress\\psoc creator\\4.3\\psoc creator\\import\\gnu\\arm\\5.4.
 551              		.file 4 "Generated_Source\\PSoC5/cytypes.h"
 552              		.file 5 "Generated_Source\\PSoC5/DS18x8.h"
 553              		.file 6 ".\\Source\\portable\\GCC\\ARM_CM3/portmacro.h"
 554              		.file 7 ".\\Source\\include/queue.h"
 555              		.file 8 "Generated_Source\\PSoC5/core_cm3.h"