ARM GAS  C:\Users\mikke\AppData\Local\Temp\ccf2UgOO.s 			page 1


   1              		.syntax unified
   2              		.cpu cortex-m3
   3              		.fpu softvfp
   4              		.eabi_attribute 20, 1
   5              		.eabi_attribute 21, 1
   6              		.eabi_attribute 23, 3
   7              		.eabi_attribute 24, 1
   8              		.eabi_attribute 25, 1
   9              		.eabi_attribute 26, 1
  10              		.eabi_attribute 30, 6
  11              		.eabi_attribute 34, 1
  12              		.eabi_attribute 18, 4
  13              		.thumb
  14              		.syntax unified
  15              		.file	"list.c"
  16              		.text
  17              	.Ltext0:
  18              		.cfi_sections	.debug_frame
  19              		.section	.text.vListInitialise,"ax",%progbits
  20              		.align	2
  21              		.global	vListInitialise
  22              		.thumb
  23              		.thumb_func
  24              		.type	vListInitialise, %function
  25              	vListInitialise:
  26              	.LFB68:
  27              		.file 1 "Source\\list.c"
   1:Source/list.c **** /*
   2:Source/list.c ****  * FreeRTOS Kernel V10.3.1
   3:Source/list.c ****  * Copyright (C) 2020 Amazon.com, Inc. or its affiliates.  All Rights Reserved.
   4:Source/list.c ****  *
   5:Source/list.c ****  * Permission is hereby granted, free of charge, to any person obtaining a copy of
   6:Source/list.c ****  * this software and associated documentation files (the "Software"), to deal in
   7:Source/list.c ****  * the Software without restriction, including without limitation the rights to
   8:Source/list.c ****  * use, copy, modify, merge, publish, distribute, sublicense, and/or sell copies of
   9:Source/list.c ****  * the Software, and to permit persons to whom the Software is furnished to do so,
  10:Source/list.c ****  * subject to the following conditions:
  11:Source/list.c ****  *
  12:Source/list.c ****  * The above copyright notice and this permission notice shall be included in all
  13:Source/list.c ****  * copies or substantial portions of the Software.
  14:Source/list.c ****  *
  15:Source/list.c ****  * THE SOFTWARE IS PROVIDED "AS IS", WITHOUT WARRANTY OF ANY KIND, EXPRESS OR
  16:Source/list.c ****  * IMPLIED, INCLUDING BUT NOT LIMITED TO THE WARRANTIES OF MERCHANTABILITY, FITNESS
  17:Source/list.c ****  * FOR A PARTICULAR PURPOSE AND NONINFRINGEMENT. IN NO EVENT SHALL THE AUTHORS OR
  18:Source/list.c ****  * COPYRIGHT HOLDERS BE LIABLE FOR ANY CLAIM, DAMAGES OR OTHER LIABILITY, WHETHER
  19:Source/list.c ****  * IN AN ACTION OF CONTRACT, TORT OR OTHERWISE, ARISING FROM, OUT OF OR IN
  20:Source/list.c ****  * CONNECTION WITH THE SOFTWARE OR THE USE OR OTHER DEALINGS IN THE SOFTWARE.
  21:Source/list.c ****  *
  22:Source/list.c ****  * http://www.FreeRTOS.org
  23:Source/list.c ****  * http://aws.amazon.com/freertos
  24:Source/list.c ****  *
  25:Source/list.c ****  * 1 tab == 4 spaces!
  26:Source/list.c ****  */
  27:Source/list.c **** 
  28:Source/list.c **** 
  29:Source/list.c **** #include <stdlib.h>
  30:Source/list.c **** #include "FreeRTOS.h"
ARM GAS  C:\Users\mikke\AppData\Local\Temp\ccf2UgOO.s 			page 2


  31:Source/list.c **** #include "list.h"
  32:Source/list.c **** 
  33:Source/list.c **** /*-----------------------------------------------------------
  34:Source/list.c ****  * PUBLIC LIST API documented in list.h
  35:Source/list.c ****  *----------------------------------------------------------*/
  36:Source/list.c **** 
  37:Source/list.c **** void vListInitialise( List_t * const pxList )
  38:Source/list.c **** {
  28              		.loc 1 38 0
  29              		.cfi_startproc
  30              		@ args = 0, pretend = 0, frame = 8
  31              		@ frame_needed = 1, uses_anonymous_args = 0
  32              		@ link register save eliminated.
  33 0000 80B4     		push	{r7}
  34              		.cfi_def_cfa_offset 4
  35              		.cfi_offset 7, -4
  36 0002 83B0     		sub	sp, sp, #12
  37              		.cfi_def_cfa_offset 16
  38 0004 00AF     		add	r7, sp, #0
  39              		.cfi_def_cfa_register 7
  40 0006 7860     		str	r0, [r7, #4]
  39:Source/list.c **** 	/* The list structure contains a list item which is used to mark the
  40:Source/list.c **** 	end of the list.  To initialise the list the list end is inserted
  41:Source/list.c **** 	as the only list entry. */
  42:Source/list.c **** 	pxList->pxIndex = ( ListItem_t * ) &( pxList->xListEnd );			/*lint !e826 !e740 !e9087 The mini lis
  41              		.loc 1 42 0
  42 0008 7B68     		ldr	r3, [r7, #4]
  43 000a 03F10802 		add	r2, r3, #8
  44 000e 7B68     		ldr	r3, [r7, #4]
  45 0010 5A60     		str	r2, [r3, #4]
  43:Source/list.c **** 
  44:Source/list.c **** 	/* The list end value is the highest possible value in the list to
  45:Source/list.c **** 	ensure it remains at the end of the list. */
  46:Source/list.c **** 	pxList->xListEnd.xItemValue = portMAX_DELAY;
  46              		.loc 1 46 0
  47 0012 7B68     		ldr	r3, [r7, #4]
  48 0014 4FF0FF32 		mov	r2, #-1
  49 0018 9A60     		str	r2, [r3, #8]
  47:Source/list.c **** 
  48:Source/list.c **** 	/* The list end next and previous pointers point to itself so we know
  49:Source/list.c **** 	when the list is empty. */
  50:Source/list.c **** 	pxList->xListEnd.pxNext = ( ListItem_t * ) &( pxList->xListEnd );	/*lint !e826 !e740 !e9087 The mi
  50              		.loc 1 50 0
  51 001a 7B68     		ldr	r3, [r7, #4]
  52 001c 03F10802 		add	r2, r3, #8
  53 0020 7B68     		ldr	r3, [r7, #4]
  54 0022 DA60     		str	r2, [r3, #12]
  51:Source/list.c **** 	pxList->xListEnd.pxPrevious = ( ListItem_t * ) &( pxList->xListEnd );/*lint !e826 !e740 !e9087 The
  55              		.loc 1 51 0
  56 0024 7B68     		ldr	r3, [r7, #4]
  57 0026 03F10802 		add	r2, r3, #8
  58 002a 7B68     		ldr	r3, [r7, #4]
  59 002c 1A61     		str	r2, [r3, #16]
  52:Source/list.c **** 
  53:Source/list.c **** 	pxList->uxNumberOfItems = ( UBaseType_t ) 0U;
  60              		.loc 1 53 0
  61 002e 7B68     		ldr	r3, [r7, #4]
ARM GAS  C:\Users\mikke\AppData\Local\Temp\ccf2UgOO.s 			page 3


  62 0030 0022     		movs	r2, #0
  63 0032 1A60     		str	r2, [r3]
  54:Source/list.c **** 
  55:Source/list.c **** 	/* Write known values into the list if
  56:Source/list.c **** 	configUSE_LIST_DATA_INTEGRITY_CHECK_BYTES is set to 1. */
  57:Source/list.c **** 	listSET_LIST_INTEGRITY_CHECK_1_VALUE( pxList );
  58:Source/list.c **** 	listSET_LIST_INTEGRITY_CHECK_2_VALUE( pxList );
  59:Source/list.c **** }
  64              		.loc 1 59 0
  65 0034 00BF     		nop
  66 0036 0C37     		adds	r7, r7, #12
  67              		.cfi_def_cfa_offset 4
  68 0038 BD46     		mov	sp, r7
  69              		.cfi_def_cfa_register 13
  70              		@ sp needed
  71 003a 80BC     		pop	{r7}
  72              		.cfi_restore 7
  73              		.cfi_def_cfa_offset 0
  74 003c 7047     		bx	lr
  75              		.cfi_endproc
  76              	.LFE68:
  77              		.size	vListInitialise, .-vListInitialise
  78 003e 00BF     		.section	.text.vListInitialiseItem,"ax",%progbits
  79              		.align	2
  80              		.global	vListInitialiseItem
  81              		.thumb
  82              		.thumb_func
  83              		.type	vListInitialiseItem, %function
  84              	vListInitialiseItem:
  85              	.LFB69:
  60:Source/list.c **** /*-----------------------------------------------------------*/
  61:Source/list.c **** 
  62:Source/list.c **** void vListInitialiseItem( ListItem_t * const pxItem )
  63:Source/list.c **** {
  86              		.loc 1 63 0
  87              		.cfi_startproc
  88              		@ args = 0, pretend = 0, frame = 8
  89              		@ frame_needed = 1, uses_anonymous_args = 0
  90              		@ link register save eliminated.
  91 0000 80B4     		push	{r7}
  92              		.cfi_def_cfa_offset 4
  93              		.cfi_offset 7, -4
  94 0002 83B0     		sub	sp, sp, #12
  95              		.cfi_def_cfa_offset 16
  96 0004 00AF     		add	r7, sp, #0
  97              		.cfi_def_cfa_register 7
  98 0006 7860     		str	r0, [r7, #4]
  64:Source/list.c **** 	/* Make sure the list item is not recorded as being on a list. */
  65:Source/list.c **** 	pxItem->pxContainer = NULL;
  99              		.loc 1 65 0
 100 0008 7B68     		ldr	r3, [r7, #4]
 101 000a 0022     		movs	r2, #0
 102 000c 1A61     		str	r2, [r3, #16]
  66:Source/list.c **** 
  67:Source/list.c **** 	/* Write known values into the list item if
  68:Source/list.c **** 	configUSE_LIST_DATA_INTEGRITY_CHECK_BYTES is set to 1. */
  69:Source/list.c **** 	listSET_FIRST_LIST_ITEM_INTEGRITY_CHECK_VALUE( pxItem );
ARM GAS  C:\Users\mikke\AppData\Local\Temp\ccf2UgOO.s 			page 4


  70:Source/list.c **** 	listSET_SECOND_LIST_ITEM_INTEGRITY_CHECK_VALUE( pxItem );
  71:Source/list.c **** }
 103              		.loc 1 71 0
 104 000e 00BF     		nop
 105 0010 0C37     		adds	r7, r7, #12
 106              		.cfi_def_cfa_offset 4
 107 0012 BD46     		mov	sp, r7
 108              		.cfi_def_cfa_register 13
 109              		@ sp needed
 110 0014 80BC     		pop	{r7}
 111              		.cfi_restore 7
 112              		.cfi_def_cfa_offset 0
 113 0016 7047     		bx	lr
 114              		.cfi_endproc
 115              	.LFE69:
 116              		.size	vListInitialiseItem, .-vListInitialiseItem
 117              		.section	.text.vListInsertEnd,"ax",%progbits
 118              		.align	2
 119              		.global	vListInsertEnd
 120              		.thumb
 121              		.thumb_func
 122              		.type	vListInsertEnd, %function
 123              	vListInsertEnd:
 124              	.LFB70:
  72:Source/list.c **** /*-----------------------------------------------------------*/
  73:Source/list.c **** 
  74:Source/list.c **** void vListInsertEnd( List_t * const pxList, ListItem_t * const pxNewListItem )
  75:Source/list.c **** {
 125              		.loc 1 75 0
 126              		.cfi_startproc
 127              		@ args = 0, pretend = 0, frame = 16
 128              		@ frame_needed = 1, uses_anonymous_args = 0
 129              		@ link register save eliminated.
 130 0000 80B4     		push	{r7}
 131              		.cfi_def_cfa_offset 4
 132              		.cfi_offset 7, -4
 133 0002 85B0     		sub	sp, sp, #20
 134              		.cfi_def_cfa_offset 24
 135 0004 00AF     		add	r7, sp, #0
 136              		.cfi_def_cfa_register 7
 137 0006 7860     		str	r0, [r7, #4]
 138 0008 3960     		str	r1, [r7]
  76:Source/list.c **** ListItem_t * const pxIndex = pxList->pxIndex;
 139              		.loc 1 76 0
 140 000a 7B68     		ldr	r3, [r7, #4]
 141 000c 5B68     		ldr	r3, [r3, #4]
 142 000e FB60     		str	r3, [r7, #12]
  77:Source/list.c **** 
  78:Source/list.c **** 	/* Only effective when configASSERT() is also defined, these tests may catch
  79:Source/list.c **** 	the list data structures being overwritten in memory.  They will not catch
  80:Source/list.c **** 	data errors caused by incorrect configuration or use of FreeRTOS. */
  81:Source/list.c **** 	listTEST_LIST_INTEGRITY( pxList );
  82:Source/list.c **** 	listTEST_LIST_ITEM_INTEGRITY( pxNewListItem );
  83:Source/list.c **** 
  84:Source/list.c **** 	/* Insert a new list item into pxList, but rather than sort the list,
  85:Source/list.c **** 	makes the new list item the last item to be removed by a call to
  86:Source/list.c **** 	listGET_OWNER_OF_NEXT_ENTRY(). */
ARM GAS  C:\Users\mikke\AppData\Local\Temp\ccf2UgOO.s 			page 5


  87:Source/list.c **** 	pxNewListItem->pxNext = pxIndex;
 143              		.loc 1 87 0
 144 0010 3B68     		ldr	r3, [r7]
 145 0012 FA68     		ldr	r2, [r7, #12]
 146 0014 5A60     		str	r2, [r3, #4]
  88:Source/list.c **** 	pxNewListItem->pxPrevious = pxIndex->pxPrevious;
 147              		.loc 1 88 0
 148 0016 FB68     		ldr	r3, [r7, #12]
 149 0018 9A68     		ldr	r2, [r3, #8]
 150 001a 3B68     		ldr	r3, [r7]
 151 001c 9A60     		str	r2, [r3, #8]
  89:Source/list.c **** 
  90:Source/list.c **** 	/* Only used during decision coverage testing. */
  91:Source/list.c **** 	mtCOVERAGE_TEST_DELAY();
  92:Source/list.c **** 
  93:Source/list.c **** 	pxIndex->pxPrevious->pxNext = pxNewListItem;
 152              		.loc 1 93 0
 153 001e FB68     		ldr	r3, [r7, #12]
 154 0020 9B68     		ldr	r3, [r3, #8]
 155 0022 3A68     		ldr	r2, [r7]
 156 0024 5A60     		str	r2, [r3, #4]
  94:Source/list.c **** 	pxIndex->pxPrevious = pxNewListItem;
 157              		.loc 1 94 0
 158 0026 FB68     		ldr	r3, [r7, #12]
 159 0028 3A68     		ldr	r2, [r7]
 160 002a 9A60     		str	r2, [r3, #8]
  95:Source/list.c **** 
  96:Source/list.c **** 	/* Remember which list the item is in. */
  97:Source/list.c **** 	pxNewListItem->pxContainer = pxList;
 161              		.loc 1 97 0
 162 002c 3B68     		ldr	r3, [r7]
 163 002e 7A68     		ldr	r2, [r7, #4]
 164 0030 1A61     		str	r2, [r3, #16]
  98:Source/list.c **** 
  99:Source/list.c **** 	( pxList->uxNumberOfItems )++;
 165              		.loc 1 99 0
 166 0032 7B68     		ldr	r3, [r7, #4]
 167 0034 1B68     		ldr	r3, [r3]
 168 0036 5A1C     		adds	r2, r3, #1
 169 0038 7B68     		ldr	r3, [r7, #4]
 170 003a 1A60     		str	r2, [r3]
 100:Source/list.c **** }
 171              		.loc 1 100 0
 172 003c 00BF     		nop
 173 003e 1437     		adds	r7, r7, #20
 174              		.cfi_def_cfa_offset 4
 175 0040 BD46     		mov	sp, r7
 176              		.cfi_def_cfa_register 13
 177              		@ sp needed
 178 0042 80BC     		pop	{r7}
 179              		.cfi_restore 7
 180              		.cfi_def_cfa_offset 0
 181 0044 7047     		bx	lr
 182              		.cfi_endproc
 183              	.LFE70:
 184              		.size	vListInsertEnd, .-vListInsertEnd
 185 0046 00BF     		.section	.text.vListInsert,"ax",%progbits
ARM GAS  C:\Users\mikke\AppData\Local\Temp\ccf2UgOO.s 			page 6


 186              		.align	2
 187              		.global	vListInsert
 188              		.thumb
 189              		.thumb_func
 190              		.type	vListInsert, %function
 191              	vListInsert:
 192              	.LFB71:
 101:Source/list.c **** /*-----------------------------------------------------------*/
 102:Source/list.c **** 
 103:Source/list.c **** void vListInsert( List_t * const pxList, ListItem_t * const pxNewListItem )
 104:Source/list.c **** {
 193              		.loc 1 104 0
 194              		.cfi_startproc
 195              		@ args = 0, pretend = 0, frame = 16
 196              		@ frame_needed = 1, uses_anonymous_args = 0
 197              		@ link register save eliminated.
 198 0000 80B4     		push	{r7}
 199              		.cfi_def_cfa_offset 4
 200              		.cfi_offset 7, -4
 201 0002 85B0     		sub	sp, sp, #20
 202              		.cfi_def_cfa_offset 24
 203 0004 00AF     		add	r7, sp, #0
 204              		.cfi_def_cfa_register 7
 205 0006 7860     		str	r0, [r7, #4]
 206 0008 3960     		str	r1, [r7]
 105:Source/list.c **** ListItem_t *pxIterator;
 106:Source/list.c **** const TickType_t xValueOfInsertion = pxNewListItem->xItemValue;
 207              		.loc 1 106 0
 208 000a 3B68     		ldr	r3, [r7]
 209 000c 1B68     		ldr	r3, [r3]
 210 000e BB60     		str	r3, [r7, #8]
 107:Source/list.c **** 
 108:Source/list.c **** 	/* Only effective when configASSERT() is also defined, these tests may catch
 109:Source/list.c **** 	the list data structures being overwritten in memory.  They will not catch
 110:Source/list.c **** 	data errors caused by incorrect configuration or use of FreeRTOS. */
 111:Source/list.c **** 	listTEST_LIST_INTEGRITY( pxList );
 112:Source/list.c **** 	listTEST_LIST_ITEM_INTEGRITY( pxNewListItem );
 113:Source/list.c **** 
 114:Source/list.c **** 	/* Insert the new list item into the list, sorted in xItemValue order.
 115:Source/list.c **** 
 116:Source/list.c **** 	If the list already contains a list item with the same item value then the
 117:Source/list.c **** 	new list item should be placed after it.  This ensures that TCBs which are
 118:Source/list.c **** 	stored in ready lists (all of which have the same xItemValue value) get a
 119:Source/list.c **** 	share of the CPU.  However, if the xItemValue is the same as the back marker
 120:Source/list.c **** 	the iteration loop below will not end.  Therefore the value is checked
 121:Source/list.c **** 	first, and the algorithm slightly modified if necessary. */
 122:Source/list.c **** 	if( xValueOfInsertion == portMAX_DELAY )
 211              		.loc 1 122 0
 212 0010 BB68     		ldr	r3, [r7, #8]
 213 0012 B3F1FF3F 		cmp	r3, #-1
 214 0016 03D1     		bne	.L5
 123:Source/list.c **** 	{
 124:Source/list.c **** 		pxIterator = pxList->xListEnd.pxPrevious;
 215              		.loc 1 124 0
 216 0018 7B68     		ldr	r3, [r7, #4]
 217 001a 1B69     		ldr	r3, [r3, #16]
 218 001c FB60     		str	r3, [r7, #12]
ARM GAS  C:\Users\mikke\AppData\Local\Temp\ccf2UgOO.s 			page 7


 219 001e 0CE0     		b	.L6
 220              	.L5:
 125:Source/list.c **** 	}
 126:Source/list.c **** 	else
 127:Source/list.c **** 	{
 128:Source/list.c **** 		/* *** NOTE ***********************************************************
 129:Source/list.c **** 		If you find your application is crashing here then likely causes are
 130:Source/list.c **** 		listed below.  In addition see https://www.freertos.org/FAQHelp.html for
 131:Source/list.c **** 		more tips, and ensure configASSERT() is defined!
 132:Source/list.c **** 		https://www.freertos.org/a00110.html#configASSERT
 133:Source/list.c **** 
 134:Source/list.c **** 			1) Stack overflow -
 135:Source/list.c **** 			   see https://www.freertos.org/Stacks-and-stack-overflow-checking.html
 136:Source/list.c **** 			2) Incorrect interrupt priority assignment, especially on Cortex-M
 137:Source/list.c **** 			   parts where numerically high priority values denote low actual
 138:Source/list.c **** 			   interrupt priorities, which can seem counter intuitive.  See
 139:Source/list.c **** 			   https://www.freertos.org/RTOS-Cortex-M3-M4.html and the definition
 140:Source/list.c **** 			   of configMAX_SYSCALL_INTERRUPT_PRIORITY on
 141:Source/list.c **** 			   https://www.freertos.org/a00110.html
 142:Source/list.c **** 			3) Calling an API function from within a critical section or when
 143:Source/list.c **** 			   the scheduler is suspended, or calling an API function that does
 144:Source/list.c **** 			   not end in "FromISR" from an interrupt.
 145:Source/list.c **** 			4) Using a queue or semaphore before it has been initialised or
 146:Source/list.c **** 			   before the scheduler has been started (are interrupts firing
 147:Source/list.c **** 			   before vTaskStartScheduler() has been called?).
 148:Source/list.c **** 		**********************************************************************/
 149:Source/list.c **** 
 150:Source/list.c **** 		for( pxIterator = ( ListItem_t * ) &( pxList->xListEnd ); pxIterator->pxNext->xItemValue <= xValu
 221              		.loc 1 150 0
 222 0020 7B68     		ldr	r3, [r7, #4]
 223 0022 0833     		adds	r3, r3, #8
 224 0024 FB60     		str	r3, [r7, #12]
 225 0026 02E0     		b	.L7
 226              	.L8:
 227              		.loc 1 150 0 is_stmt 0 discriminator 3
 228 0028 FB68     		ldr	r3, [r7, #12]
 229 002a 5B68     		ldr	r3, [r3, #4]
 230 002c FB60     		str	r3, [r7, #12]
 231              	.L7:
 232              		.loc 1 150 0 discriminator 1
 233 002e FB68     		ldr	r3, [r7, #12]
 234 0030 5B68     		ldr	r3, [r3, #4]
 235 0032 1A68     		ldr	r2, [r3]
 236 0034 BB68     		ldr	r3, [r7, #8]
 237 0036 9A42     		cmp	r2, r3
 238 0038 F6D9     		bls	.L8
 239              	.L6:
 151:Source/list.c **** 		{
 152:Source/list.c **** 			/* There is nothing to do here, just iterating to the wanted
 153:Source/list.c **** 			insertion position. */
 154:Source/list.c **** 		}
 155:Source/list.c **** 	}
 156:Source/list.c **** 
 157:Source/list.c **** 	pxNewListItem->pxNext = pxIterator->pxNext;
 240              		.loc 1 157 0 is_stmt 1
 241 003a FB68     		ldr	r3, [r7, #12]
 242 003c 5A68     		ldr	r2, [r3, #4]
ARM GAS  C:\Users\mikke\AppData\Local\Temp\ccf2UgOO.s 			page 8


 243 003e 3B68     		ldr	r3, [r7]
 244 0040 5A60     		str	r2, [r3, #4]
 158:Source/list.c **** 	pxNewListItem->pxNext->pxPrevious = pxNewListItem;
 245              		.loc 1 158 0
 246 0042 3B68     		ldr	r3, [r7]
 247 0044 5B68     		ldr	r3, [r3, #4]
 248 0046 3A68     		ldr	r2, [r7]
 249 0048 9A60     		str	r2, [r3, #8]
 159:Source/list.c **** 	pxNewListItem->pxPrevious = pxIterator;
 250              		.loc 1 159 0
 251 004a 3B68     		ldr	r3, [r7]
 252 004c FA68     		ldr	r2, [r7, #12]
 253 004e 9A60     		str	r2, [r3, #8]
 160:Source/list.c **** 	pxIterator->pxNext = pxNewListItem;
 254              		.loc 1 160 0
 255 0050 FB68     		ldr	r3, [r7, #12]
 256 0052 3A68     		ldr	r2, [r7]
 257 0054 5A60     		str	r2, [r3, #4]
 161:Source/list.c **** 
 162:Source/list.c **** 	/* Remember which list the item is in.  This allows fast removal of the
 163:Source/list.c **** 	item later. */
 164:Source/list.c **** 	pxNewListItem->pxContainer = pxList;
 258              		.loc 1 164 0
 259 0056 3B68     		ldr	r3, [r7]
 260 0058 7A68     		ldr	r2, [r7, #4]
 261 005a 1A61     		str	r2, [r3, #16]
 165:Source/list.c **** 
 166:Source/list.c **** 	( pxList->uxNumberOfItems )++;
 262              		.loc 1 166 0
 263 005c 7B68     		ldr	r3, [r7, #4]
 264 005e 1B68     		ldr	r3, [r3]
 265 0060 5A1C     		adds	r2, r3, #1
 266 0062 7B68     		ldr	r3, [r7, #4]
 267 0064 1A60     		str	r2, [r3]
 167:Source/list.c **** }
 268              		.loc 1 167 0
 269 0066 00BF     		nop
 270 0068 1437     		adds	r7, r7, #20
 271              		.cfi_def_cfa_offset 4
 272 006a BD46     		mov	sp, r7
 273              		.cfi_def_cfa_register 13
 274              		@ sp needed
 275 006c 80BC     		pop	{r7}
 276              		.cfi_restore 7
 277              		.cfi_def_cfa_offset 0
 278 006e 7047     		bx	lr
 279              		.cfi_endproc
 280              	.LFE71:
 281              		.size	vListInsert, .-vListInsert
 282              		.section	.text.uxListRemove,"ax",%progbits
 283              		.align	2
 284              		.global	uxListRemove
 285              		.thumb
 286              		.thumb_func
 287              		.type	uxListRemove, %function
 288              	uxListRemove:
 289              	.LFB72:
ARM GAS  C:\Users\mikke\AppData\Local\Temp\ccf2UgOO.s 			page 9


 168:Source/list.c **** /*-----------------------------------------------------------*/
 169:Source/list.c **** 
 170:Source/list.c **** UBaseType_t uxListRemove( ListItem_t * const pxItemToRemove )
 171:Source/list.c **** {
 290              		.loc 1 171 0
 291              		.cfi_startproc
 292              		@ args = 0, pretend = 0, frame = 16
 293              		@ frame_needed = 1, uses_anonymous_args = 0
 294              		@ link register save eliminated.
 295 0000 80B4     		push	{r7}
 296              		.cfi_def_cfa_offset 4
 297              		.cfi_offset 7, -4
 298 0002 85B0     		sub	sp, sp, #20
 299              		.cfi_def_cfa_offset 24
 300 0004 00AF     		add	r7, sp, #0
 301              		.cfi_def_cfa_register 7
 302 0006 7860     		str	r0, [r7, #4]
 172:Source/list.c **** /* The list item knows which list it is in.  Obtain the list from the list
 173:Source/list.c **** item. */
 174:Source/list.c **** List_t * const pxList = pxItemToRemove->pxContainer;
 303              		.loc 1 174 0
 304 0008 7B68     		ldr	r3, [r7, #4]
 305 000a 1B69     		ldr	r3, [r3, #16]
 306 000c FB60     		str	r3, [r7, #12]
 175:Source/list.c **** 
 176:Source/list.c **** 	pxItemToRemove->pxNext->pxPrevious = pxItemToRemove->pxPrevious;
 307              		.loc 1 176 0
 308 000e 7B68     		ldr	r3, [r7, #4]
 309 0010 5B68     		ldr	r3, [r3, #4]
 310 0012 7A68     		ldr	r2, [r7, #4]
 311 0014 9268     		ldr	r2, [r2, #8]
 312 0016 9A60     		str	r2, [r3, #8]
 177:Source/list.c **** 	pxItemToRemove->pxPrevious->pxNext = pxItemToRemove->pxNext;
 313              		.loc 1 177 0
 314 0018 7B68     		ldr	r3, [r7, #4]
 315 001a 9B68     		ldr	r3, [r3, #8]
 316 001c 7A68     		ldr	r2, [r7, #4]
 317 001e 5268     		ldr	r2, [r2, #4]
 318 0020 5A60     		str	r2, [r3, #4]
 178:Source/list.c **** 
 179:Source/list.c **** 	/* Only used during decision coverage testing. */
 180:Source/list.c **** 	mtCOVERAGE_TEST_DELAY();
 181:Source/list.c **** 
 182:Source/list.c **** 	/* Make sure the index is left pointing to a valid item. */
 183:Source/list.c **** 	if( pxList->pxIndex == pxItemToRemove )
 319              		.loc 1 183 0
 320 0022 FB68     		ldr	r3, [r7, #12]
 321 0024 5A68     		ldr	r2, [r3, #4]
 322 0026 7B68     		ldr	r3, [r7, #4]
 323 0028 9A42     		cmp	r2, r3
 324 002a 03D1     		bne	.L10
 184:Source/list.c **** 	{
 185:Source/list.c **** 		pxList->pxIndex = pxItemToRemove->pxPrevious;
 325              		.loc 1 185 0
 326 002c 7B68     		ldr	r3, [r7, #4]
 327 002e 9A68     		ldr	r2, [r3, #8]
 328 0030 FB68     		ldr	r3, [r7, #12]
ARM GAS  C:\Users\mikke\AppData\Local\Temp\ccf2UgOO.s 			page 10


 329 0032 5A60     		str	r2, [r3, #4]
 330              	.L10:
 186:Source/list.c **** 	}
 187:Source/list.c **** 	else
 188:Source/list.c **** 	{
 189:Source/list.c **** 		mtCOVERAGE_TEST_MARKER();
 190:Source/list.c **** 	}
 191:Source/list.c **** 
 192:Source/list.c **** 	pxItemToRemove->pxContainer = NULL;
 331              		.loc 1 192 0
 332 0034 7B68     		ldr	r3, [r7, #4]
 333 0036 0022     		movs	r2, #0
 334 0038 1A61     		str	r2, [r3, #16]
 193:Source/list.c **** 	( pxList->uxNumberOfItems )--;
 335              		.loc 1 193 0
 336 003a FB68     		ldr	r3, [r7, #12]
 337 003c 1B68     		ldr	r3, [r3]
 338 003e 5A1E     		subs	r2, r3, #1
 339 0040 FB68     		ldr	r3, [r7, #12]
 340 0042 1A60     		str	r2, [r3]
 194:Source/list.c **** 
 195:Source/list.c **** 	return pxList->uxNumberOfItems;
 341              		.loc 1 195 0
 342 0044 FB68     		ldr	r3, [r7, #12]
 343 0046 1B68     		ldr	r3, [r3]
 196:Source/list.c **** }
 344              		.loc 1 196 0
 345 0048 1846     		mov	r0, r3
 346 004a 1437     		adds	r7, r7, #20
 347              		.cfi_def_cfa_offset 4
 348 004c BD46     		mov	sp, r7
 349              		.cfi_def_cfa_register 13
 350              		@ sp needed
 351 004e 80BC     		pop	{r7}
 352              		.cfi_restore 7
 353              		.cfi_def_cfa_offset 0
 354 0050 7047     		bx	lr
 355              		.cfi_endproc
 356              	.LFE72:
 357              		.size	uxListRemove, .-uxListRemove
 358 0052 00BF     		.text
 359              	.Letext0:
 360              		.file 2 "c:\\program files (x86)\\cypress\\psoc creator\\4.3\\psoc creator\\import\\gnu\\arm\\5.4.
 361              		.file 3 "c:\\program files (x86)\\cypress\\psoc creator\\4.3\\psoc creator\\import\\gnu\\arm\\5.4.
 362              		.file 4 ".\\Source\\portable\\GCC\\ARM_CM3/portmacro.h"
 363              		.file 5 ".\\Source\\include/list.h"
 364              		.file 6 "Generated_Source\\PSoC5/core_cm3.h"