ARM GAS  C:\Users\mabo\AppData\Local\Temp\ccGjZ5Ob.s 			page 1


   1              		.syntax unified
   2              		.cpu cortex-m3
   3              		.fpu softvfp
   4              		.eabi_attribute 20, 1
   5              		.eabi_attribute 21, 1
   6              		.eabi_attribute 23, 3
   7              		.eabi_attribute 24, 1
   8              		.eabi_attribute 25, 1
   9              		.eabi_attribute 26, 1
  10              		.eabi_attribute 30, 6
  11              		.eabi_attribute 34, 1
  12              		.eabi_attribute 18, 4
  13              		.thumb
  14              		.syntax unified
  15              		.file	"main.c"
  16              		.text
  17              	.Ltext0:
  18              		.cfi_sections	.debug_frame
  19              		.section	.text.main,"ax",%progbits
  20              		.align	2
  21              		.global	main
  22              		.thumb
  23              		.thumb_func
  24              		.type	main, %function
  25              	main:
  26              	.LFB68:
  27              		.file 1 "main.c"
   1:main.c        **** /*
   2:main.c        ****  * FreeRTOS Kernel V10.3.1
   3:main.c        ****  * Copyright (C) 2020 Amazon.com, Inc. or its affiliates.  All Rights Reserved.
   4:main.c        ****  *
   5:main.c        ****  * Permission is hereby granted, free of charge, to any person obtaining a copy of
   6:main.c        ****  * this software and associated documentation files (the "Software"), to deal in
   7:main.c        ****  * the Software without restriction, including without limitation the rights to
   8:main.c        ****  * use, copy, modify, merge, publish, distribute, sublicense, and/or sell copies of
   9:main.c        ****  * the Software, and to permit persons to whom the Software is furnished to do so,
  10:main.c        ****  * subject to the following conditions:
  11:main.c        ****  *
  12:main.c        ****  * The above copyright notice and this permission notice shall be included in all
  13:main.c        ****  * copies or substantial portions of the Software.
  14:main.c        ****  *
  15:main.c        ****  * THE SOFTWARE IS PROVIDED "AS IS", WITHOUT WARRANTY OF ANY KIND, EXPRESS OR
  16:main.c        ****  * IMPLIED, INCLUDING BUT NOT LIMITED TO THE WARRANTIES OF MERCHANTABILITY, FITNESS
  17:main.c        ****  * FOR A PARTICULAR PURPOSE AND NONINFRINGEMENT. IN NO EVENT SHALL THE AUTHORS OR
  18:main.c        ****  * COPYRIGHT HOLDERS BE LIABLE FOR ANY CLAIM, DAMAGES OR OTHER LIABILITY, WHETHER
  19:main.c        ****  * IN AN ACTION OF CONTRACT, TORT OR OTHERWISE, ARISING FROM, OUT OF OR IN
  20:main.c        ****  * CONNECTION WITH THE SOFTWARE OR THE USE OR OTHER DEALINGS IN THE SOFTWARE.
  21:main.c        ****  *
  22:main.c        ****  * http://www.FreeRTOS.org
  23:main.c        ****  * http://aws.amazon.com/freertos
  24:main.c        ****  *
  25:main.c        ****  * 1 tab == 4 spaces!
  26:main.c        ****  */
  27:main.c        **** 
  28:main.c        **** #include <device.h>
  29:main.c        **** 
  30:main.c        **** /* RTOS includes. */
ARM GAS  C:\Users\mabo\AppData\Local\Temp\ccGjZ5Ob.s 			page 2


  31:main.c        **** #include "FreeRTOS.h"
  32:main.c        **** #include "task.h"
  33:main.c        **** #include "queue.h"
  34:main.c        **** #include "semphr.h"
  35:main.c        **** 
  36:main.c        **** /* Plantemodul includes */
  37:main.c        **** #include "Nutrients.h"
  38:main.c        **** 
  39:main.c        **** 
  40:main.c        **** /* The time between cycles of the 'check' functionality (defined within the
  41:main.c        **** tick hook. */
  42:main.c        **** #define mainCHECK_DELAY						( ( TickType_t ) 5000 / portTICK_PERIOD_MS )
  43:main.c        **** #define mainCOM_LED							( 3 )
  44:main.c        **** 
  45:main.c        **** /* The number of nano seconds between each processor clock. */
  46:main.c        **** #define mainNS_PER_CLOCK ( ( unsigned long ) ( ( 1.0 / ( double ) configCPU_CLOCK_HZ ) * 1000000000
  47:main.c        **** 
  48:main.c        **** /*
  49:main.c        ****  * Installs the RTOS interrupt handlers and starts the peripherals.
  50:main.c        ****  */
  51:main.c        **** static void prvHardwareSetup( void );
  52:main.c        **** /*---------------------------------------------------------------------------*/
  53:main.c        **** 
  54:main.c        **** 
  55:main.c        **** int main( void )
  56:main.c        **** {
  28              		.loc 1 56 0
  29              		.cfi_startproc
  30              		@ args = 0, pretend = 0, frame = 0
  31              		@ frame_needed = 1, uses_anonymous_args = 0
  32 0000 80B5     		push	{r7, lr}
  33              		.cfi_def_cfa_offset 8
  34              		.cfi_offset 7, -8
  35              		.cfi_offset 14, -4
  36 0002 00AF     		add	r7, sp, #0
  37              		.cfi_def_cfa_register 7
  57:main.c        ****     /* Place your initialization/startup code here (e.g. MyInst_Start()) */
  58:main.c        **** 	prvHardwareSetup();
  38              		.loc 1 58 0
  39 0004 FFF7FEFF 		bl	prvHardwareSetup
  59:main.c        ****     
  60:main.c        ****     vNutrientsInit(); //initialize Nutrients control task and parameteres
  40              		.loc 1 60 0
  41 0008 FFF7FEFF 		bl	vNutrientsInit
  61:main.c        ****      
  62:main.c        ****     
  63:main.c        ****     
  64:main.c        **** 	/* Will only get here if there was insufficient memory to create the idle
  65:main.c        ****     task.  The idle task is created within vTaskStartScheduler(). */
  66:main.c        **** 	vTaskStartScheduler();
  42              		.loc 1 66 0
  43 000c FFF7FEFF 		bl	vTaskStartScheduler
  44              	.L2:
  67:main.c        **** 
  68:main.c        ****     
  69:main.c        ****     
  70:main.c        **** 	/* Should never reach here as the kernel will now be running.  If
ARM GAS  C:\Users\mabo\AppData\Local\Temp\ccGjZ5Ob.s 			page 3


  71:main.c        **** 	vTaskStartScheduler() does return then it is very likely that there was
  72:main.c        **** 	insufficient (FreeRTOS) heap space available to create all the tasks,
  73:main.c        **** 	including the idle task that is created within vTaskStartScheduler() itself. */
  74:main.c        **** 	for( ;; );
  45              		.loc 1 74 0 discriminator 1
  46 0010 FEE7     		b	.L2
  47              		.cfi_endproc
  48              	.LFE68:
  49              		.size	main, .-main
  50 0012 00BF     		.section	.text.prvHardwareSetup,"ax",%progbits
  51              		.align	2
  52              		.thumb
  53              		.thumb_func
  54              		.type	prvHardwareSetup, %function
  55              	prvHardwareSetup:
  56              	.LFB69:
  75:main.c        **** }
  76:main.c        **** /*---------------------------------------------------------------------------*/
  77:main.c        **** 
  78:main.c        **** 
  79:main.c        **** 
  80:main.c        **** 
  81:main.c        **** 
  82:main.c        **** void prvHardwareSetup( void )
  83:main.c        **** {
  57              		.loc 1 83 0
  58              		.cfi_startproc
  59              		@ args = 0, pretend = 0, frame = 0
  60              		@ frame_needed = 1, uses_anonymous_args = 0
  61 0000 80B5     		push	{r7, lr}
  62              		.cfi_def_cfa_offset 8
  63              		.cfi_offset 7, -8
  64              		.cfi_offset 14, -4
  65 0002 00AF     		add	r7, sp, #0
  66              		.cfi_def_cfa_register 7
  84:main.c        **** /* Port layer functions that need to be copied into the vector table. */
  85:main.c        **** extern void xPortPendSVHandler( void );
  86:main.c        **** extern void xPortSysTickHandler( void );
  87:main.c        **** extern void vPortSVCHandler( void );
  88:main.c        **** extern cyisraddress CyRamVectors[];
  89:main.c        **** 
  90:main.c        **** 
  91:main.c        **** 
  92:main.c        **** 	/* Install the OS Interrupt Handlers. */
  93:main.c        **** 	CyRamVectors[ 11 ] = ( cyisraddress ) vPortSVCHandler;
  67              		.loc 1 93 0
  68 0004 074B     		ldr	r3, .L4
  69 0006 084A     		ldr	r2, .L4+4
  70 0008 DA62     		str	r2, [r3, #44]
  94:main.c        **** 	CyRamVectors[ 14 ] = ( cyisraddress ) xPortPendSVHandler;
  71              		.loc 1 94 0
  72 000a 064B     		ldr	r3, .L4
  73 000c 074A     		ldr	r2, .L4+8
  74 000e 9A63     		str	r2, [r3, #56]
  95:main.c        **** 	CyRamVectors[ 15 ] = ( cyisraddress ) xPortSysTickHandler;
  75              		.loc 1 95 0
  76 0010 044B     		ldr	r3, .L4
ARM GAS  C:\Users\mabo\AppData\Local\Temp\ccGjZ5Ob.s 			page 4


  77 0012 074A     		ldr	r2, .L4+12
  78 0014 DA63     		str	r2, [r3, #60]
  96:main.c        **** 
  97:main.c        ****     
  98:main.c        **** 	/* Start-up the peripherals. */
  99:main.c        ****     
 100:main.c        ****     
 101:main.c        ****     PWM_PERISTALTISK_1_Start(); //start PWM module 1
  79              		.loc 1 101 0
  80 0016 FFF7FEFF 		bl	PWM_PERISTALTISK_1_Start
 102:main.c        ****     PWM_PERISTALTISK_2_Start(); //start PWM module 2
  81              		.loc 1 102 0
  82 001a FFF7FEFF 		bl	PWM_PERISTALTISK_2_Start
 103:main.c        **** }
  83              		.loc 1 103 0
  84 001e 00BF     		nop
  85 0020 80BD     		pop	{r7, pc}
  86              	.L5:
  87 0022 00BF     		.align	2
  88              	.L4:
  89 0024 00000000 		.word	CyRamVectors
  90 0028 00000000 		.word	vPortSVCHandler
  91 002c 00000000 		.word	xPortPendSVHandler
  92 0030 00000000 		.word	xPortSysTickHandler
  93              		.cfi_endproc
  94              	.LFE69:
  95              		.size	prvHardwareSetup, .-prvHardwareSetup
  96              		.section	.text.vApplicationStackOverflowHook,"ax",%progbits
  97              		.align	2
  98              		.global	vApplicationStackOverflowHook
  99              		.thumb
 100              		.thumb_func
 101              		.type	vApplicationStackOverflowHook, %function
 102              	vApplicationStackOverflowHook:
 103              	.LFB70:
 104:main.c        **** /*---------------------------------------------------------------------------*/
 105:main.c        **** 
 106:main.c        **** 
 107:main.c        **** void vApplicationStackOverflowHook( TaskHandle_t pxTask, char *pcTaskName )
 108:main.c        **** {
 104              		.loc 1 108 0
 105              		.cfi_startproc
 106              		@ args = 0, pretend = 0, frame = 16
 107              		@ frame_needed = 1, uses_anonymous_args = 0
 108              		@ link register save eliminated.
 109 0000 80B4     		push	{r7}
 110              		.cfi_def_cfa_offset 4
 111              		.cfi_offset 7, -4
 112 0002 85B0     		sub	sp, sp, #20
 113              		.cfi_def_cfa_offset 24
 114 0004 00AF     		add	r7, sp, #0
 115              		.cfi_def_cfa_register 7
 116 0006 7860     		str	r0, [r7, #4]
 117 0008 3960     		str	r1, [r7]
 118              	.LBB6:
 119              	.LBB7:
 120              		.file 2 ".\\Source\\portable\\GCC\\ARM_CM3/portmacro.h"
ARM GAS  C:\Users\mabo\AppData\Local\Temp\ccGjZ5Ob.s 			page 5


   1:.\Source\portable\GCC\ARM_CM3/portmacro.h **** /*
   2:.\Source\portable\GCC\ARM_CM3/portmacro.h ****  * FreeRTOS Kernel V10.3.1
   3:.\Source\portable\GCC\ARM_CM3/portmacro.h ****  * Copyright (C) 2020 Amazon.com, Inc. or its affiliates.  All Rights Reserved.
   4:.\Source\portable\GCC\ARM_CM3/portmacro.h ****  *
   5:.\Source\portable\GCC\ARM_CM3/portmacro.h ****  * Permission is hereby granted, free of charge, to any person obtaining a copy of
   6:.\Source\portable\GCC\ARM_CM3/portmacro.h ****  * this software and associated documentation files (the "Software"), to deal in
   7:.\Source\portable\GCC\ARM_CM3/portmacro.h ****  * the Software without restriction, including without limitation the rights to
   8:.\Source\portable\GCC\ARM_CM3/portmacro.h ****  * use, copy, modify, merge, publish, distribute, sublicense, and/or sell copies of
   9:.\Source\portable\GCC\ARM_CM3/portmacro.h ****  * the Software, and to permit persons to whom the Software is furnished to do so,
  10:.\Source\portable\GCC\ARM_CM3/portmacro.h ****  * subject to the following conditions:
  11:.\Source\portable\GCC\ARM_CM3/portmacro.h ****  *
  12:.\Source\portable\GCC\ARM_CM3/portmacro.h ****  * The above copyright notice and this permission notice shall be included in all
  13:.\Source\portable\GCC\ARM_CM3/portmacro.h ****  * copies or substantial portions of the Software.
  14:.\Source\portable\GCC\ARM_CM3/portmacro.h ****  *
  15:.\Source\portable\GCC\ARM_CM3/portmacro.h ****  * THE SOFTWARE IS PROVIDED "AS IS", WITHOUT WARRANTY OF ANY KIND, EXPRESS OR
  16:.\Source\portable\GCC\ARM_CM3/portmacro.h ****  * IMPLIED, INCLUDING BUT NOT LIMITED TO THE WARRANTIES OF MERCHANTABILITY, FITNESS
  17:.\Source\portable\GCC\ARM_CM3/portmacro.h ****  * FOR A PARTICULAR PURPOSE AND NONINFRINGEMENT. IN NO EVENT SHALL THE AUTHORS OR
  18:.\Source\portable\GCC\ARM_CM3/portmacro.h ****  * COPYRIGHT HOLDERS BE LIABLE FOR ANY CLAIM, DAMAGES OR OTHER LIABILITY, WHETHER
  19:.\Source\portable\GCC\ARM_CM3/portmacro.h ****  * IN AN ACTION OF CONTRACT, TORT OR OTHERWISE, ARISING FROM, OUT OF OR IN
  20:.\Source\portable\GCC\ARM_CM3/portmacro.h ****  * CONNECTION WITH THE SOFTWARE OR THE USE OR OTHER DEALINGS IN THE SOFTWARE.
  21:.\Source\portable\GCC\ARM_CM3/portmacro.h ****  *
  22:.\Source\portable\GCC\ARM_CM3/portmacro.h ****  * http://www.FreeRTOS.org
  23:.\Source\portable\GCC\ARM_CM3/portmacro.h ****  * http://aws.amazon.com/freertos
  24:.\Source\portable\GCC\ARM_CM3/portmacro.h ****  *
  25:.\Source\portable\GCC\ARM_CM3/portmacro.h ****  * 1 tab == 4 spaces!
  26:.\Source\portable\GCC\ARM_CM3/portmacro.h ****  */
  27:.\Source\portable\GCC\ARM_CM3/portmacro.h **** 
  28:.\Source\portable\GCC\ARM_CM3/portmacro.h **** 
  29:.\Source\portable\GCC\ARM_CM3/portmacro.h **** #ifndef PORTMACRO_H
  30:.\Source\portable\GCC\ARM_CM3/portmacro.h **** #define PORTMACRO_H
  31:.\Source\portable\GCC\ARM_CM3/portmacro.h **** 
  32:.\Source\portable\GCC\ARM_CM3/portmacro.h **** #ifdef __cplusplus
  33:.\Source\portable\GCC\ARM_CM3/portmacro.h **** extern "C" {
  34:.\Source\portable\GCC\ARM_CM3/portmacro.h **** #endif
  35:.\Source\portable\GCC\ARM_CM3/portmacro.h **** 
  36:.\Source\portable\GCC\ARM_CM3/portmacro.h **** /*-----------------------------------------------------------
  37:.\Source\portable\GCC\ARM_CM3/portmacro.h ****  * Port specific definitions.
  38:.\Source\portable\GCC\ARM_CM3/portmacro.h ****  *
  39:.\Source\portable\GCC\ARM_CM3/portmacro.h ****  * The settings in this file configure FreeRTOS correctly for the
  40:.\Source\portable\GCC\ARM_CM3/portmacro.h ****  * given hardware and compiler.
  41:.\Source\portable\GCC\ARM_CM3/portmacro.h ****  *
  42:.\Source\portable\GCC\ARM_CM3/portmacro.h ****  * These settings should not be altered.
  43:.\Source\portable\GCC\ARM_CM3/portmacro.h ****  *-----------------------------------------------------------
  44:.\Source\portable\GCC\ARM_CM3/portmacro.h ****  */
  45:.\Source\portable\GCC\ARM_CM3/portmacro.h **** 
  46:.\Source\portable\GCC\ARM_CM3/portmacro.h **** /* Type definitions. */
  47:.\Source\portable\GCC\ARM_CM3/portmacro.h **** #define portCHAR		char
  48:.\Source\portable\GCC\ARM_CM3/portmacro.h **** #define portFLOAT		float
  49:.\Source\portable\GCC\ARM_CM3/portmacro.h **** #define portDOUBLE		double
  50:.\Source\portable\GCC\ARM_CM3/portmacro.h **** #define portLONG		long
  51:.\Source\portable\GCC\ARM_CM3/portmacro.h **** #define portSHORT		short
  52:.\Source\portable\GCC\ARM_CM3/portmacro.h **** #define portSTACK_TYPE	uint32_t
  53:.\Source\portable\GCC\ARM_CM3/portmacro.h **** #define portBASE_TYPE	long
  54:.\Source\portable\GCC\ARM_CM3/portmacro.h **** 
  55:.\Source\portable\GCC\ARM_CM3/portmacro.h **** typedef portSTACK_TYPE StackType_t;
  56:.\Source\portable\GCC\ARM_CM3/portmacro.h **** typedef long BaseType_t;
  57:.\Source\portable\GCC\ARM_CM3/portmacro.h **** typedef unsigned long UBaseType_t;
ARM GAS  C:\Users\mabo\AppData\Local\Temp\ccGjZ5Ob.s 			page 6


  58:.\Source\portable\GCC\ARM_CM3/portmacro.h **** 
  59:.\Source\portable\GCC\ARM_CM3/portmacro.h **** #if( configUSE_16_BIT_TICKS == 1 )
  60:.\Source\portable\GCC\ARM_CM3/portmacro.h **** 	typedef uint16_t TickType_t;
  61:.\Source\portable\GCC\ARM_CM3/portmacro.h **** 	#define portMAX_DELAY ( TickType_t ) 0xffff
  62:.\Source\portable\GCC\ARM_CM3/portmacro.h **** #else
  63:.\Source\portable\GCC\ARM_CM3/portmacro.h **** 	typedef uint32_t TickType_t;
  64:.\Source\portable\GCC\ARM_CM3/portmacro.h **** 	#define portMAX_DELAY ( TickType_t ) 0xffffffffUL
  65:.\Source\portable\GCC\ARM_CM3/portmacro.h **** 
  66:.\Source\portable\GCC\ARM_CM3/portmacro.h **** 	/* 32-bit tick type on a 32-bit architecture, so reads of the tick count do
  67:.\Source\portable\GCC\ARM_CM3/portmacro.h **** 	not need to be guarded with a critical section. */
  68:.\Source\portable\GCC\ARM_CM3/portmacro.h **** 	#define portTICK_TYPE_IS_ATOMIC 1
  69:.\Source\portable\GCC\ARM_CM3/portmacro.h **** #endif
  70:.\Source\portable\GCC\ARM_CM3/portmacro.h **** /*-----------------------------------------------------------*/
  71:.\Source\portable\GCC\ARM_CM3/portmacro.h **** 
  72:.\Source\portable\GCC\ARM_CM3/portmacro.h **** /* Architecture specifics. */
  73:.\Source\portable\GCC\ARM_CM3/portmacro.h **** #define portSTACK_GROWTH			( -1 )
  74:.\Source\portable\GCC\ARM_CM3/portmacro.h **** #define portTICK_PERIOD_MS			( ( TickType_t ) 1000 / configTICK_RATE_HZ )
  75:.\Source\portable\GCC\ARM_CM3/portmacro.h **** #define portBYTE_ALIGNMENT			8
  76:.\Source\portable\GCC\ARM_CM3/portmacro.h **** /*-----------------------------------------------------------*/
  77:.\Source\portable\GCC\ARM_CM3/portmacro.h **** 
  78:.\Source\portable\GCC\ARM_CM3/portmacro.h **** /* Scheduler utilities. */
  79:.\Source\portable\GCC\ARM_CM3/portmacro.h **** #define portYIELD() 															\
  80:.\Source\portable\GCC\ARM_CM3/portmacro.h **** {																				\
  81:.\Source\portable\GCC\ARM_CM3/portmacro.h **** 	/* Set a PendSV to request a context switch. */								\
  82:.\Source\portable\GCC\ARM_CM3/portmacro.h **** 	portNVIC_INT_CTRL_REG = portNVIC_PENDSVSET_BIT;								\
  83:.\Source\portable\GCC\ARM_CM3/portmacro.h **** 																				\
  84:.\Source\portable\GCC\ARM_CM3/portmacro.h **** 	/* Barriers are normally not required but do ensure the code is completely	\
  85:.\Source\portable\GCC\ARM_CM3/portmacro.h **** 	within the specified behaviour for the architecture. */						\
  86:.\Source\portable\GCC\ARM_CM3/portmacro.h **** 	__asm volatile( "dsb" ::: "memory" );										\
  87:.\Source\portable\GCC\ARM_CM3/portmacro.h **** 	__asm volatile( "isb" );													\
  88:.\Source\portable\GCC\ARM_CM3/portmacro.h **** }
  89:.\Source\portable\GCC\ARM_CM3/portmacro.h **** 
  90:.\Source\portable\GCC\ARM_CM3/portmacro.h **** #define portNVIC_INT_CTRL_REG		( * ( ( volatile uint32_t * ) 0xe000ed04 ) )
  91:.\Source\portable\GCC\ARM_CM3/portmacro.h **** #define portNVIC_PENDSVSET_BIT		( 1UL << 28UL )
  92:.\Source\portable\GCC\ARM_CM3/portmacro.h **** #define portEND_SWITCHING_ISR( xSwitchRequired ) if( xSwitchRequired != pdFALSE ) portYIELD()
  93:.\Source\portable\GCC\ARM_CM3/portmacro.h **** #define portYIELD_FROM_ISR( x ) portEND_SWITCHING_ISR( x )
  94:.\Source\portable\GCC\ARM_CM3/portmacro.h **** /*-----------------------------------------------------------*/
  95:.\Source\portable\GCC\ARM_CM3/portmacro.h **** 
  96:.\Source\portable\GCC\ARM_CM3/portmacro.h **** /* Critical section management. */
  97:.\Source\portable\GCC\ARM_CM3/portmacro.h **** extern void vPortEnterCritical( void );
  98:.\Source\portable\GCC\ARM_CM3/portmacro.h **** extern void vPortExitCritical( void );
  99:.\Source\portable\GCC\ARM_CM3/portmacro.h **** #define portSET_INTERRUPT_MASK_FROM_ISR()		ulPortRaiseBASEPRI()
 100:.\Source\portable\GCC\ARM_CM3/portmacro.h **** #define portCLEAR_INTERRUPT_MASK_FROM_ISR(x)	vPortSetBASEPRI(x)
 101:.\Source\portable\GCC\ARM_CM3/portmacro.h **** #define portDISABLE_INTERRUPTS()				vPortRaiseBASEPRI()
 102:.\Source\portable\GCC\ARM_CM3/portmacro.h **** #define portENABLE_INTERRUPTS()					vPortSetBASEPRI(0)
 103:.\Source\portable\GCC\ARM_CM3/portmacro.h **** #define portENTER_CRITICAL()					vPortEnterCritical()
 104:.\Source\portable\GCC\ARM_CM3/portmacro.h **** #define portEXIT_CRITICAL()						vPortExitCritical()
 105:.\Source\portable\GCC\ARM_CM3/portmacro.h **** 
 106:.\Source\portable\GCC\ARM_CM3/portmacro.h **** /*-----------------------------------------------------------*/
 107:.\Source\portable\GCC\ARM_CM3/portmacro.h **** 
 108:.\Source\portable\GCC\ARM_CM3/portmacro.h **** /* Task function macros as described on the FreeRTOS.org WEB site.  These are
 109:.\Source\portable\GCC\ARM_CM3/portmacro.h **** not necessary for to use this port.  They are defined so the common demo files
 110:.\Source\portable\GCC\ARM_CM3/portmacro.h **** (which build with all the ports) will build. */
 111:.\Source\portable\GCC\ARM_CM3/portmacro.h **** #define portTASK_FUNCTION_PROTO( vFunction, pvParameters ) void vFunction( void *pvParameters )
 112:.\Source\portable\GCC\ARM_CM3/portmacro.h **** #define portTASK_FUNCTION( vFunction, pvParameters ) void vFunction( void *pvParameters )
 113:.\Source\portable\GCC\ARM_CM3/portmacro.h **** /*-----------------------------------------------------------*/
 114:.\Source\portable\GCC\ARM_CM3/portmacro.h **** 
ARM GAS  C:\Users\mabo\AppData\Local\Temp\ccGjZ5Ob.s 			page 7


 115:.\Source\portable\GCC\ARM_CM3/portmacro.h **** /* Tickless idle/low power functionality. */
 116:.\Source\portable\GCC\ARM_CM3/portmacro.h **** #ifndef portSUPPRESS_TICKS_AND_SLEEP
 117:.\Source\portable\GCC\ARM_CM3/portmacro.h **** 	extern void vPortSuppressTicksAndSleep( TickType_t xExpectedIdleTime );
 118:.\Source\portable\GCC\ARM_CM3/portmacro.h **** 	#define portSUPPRESS_TICKS_AND_SLEEP( xExpectedIdleTime ) vPortSuppressTicksAndSleep( xExpectedIdl
 119:.\Source\portable\GCC\ARM_CM3/portmacro.h **** #endif
 120:.\Source\portable\GCC\ARM_CM3/portmacro.h **** /*-----------------------------------------------------------*/
 121:.\Source\portable\GCC\ARM_CM3/portmacro.h **** 
 122:.\Source\portable\GCC\ARM_CM3/portmacro.h **** /* Architecture specific optimisations. */
 123:.\Source\portable\GCC\ARM_CM3/portmacro.h **** #ifndef configUSE_PORT_OPTIMISED_TASK_SELECTION
 124:.\Source\portable\GCC\ARM_CM3/portmacro.h **** 	#define configUSE_PORT_OPTIMISED_TASK_SELECTION 1
 125:.\Source\portable\GCC\ARM_CM3/portmacro.h **** #endif
 126:.\Source\portable\GCC\ARM_CM3/portmacro.h **** 
 127:.\Source\portable\GCC\ARM_CM3/portmacro.h **** #if configUSE_PORT_OPTIMISED_TASK_SELECTION == 1
 128:.\Source\portable\GCC\ARM_CM3/portmacro.h **** 
 129:.\Source\portable\GCC\ARM_CM3/portmacro.h **** 	/* Generic helper function. */
 130:.\Source\portable\GCC\ARM_CM3/portmacro.h **** 	__attribute__( ( always_inline ) ) static inline uint8_t ucPortCountLeadingZeros( uint32_t ulBitma
 131:.\Source\portable\GCC\ARM_CM3/portmacro.h **** 	{
 132:.\Source\portable\GCC\ARM_CM3/portmacro.h **** 	uint8_t ucReturn;
 133:.\Source\portable\GCC\ARM_CM3/portmacro.h **** 
 134:.\Source\portable\GCC\ARM_CM3/portmacro.h **** 		__asm volatile ( "clz %0, %1" : "=r" ( ucReturn ) : "r" ( ulBitmap ) : "memory" );
 135:.\Source\portable\GCC\ARM_CM3/portmacro.h **** 		return ucReturn;
 136:.\Source\portable\GCC\ARM_CM3/portmacro.h **** 	}
 137:.\Source\portable\GCC\ARM_CM3/portmacro.h **** 
 138:.\Source\portable\GCC\ARM_CM3/portmacro.h **** 	/* Check the configuration. */
 139:.\Source\portable\GCC\ARM_CM3/portmacro.h **** 	#if( configMAX_PRIORITIES > 32 )
 140:.\Source\portable\GCC\ARM_CM3/portmacro.h **** 		#error configUSE_PORT_OPTIMISED_TASK_SELECTION can only be set to 1 when configMAX_PRIORITIES is 
 141:.\Source\portable\GCC\ARM_CM3/portmacro.h **** 	#endif
 142:.\Source\portable\GCC\ARM_CM3/portmacro.h **** 
 143:.\Source\portable\GCC\ARM_CM3/portmacro.h **** 	/* Store/clear the ready priorities in a bit map. */
 144:.\Source\portable\GCC\ARM_CM3/portmacro.h **** 	#define portRECORD_READY_PRIORITY( uxPriority, uxReadyPriorities ) ( uxReadyPriorities ) |= ( 1UL 
 145:.\Source\portable\GCC\ARM_CM3/portmacro.h **** 	#define portRESET_READY_PRIORITY( uxPriority, uxReadyPriorities ) ( uxReadyPriorities ) &= ~( 1UL 
 146:.\Source\portable\GCC\ARM_CM3/portmacro.h **** 
 147:.\Source\portable\GCC\ARM_CM3/portmacro.h **** 	/*-----------------------------------------------------------*/
 148:.\Source\portable\GCC\ARM_CM3/portmacro.h **** 
 149:.\Source\portable\GCC\ARM_CM3/portmacro.h **** 	#define portGET_HIGHEST_PRIORITY( uxTopPriority, uxReadyPriorities ) uxTopPriority = ( 31UL - ( ui
 150:.\Source\portable\GCC\ARM_CM3/portmacro.h **** 
 151:.\Source\portable\GCC\ARM_CM3/portmacro.h **** #endif /* configUSE_PORT_OPTIMISED_TASK_SELECTION */
 152:.\Source\portable\GCC\ARM_CM3/portmacro.h **** 
 153:.\Source\portable\GCC\ARM_CM3/portmacro.h **** /*-----------------------------------------------------------*/
 154:.\Source\portable\GCC\ARM_CM3/portmacro.h **** 
 155:.\Source\portable\GCC\ARM_CM3/portmacro.h **** #ifdef configASSERT
 156:.\Source\portable\GCC\ARM_CM3/portmacro.h **** 	void vPortValidateInterruptPriority( void );
 157:.\Source\portable\GCC\ARM_CM3/portmacro.h **** 	#define portASSERT_IF_INTERRUPT_PRIORITY_INVALID() 	vPortValidateInterruptPriority()
 158:.\Source\portable\GCC\ARM_CM3/portmacro.h **** #endif
 159:.\Source\portable\GCC\ARM_CM3/portmacro.h **** 
 160:.\Source\portable\GCC\ARM_CM3/portmacro.h **** /* portNOP() is not required by this port. */
 161:.\Source\portable\GCC\ARM_CM3/portmacro.h **** #define portNOP()
 162:.\Source\portable\GCC\ARM_CM3/portmacro.h **** 
 163:.\Source\portable\GCC\ARM_CM3/portmacro.h **** #define portINLINE	__inline
 164:.\Source\portable\GCC\ARM_CM3/portmacro.h **** 
 165:.\Source\portable\GCC\ARM_CM3/portmacro.h **** #ifndef portFORCE_INLINE
 166:.\Source\portable\GCC\ARM_CM3/portmacro.h **** 	#define portFORCE_INLINE inline __attribute__(( always_inline))
 167:.\Source\portable\GCC\ARM_CM3/portmacro.h **** #endif
 168:.\Source\portable\GCC\ARM_CM3/portmacro.h **** 
 169:.\Source\portable\GCC\ARM_CM3/portmacro.h **** /*-----------------------------------------------------------*/
 170:.\Source\portable\GCC\ARM_CM3/portmacro.h **** 
 171:.\Source\portable\GCC\ARM_CM3/portmacro.h **** portFORCE_INLINE static BaseType_t xPortIsInsideInterrupt( void )
ARM GAS  C:\Users\mabo\AppData\Local\Temp\ccGjZ5Ob.s 			page 8


 172:.\Source\portable\GCC\ARM_CM3/portmacro.h **** {
 173:.\Source\portable\GCC\ARM_CM3/portmacro.h **** uint32_t ulCurrentInterrupt;
 174:.\Source\portable\GCC\ARM_CM3/portmacro.h **** BaseType_t xReturn;
 175:.\Source\portable\GCC\ARM_CM3/portmacro.h **** 
 176:.\Source\portable\GCC\ARM_CM3/portmacro.h **** 	/* Obtain the number of the currently executing interrupt. */
 177:.\Source\portable\GCC\ARM_CM3/portmacro.h **** 	__asm volatile( "mrs %0, ipsr" : "=r"( ulCurrentInterrupt ) :: "memory" );
 178:.\Source\portable\GCC\ARM_CM3/portmacro.h **** 
 179:.\Source\portable\GCC\ARM_CM3/portmacro.h **** 	if( ulCurrentInterrupt == 0 )
 180:.\Source\portable\GCC\ARM_CM3/portmacro.h **** 	{
 181:.\Source\portable\GCC\ARM_CM3/portmacro.h **** 		xReturn = pdFALSE;
 182:.\Source\portable\GCC\ARM_CM3/portmacro.h **** 	}
 183:.\Source\portable\GCC\ARM_CM3/portmacro.h **** 	else
 184:.\Source\portable\GCC\ARM_CM3/portmacro.h **** 	{
 185:.\Source\portable\GCC\ARM_CM3/portmacro.h **** 		xReturn = pdTRUE;
 186:.\Source\portable\GCC\ARM_CM3/portmacro.h **** 	}
 187:.\Source\portable\GCC\ARM_CM3/portmacro.h **** 
 188:.\Source\portable\GCC\ARM_CM3/portmacro.h **** 	return xReturn;
 189:.\Source\portable\GCC\ARM_CM3/portmacro.h **** }
 190:.\Source\portable\GCC\ARM_CM3/portmacro.h **** 
 191:.\Source\portable\GCC\ARM_CM3/portmacro.h **** /*-----------------------------------------------------------*/
 192:.\Source\portable\GCC\ARM_CM3/portmacro.h **** 
 193:.\Source\portable\GCC\ARM_CM3/portmacro.h **** portFORCE_INLINE static void vPortRaiseBASEPRI( void )
 194:.\Source\portable\GCC\ARM_CM3/portmacro.h **** {
 195:.\Source\portable\GCC\ARM_CM3/portmacro.h **** uint32_t ulNewBASEPRI;
 196:.\Source\portable\GCC\ARM_CM3/portmacro.h **** 
 197:.\Source\portable\GCC\ARM_CM3/portmacro.h **** 	__asm volatile
 121              		.loc 2 197 0
 122              		.syntax unified
 123              	@ 197 ".\Source\portable\GCC\ARM_CM3/portmacro.h" 1
 124 000a 4FF0A003 			mov r3, #160												
 125 000e 83F31188 		msr basepri, r3											
 126 0012 BFF36F8F 		isb														
 127 0016 BFF34F8F 		dsb														
 128              	
 129              	@ 0 "" 2
 130              		.thumb
 131              		.syntax unified
 132 001a FB60     		str	r3, [r7, #12]
 133              	.L7:
 134              	.LBE7:
 135              	.LBE6:
 109:main.c        **** 	/* The stack space has been execeeded for a task, considering allocating more. */
 110:main.c        **** 	taskDISABLE_INTERRUPTS();
 111:main.c        **** 	for( ;; );
 136              		.loc 1 111 0 discriminator 1
 137 001c FEE7     		b	.L7
 138              		.cfi_endproc
 139              	.LFE70:
 140              		.size	vApplicationStackOverflowHook, .-vApplicationStackOverflowHook
 141 001e 00BF     		.section	.text.vApplicationMallocFailedHook,"ax",%progbits
 142              		.align	2
 143              		.global	vApplicationMallocFailedHook
 144              		.thumb
 145              		.thumb_func
 146              		.type	vApplicationMallocFailedHook, %function
 147              	vApplicationMallocFailedHook:
 148              	.LFB71:
ARM GAS  C:\Users\mabo\AppData\Local\Temp\ccGjZ5Ob.s 			page 9


 112:main.c        **** }
 113:main.c        **** /*---------------------------------------------------------------------------*/
 114:main.c        **** 
 115:main.c        **** void vApplicationMallocFailedHook( void )
 116:main.c        **** {
 149              		.loc 1 116 0
 150              		.cfi_startproc
 151              		@ args = 0, pretend = 0, frame = 8
 152              		@ frame_needed = 1, uses_anonymous_args = 0
 153              		@ link register save eliminated.
 154 0000 80B4     		push	{r7}
 155              		.cfi_def_cfa_offset 4
 156              		.cfi_offset 7, -4
 157 0002 83B0     		sub	sp, sp, #12
 158              		.cfi_def_cfa_offset 16
 159 0004 00AF     		add	r7, sp, #0
 160              		.cfi_def_cfa_register 7
 161              	.LBB8:
 162              	.LBB9:
 163              		.loc 2 197 0
 164              		.syntax unified
 165              	@ 197 ".\Source\portable\GCC\ARM_CM3/portmacro.h" 1
 166 0006 4FF0A003 			mov r3, #160												
 167 000a 83F31188 		msr basepri, r3											
 168 000e BFF36F8F 		isb														
 169 0012 BFF34F8F 		dsb														
 170              	
 171              	@ 0 "" 2
 172              		.thumb
 173              		.syntax unified
 174 0016 7B60     		str	r3, [r7, #4]
 175              	.L9:
 176              	.LBE9:
 177              	.LBE8:
 117:main.c        **** 	/* The heap space has been execeeded. */
 118:main.c        **** 	taskDISABLE_INTERRUPTS();
 119:main.c        **** 	for( ;; );
 178              		.loc 1 119 0 discriminator 1
 179 0018 FEE7     		b	.L9
 180              		.cfi_endproc
 181              	.LFE71:
 182              		.size	vApplicationMallocFailedHook, .-vApplicationMallocFailedHook
 183 001a 00BF     		.text
 184              	.Letext0:
 185              		.file 3 "c:\\program files (x86)\\cypress\\psoc creator\\4.3\\psoc creator\\import\\gnu\\arm\\5.4.
 186              		.file 4 "c:\\program files (x86)\\cypress\\psoc creator\\4.3\\psoc creator\\import\\gnu\\arm\\5.4.
 187              		.file 5 "Generated_Source\\PSoC5/cytypes.h"
 188              		.file 6 ".\\Source\\include/task.h"
 189              		.file 7 "Generated_Source\\PSoC5/core_cm3.h"