ARM GAS  C:\Users\mikke\AppData\Local\Temp\ccQCZNNL.s 			page 1


   1              		.syntax unified
   2              		.cpu cortex-m3
   3              		.fpu softvfp
   4              		.eabi_attribute 20, 1
   5              		.eabi_attribute 21, 1
   6              		.eabi_attribute 23, 3
   7              		.eabi_attribute 24, 1
   8              		.eabi_attribute 25, 1
   9              		.eabi_attribute 26, 1
  10              		.eabi_attribute 30, 6
  11              		.eabi_attribute 34, 1
  12              		.eabi_attribute 18, 4
  13              		.thumb
  14              		.syntax unified
  15              		.file	"mpu_wrappers.c"
  16              		.text
  17              	.Ltext0:
  18              		.cfi_sections	.debug_frame
  19              		.section	.text.xPortRaisePrivilege,"ax",%progbits
  20              		.align	2
  21              		.global	xPortRaisePrivilege
  22              		.thumb
  23              		.thumb_func
  24              		.type	xPortRaisePrivilege, %function
  25              	xPortRaisePrivilege:
  26              	.LFB68:
  27              		.file 1 "Source\\portable\\Common\\mpu_wrappers.c"
   1:Source\portable\Common/mpu_wrappers.c **** /*
   2:Source\portable\Common/mpu_wrappers.c ****  * FreeRTOS Kernel V10.3.1
   3:Source\portable\Common/mpu_wrappers.c ****  * Copyright (C) 2020 Amazon.com, Inc. or its affiliates.  All Rights Reserved.
   4:Source\portable\Common/mpu_wrappers.c ****  *
   5:Source\portable\Common/mpu_wrappers.c ****  * Permission is hereby granted, free of charge, to any person obtaining a copy of
   6:Source\portable\Common/mpu_wrappers.c ****  * this software and associated documentation files (the "Software"), to deal in
   7:Source\portable\Common/mpu_wrappers.c ****  * the Software without restriction, including without limitation the rights to
   8:Source\portable\Common/mpu_wrappers.c ****  * use, copy, modify, merge, publish, distribute, sublicense, and/or sell copies of
   9:Source\portable\Common/mpu_wrappers.c ****  * the Software, and to permit persons to whom the Software is furnished to do so,
  10:Source\portable\Common/mpu_wrappers.c ****  * subject to the following conditions:
  11:Source\portable\Common/mpu_wrappers.c ****  *
  12:Source\portable\Common/mpu_wrappers.c ****  * The above copyright notice and this permission notice shall be included in all
  13:Source\portable\Common/mpu_wrappers.c ****  * copies or substantial portions of the Software.
  14:Source\portable\Common/mpu_wrappers.c ****  *
  15:Source\portable\Common/mpu_wrappers.c ****  * THE SOFTWARE IS PROVIDED "AS IS", WITHOUT WARRANTY OF ANY KIND, EXPRESS OR
  16:Source\portable\Common/mpu_wrappers.c ****  * IMPLIED, INCLUDING BUT NOT LIMITED TO THE WARRANTIES OF MERCHANTABILITY, FITNESS
  17:Source\portable\Common/mpu_wrappers.c ****  * FOR A PARTICULAR PURPOSE AND NONINFRINGEMENT. IN NO EVENT SHALL THE AUTHORS OR
  18:Source\portable\Common/mpu_wrappers.c ****  * COPYRIGHT HOLDERS BE LIABLE FOR ANY CLAIM, DAMAGES OR OTHER LIABILITY, WHETHER
  19:Source\portable\Common/mpu_wrappers.c ****  * IN AN ACTION OF CONTRACT, TORT OR OTHERWISE, ARISING FROM, OUT OF OR IN
  20:Source\portable\Common/mpu_wrappers.c ****  * CONNECTION WITH THE SOFTWARE OR THE USE OR OTHER DEALINGS IN THE SOFTWARE.
  21:Source\portable\Common/mpu_wrappers.c ****  *
  22:Source\portable\Common/mpu_wrappers.c ****  * http://www.FreeRTOS.org
  23:Source\portable\Common/mpu_wrappers.c ****  * http://aws.amazon.com/freertos
  24:Source\portable\Common/mpu_wrappers.c ****  *
  25:Source\portable\Common/mpu_wrappers.c ****  * 1 tab == 4 spaces!
  26:Source\portable\Common/mpu_wrappers.c ****  */
  27:Source\portable\Common/mpu_wrappers.c **** 
  28:Source\portable\Common/mpu_wrappers.c **** /*
  29:Source\portable\Common/mpu_wrappers.c ****  * Implementation of the wrapper functions used to raise the processor privilege
  30:Source\portable\Common/mpu_wrappers.c ****  * before calling a standard FreeRTOS API function.
ARM GAS  C:\Users\mikke\AppData\Local\Temp\ccQCZNNL.s 			page 2


  31:Source\portable\Common/mpu_wrappers.c ****  */
  32:Source\portable\Common/mpu_wrappers.c **** 
  33:Source\portable\Common/mpu_wrappers.c **** /* Defining MPU_WRAPPERS_INCLUDED_FROM_API_FILE prevents task.h from redefining
  34:Source\portable\Common/mpu_wrappers.c **** all the API functions to use the MPU wrappers.  That should only be done when
  35:Source\portable\Common/mpu_wrappers.c **** task.h is included from an application file. */
  36:Source\portable\Common/mpu_wrappers.c **** #define MPU_WRAPPERS_INCLUDED_FROM_API_FILE
  37:Source\portable\Common/mpu_wrappers.c **** 
  38:Source\portable\Common/mpu_wrappers.c **** /* Scheduler includes. */
  39:Source\portable\Common/mpu_wrappers.c **** #include "FreeRTOS.h"
  40:Source\portable\Common/mpu_wrappers.c **** #include "task.h"
  41:Source\portable\Common/mpu_wrappers.c **** #include "queue.h"
  42:Source\portable\Common/mpu_wrappers.c **** #include "timers.h"
  43:Source\portable\Common/mpu_wrappers.c **** #include "event_groups.h"
  44:Source\portable\Common/mpu_wrappers.c **** #include "stream_buffer.h"
  45:Source\portable\Common/mpu_wrappers.c **** #include "mpu_prototypes.h"
  46:Source\portable\Common/mpu_wrappers.c **** 
  47:Source\portable\Common/mpu_wrappers.c **** #undef MPU_WRAPPERS_INCLUDED_FROM_API_FILE
  48:Source\portable\Common/mpu_wrappers.c **** 
  49:Source\portable\Common/mpu_wrappers.c **** /**
  50:Source\portable\Common/mpu_wrappers.c ****  * @brief Calls the port specific code to raise the privilege.
  51:Source\portable\Common/mpu_wrappers.c ****  *
  52:Source\portable\Common/mpu_wrappers.c ****  * @return pdFALSE if privilege was raised, pdTRUE otherwise.
  53:Source\portable\Common/mpu_wrappers.c ****  */
  54:Source\portable\Common/mpu_wrappers.c **** BaseType_t xPortRaisePrivilege( void ) FREERTOS_SYSTEM_CALL;
  55:Source\portable\Common/mpu_wrappers.c **** 
  56:Source\portable\Common/mpu_wrappers.c **** /**
  57:Source\portable\Common/mpu_wrappers.c ****  * @brief If xRunningPrivileged is not pdTRUE, calls the port specific
  58:Source\portable\Common/mpu_wrappers.c ****  * code to reset the privilege, otherwise does nothing.
  59:Source\portable\Common/mpu_wrappers.c ****  */
  60:Source\portable\Common/mpu_wrappers.c **** void vPortResetPrivilege( BaseType_t xRunningPrivileged );
  61:Source\portable\Common/mpu_wrappers.c **** /*-----------------------------------------------------------*/
  62:Source\portable\Common/mpu_wrappers.c **** 
  63:Source\portable\Common/mpu_wrappers.c **** BaseType_t xPortRaisePrivilege( void ) /* FREERTOS_SYSTEM_CALL */
  64:Source\portable\Common/mpu_wrappers.c **** {
  28              		.loc 1 64 0
  29              		.cfi_startproc
  30              		@ args = 0, pretend = 0, frame = 8
  31              		@ frame_needed = 1, uses_anonymous_args = 0
  32 0000 80B5     		push	{r7, lr}
  33              		.cfi_def_cfa_offset 8
  34              		.cfi_offset 7, -8
  35              		.cfi_offset 14, -4
  36 0002 82B0     		sub	sp, sp, #8
  37              		.cfi_def_cfa_offset 16
  38 0004 00AF     		add	r7, sp, #0
  39              		.cfi_def_cfa_register 7
  65:Source\portable\Common/mpu_wrappers.c **** BaseType_t xRunningPrivileged;
  66:Source\portable\Common/mpu_wrappers.c **** 
  67:Source\portable\Common/mpu_wrappers.c **** 	/* Check whether the processor is already privileged. */
  68:Source\portable\Common/mpu_wrappers.c **** 	xRunningPrivileged = portIS_PRIVILEGED();
  40              		.loc 1 68 0
  41 0006 FFF7FEFF 		bl	portIS_PRIVILEGED
  42 000a 7860     		str	r0, [r7, #4]
  69:Source\portable\Common/mpu_wrappers.c **** 
  70:Source\portable\Common/mpu_wrappers.c **** 	/* If the processor is not already privileged, raise privilege. */
  71:Source\portable\Common/mpu_wrappers.c **** 	if( xRunningPrivileged != pdTRUE )
  43              		.loc 1 71 0
ARM GAS  C:\Users\mikke\AppData\Local\Temp\ccQCZNNL.s 			page 3


  44 000c 7B68     		ldr	r3, [r7, #4]
  45 000e 012B     		cmp	r3, #1
  46 0010 01D0     		beq	.L2
  47              	.LBB2:
  72:Source\portable\Common/mpu_wrappers.c **** 	{
  73:Source\portable\Common/mpu_wrappers.c **** 		portRAISE_PRIVILEGE();
  48              		.loc 1 73 0
  49 0012 FFF7FEFF 		bl	portRAISE_PRIVILEGE
  50              	.L2:
  51              	.LBE2:
  74:Source\portable\Common/mpu_wrappers.c **** 	}
  75:Source\portable\Common/mpu_wrappers.c **** 
  76:Source\portable\Common/mpu_wrappers.c **** 	return xRunningPrivileged;
  52              		.loc 1 76 0
  53 0016 7B68     		ldr	r3, [r7, #4]
  77:Source\portable\Common/mpu_wrappers.c **** }
  54              		.loc 1 77 0
  55 0018 1846     		mov	r0, r3
  56 001a 0837     		adds	r7, r7, #8
  57              		.cfi_def_cfa_offset 8
  58 001c BD46     		mov	sp, r7
  59              		.cfi_def_cfa_register 13
  60              		@ sp needed
  61 001e 80BD     		pop	{r7, pc}
  62              		.cfi_endproc
  63              	.LFE68:
  64              		.size	xPortRaisePrivilege, .-xPortRaisePrivilege
  65              		.section	.text.vPortResetPrivilege,"ax",%progbits
  66              		.align	2
  67              		.global	vPortResetPrivilege
  68              		.thumb
  69              		.thumb_func
  70              		.type	vPortResetPrivilege, %function
  71              	vPortResetPrivilege:
  72              	.LFB69:
  78:Source\portable\Common/mpu_wrappers.c **** /*-----------------------------------------------------------*/
  79:Source\portable\Common/mpu_wrappers.c **** 
  80:Source\portable\Common/mpu_wrappers.c **** void vPortResetPrivilege( BaseType_t xRunningPrivileged )
  81:Source\portable\Common/mpu_wrappers.c **** {
  73              		.loc 1 81 0
  74              		.cfi_startproc
  75              		@ args = 0, pretend = 0, frame = 8
  76              		@ frame_needed = 1, uses_anonymous_args = 0
  77 0000 80B5     		push	{r7, lr}
  78              		.cfi_def_cfa_offset 8
  79              		.cfi_offset 7, -8
  80              		.cfi_offset 14, -4
  81 0002 82B0     		sub	sp, sp, #8
  82              		.cfi_def_cfa_offset 16
  83 0004 00AF     		add	r7, sp, #0
  84              		.cfi_def_cfa_register 7
  85 0006 7860     		str	r0, [r7, #4]
  82:Source\portable\Common/mpu_wrappers.c **** 	if( xRunningPrivileged != pdTRUE )
  86              		.loc 1 82 0
  87 0008 7B68     		ldr	r3, [r7, #4]
  88 000a 012B     		cmp	r3, #1
  89 000c 01D0     		beq	.L6
ARM GAS  C:\Users\mikke\AppData\Local\Temp\ccQCZNNL.s 			page 4


  90              	.LBB3:
  83:Source\portable\Common/mpu_wrappers.c **** 	{
  84:Source\portable\Common/mpu_wrappers.c **** 		portRESET_PRIVILEGE();
  91              		.loc 1 84 0
  92 000e FFF7FEFF 		bl	portRESET_PRIVILEGE
  93              	.L6:
  94              	.LBE3:
  85:Source\portable\Common/mpu_wrappers.c **** 	}
  86:Source\portable\Common/mpu_wrappers.c **** }
  95              		.loc 1 86 0
  96 0012 00BF     		nop
  97 0014 0837     		adds	r7, r7, #8
  98              		.cfi_def_cfa_offset 8
  99 0016 BD46     		mov	sp, r7
 100              		.cfi_def_cfa_register 13
 101              		@ sp needed
 102 0018 80BD     		pop	{r7, pc}
 103              		.cfi_endproc
 104              	.LFE69:
 105              		.size	vPortResetPrivilege, .-vPortResetPrivilege
 106 001a 00BF     		.section	.text.MPU_xTaskCreateRestricted,"ax",%progbits
 107              		.align	2
 108              		.global	MPU_xTaskCreateRestricted
 109              		.thumb
 110              		.thumb_func
 111              		.type	MPU_xTaskCreateRestricted, %function
 112              	MPU_xTaskCreateRestricted:
 113              	.LFB70:
  87:Source\portable\Common/mpu_wrappers.c **** /*-----------------------------------------------------------*/
  88:Source\portable\Common/mpu_wrappers.c **** 
  89:Source\portable\Common/mpu_wrappers.c **** #if( configSUPPORT_DYNAMIC_ALLOCATION == 1 )
  90:Source\portable\Common/mpu_wrappers.c **** 	BaseType_t MPU_xTaskCreateRestricted( const TaskParameters_t * const pxTaskDefinition, TaskHandle_
  91:Source\portable\Common/mpu_wrappers.c **** 	{
 114              		.loc 1 91 0
 115              		.cfi_startproc
 116              		@ args = 0, pretend = 0, frame = 16
 117              		@ frame_needed = 1, uses_anonymous_args = 0
 118 0000 80B5     		push	{r7, lr}
 119              		.cfi_def_cfa_offset 8
 120              		.cfi_offset 7, -8
 121              		.cfi_offset 14, -4
 122 0002 84B0     		sub	sp, sp, #16
 123              		.cfi_def_cfa_offset 24
 124 0004 00AF     		add	r7, sp, #0
 125              		.cfi_def_cfa_register 7
 126 0006 7860     		str	r0, [r7, #4]
 127 0008 3960     		str	r1, [r7]
  92:Source\portable\Common/mpu_wrappers.c **** 	BaseType_t xReturn;
  93:Source\portable\Common/mpu_wrappers.c **** 	BaseType_t xRunningPrivileged = xPortRaisePrivilege();
 128              		.loc 1 93 0
 129 000a FFF7FEFF 		bl	xPortRaisePrivilege
 130 000e F860     		str	r0, [r7, #12]
  94:Source\portable\Common/mpu_wrappers.c **** 
  95:Source\portable\Common/mpu_wrappers.c **** 		xReturn = xTaskCreateRestricted( pxTaskDefinition, pxCreatedTask );
 131              		.loc 1 95 0
 132 0010 3968     		ldr	r1, [r7]
 133 0012 7868     		ldr	r0, [r7, #4]
ARM GAS  C:\Users\mikke\AppData\Local\Temp\ccQCZNNL.s 			page 5


 134 0014 FFF7FEFF 		bl	xTaskCreateRestricted
 135 0018 B860     		str	r0, [r7, #8]
  96:Source\portable\Common/mpu_wrappers.c **** 		vPortResetPrivilege( xRunningPrivileged );
 136              		.loc 1 96 0
 137 001a F868     		ldr	r0, [r7, #12]
 138 001c FFF7FEFF 		bl	vPortResetPrivilege
  97:Source\portable\Common/mpu_wrappers.c **** 		return xReturn;
 139              		.loc 1 97 0
 140 0020 BB68     		ldr	r3, [r7, #8]
  98:Source\portable\Common/mpu_wrappers.c **** 	}
 141              		.loc 1 98 0
 142 0022 1846     		mov	r0, r3
 143 0024 1037     		adds	r7, r7, #16
 144              		.cfi_def_cfa_offset 8
 145 0026 BD46     		mov	sp, r7
 146              		.cfi_def_cfa_register 13
 147              		@ sp needed
 148 0028 80BD     		pop	{r7, pc}
 149              		.cfi_endproc
 150              	.LFE70:
 151              		.size	MPU_xTaskCreateRestricted, .-MPU_xTaskCreateRestricted
 152              		.section	.text.MPU_xTaskCreate,"ax",%progbits
 153              		.align	2
 154              		.global	MPU_xTaskCreate
 155              		.thumb
 156              		.thumb_func
 157              		.type	MPU_xTaskCreate, %function
 158              	MPU_xTaskCreate:
 159              	.LFB71:
  99:Source\portable\Common/mpu_wrappers.c **** #endif /* conifgSUPPORT_DYNAMIC_ALLOCATION */
 100:Source\portable\Common/mpu_wrappers.c **** /*-----------------------------------------------------------*/
 101:Source\portable\Common/mpu_wrappers.c **** 
 102:Source\portable\Common/mpu_wrappers.c **** #if( configSUPPORT_STATIC_ALLOCATION == 1 )
 103:Source\portable\Common/mpu_wrappers.c **** 	BaseType_t MPU_xTaskCreateRestrictedStatic( const TaskParameters_t * const pxTaskDefinition, TaskH
 104:Source\portable\Common/mpu_wrappers.c **** 	{
 105:Source\portable\Common/mpu_wrappers.c **** 	BaseType_t xReturn;
 106:Source\portable\Common/mpu_wrappers.c **** 	BaseType_t xRunningPrivileged = xPortRaisePrivilege();
 107:Source\portable\Common/mpu_wrappers.c **** 
 108:Source\portable\Common/mpu_wrappers.c **** 		xReturn = xTaskCreateRestrictedStatic( pxTaskDefinition, pxCreatedTask );
 109:Source\portable\Common/mpu_wrappers.c **** 		vPortResetPrivilege( xRunningPrivileged );
 110:Source\portable\Common/mpu_wrappers.c **** 		return xReturn;
 111:Source\portable\Common/mpu_wrappers.c **** 	}
 112:Source\portable\Common/mpu_wrappers.c **** #endif /* conifgSUPPORT_DYNAMIC_ALLOCATION */
 113:Source\portable\Common/mpu_wrappers.c **** /*-----------------------------------------------------------*/
 114:Source\portable\Common/mpu_wrappers.c **** 
 115:Source\portable\Common/mpu_wrappers.c **** #if( configSUPPORT_DYNAMIC_ALLOCATION == 1 )
 116:Source\portable\Common/mpu_wrappers.c **** 	BaseType_t MPU_xTaskCreate( TaskFunction_t pvTaskCode, const char * const pcName, uint16_t usStack
 117:Source\portable\Common/mpu_wrappers.c **** 	{
 160              		.loc 1 117 0
 161              		.cfi_startproc
 162              		@ args = 8, pretend = 0, frame = 24
 163              		@ frame_needed = 1, uses_anonymous_args = 0
 164 0000 80B5     		push	{r7, lr}
 165              		.cfi_def_cfa_offset 8
 166              		.cfi_offset 7, -8
 167              		.cfi_offset 14, -4
 168 0002 88B0     		sub	sp, sp, #32
ARM GAS  C:\Users\mikke\AppData\Local\Temp\ccQCZNNL.s 			page 6


 169              		.cfi_def_cfa_offset 40
 170 0004 02AF     		add	r7, sp, #8
 171              		.cfi_def_cfa 7, 32
 172 0006 F860     		str	r0, [r7, #12]
 173 0008 B960     		str	r1, [r7, #8]
 174 000a 3B60     		str	r3, [r7]
 175 000c 1346     		mov	r3, r2	@ movhi
 176 000e FB80     		strh	r3, [r7, #6]	@ movhi
 118:Source\portable\Common/mpu_wrappers.c **** 	BaseType_t xReturn;
 119:Source\portable\Common/mpu_wrappers.c **** 	BaseType_t xRunningPrivileged = xPortRaisePrivilege();
 177              		.loc 1 119 0
 178 0010 FFF7FEFF 		bl	xPortRaisePrivilege
 179 0014 7861     		str	r0, [r7, #20]
 120:Source\portable\Common/mpu_wrappers.c **** 
 121:Source\portable\Common/mpu_wrappers.c **** 		xReturn = xTaskCreate( pvTaskCode, pcName, usStackDepth, pvParameters, uxPriority, pxCreatedTask 
 180              		.loc 1 121 0
 181 0016 FA88     		ldrh	r2, [r7, #6]
 182 0018 7B6A     		ldr	r3, [r7, #36]
 183 001a 0193     		str	r3, [sp, #4]
 184 001c 3B6A     		ldr	r3, [r7, #32]
 185 001e 0093     		str	r3, [sp]
 186 0020 3B68     		ldr	r3, [r7]
 187 0022 B968     		ldr	r1, [r7, #8]
 188 0024 F868     		ldr	r0, [r7, #12]
 189 0026 FFF7FEFF 		bl	xTaskCreate
 190 002a 3861     		str	r0, [r7, #16]
 122:Source\portable\Common/mpu_wrappers.c **** 		vPortResetPrivilege( xRunningPrivileged );
 191              		.loc 1 122 0
 192 002c 7869     		ldr	r0, [r7, #20]
 193 002e FFF7FEFF 		bl	vPortResetPrivilege
 123:Source\portable\Common/mpu_wrappers.c **** 		return xReturn;
 194              		.loc 1 123 0
 195 0032 3B69     		ldr	r3, [r7, #16]
 124:Source\portable\Common/mpu_wrappers.c **** 	}
 196              		.loc 1 124 0
 197 0034 1846     		mov	r0, r3
 198 0036 1837     		adds	r7, r7, #24
 199              		.cfi_def_cfa_offset 8
 200 0038 BD46     		mov	sp, r7
 201              		.cfi_def_cfa_register 13
 202              		@ sp needed
 203 003a 80BD     		pop	{r7, pc}
 204              		.cfi_endproc
 205              	.LFE71:
 206              		.size	MPU_xTaskCreate, .-MPU_xTaskCreate
 207              		.section	.text.MPU_vTaskAllocateMPURegions,"ax",%progbits
 208              		.align	2
 209              		.global	MPU_vTaskAllocateMPURegions
 210              		.thumb
 211              		.thumb_func
 212              		.type	MPU_vTaskAllocateMPURegions, %function
 213              	MPU_vTaskAllocateMPURegions:
 214              	.LFB72:
 125:Source\portable\Common/mpu_wrappers.c **** #endif /* configSUPPORT_DYNAMIC_ALLOCATION */
 126:Source\portable\Common/mpu_wrappers.c **** /*-----------------------------------------------------------*/
 127:Source\portable\Common/mpu_wrappers.c **** 
 128:Source\portable\Common/mpu_wrappers.c **** #if( configSUPPORT_STATIC_ALLOCATION == 1 )
ARM GAS  C:\Users\mikke\AppData\Local\Temp\ccQCZNNL.s 			page 7


 129:Source\portable\Common/mpu_wrappers.c **** 	TaskHandle_t MPU_xTaskCreateStatic( TaskFunction_t pxTaskCode, const char * const pcName, const ui
 130:Source\portable\Common/mpu_wrappers.c **** 	{
 131:Source\portable\Common/mpu_wrappers.c **** 	TaskHandle_t xReturn;
 132:Source\portable\Common/mpu_wrappers.c **** 	BaseType_t xRunningPrivileged = xPortRaisePrivilege();
 133:Source\portable\Common/mpu_wrappers.c **** 
 134:Source\portable\Common/mpu_wrappers.c **** 		xReturn = xTaskCreateStatic( pxTaskCode, pcName, ulStackDepth, pvParameters, uxPriority, puxStack
 135:Source\portable\Common/mpu_wrappers.c **** 		vPortResetPrivilege( xRunningPrivileged );
 136:Source\portable\Common/mpu_wrappers.c **** 		return xReturn;
 137:Source\portable\Common/mpu_wrappers.c **** 	}
 138:Source\portable\Common/mpu_wrappers.c **** #endif /* configSUPPORT_STATIC_ALLOCATION */
 139:Source\portable\Common/mpu_wrappers.c **** /*-----------------------------------------------------------*/
 140:Source\portable\Common/mpu_wrappers.c **** 
 141:Source\portable\Common/mpu_wrappers.c **** void MPU_vTaskAllocateMPURegions( TaskHandle_t xTask, const MemoryRegion_t * const xRegions ) /* FR
 142:Source\portable\Common/mpu_wrappers.c **** {
 215              		.loc 1 142 0
 216              		.cfi_startproc
 217              		@ args = 0, pretend = 0, frame = 16
 218              		@ frame_needed = 1, uses_anonymous_args = 0
 219 0000 80B5     		push	{r7, lr}
 220              		.cfi_def_cfa_offset 8
 221              		.cfi_offset 7, -8
 222              		.cfi_offset 14, -4
 223 0002 84B0     		sub	sp, sp, #16
 224              		.cfi_def_cfa_offset 24
 225 0004 00AF     		add	r7, sp, #0
 226              		.cfi_def_cfa_register 7
 227 0006 7860     		str	r0, [r7, #4]
 228 0008 3960     		str	r1, [r7]
 143:Source\portable\Common/mpu_wrappers.c **** BaseType_t xRunningPrivileged = xPortRaisePrivilege();
 229              		.loc 1 143 0
 230 000a FFF7FEFF 		bl	xPortRaisePrivilege
 231 000e F860     		str	r0, [r7, #12]
 144:Source\portable\Common/mpu_wrappers.c **** 
 145:Source\portable\Common/mpu_wrappers.c **** 	vTaskAllocateMPURegions( xTask, xRegions );
 232              		.loc 1 145 0
 233 0010 3968     		ldr	r1, [r7]
 234 0012 7868     		ldr	r0, [r7, #4]
 235 0014 FFF7FEFF 		bl	vTaskAllocateMPURegions
 146:Source\portable\Common/mpu_wrappers.c **** 	vPortResetPrivilege( xRunningPrivileged );
 236              		.loc 1 146 0
 237 0018 F868     		ldr	r0, [r7, #12]
 238 001a FFF7FEFF 		bl	vPortResetPrivilege
 147:Source\portable\Common/mpu_wrappers.c **** }
 239              		.loc 1 147 0
 240 001e 00BF     		nop
 241 0020 1037     		adds	r7, r7, #16
 242              		.cfi_def_cfa_offset 8
 243 0022 BD46     		mov	sp, r7
 244              		.cfi_def_cfa_register 13
 245              		@ sp needed
 246 0024 80BD     		pop	{r7, pc}
 247              		.cfi_endproc
 248              	.LFE72:
 249              		.size	MPU_vTaskAllocateMPURegions, .-MPU_vTaskAllocateMPURegions
 250 0026 00BF     		.section	.text.MPU_vTaskDelete,"ax",%progbits
 251              		.align	2
 252              		.global	MPU_vTaskDelete
ARM GAS  C:\Users\mikke\AppData\Local\Temp\ccQCZNNL.s 			page 8


 253              		.thumb
 254              		.thumb_func
 255              		.type	MPU_vTaskDelete, %function
 256              	MPU_vTaskDelete:
 257              	.LFB73:
 148:Source\portable\Common/mpu_wrappers.c **** /*-----------------------------------------------------------*/
 149:Source\portable\Common/mpu_wrappers.c **** 
 150:Source\portable\Common/mpu_wrappers.c **** #if ( INCLUDE_vTaskDelete == 1 )
 151:Source\portable\Common/mpu_wrappers.c **** 	void MPU_vTaskDelete( TaskHandle_t pxTaskToDelete ) /* FREERTOS_SYSTEM_CALL */
 152:Source\portable\Common/mpu_wrappers.c **** 	{
 258              		.loc 1 152 0
 259              		.cfi_startproc
 260              		@ args = 0, pretend = 0, frame = 16
 261              		@ frame_needed = 1, uses_anonymous_args = 0
 262 0000 80B5     		push	{r7, lr}
 263              		.cfi_def_cfa_offset 8
 264              		.cfi_offset 7, -8
 265              		.cfi_offset 14, -4
 266 0002 84B0     		sub	sp, sp, #16
 267              		.cfi_def_cfa_offset 24
 268 0004 00AF     		add	r7, sp, #0
 269              		.cfi_def_cfa_register 7
 270 0006 7860     		str	r0, [r7, #4]
 153:Source\portable\Common/mpu_wrappers.c **** 	BaseType_t xRunningPrivileged = xPortRaisePrivilege();
 271              		.loc 1 153 0
 272 0008 FFF7FEFF 		bl	xPortRaisePrivilege
 273 000c F860     		str	r0, [r7, #12]
 154:Source\portable\Common/mpu_wrappers.c **** 
 155:Source\portable\Common/mpu_wrappers.c **** 		vTaskDelete( pxTaskToDelete );
 274              		.loc 1 155 0
 275 000e 7868     		ldr	r0, [r7, #4]
 276 0010 FFF7FEFF 		bl	vTaskDelete
 156:Source\portable\Common/mpu_wrappers.c **** 		vPortResetPrivilege( xRunningPrivileged );
 277              		.loc 1 156 0
 278 0014 F868     		ldr	r0, [r7, #12]
 279 0016 FFF7FEFF 		bl	vPortResetPrivilege
 157:Source\portable\Common/mpu_wrappers.c **** 	}
 280              		.loc 1 157 0
 281 001a 00BF     		nop
 282 001c 1037     		adds	r7, r7, #16
 283              		.cfi_def_cfa_offset 8
 284 001e BD46     		mov	sp, r7
 285              		.cfi_def_cfa_register 13
 286              		@ sp needed
 287 0020 80BD     		pop	{r7, pc}
 288              		.cfi_endproc
 289              	.LFE73:
 290              		.size	MPU_vTaskDelete, .-MPU_vTaskDelete
 291 0022 00BF     		.section	.text.MPU_vTaskDelayUntil,"ax",%progbits
 292              		.align	2
 293              		.global	MPU_vTaskDelayUntil
 294              		.thumb
 295              		.thumb_func
 296              		.type	MPU_vTaskDelayUntil, %function
 297              	MPU_vTaskDelayUntil:
 298              	.LFB74:
 158:Source\portable\Common/mpu_wrappers.c **** #endif
ARM GAS  C:\Users\mikke\AppData\Local\Temp\ccQCZNNL.s 			page 9


 159:Source\portable\Common/mpu_wrappers.c **** /*-----------------------------------------------------------*/
 160:Source\portable\Common/mpu_wrappers.c **** 
 161:Source\portable\Common/mpu_wrappers.c **** #if ( INCLUDE_vTaskDelayUntil == 1 )
 162:Source\portable\Common/mpu_wrappers.c **** 	void MPU_vTaskDelayUntil( TickType_t * const pxPreviousWakeTime, TickType_t xTimeIncrement ) /* FR
 163:Source\portable\Common/mpu_wrappers.c **** 	{
 299              		.loc 1 163 0
 300              		.cfi_startproc
 301              		@ args = 0, pretend = 0, frame = 16
 302              		@ frame_needed = 1, uses_anonymous_args = 0
 303 0000 80B5     		push	{r7, lr}
 304              		.cfi_def_cfa_offset 8
 305              		.cfi_offset 7, -8
 306              		.cfi_offset 14, -4
 307 0002 84B0     		sub	sp, sp, #16
 308              		.cfi_def_cfa_offset 24
 309 0004 00AF     		add	r7, sp, #0
 310              		.cfi_def_cfa_register 7
 311 0006 7860     		str	r0, [r7, #4]
 312 0008 3960     		str	r1, [r7]
 164:Source\portable\Common/mpu_wrappers.c **** 	BaseType_t xRunningPrivileged = xPortRaisePrivilege();
 313              		.loc 1 164 0
 314 000a FFF7FEFF 		bl	xPortRaisePrivilege
 315 000e F860     		str	r0, [r7, #12]
 165:Source\portable\Common/mpu_wrappers.c **** 
 166:Source\portable\Common/mpu_wrappers.c **** 		vTaskDelayUntil( pxPreviousWakeTime, xTimeIncrement );
 316              		.loc 1 166 0
 317 0010 3968     		ldr	r1, [r7]
 318 0012 7868     		ldr	r0, [r7, #4]
 319 0014 FFF7FEFF 		bl	vTaskDelayUntil
 167:Source\portable\Common/mpu_wrappers.c **** 		vPortResetPrivilege( xRunningPrivileged );
 320              		.loc 1 167 0
 321 0018 F868     		ldr	r0, [r7, #12]
 322 001a FFF7FEFF 		bl	vPortResetPrivilege
 168:Source\portable\Common/mpu_wrappers.c **** 	}
 323              		.loc 1 168 0
 324 001e 00BF     		nop
 325 0020 1037     		adds	r7, r7, #16
 326              		.cfi_def_cfa_offset 8
 327 0022 BD46     		mov	sp, r7
 328              		.cfi_def_cfa_register 13
 329              		@ sp needed
 330 0024 80BD     		pop	{r7, pc}
 331              		.cfi_endproc
 332              	.LFE74:
 333              		.size	MPU_vTaskDelayUntil, .-MPU_vTaskDelayUntil
 334 0026 00BF     		.section	.text.MPU_vTaskDelay,"ax",%progbits
 335              		.align	2
 336              		.global	MPU_vTaskDelay
 337              		.thumb
 338              		.thumb_func
 339              		.type	MPU_vTaskDelay, %function
 340              	MPU_vTaskDelay:
 341              	.LFB75:
 169:Source\portable\Common/mpu_wrappers.c **** #endif
 170:Source\portable\Common/mpu_wrappers.c **** /*-----------------------------------------------------------*/
 171:Source\portable\Common/mpu_wrappers.c **** 
 172:Source\portable\Common/mpu_wrappers.c **** #if ( INCLUDE_xTaskAbortDelay == 1 )
ARM GAS  C:\Users\mikke\AppData\Local\Temp\ccQCZNNL.s 			page 10


 173:Source\portable\Common/mpu_wrappers.c **** 	BaseType_t MPU_xTaskAbortDelay( TaskHandle_t xTask ) /* FREERTOS_SYSTEM_CALL */
 174:Source\portable\Common/mpu_wrappers.c **** 	{
 175:Source\portable\Common/mpu_wrappers.c **** 	BaseType_t xReturn;
 176:Source\portable\Common/mpu_wrappers.c **** 	BaseType_t xRunningPrivileged = xPortRaisePrivilege();
 177:Source\portable\Common/mpu_wrappers.c **** 
 178:Source\portable\Common/mpu_wrappers.c **** 		xReturn = xTaskAbortDelay( xTask );
 179:Source\portable\Common/mpu_wrappers.c **** 		vPortResetPrivilege( xRunningPrivileged );
 180:Source\portable\Common/mpu_wrappers.c **** 		return xReturn;
 181:Source\portable\Common/mpu_wrappers.c **** 	}
 182:Source\portable\Common/mpu_wrappers.c **** #endif
 183:Source\portable\Common/mpu_wrappers.c **** /*-----------------------------------------------------------*/
 184:Source\portable\Common/mpu_wrappers.c **** 
 185:Source\portable\Common/mpu_wrappers.c **** #if ( INCLUDE_vTaskDelay == 1 )
 186:Source\portable\Common/mpu_wrappers.c **** 	void MPU_vTaskDelay( TickType_t xTicksToDelay ) /* FREERTOS_SYSTEM_CALL */
 187:Source\portable\Common/mpu_wrappers.c **** 	{
 342              		.loc 1 187 0
 343              		.cfi_startproc
 344              		@ args = 0, pretend = 0, frame = 16
 345              		@ frame_needed = 1, uses_anonymous_args = 0
 346 0000 80B5     		push	{r7, lr}
 347              		.cfi_def_cfa_offset 8
 348              		.cfi_offset 7, -8
 349              		.cfi_offset 14, -4
 350 0002 84B0     		sub	sp, sp, #16
 351              		.cfi_def_cfa_offset 24
 352 0004 00AF     		add	r7, sp, #0
 353              		.cfi_def_cfa_register 7
 354 0006 7860     		str	r0, [r7, #4]
 188:Source\portable\Common/mpu_wrappers.c **** 	BaseType_t xRunningPrivileged = xPortRaisePrivilege();
 355              		.loc 1 188 0
 356 0008 FFF7FEFF 		bl	xPortRaisePrivilege
 357 000c F860     		str	r0, [r7, #12]
 189:Source\portable\Common/mpu_wrappers.c **** 
 190:Source\portable\Common/mpu_wrappers.c **** 		vTaskDelay( xTicksToDelay );
 358              		.loc 1 190 0
 359 000e 7868     		ldr	r0, [r7, #4]
 360 0010 FFF7FEFF 		bl	vTaskDelay
 191:Source\portable\Common/mpu_wrappers.c **** 		vPortResetPrivilege( xRunningPrivileged );
 361              		.loc 1 191 0
 362 0014 F868     		ldr	r0, [r7, #12]
 363 0016 FFF7FEFF 		bl	vPortResetPrivilege
 192:Source\portable\Common/mpu_wrappers.c **** 	}
 364              		.loc 1 192 0
 365 001a 00BF     		nop
 366 001c 1037     		adds	r7, r7, #16
 367              		.cfi_def_cfa_offset 8
 368 001e BD46     		mov	sp, r7
 369              		.cfi_def_cfa_register 13
 370              		@ sp needed
 371 0020 80BD     		pop	{r7, pc}
 372              		.cfi_endproc
 373              	.LFE75:
 374              		.size	MPU_vTaskDelay, .-MPU_vTaskDelay
 375 0022 00BF     		.section	.text.MPU_uxTaskPriorityGet,"ax",%progbits
 376              		.align	2
 377              		.global	MPU_uxTaskPriorityGet
 378              		.thumb
ARM GAS  C:\Users\mikke\AppData\Local\Temp\ccQCZNNL.s 			page 11


 379              		.thumb_func
 380              		.type	MPU_uxTaskPriorityGet, %function
 381              	MPU_uxTaskPriorityGet:
 382              	.LFB76:
 193:Source\portable\Common/mpu_wrappers.c **** #endif
 194:Source\portable\Common/mpu_wrappers.c **** /*-----------------------------------------------------------*/
 195:Source\portable\Common/mpu_wrappers.c **** 
 196:Source\portable\Common/mpu_wrappers.c **** #if ( INCLUDE_uxTaskPriorityGet == 1 )
 197:Source\portable\Common/mpu_wrappers.c **** 	UBaseType_t MPU_uxTaskPriorityGet( const TaskHandle_t pxTask ) /* FREERTOS_SYSTEM_CALL */
 198:Source\portable\Common/mpu_wrappers.c **** 	{
 383              		.loc 1 198 0
 384              		.cfi_startproc
 385              		@ args = 0, pretend = 0, frame = 16
 386              		@ frame_needed = 1, uses_anonymous_args = 0
 387 0000 80B5     		push	{r7, lr}
 388              		.cfi_def_cfa_offset 8
 389              		.cfi_offset 7, -8
 390              		.cfi_offset 14, -4
 391 0002 84B0     		sub	sp, sp, #16
 392              		.cfi_def_cfa_offset 24
 393 0004 00AF     		add	r7, sp, #0
 394              		.cfi_def_cfa_register 7
 395 0006 7860     		str	r0, [r7, #4]
 199:Source\portable\Common/mpu_wrappers.c **** 	UBaseType_t uxReturn;
 200:Source\portable\Common/mpu_wrappers.c **** 	BaseType_t xRunningPrivileged = xPortRaisePrivilege();
 396              		.loc 1 200 0
 397 0008 FFF7FEFF 		bl	xPortRaisePrivilege
 398 000c F860     		str	r0, [r7, #12]
 201:Source\portable\Common/mpu_wrappers.c **** 
 202:Source\portable\Common/mpu_wrappers.c **** 		uxReturn = uxTaskPriorityGet( pxTask );
 399              		.loc 1 202 0
 400 000e 7868     		ldr	r0, [r7, #4]
 401 0010 FFF7FEFF 		bl	uxTaskPriorityGet
 402 0014 B860     		str	r0, [r7, #8]
 203:Source\portable\Common/mpu_wrappers.c **** 		vPortResetPrivilege( xRunningPrivileged );
 403              		.loc 1 203 0
 404 0016 F868     		ldr	r0, [r7, #12]
 405 0018 FFF7FEFF 		bl	vPortResetPrivilege
 204:Source\portable\Common/mpu_wrappers.c **** 		return uxReturn;
 406              		.loc 1 204 0
 407 001c BB68     		ldr	r3, [r7, #8]
 205:Source\portable\Common/mpu_wrappers.c **** 	}
 408              		.loc 1 205 0
 409 001e 1846     		mov	r0, r3
 410 0020 1037     		adds	r7, r7, #16
 411              		.cfi_def_cfa_offset 8
 412 0022 BD46     		mov	sp, r7
 413              		.cfi_def_cfa_register 13
 414              		@ sp needed
 415 0024 80BD     		pop	{r7, pc}
 416              		.cfi_endproc
 417              	.LFE76:
 418              		.size	MPU_uxTaskPriorityGet, .-MPU_uxTaskPriorityGet
 419 0026 00BF     		.section	.text.MPU_vTaskPrioritySet,"ax",%progbits
 420              		.align	2
 421              		.global	MPU_vTaskPrioritySet
 422              		.thumb
ARM GAS  C:\Users\mikke\AppData\Local\Temp\ccQCZNNL.s 			page 12


 423              		.thumb_func
 424              		.type	MPU_vTaskPrioritySet, %function
 425              	MPU_vTaskPrioritySet:
 426              	.LFB77:
 206:Source\portable\Common/mpu_wrappers.c **** #endif
 207:Source\portable\Common/mpu_wrappers.c **** /*-----------------------------------------------------------*/
 208:Source\portable\Common/mpu_wrappers.c **** 
 209:Source\portable\Common/mpu_wrappers.c **** #if ( INCLUDE_vTaskPrioritySet == 1 )
 210:Source\portable\Common/mpu_wrappers.c **** 	void MPU_vTaskPrioritySet( TaskHandle_t pxTask, UBaseType_t uxNewPriority ) /* FREERTOS_SYSTEM_CAL
 211:Source\portable\Common/mpu_wrappers.c **** 	{
 427              		.loc 1 211 0
 428              		.cfi_startproc
 429              		@ args = 0, pretend = 0, frame = 16
 430              		@ frame_needed = 1, uses_anonymous_args = 0
 431 0000 80B5     		push	{r7, lr}
 432              		.cfi_def_cfa_offset 8
 433              		.cfi_offset 7, -8
 434              		.cfi_offset 14, -4
 435 0002 84B0     		sub	sp, sp, #16
 436              		.cfi_def_cfa_offset 24
 437 0004 00AF     		add	r7, sp, #0
 438              		.cfi_def_cfa_register 7
 439 0006 7860     		str	r0, [r7, #4]
 440 0008 3960     		str	r1, [r7]
 212:Source\portable\Common/mpu_wrappers.c **** 	BaseType_t xRunningPrivileged = xPortRaisePrivilege();
 441              		.loc 1 212 0
 442 000a FFF7FEFF 		bl	xPortRaisePrivilege
 443 000e F860     		str	r0, [r7, #12]
 213:Source\portable\Common/mpu_wrappers.c **** 
 214:Source\portable\Common/mpu_wrappers.c **** 		vTaskPrioritySet( pxTask, uxNewPriority );
 444              		.loc 1 214 0
 445 0010 3968     		ldr	r1, [r7]
 446 0012 7868     		ldr	r0, [r7, #4]
 447 0014 FFF7FEFF 		bl	vTaskPrioritySet
 215:Source\portable\Common/mpu_wrappers.c **** 		vPortResetPrivilege( xRunningPrivileged );
 448              		.loc 1 215 0
 449 0018 F868     		ldr	r0, [r7, #12]
 450 001a FFF7FEFF 		bl	vPortResetPrivilege
 216:Source\portable\Common/mpu_wrappers.c **** 	}
 451              		.loc 1 216 0
 452 001e 00BF     		nop
 453 0020 1037     		adds	r7, r7, #16
 454              		.cfi_def_cfa_offset 8
 455 0022 BD46     		mov	sp, r7
 456              		.cfi_def_cfa_register 13
 457              		@ sp needed
 458 0024 80BD     		pop	{r7, pc}
 459              		.cfi_endproc
 460              	.LFE77:
 461              		.size	MPU_vTaskPrioritySet, .-MPU_vTaskPrioritySet
 462 0026 00BF     		.section	.text.MPU_eTaskGetState,"ax",%progbits
 463              		.align	2
 464              		.global	MPU_eTaskGetState
 465              		.thumb
 466              		.thumb_func
 467              		.type	MPU_eTaskGetState, %function
 468              	MPU_eTaskGetState:
ARM GAS  C:\Users\mikke\AppData\Local\Temp\ccQCZNNL.s 			page 13


 469              	.LFB78:
 217:Source\portable\Common/mpu_wrappers.c **** #endif
 218:Source\portable\Common/mpu_wrappers.c **** /*-----------------------------------------------------------*/
 219:Source\portable\Common/mpu_wrappers.c **** 
 220:Source\portable\Common/mpu_wrappers.c **** #if ( INCLUDE_eTaskGetState == 1 )
 221:Source\portable\Common/mpu_wrappers.c **** 	eTaskState MPU_eTaskGetState( TaskHandle_t pxTask ) /* FREERTOS_SYSTEM_CALL */
 222:Source\portable\Common/mpu_wrappers.c **** 	{
 470              		.loc 1 222 0
 471              		.cfi_startproc
 472              		@ args = 0, pretend = 0, frame = 16
 473              		@ frame_needed = 1, uses_anonymous_args = 0
 474 0000 80B5     		push	{r7, lr}
 475              		.cfi_def_cfa_offset 8
 476              		.cfi_offset 7, -8
 477              		.cfi_offset 14, -4
 478 0002 84B0     		sub	sp, sp, #16
 479              		.cfi_def_cfa_offset 24
 480 0004 00AF     		add	r7, sp, #0
 481              		.cfi_def_cfa_register 7
 482 0006 7860     		str	r0, [r7, #4]
 223:Source\portable\Common/mpu_wrappers.c **** 	BaseType_t xRunningPrivileged = xPortRaisePrivilege();
 483              		.loc 1 223 0
 484 0008 FFF7FEFF 		bl	xPortRaisePrivilege
 485 000c F860     		str	r0, [r7, #12]
 224:Source\portable\Common/mpu_wrappers.c **** 	eTaskState eReturn;
 225:Source\portable\Common/mpu_wrappers.c **** 
 226:Source\portable\Common/mpu_wrappers.c **** 		eReturn = eTaskGetState( pxTask );
 486              		.loc 1 226 0
 487 000e 7868     		ldr	r0, [r7, #4]
 488 0010 FFF7FEFF 		bl	eTaskGetState
 489 0014 0346     		mov	r3, r0
 490 0016 FB72     		strb	r3, [r7, #11]
 227:Source\portable\Common/mpu_wrappers.c **** 		vPortResetPrivilege( xRunningPrivileged );
 491              		.loc 1 227 0
 492 0018 F868     		ldr	r0, [r7, #12]
 493 001a FFF7FEFF 		bl	vPortResetPrivilege
 228:Source\portable\Common/mpu_wrappers.c **** 		return eReturn;
 494              		.loc 1 228 0
 495 001e FB7A     		ldrb	r3, [r7, #11]	@ zero_extendqisi2
 229:Source\portable\Common/mpu_wrappers.c **** 	}
 496              		.loc 1 229 0
 497 0020 1846     		mov	r0, r3
 498 0022 1037     		adds	r7, r7, #16
 499              		.cfi_def_cfa_offset 8
 500 0024 BD46     		mov	sp, r7
 501              		.cfi_def_cfa_register 13
 502              		@ sp needed
 503 0026 80BD     		pop	{r7, pc}
 504              		.cfi_endproc
 505              	.LFE78:
 506              		.size	MPU_eTaskGetState, .-MPU_eTaskGetState
 507              		.section	.text.MPU_vTaskSuspend,"ax",%progbits
 508              		.align	2
 509              		.global	MPU_vTaskSuspend
 510              		.thumb
 511              		.thumb_func
 512              		.type	MPU_vTaskSuspend, %function
ARM GAS  C:\Users\mikke\AppData\Local\Temp\ccQCZNNL.s 			page 14


 513              	MPU_vTaskSuspend:
 514              	.LFB79:
 230:Source\portable\Common/mpu_wrappers.c **** #endif
 231:Source\portable\Common/mpu_wrappers.c **** /*-----------------------------------------------------------*/
 232:Source\portable\Common/mpu_wrappers.c **** 
 233:Source\portable\Common/mpu_wrappers.c **** #if( configUSE_TRACE_FACILITY == 1 )
 234:Source\portable\Common/mpu_wrappers.c **** 	void MPU_vTaskGetInfo( TaskHandle_t xTask, TaskStatus_t *pxTaskStatus, BaseType_t xGetFreeStackSpa
 235:Source\portable\Common/mpu_wrappers.c **** 	{
 236:Source\portable\Common/mpu_wrappers.c **** 	BaseType_t xRunningPrivileged = xPortRaisePrivilege();
 237:Source\portable\Common/mpu_wrappers.c **** 
 238:Source\portable\Common/mpu_wrappers.c **** 		vTaskGetInfo( xTask, pxTaskStatus, xGetFreeStackSpace, eState );
 239:Source\portable\Common/mpu_wrappers.c **** 		vPortResetPrivilege( xRunningPrivileged );
 240:Source\portable\Common/mpu_wrappers.c **** 	}
 241:Source\portable\Common/mpu_wrappers.c **** #endif
 242:Source\portable\Common/mpu_wrappers.c **** /*-----------------------------------------------------------*/
 243:Source\portable\Common/mpu_wrappers.c **** 
 244:Source\portable\Common/mpu_wrappers.c **** #if ( INCLUDE_xTaskGetIdleTaskHandle == 1 )
 245:Source\portable\Common/mpu_wrappers.c **** 	TaskHandle_t MPU_xTaskGetIdleTaskHandle( void ) /* FREERTOS_SYSTEM_CALL */
 246:Source\portable\Common/mpu_wrappers.c **** 	{
 247:Source\portable\Common/mpu_wrappers.c **** 	TaskHandle_t xReturn;
 248:Source\portable\Common/mpu_wrappers.c **** 	BaseType_t xRunningPrivileged = xPortRaisePrivilege();
 249:Source\portable\Common/mpu_wrappers.c **** 
 250:Source\portable\Common/mpu_wrappers.c **** 		xReturn = xTaskGetIdleTaskHandle();
 251:Source\portable\Common/mpu_wrappers.c **** 		vPortResetPrivilege( xRunningPrivileged );
 252:Source\portable\Common/mpu_wrappers.c **** 		return xReturn;
 253:Source\portable\Common/mpu_wrappers.c **** 	}
 254:Source\portable\Common/mpu_wrappers.c **** #endif
 255:Source\portable\Common/mpu_wrappers.c **** /*-----------------------------------------------------------*/
 256:Source\portable\Common/mpu_wrappers.c **** 
 257:Source\portable\Common/mpu_wrappers.c **** #if ( INCLUDE_vTaskSuspend == 1 )
 258:Source\portable\Common/mpu_wrappers.c **** 	void MPU_vTaskSuspend( TaskHandle_t pxTaskToSuspend ) /* FREERTOS_SYSTEM_CALL */
 259:Source\portable\Common/mpu_wrappers.c **** 	{
 515              		.loc 1 259 0
 516              		.cfi_startproc
 517              		@ args = 0, pretend = 0, frame = 16
 518              		@ frame_needed = 1, uses_anonymous_args = 0
 519 0000 80B5     		push	{r7, lr}
 520              		.cfi_def_cfa_offset 8
 521              		.cfi_offset 7, -8
 522              		.cfi_offset 14, -4
 523 0002 84B0     		sub	sp, sp, #16
 524              		.cfi_def_cfa_offset 24
 525 0004 00AF     		add	r7, sp, #0
 526              		.cfi_def_cfa_register 7
 527 0006 7860     		str	r0, [r7, #4]
 260:Source\portable\Common/mpu_wrappers.c **** 	BaseType_t xRunningPrivileged = xPortRaisePrivilege();
 528              		.loc 1 260 0
 529 0008 FFF7FEFF 		bl	xPortRaisePrivilege
 530 000c F860     		str	r0, [r7, #12]
 261:Source\portable\Common/mpu_wrappers.c **** 
 262:Source\portable\Common/mpu_wrappers.c **** 		vTaskSuspend( pxTaskToSuspend );
 531              		.loc 1 262 0
 532 000e 7868     		ldr	r0, [r7, #4]
 533 0010 FFF7FEFF 		bl	vTaskSuspend
 263:Source\portable\Common/mpu_wrappers.c **** 		vPortResetPrivilege( xRunningPrivileged );
 534              		.loc 1 263 0
 535 0014 F868     		ldr	r0, [r7, #12]
ARM GAS  C:\Users\mikke\AppData\Local\Temp\ccQCZNNL.s 			page 15


 536 0016 FFF7FEFF 		bl	vPortResetPrivilege
 264:Source\portable\Common/mpu_wrappers.c **** 	}
 537              		.loc 1 264 0
 538 001a 00BF     		nop
 539 001c 1037     		adds	r7, r7, #16
 540              		.cfi_def_cfa_offset 8
 541 001e BD46     		mov	sp, r7
 542              		.cfi_def_cfa_register 13
 543              		@ sp needed
 544 0020 80BD     		pop	{r7, pc}
 545              		.cfi_endproc
 546              	.LFE79:
 547              		.size	MPU_vTaskSuspend, .-MPU_vTaskSuspend
 548 0022 00BF     		.section	.text.MPU_vTaskResume,"ax",%progbits
 549              		.align	2
 550              		.global	MPU_vTaskResume
 551              		.thumb
 552              		.thumb_func
 553              		.type	MPU_vTaskResume, %function
 554              	MPU_vTaskResume:
 555              	.LFB80:
 265:Source\portable\Common/mpu_wrappers.c **** #endif
 266:Source\portable\Common/mpu_wrappers.c **** /*-----------------------------------------------------------*/
 267:Source\portable\Common/mpu_wrappers.c **** 
 268:Source\portable\Common/mpu_wrappers.c **** #if ( INCLUDE_vTaskSuspend == 1 )
 269:Source\portable\Common/mpu_wrappers.c **** 	void MPU_vTaskResume( TaskHandle_t pxTaskToResume ) /* FREERTOS_SYSTEM_CALL */
 270:Source\portable\Common/mpu_wrappers.c **** 	{
 556              		.loc 1 270 0
 557              		.cfi_startproc
 558              		@ args = 0, pretend = 0, frame = 16
 559              		@ frame_needed = 1, uses_anonymous_args = 0
 560 0000 80B5     		push	{r7, lr}
 561              		.cfi_def_cfa_offset 8
 562              		.cfi_offset 7, -8
 563              		.cfi_offset 14, -4
 564 0002 84B0     		sub	sp, sp, #16
 565              		.cfi_def_cfa_offset 24
 566 0004 00AF     		add	r7, sp, #0
 567              		.cfi_def_cfa_register 7
 568 0006 7860     		str	r0, [r7, #4]
 271:Source\portable\Common/mpu_wrappers.c **** 	BaseType_t xRunningPrivileged = xPortRaisePrivilege();
 569              		.loc 1 271 0
 570 0008 FFF7FEFF 		bl	xPortRaisePrivilege
 571 000c F860     		str	r0, [r7, #12]
 272:Source\portable\Common/mpu_wrappers.c **** 
 273:Source\portable\Common/mpu_wrappers.c **** 		vTaskResume( pxTaskToResume );
 572              		.loc 1 273 0
 573 000e 7868     		ldr	r0, [r7, #4]
 574 0010 FFF7FEFF 		bl	vTaskResume
 274:Source\portable\Common/mpu_wrappers.c **** 		vPortResetPrivilege( xRunningPrivileged );
 575              		.loc 1 274 0
 576 0014 F868     		ldr	r0, [r7, #12]
 577 0016 FFF7FEFF 		bl	vPortResetPrivilege
 275:Source\portable\Common/mpu_wrappers.c **** 	}
 578              		.loc 1 275 0
 579 001a 00BF     		nop
 580 001c 1037     		adds	r7, r7, #16
ARM GAS  C:\Users\mikke\AppData\Local\Temp\ccQCZNNL.s 			page 16


 581              		.cfi_def_cfa_offset 8
 582 001e BD46     		mov	sp, r7
 583              		.cfi_def_cfa_register 13
 584              		@ sp needed
 585 0020 80BD     		pop	{r7, pc}
 586              		.cfi_endproc
 587              	.LFE80:
 588              		.size	MPU_vTaskResume, .-MPU_vTaskResume
 589 0022 00BF     		.section	.text.MPU_vTaskSuspendAll,"ax",%progbits
 590              		.align	2
 591              		.global	MPU_vTaskSuspendAll
 592              		.thumb
 593              		.thumb_func
 594              		.type	MPU_vTaskSuspendAll, %function
 595              	MPU_vTaskSuspendAll:
 596              	.LFB81:
 276:Source\portable\Common/mpu_wrappers.c **** #endif
 277:Source\portable\Common/mpu_wrappers.c **** /*-----------------------------------------------------------*/
 278:Source\portable\Common/mpu_wrappers.c **** 
 279:Source\portable\Common/mpu_wrappers.c **** void MPU_vTaskSuspendAll( void ) /* FREERTOS_SYSTEM_CALL */
 280:Source\portable\Common/mpu_wrappers.c **** {
 597              		.loc 1 280 0
 598              		.cfi_startproc
 599              		@ args = 0, pretend = 0, frame = 8
 600              		@ frame_needed = 1, uses_anonymous_args = 0
 601 0000 80B5     		push	{r7, lr}
 602              		.cfi_def_cfa_offset 8
 603              		.cfi_offset 7, -8
 604              		.cfi_offset 14, -4
 605 0002 82B0     		sub	sp, sp, #8
 606              		.cfi_def_cfa_offset 16
 607 0004 00AF     		add	r7, sp, #0
 608              		.cfi_def_cfa_register 7
 281:Source\portable\Common/mpu_wrappers.c **** BaseType_t xRunningPrivileged = xPortRaisePrivilege();
 609              		.loc 1 281 0
 610 0006 FFF7FEFF 		bl	xPortRaisePrivilege
 611 000a 7860     		str	r0, [r7, #4]
 282:Source\portable\Common/mpu_wrappers.c **** 
 283:Source\portable\Common/mpu_wrappers.c **** 	vTaskSuspendAll();
 612              		.loc 1 283 0
 613 000c FFF7FEFF 		bl	vTaskSuspendAll
 284:Source\portable\Common/mpu_wrappers.c **** 	vPortResetPrivilege( xRunningPrivileged );
 614              		.loc 1 284 0
 615 0010 7868     		ldr	r0, [r7, #4]
 616 0012 FFF7FEFF 		bl	vPortResetPrivilege
 285:Source\portable\Common/mpu_wrappers.c **** }
 617              		.loc 1 285 0
 618 0016 00BF     		nop
 619 0018 0837     		adds	r7, r7, #8
 620              		.cfi_def_cfa_offset 8
 621 001a BD46     		mov	sp, r7
 622              		.cfi_def_cfa_register 13
 623              		@ sp needed
 624 001c 80BD     		pop	{r7, pc}
 625              		.cfi_endproc
 626              	.LFE81:
 627              		.size	MPU_vTaskSuspendAll, .-MPU_vTaskSuspendAll
ARM GAS  C:\Users\mikke\AppData\Local\Temp\ccQCZNNL.s 			page 17


 628 001e 00BF     		.section	.text.MPU_xTaskResumeAll,"ax",%progbits
 629              		.align	2
 630              		.global	MPU_xTaskResumeAll
 631              		.thumb
 632              		.thumb_func
 633              		.type	MPU_xTaskResumeAll, %function
 634              	MPU_xTaskResumeAll:
 635              	.LFB82:
 286:Source\portable\Common/mpu_wrappers.c **** /*-----------------------------------------------------------*/
 287:Source\portable\Common/mpu_wrappers.c **** 
 288:Source\portable\Common/mpu_wrappers.c **** BaseType_t MPU_xTaskResumeAll( void ) /* FREERTOS_SYSTEM_CALL */
 289:Source\portable\Common/mpu_wrappers.c **** {
 636              		.loc 1 289 0
 637              		.cfi_startproc
 638              		@ args = 0, pretend = 0, frame = 8
 639              		@ frame_needed = 1, uses_anonymous_args = 0
 640 0000 80B5     		push	{r7, lr}
 641              		.cfi_def_cfa_offset 8
 642              		.cfi_offset 7, -8
 643              		.cfi_offset 14, -4
 644 0002 82B0     		sub	sp, sp, #8
 645              		.cfi_def_cfa_offset 16
 646 0004 00AF     		add	r7, sp, #0
 647              		.cfi_def_cfa_register 7
 290:Source\portable\Common/mpu_wrappers.c **** BaseType_t xReturn;
 291:Source\portable\Common/mpu_wrappers.c **** BaseType_t xRunningPrivileged = xPortRaisePrivilege();
 648              		.loc 1 291 0
 649 0006 FFF7FEFF 		bl	xPortRaisePrivilege
 650 000a 7860     		str	r0, [r7, #4]
 292:Source\portable\Common/mpu_wrappers.c **** 
 293:Source\portable\Common/mpu_wrappers.c **** 	xReturn = xTaskResumeAll();
 651              		.loc 1 293 0
 652 000c FFF7FEFF 		bl	xTaskResumeAll
 653 0010 3860     		str	r0, [r7]
 294:Source\portable\Common/mpu_wrappers.c **** 	vPortResetPrivilege( xRunningPrivileged );
 654              		.loc 1 294 0
 655 0012 7868     		ldr	r0, [r7, #4]
 656 0014 FFF7FEFF 		bl	vPortResetPrivilege
 295:Source\portable\Common/mpu_wrappers.c **** 	return xReturn;
 657              		.loc 1 295 0
 658 0018 3B68     		ldr	r3, [r7]
 296:Source\portable\Common/mpu_wrappers.c **** }
 659              		.loc 1 296 0
 660 001a 1846     		mov	r0, r3
 661 001c 0837     		adds	r7, r7, #8
 662              		.cfi_def_cfa_offset 8
 663 001e BD46     		mov	sp, r7
 664              		.cfi_def_cfa_register 13
 665              		@ sp needed
 666 0020 80BD     		pop	{r7, pc}
 667              		.cfi_endproc
 668              	.LFE82:
 669              		.size	MPU_xTaskResumeAll, .-MPU_xTaskResumeAll
 670 0022 00BF     		.section	.text.MPU_xTaskGetTickCount,"ax",%progbits
 671              		.align	2
 672              		.global	MPU_xTaskGetTickCount
 673              		.thumb
ARM GAS  C:\Users\mikke\AppData\Local\Temp\ccQCZNNL.s 			page 18


 674              		.thumb_func
 675              		.type	MPU_xTaskGetTickCount, %function
 676              	MPU_xTaskGetTickCount:
 677              	.LFB83:
 297:Source\portable\Common/mpu_wrappers.c **** /*-----------------------------------------------------------*/
 298:Source\portable\Common/mpu_wrappers.c **** 
 299:Source\portable\Common/mpu_wrappers.c **** TickType_t MPU_xTaskGetTickCount( void ) /* FREERTOS_SYSTEM_CALL */
 300:Source\portable\Common/mpu_wrappers.c **** {
 678              		.loc 1 300 0
 679              		.cfi_startproc
 680              		@ args = 0, pretend = 0, frame = 8
 681              		@ frame_needed = 1, uses_anonymous_args = 0
 682 0000 80B5     		push	{r7, lr}
 683              		.cfi_def_cfa_offset 8
 684              		.cfi_offset 7, -8
 685              		.cfi_offset 14, -4
 686 0002 82B0     		sub	sp, sp, #8
 687              		.cfi_def_cfa_offset 16
 688 0004 00AF     		add	r7, sp, #0
 689              		.cfi_def_cfa_register 7
 301:Source\portable\Common/mpu_wrappers.c **** TickType_t xReturn;
 302:Source\portable\Common/mpu_wrappers.c **** BaseType_t xRunningPrivileged = xPortRaisePrivilege();
 690              		.loc 1 302 0
 691 0006 FFF7FEFF 		bl	xPortRaisePrivilege
 692 000a 7860     		str	r0, [r7, #4]
 303:Source\portable\Common/mpu_wrappers.c **** 
 304:Source\portable\Common/mpu_wrappers.c **** 	xReturn = xTaskGetTickCount();
 693              		.loc 1 304 0
 694 000c FFF7FEFF 		bl	xTaskGetTickCount
 695 0010 3860     		str	r0, [r7]
 305:Source\portable\Common/mpu_wrappers.c **** 	vPortResetPrivilege( xRunningPrivileged );
 696              		.loc 1 305 0
 697 0012 7868     		ldr	r0, [r7, #4]
 698 0014 FFF7FEFF 		bl	vPortResetPrivilege
 306:Source\portable\Common/mpu_wrappers.c **** 	return xReturn;
 699              		.loc 1 306 0
 700 0018 3B68     		ldr	r3, [r7]
 307:Source\portable\Common/mpu_wrappers.c **** }
 701              		.loc 1 307 0
 702 001a 1846     		mov	r0, r3
 703 001c 0837     		adds	r7, r7, #8
 704              		.cfi_def_cfa_offset 8
 705 001e BD46     		mov	sp, r7
 706              		.cfi_def_cfa_register 13
 707              		@ sp needed
 708 0020 80BD     		pop	{r7, pc}
 709              		.cfi_endproc
 710              	.LFE83:
 711              		.size	MPU_xTaskGetTickCount, .-MPU_xTaskGetTickCount
 712 0022 00BF     		.section	.text.MPU_uxTaskGetNumberOfTasks,"ax",%progbits
 713              		.align	2
 714              		.global	MPU_uxTaskGetNumberOfTasks
 715              		.thumb
 716              		.thumb_func
 717              		.type	MPU_uxTaskGetNumberOfTasks, %function
 718              	MPU_uxTaskGetNumberOfTasks:
 719              	.LFB84:
ARM GAS  C:\Users\mikke\AppData\Local\Temp\ccQCZNNL.s 			page 19


 308:Source\portable\Common/mpu_wrappers.c **** /*-----------------------------------------------------------*/
 309:Source\portable\Common/mpu_wrappers.c **** 
 310:Source\portable\Common/mpu_wrappers.c **** UBaseType_t MPU_uxTaskGetNumberOfTasks( void ) /* FREERTOS_SYSTEM_CALL */
 311:Source\portable\Common/mpu_wrappers.c **** {
 720              		.loc 1 311 0
 721              		.cfi_startproc
 722              		@ args = 0, pretend = 0, frame = 8
 723              		@ frame_needed = 1, uses_anonymous_args = 0
 724 0000 80B5     		push	{r7, lr}
 725              		.cfi_def_cfa_offset 8
 726              		.cfi_offset 7, -8
 727              		.cfi_offset 14, -4
 728 0002 82B0     		sub	sp, sp, #8
 729              		.cfi_def_cfa_offset 16
 730 0004 00AF     		add	r7, sp, #0
 731              		.cfi_def_cfa_register 7
 312:Source\portable\Common/mpu_wrappers.c **** UBaseType_t uxReturn;
 313:Source\portable\Common/mpu_wrappers.c **** BaseType_t xRunningPrivileged = xPortRaisePrivilege();
 732              		.loc 1 313 0
 733 0006 FFF7FEFF 		bl	xPortRaisePrivilege
 734 000a 7860     		str	r0, [r7, #4]
 314:Source\portable\Common/mpu_wrappers.c **** 
 315:Source\portable\Common/mpu_wrappers.c **** 	uxReturn = uxTaskGetNumberOfTasks();
 735              		.loc 1 315 0
 736 000c FFF7FEFF 		bl	uxTaskGetNumberOfTasks
 737 0010 3860     		str	r0, [r7]
 316:Source\portable\Common/mpu_wrappers.c **** 	vPortResetPrivilege( xRunningPrivileged );
 738              		.loc 1 316 0
 739 0012 7868     		ldr	r0, [r7, #4]
 740 0014 FFF7FEFF 		bl	vPortResetPrivilege
 317:Source\portable\Common/mpu_wrappers.c **** 	return uxReturn;
 741              		.loc 1 317 0
 742 0018 3B68     		ldr	r3, [r7]
 318:Source\portable\Common/mpu_wrappers.c **** }
 743              		.loc 1 318 0
 744 001a 1846     		mov	r0, r3
 745 001c 0837     		adds	r7, r7, #8
 746              		.cfi_def_cfa_offset 8
 747 001e BD46     		mov	sp, r7
 748              		.cfi_def_cfa_register 13
 749              		@ sp needed
 750 0020 80BD     		pop	{r7, pc}
 751              		.cfi_endproc
 752              	.LFE84:
 753              		.size	MPU_uxTaskGetNumberOfTasks, .-MPU_uxTaskGetNumberOfTasks
 754 0022 00BF     		.section	.text.MPU_pcTaskGetName,"ax",%progbits
 755              		.align	2
 756              		.global	MPU_pcTaskGetName
 757              		.thumb
 758              		.thumb_func
 759              		.type	MPU_pcTaskGetName, %function
 760              	MPU_pcTaskGetName:
 761              	.LFB85:
 319:Source\portable\Common/mpu_wrappers.c **** /*-----------------------------------------------------------*/
 320:Source\portable\Common/mpu_wrappers.c **** 
 321:Source\portable\Common/mpu_wrappers.c **** char * MPU_pcTaskGetName( TaskHandle_t xTaskToQuery ) /* FREERTOS_SYSTEM_CALL */
 322:Source\portable\Common/mpu_wrappers.c **** {
ARM GAS  C:\Users\mikke\AppData\Local\Temp\ccQCZNNL.s 			page 20


 762              		.loc 1 322 0
 763              		.cfi_startproc
 764              		@ args = 0, pretend = 0, frame = 16
 765              		@ frame_needed = 1, uses_anonymous_args = 0
 766 0000 80B5     		push	{r7, lr}
 767              		.cfi_def_cfa_offset 8
 768              		.cfi_offset 7, -8
 769              		.cfi_offset 14, -4
 770 0002 84B0     		sub	sp, sp, #16
 771              		.cfi_def_cfa_offset 24
 772 0004 00AF     		add	r7, sp, #0
 773              		.cfi_def_cfa_register 7
 774 0006 7860     		str	r0, [r7, #4]
 323:Source\portable\Common/mpu_wrappers.c **** char *pcReturn;
 324:Source\portable\Common/mpu_wrappers.c **** BaseType_t xRunningPrivileged = xPortRaisePrivilege();
 775              		.loc 1 324 0
 776 0008 FFF7FEFF 		bl	xPortRaisePrivilege
 777 000c F860     		str	r0, [r7, #12]
 325:Source\portable\Common/mpu_wrappers.c **** 
 326:Source\portable\Common/mpu_wrappers.c **** 	pcReturn = pcTaskGetName( xTaskToQuery );
 778              		.loc 1 326 0
 779 000e 7868     		ldr	r0, [r7, #4]
 780 0010 FFF7FEFF 		bl	pcTaskGetName
 781 0014 B860     		str	r0, [r7, #8]
 327:Source\portable\Common/mpu_wrappers.c **** 	vPortResetPrivilege( xRunningPrivileged );
 782              		.loc 1 327 0
 783 0016 F868     		ldr	r0, [r7, #12]
 784 0018 FFF7FEFF 		bl	vPortResetPrivilege
 328:Source\portable\Common/mpu_wrappers.c **** 	return pcReturn;
 785              		.loc 1 328 0
 786 001c BB68     		ldr	r3, [r7, #8]
 329:Source\portable\Common/mpu_wrappers.c **** }
 787              		.loc 1 329 0
 788 001e 1846     		mov	r0, r3
 789 0020 1037     		adds	r7, r7, #16
 790              		.cfi_def_cfa_offset 8
 791 0022 BD46     		mov	sp, r7
 792              		.cfi_def_cfa_register 13
 793              		@ sp needed
 794 0024 80BD     		pop	{r7, pc}
 795              		.cfi_endproc
 796              	.LFE85:
 797              		.size	MPU_pcTaskGetName, .-MPU_pcTaskGetName
 798 0026 00BF     		.section	.text.MPU_xTaskCatchUpTicks,"ax",%progbits
 799              		.align	2
 800              		.global	MPU_xTaskCatchUpTicks
 801              		.thumb
 802              		.thumb_func
 803              		.type	MPU_xTaskCatchUpTicks, %function
 804              	MPU_xTaskCatchUpTicks:
 805              	.LFB86:
 330:Source\portable\Common/mpu_wrappers.c **** /*-----------------------------------------------------------*/
 331:Source\portable\Common/mpu_wrappers.c **** 
 332:Source\portable\Common/mpu_wrappers.c **** #if ( INCLUDE_xTaskGetHandle == 1 )
 333:Source\portable\Common/mpu_wrappers.c **** 	TaskHandle_t MPU_xTaskGetHandle( const char *pcNameToQuery ) /* FREERTOS_SYSTEM_CALL */
 334:Source\portable\Common/mpu_wrappers.c **** 	{
 335:Source\portable\Common/mpu_wrappers.c **** 	TaskHandle_t xReturn;
ARM GAS  C:\Users\mikke\AppData\Local\Temp\ccQCZNNL.s 			page 21


 336:Source\portable\Common/mpu_wrappers.c **** 	BaseType_t xRunningPrivileged = xPortRaisePrivilege();
 337:Source\portable\Common/mpu_wrappers.c **** 
 338:Source\portable\Common/mpu_wrappers.c **** 		xReturn = xTaskGetHandle( pcNameToQuery );
 339:Source\portable\Common/mpu_wrappers.c **** 		vPortResetPrivilege( xRunningPrivileged );
 340:Source\portable\Common/mpu_wrappers.c **** 		return xReturn;
 341:Source\portable\Common/mpu_wrappers.c **** 	}
 342:Source\portable\Common/mpu_wrappers.c **** #endif
 343:Source\portable\Common/mpu_wrappers.c **** /*-----------------------------------------------------------*/
 344:Source\portable\Common/mpu_wrappers.c **** 
 345:Source\portable\Common/mpu_wrappers.c **** #if ( ( configUSE_TRACE_FACILITY == 1 ) && ( configUSE_STATS_FORMATTING_FUNCTIONS > 0 ) && ( config
 346:Source\portable\Common/mpu_wrappers.c **** 	void MPU_vTaskList( char *pcWriteBuffer ) /* FREERTOS_SYSTEM_CALL */
 347:Source\portable\Common/mpu_wrappers.c **** 	{
 348:Source\portable\Common/mpu_wrappers.c **** 	BaseType_t xRunningPrivileged = xPortRaisePrivilege();
 349:Source\portable\Common/mpu_wrappers.c **** 
 350:Source\portable\Common/mpu_wrappers.c **** 		vTaskList( pcWriteBuffer );
 351:Source\portable\Common/mpu_wrappers.c **** 		vPortResetPrivilege( xRunningPrivileged );
 352:Source\portable\Common/mpu_wrappers.c **** 	}
 353:Source\portable\Common/mpu_wrappers.c **** #endif
 354:Source\portable\Common/mpu_wrappers.c **** /*-----------------------------------------------------------*/
 355:Source\portable\Common/mpu_wrappers.c **** 
 356:Source\portable\Common/mpu_wrappers.c **** #if ( ( configGENERATE_RUN_TIME_STATS == 1 ) && ( configUSE_STATS_FORMATTING_FUNCTIONS > 0 ) && ( c
 357:Source\portable\Common/mpu_wrappers.c **** 	void MPU_vTaskGetRunTimeStats( char *pcWriteBuffer ) /* FREERTOS_SYSTEM_CALL */
 358:Source\portable\Common/mpu_wrappers.c **** 	{
 359:Source\portable\Common/mpu_wrappers.c **** 	BaseType_t xRunningPrivileged = xPortRaisePrivilege();
 360:Source\portable\Common/mpu_wrappers.c **** 
 361:Source\portable\Common/mpu_wrappers.c **** 		vTaskGetRunTimeStats( pcWriteBuffer );
 362:Source\portable\Common/mpu_wrappers.c **** 		vPortResetPrivilege( xRunningPrivileged );
 363:Source\portable\Common/mpu_wrappers.c **** 	}
 364:Source\portable\Common/mpu_wrappers.c **** #endif
 365:Source\portable\Common/mpu_wrappers.c **** /*-----------------------------------------------------------*/
 366:Source\portable\Common/mpu_wrappers.c **** 
 367:Source\portable\Common/mpu_wrappers.c **** #if( ( configGENERATE_RUN_TIME_STATS == 1 ) && ( INCLUDE_xTaskGetIdleTaskHandle == 1 ) )
 368:Source\portable\Common/mpu_wrappers.c **** 	uint32_t MPU_ulTaskGetIdleRunTimeCounter( void ) /* FREERTOS_SYSTEM_CALL */
 369:Source\portable\Common/mpu_wrappers.c **** 	{
 370:Source\portable\Common/mpu_wrappers.c **** 	uint32_t xReturn;
 371:Source\portable\Common/mpu_wrappers.c **** 	BaseType_t xRunningPrivileged = xPortRaisePrivilege();
 372:Source\portable\Common/mpu_wrappers.c **** 
 373:Source\portable\Common/mpu_wrappers.c **** 		xReturn = ulTaskGetIdleRunTimeCounter();
 374:Source\portable\Common/mpu_wrappers.c **** 		vPortResetPrivilege( xRunningPrivileged );
 375:Source\portable\Common/mpu_wrappers.c **** 		return xReturn;
 376:Source\portable\Common/mpu_wrappers.c **** 	}
 377:Source\portable\Common/mpu_wrappers.c **** #endif
 378:Source\portable\Common/mpu_wrappers.c **** /*-----------------------------------------------------------*/
 379:Source\portable\Common/mpu_wrappers.c **** 
 380:Source\portable\Common/mpu_wrappers.c **** #if ( configUSE_APPLICATION_TASK_TAG == 1 )
 381:Source\portable\Common/mpu_wrappers.c **** 	void MPU_vTaskSetApplicationTaskTag( TaskHandle_t xTask, TaskHookFunction_t pxTagValue ) /* FREERT
 382:Source\portable\Common/mpu_wrappers.c **** 	{
 383:Source\portable\Common/mpu_wrappers.c **** 	BaseType_t xRunningPrivileged = xPortRaisePrivilege();
 384:Source\portable\Common/mpu_wrappers.c **** 
 385:Source\portable\Common/mpu_wrappers.c **** 		vTaskSetApplicationTaskTag( xTask, pxTagValue );
 386:Source\portable\Common/mpu_wrappers.c **** 		vPortResetPrivilege( xRunningPrivileged );
 387:Source\portable\Common/mpu_wrappers.c **** 	}
 388:Source\portable\Common/mpu_wrappers.c **** #endif
 389:Source\portable\Common/mpu_wrappers.c **** /*-----------------------------------------------------------*/
 390:Source\portable\Common/mpu_wrappers.c **** 
 391:Source\portable\Common/mpu_wrappers.c **** #if ( configUSE_APPLICATION_TASK_TAG == 1 )
 392:Source\portable\Common/mpu_wrappers.c **** 	TaskHookFunction_t MPU_xTaskGetApplicationTaskTag( TaskHandle_t xTask ) /* FREERTOS_SYSTEM_CALL */
ARM GAS  C:\Users\mikke\AppData\Local\Temp\ccQCZNNL.s 			page 22


 393:Source\portable\Common/mpu_wrappers.c **** 	{
 394:Source\portable\Common/mpu_wrappers.c **** 	TaskHookFunction_t xReturn;
 395:Source\portable\Common/mpu_wrappers.c **** 	BaseType_t xRunningPrivileged = xPortRaisePrivilege();
 396:Source\portable\Common/mpu_wrappers.c **** 
 397:Source\portable\Common/mpu_wrappers.c **** 		xReturn = xTaskGetApplicationTaskTag( xTask );
 398:Source\portable\Common/mpu_wrappers.c **** 		vPortResetPrivilege( xRunningPrivileged );
 399:Source\portable\Common/mpu_wrappers.c **** 		return xReturn;
 400:Source\portable\Common/mpu_wrappers.c **** 	}
 401:Source\portable\Common/mpu_wrappers.c **** #endif
 402:Source\portable\Common/mpu_wrappers.c **** /*-----------------------------------------------------------*/
 403:Source\portable\Common/mpu_wrappers.c **** 
 404:Source\portable\Common/mpu_wrappers.c **** #if ( configNUM_THREAD_LOCAL_STORAGE_POINTERS != 0 )
 405:Source\portable\Common/mpu_wrappers.c **** 	void MPU_vTaskSetThreadLocalStoragePointer( TaskHandle_t xTaskToSet, BaseType_t xIndex, void *pvVa
 406:Source\portable\Common/mpu_wrappers.c **** 	{
 407:Source\portable\Common/mpu_wrappers.c **** 	BaseType_t xRunningPrivileged = xPortRaisePrivilege();
 408:Source\portable\Common/mpu_wrappers.c **** 
 409:Source\portable\Common/mpu_wrappers.c **** 		vTaskSetThreadLocalStoragePointer( xTaskToSet, xIndex, pvValue );
 410:Source\portable\Common/mpu_wrappers.c **** 		vPortResetPrivilege( xRunningPrivileged );
 411:Source\portable\Common/mpu_wrappers.c **** 	}
 412:Source\portable\Common/mpu_wrappers.c **** #endif
 413:Source\portable\Common/mpu_wrappers.c **** /*-----------------------------------------------------------*/
 414:Source\portable\Common/mpu_wrappers.c **** 
 415:Source\portable\Common/mpu_wrappers.c **** #if ( configNUM_THREAD_LOCAL_STORAGE_POINTERS != 0 )
 416:Source\portable\Common/mpu_wrappers.c **** 	void *MPU_pvTaskGetThreadLocalStoragePointer( TaskHandle_t xTaskToQuery, BaseType_t xIndex ) /* FR
 417:Source\portable\Common/mpu_wrappers.c **** 	{
 418:Source\portable\Common/mpu_wrappers.c **** 	void *pvReturn;
 419:Source\portable\Common/mpu_wrappers.c **** 	BaseType_t xRunningPrivileged = xPortRaisePrivilege();
 420:Source\portable\Common/mpu_wrappers.c **** 
 421:Source\portable\Common/mpu_wrappers.c **** 		pvReturn = pvTaskGetThreadLocalStoragePointer( xTaskToQuery, xIndex );
 422:Source\portable\Common/mpu_wrappers.c **** 		vPortResetPrivilege( xRunningPrivileged );
 423:Source\portable\Common/mpu_wrappers.c **** 		return pvReturn;
 424:Source\portable\Common/mpu_wrappers.c **** 	}
 425:Source\portable\Common/mpu_wrappers.c **** #endif
 426:Source\portable\Common/mpu_wrappers.c **** /*-----------------------------------------------------------*/
 427:Source\portable\Common/mpu_wrappers.c **** 
 428:Source\portable\Common/mpu_wrappers.c **** #if ( configUSE_APPLICATION_TASK_TAG == 1 )
 429:Source\portable\Common/mpu_wrappers.c **** 	BaseType_t MPU_xTaskCallApplicationTaskHook( TaskHandle_t xTask, void *pvParameter ) /* FREERTOS_S
 430:Source\portable\Common/mpu_wrappers.c **** 	{
 431:Source\portable\Common/mpu_wrappers.c **** 	BaseType_t xReturn;
 432:Source\portable\Common/mpu_wrappers.c **** 	BaseType_t xRunningPrivileged = xPortRaisePrivilege();
 433:Source\portable\Common/mpu_wrappers.c **** 
 434:Source\portable\Common/mpu_wrappers.c **** 		xReturn = xTaskCallApplicationTaskHook( xTask, pvParameter );
 435:Source\portable\Common/mpu_wrappers.c **** 		vPortResetPrivilege( xRunningPrivileged );
 436:Source\portable\Common/mpu_wrappers.c **** 		return xReturn;
 437:Source\portable\Common/mpu_wrappers.c **** 	}
 438:Source\portable\Common/mpu_wrappers.c **** #endif
 439:Source\portable\Common/mpu_wrappers.c **** /*-----------------------------------------------------------*/
 440:Source\portable\Common/mpu_wrappers.c **** 
 441:Source\portable\Common/mpu_wrappers.c **** #if ( configUSE_TRACE_FACILITY == 1 )
 442:Source\portable\Common/mpu_wrappers.c **** 	UBaseType_t MPU_uxTaskGetSystemState( TaskStatus_t *pxTaskStatusArray, UBaseType_t uxArraySize, ui
 443:Source\portable\Common/mpu_wrappers.c **** 	{
 444:Source\portable\Common/mpu_wrappers.c **** 	UBaseType_t uxReturn;
 445:Source\portable\Common/mpu_wrappers.c **** 	BaseType_t xRunningPrivileged = xPortRaisePrivilege();
 446:Source\portable\Common/mpu_wrappers.c **** 
 447:Source\portable\Common/mpu_wrappers.c **** 		uxReturn = uxTaskGetSystemState( pxTaskStatusArray, uxArraySize, pulTotalRunTime );
 448:Source\portable\Common/mpu_wrappers.c **** 		vPortResetPrivilege( xRunningPrivileged );
 449:Source\portable\Common/mpu_wrappers.c **** 		return uxReturn;
ARM GAS  C:\Users\mikke\AppData\Local\Temp\ccQCZNNL.s 			page 23


 450:Source\portable\Common/mpu_wrappers.c **** 	}
 451:Source\portable\Common/mpu_wrappers.c **** #endif
 452:Source\portable\Common/mpu_wrappers.c **** /*-----------------------------------------------------------*/
 453:Source\portable\Common/mpu_wrappers.c **** 
 454:Source\portable\Common/mpu_wrappers.c **** BaseType_t MPU_xTaskCatchUpTicks( TickType_t xTicksToCatchUp ) /* FREERTOS_SYSTEM_CALL */
 455:Source\portable\Common/mpu_wrappers.c **** {
 806              		.loc 1 455 0
 807              		.cfi_startproc
 808              		@ args = 0, pretend = 0, frame = 16
 809              		@ frame_needed = 1, uses_anonymous_args = 0
 810 0000 80B5     		push	{r7, lr}
 811              		.cfi_def_cfa_offset 8
 812              		.cfi_offset 7, -8
 813              		.cfi_offset 14, -4
 814 0002 84B0     		sub	sp, sp, #16
 815              		.cfi_def_cfa_offset 24
 816 0004 00AF     		add	r7, sp, #0
 817              		.cfi_def_cfa_register 7
 818 0006 7860     		str	r0, [r7, #4]
 456:Source\portable\Common/mpu_wrappers.c **** BaseType_t xReturn;
 457:Source\portable\Common/mpu_wrappers.c **** BaseType_t xRunningPrivileged = xPortRaisePrivilege();
 819              		.loc 1 457 0
 820 0008 FFF7FEFF 		bl	xPortRaisePrivilege
 821 000c F860     		str	r0, [r7, #12]
 458:Source\portable\Common/mpu_wrappers.c **** 
 459:Source\portable\Common/mpu_wrappers.c **** 	xReturn = xTaskCatchUpTicks( xTicksToCatchUp );
 822              		.loc 1 459 0
 823 000e 7868     		ldr	r0, [r7, #4]
 824 0010 FFF7FEFF 		bl	xTaskCatchUpTicks
 825 0014 B860     		str	r0, [r7, #8]
 460:Source\portable\Common/mpu_wrappers.c **** 	vPortResetPrivilege( xRunningPrivileged );
 826              		.loc 1 460 0
 827 0016 F868     		ldr	r0, [r7, #12]
 828 0018 FFF7FEFF 		bl	vPortResetPrivilege
 461:Source\portable\Common/mpu_wrappers.c **** 	return xReturn;
 829              		.loc 1 461 0
 830 001c BB68     		ldr	r3, [r7, #8]
 462:Source\portable\Common/mpu_wrappers.c **** }
 831              		.loc 1 462 0
 832 001e 1846     		mov	r0, r3
 833 0020 1037     		adds	r7, r7, #16
 834              		.cfi_def_cfa_offset 8
 835 0022 BD46     		mov	sp, r7
 836              		.cfi_def_cfa_register 13
 837              		@ sp needed
 838 0024 80BD     		pop	{r7, pc}
 839              		.cfi_endproc
 840              	.LFE86:
 841              		.size	MPU_xTaskCatchUpTicks, .-MPU_xTaskCatchUpTicks
 842 0026 00BF     		.section	.text.MPU_uxTaskGetStackHighWaterMark,"ax",%progbits
 843              		.align	2
 844              		.global	MPU_uxTaskGetStackHighWaterMark
 845              		.thumb
 846              		.thumb_func
 847              		.type	MPU_uxTaskGetStackHighWaterMark, %function
 848              	MPU_uxTaskGetStackHighWaterMark:
 849              	.LFB87:
ARM GAS  C:\Users\mikke\AppData\Local\Temp\ccQCZNNL.s 			page 24


 463:Source\portable\Common/mpu_wrappers.c **** /*-----------------------------------------------------------*/
 464:Source\portable\Common/mpu_wrappers.c **** 
 465:Source\portable\Common/mpu_wrappers.c **** #if ( INCLUDE_uxTaskGetStackHighWaterMark == 1 )
 466:Source\portable\Common/mpu_wrappers.c **** 	UBaseType_t MPU_uxTaskGetStackHighWaterMark( TaskHandle_t xTask ) /* FREERTOS_SYSTEM_CALL */
 467:Source\portable\Common/mpu_wrappers.c **** 	{
 850              		.loc 1 467 0
 851              		.cfi_startproc
 852              		@ args = 0, pretend = 0, frame = 16
 853              		@ frame_needed = 1, uses_anonymous_args = 0
 854 0000 80B5     		push	{r7, lr}
 855              		.cfi_def_cfa_offset 8
 856              		.cfi_offset 7, -8
 857              		.cfi_offset 14, -4
 858 0002 84B0     		sub	sp, sp, #16
 859              		.cfi_def_cfa_offset 24
 860 0004 00AF     		add	r7, sp, #0
 861              		.cfi_def_cfa_register 7
 862 0006 7860     		str	r0, [r7, #4]
 468:Source\portable\Common/mpu_wrappers.c **** 	UBaseType_t uxReturn;
 469:Source\portable\Common/mpu_wrappers.c **** 	BaseType_t xRunningPrivileged = xPortRaisePrivilege();
 863              		.loc 1 469 0
 864 0008 FFF7FEFF 		bl	xPortRaisePrivilege
 865 000c F860     		str	r0, [r7, #12]
 470:Source\portable\Common/mpu_wrappers.c **** 
 471:Source\portable\Common/mpu_wrappers.c **** 		uxReturn = uxTaskGetStackHighWaterMark( xTask );
 866              		.loc 1 471 0
 867 000e 7868     		ldr	r0, [r7, #4]
 868 0010 FFF7FEFF 		bl	uxTaskGetStackHighWaterMark
 869 0014 B860     		str	r0, [r7, #8]
 472:Source\portable\Common/mpu_wrappers.c **** 		vPortResetPrivilege( xRunningPrivileged );
 870              		.loc 1 472 0
 871 0016 F868     		ldr	r0, [r7, #12]
 872 0018 FFF7FEFF 		bl	vPortResetPrivilege
 473:Source\portable\Common/mpu_wrappers.c **** 		return uxReturn;
 873              		.loc 1 473 0
 874 001c BB68     		ldr	r3, [r7, #8]
 474:Source\portable\Common/mpu_wrappers.c **** 	}
 875              		.loc 1 474 0
 876 001e 1846     		mov	r0, r3
 877 0020 1037     		adds	r7, r7, #16
 878              		.cfi_def_cfa_offset 8
 879 0022 BD46     		mov	sp, r7
 880              		.cfi_def_cfa_register 13
 881              		@ sp needed
 882 0024 80BD     		pop	{r7, pc}
 883              		.cfi_endproc
 884              	.LFE87:
 885              		.size	MPU_uxTaskGetStackHighWaterMark, .-MPU_uxTaskGetStackHighWaterMark
 886 0026 00BF     		.section	.text.MPU_vTaskSetTimeOutState,"ax",%progbits
 887              		.align	2
 888              		.global	MPU_vTaskSetTimeOutState
 889              		.thumb
 890              		.thumb_func
 891              		.type	MPU_vTaskSetTimeOutState, %function
 892              	MPU_vTaskSetTimeOutState:
 893              	.LFB88:
 475:Source\portable\Common/mpu_wrappers.c **** #endif
ARM GAS  C:\Users\mikke\AppData\Local\Temp\ccQCZNNL.s 			page 25


 476:Source\portable\Common/mpu_wrappers.c **** /*-----------------------------------------------------------*/
 477:Source\portable\Common/mpu_wrappers.c **** 
 478:Source\portable\Common/mpu_wrappers.c **** #if ( INCLUDE_uxTaskGetStackHighWaterMark2 == 1 )
 479:Source\portable\Common/mpu_wrappers.c **** 	configSTACK_DEPTH_TYPE MPU_uxTaskGetStackHighWaterMark2( TaskHandle_t xTask ) /* FREERTOS_SYSTEM_C
 480:Source\portable\Common/mpu_wrappers.c **** 	{
 481:Source\portable\Common/mpu_wrappers.c **** 	configSTACK_DEPTH_TYPE uxReturn;
 482:Source\portable\Common/mpu_wrappers.c **** 	BaseType_t xRunningPrivileged = xPortRaisePrivilege();
 483:Source\portable\Common/mpu_wrappers.c **** 
 484:Source\portable\Common/mpu_wrappers.c **** 		uxReturn = uxTaskGetStackHighWaterMark2( xTask );
 485:Source\portable\Common/mpu_wrappers.c **** 		vPortResetPrivilege( xRunningPrivileged );
 486:Source\portable\Common/mpu_wrappers.c **** 		return uxReturn;
 487:Source\portable\Common/mpu_wrappers.c **** 	}
 488:Source\portable\Common/mpu_wrappers.c **** #endif
 489:Source\portable\Common/mpu_wrappers.c **** /*-----------------------------------------------------------*/
 490:Source\portable\Common/mpu_wrappers.c **** 
 491:Source\portable\Common/mpu_wrappers.c **** #if ( INCLUDE_xTaskGetCurrentTaskHandle == 1 )
 492:Source\portable\Common/mpu_wrappers.c **** 	TaskHandle_t MPU_xTaskGetCurrentTaskHandle( void ) /* FREERTOS_SYSTEM_CALL */
 493:Source\portable\Common/mpu_wrappers.c **** 	{
 494:Source\portable\Common/mpu_wrappers.c **** 	TaskHandle_t xReturn;
 495:Source\portable\Common/mpu_wrappers.c **** 	BaseType_t xRunningPrivileged = xPortRaisePrivilege();
 496:Source\portable\Common/mpu_wrappers.c **** 
 497:Source\portable\Common/mpu_wrappers.c **** 		xReturn = xTaskGetCurrentTaskHandle();
 498:Source\portable\Common/mpu_wrappers.c **** 		vPortResetPrivilege( xRunningPrivileged );
 499:Source\portable\Common/mpu_wrappers.c **** 		return xReturn;
 500:Source\portable\Common/mpu_wrappers.c **** 	}
 501:Source\portable\Common/mpu_wrappers.c **** #endif
 502:Source\portable\Common/mpu_wrappers.c **** /*-----------------------------------------------------------*/
 503:Source\portable\Common/mpu_wrappers.c **** 
 504:Source\portable\Common/mpu_wrappers.c **** #if ( INCLUDE_xTaskGetSchedulerState == 1 )
 505:Source\portable\Common/mpu_wrappers.c **** 	BaseType_t MPU_xTaskGetSchedulerState( void ) /* FREERTOS_SYSTEM_CALL */
 506:Source\portable\Common/mpu_wrappers.c **** 	{
 507:Source\portable\Common/mpu_wrappers.c **** 	BaseType_t xReturn;
 508:Source\portable\Common/mpu_wrappers.c **** 	BaseType_t xRunningPrivileged = xPortRaisePrivilege();
 509:Source\portable\Common/mpu_wrappers.c **** 
 510:Source\portable\Common/mpu_wrappers.c **** 		xReturn = xTaskGetSchedulerState();
 511:Source\portable\Common/mpu_wrappers.c **** 		vPortResetPrivilege( xRunningPrivileged );
 512:Source\portable\Common/mpu_wrappers.c **** 		return xReturn;
 513:Source\portable\Common/mpu_wrappers.c **** 	}
 514:Source\portable\Common/mpu_wrappers.c **** #endif
 515:Source\portable\Common/mpu_wrappers.c **** /*-----------------------------------------------------------*/
 516:Source\portable\Common/mpu_wrappers.c **** 
 517:Source\portable\Common/mpu_wrappers.c **** void MPU_vTaskSetTimeOutState( TimeOut_t * const pxTimeOut ) /* FREERTOS_SYSTEM_CALL */
 518:Source\portable\Common/mpu_wrappers.c **** {
 894              		.loc 1 518 0
 895              		.cfi_startproc
 896              		@ args = 0, pretend = 0, frame = 16
 897              		@ frame_needed = 1, uses_anonymous_args = 0
 898 0000 80B5     		push	{r7, lr}
 899              		.cfi_def_cfa_offset 8
 900              		.cfi_offset 7, -8
 901              		.cfi_offset 14, -4
 902 0002 84B0     		sub	sp, sp, #16
 903              		.cfi_def_cfa_offset 24
 904 0004 00AF     		add	r7, sp, #0
 905              		.cfi_def_cfa_register 7
 906 0006 7860     		str	r0, [r7, #4]
 519:Source\portable\Common/mpu_wrappers.c **** BaseType_t xRunningPrivileged = xPortRaisePrivilege();
ARM GAS  C:\Users\mikke\AppData\Local\Temp\ccQCZNNL.s 			page 26


 907              		.loc 1 519 0
 908 0008 FFF7FEFF 		bl	xPortRaisePrivilege
 909 000c F860     		str	r0, [r7, #12]
 520:Source\portable\Common/mpu_wrappers.c **** 
 521:Source\portable\Common/mpu_wrappers.c **** 	vTaskSetTimeOutState( pxTimeOut );
 910              		.loc 1 521 0
 911 000e 7868     		ldr	r0, [r7, #4]
 912 0010 FFF7FEFF 		bl	vTaskSetTimeOutState
 522:Source\portable\Common/mpu_wrappers.c **** 	vPortResetPrivilege( xRunningPrivileged );
 913              		.loc 1 522 0
 914 0014 F868     		ldr	r0, [r7, #12]
 915 0016 FFF7FEFF 		bl	vPortResetPrivilege
 523:Source\portable\Common/mpu_wrappers.c **** }
 916              		.loc 1 523 0
 917 001a 00BF     		nop
 918 001c 1037     		adds	r7, r7, #16
 919              		.cfi_def_cfa_offset 8
 920 001e BD46     		mov	sp, r7
 921              		.cfi_def_cfa_register 13
 922              		@ sp needed
 923 0020 80BD     		pop	{r7, pc}
 924              		.cfi_endproc
 925              	.LFE88:
 926              		.size	MPU_vTaskSetTimeOutState, .-MPU_vTaskSetTimeOutState
 927 0022 00BF     		.section	.text.MPU_xTaskCheckForTimeOut,"ax",%progbits
 928              		.align	2
 929              		.global	MPU_xTaskCheckForTimeOut
 930              		.thumb
 931              		.thumb_func
 932              		.type	MPU_xTaskCheckForTimeOut, %function
 933              	MPU_xTaskCheckForTimeOut:
 934              	.LFB89:
 524:Source\portable\Common/mpu_wrappers.c **** /*-----------------------------------------------------------*/
 525:Source\portable\Common/mpu_wrappers.c **** 
 526:Source\portable\Common/mpu_wrappers.c **** BaseType_t MPU_xTaskCheckForTimeOut( TimeOut_t * const pxTimeOut, TickType_t * const pxTicksToWait 
 527:Source\portable\Common/mpu_wrappers.c **** {
 935              		.loc 1 527 0
 936              		.cfi_startproc
 937              		@ args = 0, pretend = 0, frame = 16
 938              		@ frame_needed = 1, uses_anonymous_args = 0
 939 0000 80B5     		push	{r7, lr}
 940              		.cfi_def_cfa_offset 8
 941              		.cfi_offset 7, -8
 942              		.cfi_offset 14, -4
 943 0002 84B0     		sub	sp, sp, #16
 944              		.cfi_def_cfa_offset 24
 945 0004 00AF     		add	r7, sp, #0
 946              		.cfi_def_cfa_register 7
 947 0006 7860     		str	r0, [r7, #4]
 948 0008 3960     		str	r1, [r7]
 528:Source\portable\Common/mpu_wrappers.c **** BaseType_t xReturn;
 529:Source\portable\Common/mpu_wrappers.c **** BaseType_t xRunningPrivileged = xPortRaisePrivilege();
 949              		.loc 1 529 0
 950 000a FFF7FEFF 		bl	xPortRaisePrivilege
 951 000e F860     		str	r0, [r7, #12]
 530:Source\portable\Common/mpu_wrappers.c **** 
 531:Source\portable\Common/mpu_wrappers.c **** 	xReturn = xTaskCheckForTimeOut( pxTimeOut, pxTicksToWait );
ARM GAS  C:\Users\mikke\AppData\Local\Temp\ccQCZNNL.s 			page 27


 952              		.loc 1 531 0
 953 0010 3968     		ldr	r1, [r7]
 954 0012 7868     		ldr	r0, [r7, #4]
 955 0014 FFF7FEFF 		bl	xTaskCheckForTimeOut
 956 0018 B860     		str	r0, [r7, #8]
 532:Source\portable\Common/mpu_wrappers.c **** 	vPortResetPrivilege( xRunningPrivileged );
 957              		.loc 1 532 0
 958 001a F868     		ldr	r0, [r7, #12]
 959 001c FFF7FEFF 		bl	vPortResetPrivilege
 533:Source\portable\Common/mpu_wrappers.c **** 	return xReturn;
 960              		.loc 1 533 0
 961 0020 BB68     		ldr	r3, [r7, #8]
 534:Source\portable\Common/mpu_wrappers.c **** }
 962              		.loc 1 534 0
 963 0022 1846     		mov	r0, r3
 964 0024 1037     		adds	r7, r7, #16
 965              		.cfi_def_cfa_offset 8
 966 0026 BD46     		mov	sp, r7
 967              		.cfi_def_cfa_register 13
 968              		@ sp needed
 969 0028 80BD     		pop	{r7, pc}
 970              		.cfi_endproc
 971              	.LFE89:
 972              		.size	MPU_xTaskCheckForTimeOut, .-MPU_xTaskCheckForTimeOut
 973              		.section	.text.MPU_xTaskGenericNotify,"ax",%progbits
 974              		.align	2
 975              		.global	MPU_xTaskGenericNotify
 976              		.thumb
 977              		.thumb_func
 978              		.type	MPU_xTaskGenericNotify, %function
 979              	MPU_xTaskGenericNotify:
 980              	.LFB90:
 535:Source\portable\Common/mpu_wrappers.c **** /*-----------------------------------------------------------*/
 536:Source\portable\Common/mpu_wrappers.c **** 
 537:Source\portable\Common/mpu_wrappers.c **** #if( configUSE_TASK_NOTIFICATIONS == 1 )
 538:Source\portable\Common/mpu_wrappers.c **** 	BaseType_t MPU_xTaskGenericNotify( TaskHandle_t xTaskToNotify, uint32_t ulValue, eNotifyAction eAc
 539:Source\portable\Common/mpu_wrappers.c **** 	{
 981              		.loc 1 539 0
 982              		.cfi_startproc
 983              		@ args = 0, pretend = 0, frame = 24
 984              		@ frame_needed = 1, uses_anonymous_args = 0
 985 0000 80B5     		push	{r7, lr}
 986              		.cfi_def_cfa_offset 8
 987              		.cfi_offset 7, -8
 988              		.cfi_offset 14, -4
 989 0002 86B0     		sub	sp, sp, #24
 990              		.cfi_def_cfa_offset 32
 991 0004 00AF     		add	r7, sp, #0
 992              		.cfi_def_cfa_register 7
 993 0006 F860     		str	r0, [r7, #12]
 994 0008 B960     		str	r1, [r7, #8]
 995 000a 3B60     		str	r3, [r7]
 996 000c 1346     		mov	r3, r2
 997 000e FB71     		strb	r3, [r7, #7]
 540:Source\portable\Common/mpu_wrappers.c **** 	BaseType_t xReturn;
 541:Source\portable\Common/mpu_wrappers.c **** 	BaseType_t xRunningPrivileged = xPortRaisePrivilege();
 998              		.loc 1 541 0
ARM GAS  C:\Users\mikke\AppData\Local\Temp\ccQCZNNL.s 			page 28


 999 0010 FFF7FEFF 		bl	xPortRaisePrivilege
 1000 0014 7861     		str	r0, [r7, #20]
 542:Source\portable\Common/mpu_wrappers.c **** 
 543:Source\portable\Common/mpu_wrappers.c **** 		xReturn = xTaskGenericNotify( xTaskToNotify, ulValue, eAction, pulPreviousNotificationValue );
 1001              		.loc 1 543 0
 1002 0016 FA79     		ldrb	r2, [r7, #7]	@ zero_extendqisi2
 1003 0018 3B68     		ldr	r3, [r7]
 1004 001a B968     		ldr	r1, [r7, #8]
 1005 001c F868     		ldr	r0, [r7, #12]
 1006 001e FFF7FEFF 		bl	xTaskGenericNotify
 1007 0022 3861     		str	r0, [r7, #16]
 544:Source\portable\Common/mpu_wrappers.c **** 		vPortResetPrivilege( xRunningPrivileged );
 1008              		.loc 1 544 0
 1009 0024 7869     		ldr	r0, [r7, #20]
 1010 0026 FFF7FEFF 		bl	vPortResetPrivilege
 545:Source\portable\Common/mpu_wrappers.c **** 		return xReturn;
 1011              		.loc 1 545 0
 1012 002a 3B69     		ldr	r3, [r7, #16]
 546:Source\portable\Common/mpu_wrappers.c **** 	}
 1013              		.loc 1 546 0
 1014 002c 1846     		mov	r0, r3
 1015 002e 1837     		adds	r7, r7, #24
 1016              		.cfi_def_cfa_offset 8
 1017 0030 BD46     		mov	sp, r7
 1018              		.cfi_def_cfa_register 13
 1019              		@ sp needed
 1020 0032 80BD     		pop	{r7, pc}
 1021              		.cfi_endproc
 1022              	.LFE90:
 1023              		.size	MPU_xTaskGenericNotify, .-MPU_xTaskGenericNotify
 1024              		.section	.text.MPU_xTaskNotifyWait,"ax",%progbits
 1025              		.align	2
 1026              		.global	MPU_xTaskNotifyWait
 1027              		.thumb
 1028              		.thumb_func
 1029              		.type	MPU_xTaskNotifyWait, %function
 1030              	MPU_xTaskNotifyWait:
 1031              	.LFB91:
 547:Source\portable\Common/mpu_wrappers.c **** #endif
 548:Source\portable\Common/mpu_wrappers.c **** /*-----------------------------------------------------------*/
 549:Source\portable\Common/mpu_wrappers.c **** 
 550:Source\portable\Common/mpu_wrappers.c **** #if( configUSE_TASK_NOTIFICATIONS == 1 )
 551:Source\portable\Common/mpu_wrappers.c **** 	BaseType_t MPU_xTaskNotifyWait( uint32_t ulBitsToClearOnEntry, uint32_t ulBitsToClearOnExit, uint3
 552:Source\portable\Common/mpu_wrappers.c **** 	{
 1032              		.loc 1 552 0
 1033              		.cfi_startproc
 1034              		@ args = 0, pretend = 0, frame = 24
 1035              		@ frame_needed = 1, uses_anonymous_args = 0
 1036 0000 80B5     		push	{r7, lr}
 1037              		.cfi_def_cfa_offset 8
 1038              		.cfi_offset 7, -8
 1039              		.cfi_offset 14, -4
 1040 0002 86B0     		sub	sp, sp, #24
 1041              		.cfi_def_cfa_offset 32
 1042 0004 00AF     		add	r7, sp, #0
 1043              		.cfi_def_cfa_register 7
 1044 0006 F860     		str	r0, [r7, #12]
ARM GAS  C:\Users\mikke\AppData\Local\Temp\ccQCZNNL.s 			page 29


 1045 0008 B960     		str	r1, [r7, #8]
 1046 000a 7A60     		str	r2, [r7, #4]
 1047 000c 3B60     		str	r3, [r7]
 553:Source\portable\Common/mpu_wrappers.c **** 	BaseType_t xReturn;
 554:Source\portable\Common/mpu_wrappers.c **** 	BaseType_t xRunningPrivileged = xPortRaisePrivilege();
 1048              		.loc 1 554 0
 1049 000e FFF7FEFF 		bl	xPortRaisePrivilege
 1050 0012 7861     		str	r0, [r7, #20]
 555:Source\portable\Common/mpu_wrappers.c **** 
 556:Source\portable\Common/mpu_wrappers.c **** 		xReturn = xTaskNotifyWait( ulBitsToClearOnEntry, ulBitsToClearOnExit, pulNotificationValue, xTick
 1051              		.loc 1 556 0
 1052 0014 3B68     		ldr	r3, [r7]
 1053 0016 7A68     		ldr	r2, [r7, #4]
 1054 0018 B968     		ldr	r1, [r7, #8]
 1055 001a F868     		ldr	r0, [r7, #12]
 1056 001c FFF7FEFF 		bl	xTaskNotifyWait
 1057 0020 3861     		str	r0, [r7, #16]
 557:Source\portable\Common/mpu_wrappers.c **** 		vPortResetPrivilege( xRunningPrivileged );
 1058              		.loc 1 557 0
 1059 0022 7869     		ldr	r0, [r7, #20]
 1060 0024 FFF7FEFF 		bl	vPortResetPrivilege
 558:Source\portable\Common/mpu_wrappers.c **** 		return xReturn;
 1061              		.loc 1 558 0
 1062 0028 3B69     		ldr	r3, [r7, #16]
 559:Source\portable\Common/mpu_wrappers.c **** 	}
 1063              		.loc 1 559 0
 1064 002a 1846     		mov	r0, r3
 1065 002c 1837     		adds	r7, r7, #24
 1066              		.cfi_def_cfa_offset 8
 1067 002e BD46     		mov	sp, r7
 1068              		.cfi_def_cfa_register 13
 1069              		@ sp needed
 1070 0030 80BD     		pop	{r7, pc}
 1071              		.cfi_endproc
 1072              	.LFE91:
 1073              		.size	MPU_xTaskNotifyWait, .-MPU_xTaskNotifyWait
 1074 0032 00BF     		.section	.text.MPU_ulTaskNotifyTake,"ax",%progbits
 1075              		.align	2
 1076              		.global	MPU_ulTaskNotifyTake
 1077              		.thumb
 1078              		.thumb_func
 1079              		.type	MPU_ulTaskNotifyTake, %function
 1080              	MPU_ulTaskNotifyTake:
 1081              	.LFB92:
 560:Source\portable\Common/mpu_wrappers.c **** #endif
 561:Source\portable\Common/mpu_wrappers.c **** /*-----------------------------------------------------------*/
 562:Source\portable\Common/mpu_wrappers.c **** 
 563:Source\portable\Common/mpu_wrappers.c **** #if( configUSE_TASK_NOTIFICATIONS == 1 )
 564:Source\portable\Common/mpu_wrappers.c **** 	uint32_t MPU_ulTaskNotifyTake( BaseType_t xClearCountOnExit, TickType_t xTicksToWait ) /* FREERTOS
 565:Source\portable\Common/mpu_wrappers.c **** 	{
 1082              		.loc 1 565 0
 1083              		.cfi_startproc
 1084              		@ args = 0, pretend = 0, frame = 16
 1085              		@ frame_needed = 1, uses_anonymous_args = 0
 1086 0000 80B5     		push	{r7, lr}
 1087              		.cfi_def_cfa_offset 8
 1088              		.cfi_offset 7, -8
ARM GAS  C:\Users\mikke\AppData\Local\Temp\ccQCZNNL.s 			page 30


 1089              		.cfi_offset 14, -4
 1090 0002 84B0     		sub	sp, sp, #16
 1091              		.cfi_def_cfa_offset 24
 1092 0004 00AF     		add	r7, sp, #0
 1093              		.cfi_def_cfa_register 7
 1094 0006 7860     		str	r0, [r7, #4]
 1095 0008 3960     		str	r1, [r7]
 566:Source\portable\Common/mpu_wrappers.c **** 	uint32_t ulReturn;
 567:Source\portable\Common/mpu_wrappers.c **** 	BaseType_t xRunningPrivileged = xPortRaisePrivilege();
 1096              		.loc 1 567 0
 1097 000a FFF7FEFF 		bl	xPortRaisePrivilege
 1098 000e F860     		str	r0, [r7, #12]
 568:Source\portable\Common/mpu_wrappers.c **** 
 569:Source\portable\Common/mpu_wrappers.c **** 		ulReturn = ulTaskNotifyTake( xClearCountOnExit, xTicksToWait );
 1099              		.loc 1 569 0
 1100 0010 3968     		ldr	r1, [r7]
 1101 0012 7868     		ldr	r0, [r7, #4]
 1102 0014 FFF7FEFF 		bl	ulTaskNotifyTake
 1103 0018 B860     		str	r0, [r7, #8]
 570:Source\portable\Common/mpu_wrappers.c **** 		vPortResetPrivilege( xRunningPrivileged );
 1104              		.loc 1 570 0
 1105 001a F868     		ldr	r0, [r7, #12]
 1106 001c FFF7FEFF 		bl	vPortResetPrivilege
 571:Source\portable\Common/mpu_wrappers.c **** 		return ulReturn;
 1107              		.loc 1 571 0
 1108 0020 BB68     		ldr	r3, [r7, #8]
 572:Source\portable\Common/mpu_wrappers.c **** 	}
 1109              		.loc 1 572 0
 1110 0022 1846     		mov	r0, r3
 1111 0024 1037     		adds	r7, r7, #16
 1112              		.cfi_def_cfa_offset 8
 1113 0026 BD46     		mov	sp, r7
 1114              		.cfi_def_cfa_register 13
 1115              		@ sp needed
 1116 0028 80BD     		pop	{r7, pc}
 1117              		.cfi_endproc
 1118              	.LFE92:
 1119              		.size	MPU_ulTaskNotifyTake, .-MPU_ulTaskNotifyTake
 1120              		.section	.text.MPU_xTaskNotifyStateClear,"ax",%progbits
 1121              		.align	2
 1122              		.global	MPU_xTaskNotifyStateClear
 1123              		.thumb
 1124              		.thumb_func
 1125              		.type	MPU_xTaskNotifyStateClear, %function
 1126              	MPU_xTaskNotifyStateClear:
 1127              	.LFB93:
 573:Source\portable\Common/mpu_wrappers.c **** #endif
 574:Source\portable\Common/mpu_wrappers.c **** /*-----------------------------------------------------------*/
 575:Source\portable\Common/mpu_wrappers.c **** 
 576:Source\portable\Common/mpu_wrappers.c **** #if( configUSE_TASK_NOTIFICATIONS == 1 )
 577:Source\portable\Common/mpu_wrappers.c **** 	BaseType_t MPU_xTaskNotifyStateClear( TaskHandle_t xTask ) /* FREERTOS_SYSTEM_CALL */
 578:Source\portable\Common/mpu_wrappers.c **** 	{
 1128              		.loc 1 578 0
 1129              		.cfi_startproc
 1130              		@ args = 0, pretend = 0, frame = 16
 1131              		@ frame_needed = 1, uses_anonymous_args = 0
 1132 0000 80B5     		push	{r7, lr}
ARM GAS  C:\Users\mikke\AppData\Local\Temp\ccQCZNNL.s 			page 31


 1133              		.cfi_def_cfa_offset 8
 1134              		.cfi_offset 7, -8
 1135              		.cfi_offset 14, -4
 1136 0002 84B0     		sub	sp, sp, #16
 1137              		.cfi_def_cfa_offset 24
 1138 0004 00AF     		add	r7, sp, #0
 1139              		.cfi_def_cfa_register 7
 1140 0006 7860     		str	r0, [r7, #4]
 579:Source\portable\Common/mpu_wrappers.c **** 	BaseType_t xReturn;
 580:Source\portable\Common/mpu_wrappers.c **** 	BaseType_t xRunningPrivileged = xPortRaisePrivilege();
 1141              		.loc 1 580 0
 1142 0008 FFF7FEFF 		bl	xPortRaisePrivilege
 1143 000c F860     		str	r0, [r7, #12]
 581:Source\portable\Common/mpu_wrappers.c **** 
 582:Source\portable\Common/mpu_wrappers.c **** 		xReturn = xTaskNotifyStateClear( xTask );
 1144              		.loc 1 582 0
 1145 000e 7868     		ldr	r0, [r7, #4]
 1146 0010 FFF7FEFF 		bl	xTaskNotifyStateClear
 1147 0014 B860     		str	r0, [r7, #8]
 583:Source\portable\Common/mpu_wrappers.c **** 		vPortResetPrivilege( xRunningPrivileged );
 1148              		.loc 1 583 0
 1149 0016 F868     		ldr	r0, [r7, #12]
 1150 0018 FFF7FEFF 		bl	vPortResetPrivilege
 584:Source\portable\Common/mpu_wrappers.c **** 		return xReturn;
 1151              		.loc 1 584 0
 1152 001c BB68     		ldr	r3, [r7, #8]
 585:Source\portable\Common/mpu_wrappers.c **** 	}
 1153              		.loc 1 585 0
 1154 001e 1846     		mov	r0, r3
 1155 0020 1037     		adds	r7, r7, #16
 1156              		.cfi_def_cfa_offset 8
 1157 0022 BD46     		mov	sp, r7
 1158              		.cfi_def_cfa_register 13
 1159              		@ sp needed
 1160 0024 80BD     		pop	{r7, pc}
 1161              		.cfi_endproc
 1162              	.LFE93:
 1163              		.size	MPU_xTaskNotifyStateClear, .-MPU_xTaskNotifyStateClear
 1164 0026 00BF     		.section	.text.MPU_ulTaskNotifyValueClear,"ax",%progbits
 1165              		.align	2
 1166              		.global	MPU_ulTaskNotifyValueClear
 1167              		.thumb
 1168              		.thumb_func
 1169              		.type	MPU_ulTaskNotifyValueClear, %function
 1170              	MPU_ulTaskNotifyValueClear:
 1171              	.LFB94:
 586:Source\portable\Common/mpu_wrappers.c **** #endif
 587:Source\portable\Common/mpu_wrappers.c **** /*-----------------------------------------------------------*/
 588:Source\portable\Common/mpu_wrappers.c **** 
 589:Source\portable\Common/mpu_wrappers.c **** #if( configUSE_TASK_NOTIFICATIONS == 1 )
 590:Source\portable\Common/mpu_wrappers.c **** 	uint32_t MPU_ulTaskNotifyValueClear( TaskHandle_t xTask, uint32_t ulBitsToClear ) /* FREERTOS_SYST
 591:Source\portable\Common/mpu_wrappers.c **** 	{
 1172              		.loc 1 591 0
 1173              		.cfi_startproc
 1174              		@ args = 0, pretend = 0, frame = 16
 1175              		@ frame_needed = 1, uses_anonymous_args = 0
 1176 0000 80B5     		push	{r7, lr}
ARM GAS  C:\Users\mikke\AppData\Local\Temp\ccQCZNNL.s 			page 32


 1177              		.cfi_def_cfa_offset 8
 1178              		.cfi_offset 7, -8
 1179              		.cfi_offset 14, -4
 1180 0002 84B0     		sub	sp, sp, #16
 1181              		.cfi_def_cfa_offset 24
 1182 0004 00AF     		add	r7, sp, #0
 1183              		.cfi_def_cfa_register 7
 1184 0006 7860     		str	r0, [r7, #4]
 1185 0008 3960     		str	r1, [r7]
 592:Source\portable\Common/mpu_wrappers.c **** 	uint32_t ulReturn;
 593:Source\portable\Common/mpu_wrappers.c **** 	BaseType_t xRunningPrivileged = xPortRaisePrivilege();
 1186              		.loc 1 593 0
 1187 000a FFF7FEFF 		bl	xPortRaisePrivilege
 1188 000e F860     		str	r0, [r7, #12]
 594:Source\portable\Common/mpu_wrappers.c **** 
 595:Source\portable\Common/mpu_wrappers.c **** 		ulReturn = ulTaskNotifyValueClear( xTask, ulBitsToClear );
 1189              		.loc 1 595 0
 1190 0010 3968     		ldr	r1, [r7]
 1191 0012 7868     		ldr	r0, [r7, #4]
 1192 0014 FFF7FEFF 		bl	ulTaskNotifyValueClear
 1193 0018 B860     		str	r0, [r7, #8]
 596:Source\portable\Common/mpu_wrappers.c **** 		vPortResetPrivilege( xRunningPrivileged );
 1194              		.loc 1 596 0
 1195 001a F868     		ldr	r0, [r7, #12]
 1196 001c FFF7FEFF 		bl	vPortResetPrivilege
 597:Source\portable\Common/mpu_wrappers.c **** 		return ulReturn;
 1197              		.loc 1 597 0
 1198 0020 BB68     		ldr	r3, [r7, #8]
 598:Source\portable\Common/mpu_wrappers.c **** 	}
 1199              		.loc 1 598 0
 1200 0022 1846     		mov	r0, r3
 1201 0024 1037     		adds	r7, r7, #16
 1202              		.cfi_def_cfa_offset 8
 1203 0026 BD46     		mov	sp, r7
 1204              		.cfi_def_cfa_register 13
 1205              		@ sp needed
 1206 0028 80BD     		pop	{r7, pc}
 1207              		.cfi_endproc
 1208              	.LFE94:
 1209              		.size	MPU_ulTaskNotifyValueClear, .-MPU_ulTaskNotifyValueClear
 1210              		.section	.text.MPU_xQueueGenericCreate,"ax",%progbits
 1211              		.align	2
 1212              		.global	MPU_xQueueGenericCreate
 1213              		.thumb
 1214              		.thumb_func
 1215              		.type	MPU_xQueueGenericCreate, %function
 1216              	MPU_xQueueGenericCreate:
 1217              	.LFB95:
 599:Source\portable\Common/mpu_wrappers.c **** #endif
 600:Source\portable\Common/mpu_wrappers.c **** /*-----------------------------------------------------------*/
 601:Source\portable\Common/mpu_wrappers.c **** 
 602:Source\portable\Common/mpu_wrappers.c **** #if( configSUPPORT_DYNAMIC_ALLOCATION == 1 )
 603:Source\portable\Common/mpu_wrappers.c **** 	QueueHandle_t MPU_xQueueGenericCreate( UBaseType_t uxQueueLength, UBaseType_t uxItemSize, uint8_t 
 604:Source\portable\Common/mpu_wrappers.c **** 	{
 1218              		.loc 1 604 0
 1219              		.cfi_startproc
 1220              		@ args = 0, pretend = 0, frame = 24
ARM GAS  C:\Users\mikke\AppData\Local\Temp\ccQCZNNL.s 			page 33


 1221              		@ frame_needed = 1, uses_anonymous_args = 0
 1222 0000 80B5     		push	{r7, lr}
 1223              		.cfi_def_cfa_offset 8
 1224              		.cfi_offset 7, -8
 1225              		.cfi_offset 14, -4
 1226 0002 86B0     		sub	sp, sp, #24
 1227              		.cfi_def_cfa_offset 32
 1228 0004 00AF     		add	r7, sp, #0
 1229              		.cfi_def_cfa_register 7
 1230 0006 F860     		str	r0, [r7, #12]
 1231 0008 B960     		str	r1, [r7, #8]
 1232 000a 1346     		mov	r3, r2
 1233 000c FB71     		strb	r3, [r7, #7]
 605:Source\portable\Common/mpu_wrappers.c **** 	QueueHandle_t xReturn;
 606:Source\portable\Common/mpu_wrappers.c **** 	BaseType_t xRunningPrivileged = xPortRaisePrivilege();
 1234              		.loc 1 606 0
 1235 000e FFF7FEFF 		bl	xPortRaisePrivilege
 1236 0012 7861     		str	r0, [r7, #20]
 607:Source\portable\Common/mpu_wrappers.c **** 
 608:Source\portable\Common/mpu_wrappers.c **** 		xReturn = xQueueGenericCreate( uxQueueLength, uxItemSize, ucQueueType );
 1237              		.loc 1 608 0
 1238 0014 FB79     		ldrb	r3, [r7, #7]	@ zero_extendqisi2
 1239 0016 1A46     		mov	r2, r3
 1240 0018 B968     		ldr	r1, [r7, #8]
 1241 001a F868     		ldr	r0, [r7, #12]
 1242 001c FFF7FEFF 		bl	xQueueGenericCreate
 1243 0020 3861     		str	r0, [r7, #16]
 609:Source\portable\Common/mpu_wrappers.c **** 		vPortResetPrivilege( xRunningPrivileged );
 1244              		.loc 1 609 0
 1245 0022 7869     		ldr	r0, [r7, #20]
 1246 0024 FFF7FEFF 		bl	vPortResetPrivilege
 610:Source\portable\Common/mpu_wrappers.c **** 		return xReturn;
 1247              		.loc 1 610 0
 1248 0028 3B69     		ldr	r3, [r7, #16]
 611:Source\portable\Common/mpu_wrappers.c **** 	}
 1249              		.loc 1 611 0
 1250 002a 1846     		mov	r0, r3
 1251 002c 1837     		adds	r7, r7, #24
 1252              		.cfi_def_cfa_offset 8
 1253 002e BD46     		mov	sp, r7
 1254              		.cfi_def_cfa_register 13
 1255              		@ sp needed
 1256 0030 80BD     		pop	{r7, pc}
 1257              		.cfi_endproc
 1258              	.LFE95:
 1259              		.size	MPU_xQueueGenericCreate, .-MPU_xQueueGenericCreate
 1260 0032 00BF     		.section	.text.MPU_xQueueGenericReset,"ax",%progbits
 1261              		.align	2
 1262              		.global	MPU_xQueueGenericReset
 1263              		.thumb
 1264              		.thumb_func
 1265              		.type	MPU_xQueueGenericReset, %function
 1266              	MPU_xQueueGenericReset:
 1267              	.LFB96:
 612:Source\portable\Common/mpu_wrappers.c **** #endif
 613:Source\portable\Common/mpu_wrappers.c **** /*-----------------------------------------------------------*/
 614:Source\portable\Common/mpu_wrappers.c **** 
ARM GAS  C:\Users\mikke\AppData\Local\Temp\ccQCZNNL.s 			page 34


 615:Source\portable\Common/mpu_wrappers.c **** #if( configSUPPORT_STATIC_ALLOCATION == 1 )
 616:Source\portable\Common/mpu_wrappers.c **** 	QueueHandle_t MPU_xQueueGenericCreateStatic( const UBaseType_t uxQueueLength, const UBaseType_t ux
 617:Source\portable\Common/mpu_wrappers.c **** 	{
 618:Source\portable\Common/mpu_wrappers.c **** 	QueueHandle_t xReturn;
 619:Source\portable\Common/mpu_wrappers.c **** 	BaseType_t xRunningPrivileged = xPortRaisePrivilege();
 620:Source\portable\Common/mpu_wrappers.c **** 
 621:Source\portable\Common/mpu_wrappers.c **** 		xReturn = xQueueGenericCreateStatic( uxQueueLength, uxItemSize, pucQueueStorage, pxStaticQueue, u
 622:Source\portable\Common/mpu_wrappers.c **** 		vPortResetPrivilege( xRunningPrivileged );
 623:Source\portable\Common/mpu_wrappers.c **** 		return xReturn;
 624:Source\portable\Common/mpu_wrappers.c **** 	}
 625:Source\portable\Common/mpu_wrappers.c **** #endif
 626:Source\portable\Common/mpu_wrappers.c **** /*-----------------------------------------------------------*/
 627:Source\portable\Common/mpu_wrappers.c **** 
 628:Source\portable\Common/mpu_wrappers.c **** BaseType_t MPU_xQueueGenericReset( QueueHandle_t pxQueue, BaseType_t xNewQueue ) /* FREERTOS_SYSTEM
 629:Source\portable\Common/mpu_wrappers.c **** {
 1268              		.loc 1 629 0
 1269              		.cfi_startproc
 1270              		@ args = 0, pretend = 0, frame = 16
 1271              		@ frame_needed = 1, uses_anonymous_args = 0
 1272 0000 80B5     		push	{r7, lr}
 1273              		.cfi_def_cfa_offset 8
 1274              		.cfi_offset 7, -8
 1275              		.cfi_offset 14, -4
 1276 0002 84B0     		sub	sp, sp, #16
 1277              		.cfi_def_cfa_offset 24
 1278 0004 00AF     		add	r7, sp, #0
 1279              		.cfi_def_cfa_register 7
 1280 0006 7860     		str	r0, [r7, #4]
 1281 0008 3960     		str	r1, [r7]
 630:Source\portable\Common/mpu_wrappers.c **** BaseType_t xReturn;
 631:Source\portable\Common/mpu_wrappers.c **** BaseType_t xRunningPrivileged = xPortRaisePrivilege();
 1282              		.loc 1 631 0
 1283 000a FFF7FEFF 		bl	xPortRaisePrivilege
 1284 000e F860     		str	r0, [r7, #12]
 632:Source\portable\Common/mpu_wrappers.c **** 
 633:Source\portable\Common/mpu_wrappers.c **** 	xReturn = xQueueGenericReset( pxQueue, xNewQueue );
 1285              		.loc 1 633 0
 1286 0010 3968     		ldr	r1, [r7]
 1287 0012 7868     		ldr	r0, [r7, #4]
 1288 0014 FFF7FEFF 		bl	xQueueGenericReset
 1289 0018 B860     		str	r0, [r7, #8]
 634:Source\portable\Common/mpu_wrappers.c **** 	vPortResetPrivilege( xRunningPrivileged );
 1290              		.loc 1 634 0
 1291 001a F868     		ldr	r0, [r7, #12]
 1292 001c FFF7FEFF 		bl	vPortResetPrivilege
 635:Source\portable\Common/mpu_wrappers.c **** 	return xReturn;
 1293              		.loc 1 635 0
 1294 0020 BB68     		ldr	r3, [r7, #8]
 636:Source\portable\Common/mpu_wrappers.c **** }
 1295              		.loc 1 636 0
 1296 0022 1846     		mov	r0, r3
 1297 0024 1037     		adds	r7, r7, #16
 1298              		.cfi_def_cfa_offset 8
 1299 0026 BD46     		mov	sp, r7
 1300              		.cfi_def_cfa_register 13
 1301              		@ sp needed
 1302 0028 80BD     		pop	{r7, pc}
ARM GAS  C:\Users\mikke\AppData\Local\Temp\ccQCZNNL.s 			page 35


 1303              		.cfi_endproc
 1304              	.LFE96:
 1305              		.size	MPU_xQueueGenericReset, .-MPU_xQueueGenericReset
 1306              		.section	.text.MPU_xQueueGenericSend,"ax",%progbits
 1307              		.align	2
 1308              		.global	MPU_xQueueGenericSend
 1309              		.thumb
 1310              		.thumb_func
 1311              		.type	MPU_xQueueGenericSend, %function
 1312              	MPU_xQueueGenericSend:
 1313              	.LFB97:
 637:Source\portable\Common/mpu_wrappers.c **** /*-----------------------------------------------------------*/
 638:Source\portable\Common/mpu_wrappers.c **** 
 639:Source\portable\Common/mpu_wrappers.c **** BaseType_t MPU_xQueueGenericSend( QueueHandle_t xQueue, const void * const pvItemToQueue, TickType_
 640:Source\portable\Common/mpu_wrappers.c **** {
 1314              		.loc 1 640 0
 1315              		.cfi_startproc
 1316              		@ args = 0, pretend = 0, frame = 24
 1317              		@ frame_needed = 1, uses_anonymous_args = 0
 1318 0000 80B5     		push	{r7, lr}
 1319              		.cfi_def_cfa_offset 8
 1320              		.cfi_offset 7, -8
 1321              		.cfi_offset 14, -4
 1322 0002 86B0     		sub	sp, sp, #24
 1323              		.cfi_def_cfa_offset 32
 1324 0004 00AF     		add	r7, sp, #0
 1325              		.cfi_def_cfa_register 7
 1326 0006 F860     		str	r0, [r7, #12]
 1327 0008 B960     		str	r1, [r7, #8]
 1328 000a 7A60     		str	r2, [r7, #4]
 1329 000c 3B60     		str	r3, [r7]
 641:Source\portable\Common/mpu_wrappers.c **** BaseType_t xReturn;
 642:Source\portable\Common/mpu_wrappers.c **** BaseType_t xRunningPrivileged = xPortRaisePrivilege();
 1330              		.loc 1 642 0
 1331 000e FFF7FEFF 		bl	xPortRaisePrivilege
 1332 0012 7861     		str	r0, [r7, #20]
 643:Source\portable\Common/mpu_wrappers.c **** 
 644:Source\portable\Common/mpu_wrappers.c **** 	xReturn = xQueueGenericSend( xQueue, pvItemToQueue, xTicksToWait, xCopyPosition );
 1333              		.loc 1 644 0
 1334 0014 3B68     		ldr	r3, [r7]
 1335 0016 7A68     		ldr	r2, [r7, #4]
 1336 0018 B968     		ldr	r1, [r7, #8]
 1337 001a F868     		ldr	r0, [r7, #12]
 1338 001c FFF7FEFF 		bl	xQueueGenericSend
 1339 0020 3861     		str	r0, [r7, #16]
 645:Source\portable\Common/mpu_wrappers.c **** 	vPortResetPrivilege( xRunningPrivileged );
 1340              		.loc 1 645 0
 1341 0022 7869     		ldr	r0, [r7, #20]
 1342 0024 FFF7FEFF 		bl	vPortResetPrivilege
 646:Source\portable\Common/mpu_wrappers.c **** 	return xReturn;
 1343              		.loc 1 646 0
 1344 0028 3B69     		ldr	r3, [r7, #16]
 647:Source\portable\Common/mpu_wrappers.c **** }
 1345              		.loc 1 647 0
 1346 002a 1846     		mov	r0, r3
 1347 002c 1837     		adds	r7, r7, #24
 1348              		.cfi_def_cfa_offset 8
ARM GAS  C:\Users\mikke\AppData\Local\Temp\ccQCZNNL.s 			page 36


 1349 002e BD46     		mov	sp, r7
 1350              		.cfi_def_cfa_register 13
 1351              		@ sp needed
 1352 0030 80BD     		pop	{r7, pc}
 1353              		.cfi_endproc
 1354              	.LFE97:
 1355              		.size	MPU_xQueueGenericSend, .-MPU_xQueueGenericSend
 1356 0032 00BF     		.section	.text.MPU_uxQueueMessagesWaiting,"ax",%progbits
 1357              		.align	2
 1358              		.global	MPU_uxQueueMessagesWaiting
 1359              		.thumb
 1360              		.thumb_func
 1361              		.type	MPU_uxQueueMessagesWaiting, %function
 1362              	MPU_uxQueueMessagesWaiting:
 1363              	.LFB98:
 648:Source\portable\Common/mpu_wrappers.c **** /*-----------------------------------------------------------*/
 649:Source\portable\Common/mpu_wrappers.c **** 
 650:Source\portable\Common/mpu_wrappers.c **** UBaseType_t MPU_uxQueueMessagesWaiting( const QueueHandle_t pxQueue ) /* FREERTOS_SYSTEM_CALL */
 651:Source\portable\Common/mpu_wrappers.c **** {
 1364              		.loc 1 651 0
 1365              		.cfi_startproc
 1366              		@ args = 0, pretend = 0, frame = 16
 1367              		@ frame_needed = 1, uses_anonymous_args = 0
 1368 0000 80B5     		push	{r7, lr}
 1369              		.cfi_def_cfa_offset 8
 1370              		.cfi_offset 7, -8
 1371              		.cfi_offset 14, -4
 1372 0002 84B0     		sub	sp, sp, #16
 1373              		.cfi_def_cfa_offset 24
 1374 0004 00AF     		add	r7, sp, #0
 1375              		.cfi_def_cfa_register 7
 1376 0006 7860     		str	r0, [r7, #4]
 652:Source\portable\Common/mpu_wrappers.c **** BaseType_t xRunningPrivileged = xPortRaisePrivilege();
 1377              		.loc 1 652 0
 1378 0008 FFF7FEFF 		bl	xPortRaisePrivilege
 1379 000c F860     		str	r0, [r7, #12]
 653:Source\portable\Common/mpu_wrappers.c **** UBaseType_t uxReturn;
 654:Source\portable\Common/mpu_wrappers.c **** 
 655:Source\portable\Common/mpu_wrappers.c **** 	uxReturn = uxQueueMessagesWaiting( pxQueue );
 1380              		.loc 1 655 0
 1381 000e 7868     		ldr	r0, [r7, #4]
 1382 0010 FFF7FEFF 		bl	uxQueueMessagesWaiting
 1383 0014 B860     		str	r0, [r7, #8]
 656:Source\portable\Common/mpu_wrappers.c **** 	vPortResetPrivilege( xRunningPrivileged );
 1384              		.loc 1 656 0
 1385 0016 F868     		ldr	r0, [r7, #12]
 1386 0018 FFF7FEFF 		bl	vPortResetPrivilege
 657:Source\portable\Common/mpu_wrappers.c **** 	return uxReturn;
 1387              		.loc 1 657 0
 1388 001c BB68     		ldr	r3, [r7, #8]
 658:Source\portable\Common/mpu_wrappers.c **** }
 1389              		.loc 1 658 0
 1390 001e 1846     		mov	r0, r3
 1391 0020 1037     		adds	r7, r7, #16
 1392              		.cfi_def_cfa_offset 8
 1393 0022 BD46     		mov	sp, r7
 1394              		.cfi_def_cfa_register 13
ARM GAS  C:\Users\mikke\AppData\Local\Temp\ccQCZNNL.s 			page 37


 1395              		@ sp needed
 1396 0024 80BD     		pop	{r7, pc}
 1397              		.cfi_endproc
 1398              	.LFE98:
 1399              		.size	MPU_uxQueueMessagesWaiting, .-MPU_uxQueueMessagesWaiting
 1400 0026 00BF     		.section	.text.MPU_uxQueueSpacesAvailable,"ax",%progbits
 1401              		.align	2
 1402              		.global	MPU_uxQueueSpacesAvailable
 1403              		.thumb
 1404              		.thumb_func
 1405              		.type	MPU_uxQueueSpacesAvailable, %function
 1406              	MPU_uxQueueSpacesAvailable:
 1407              	.LFB99:
 659:Source\portable\Common/mpu_wrappers.c **** /*-----------------------------------------------------------*/
 660:Source\portable\Common/mpu_wrappers.c **** 
 661:Source\portable\Common/mpu_wrappers.c **** UBaseType_t MPU_uxQueueSpacesAvailable( const QueueHandle_t xQueue ) /* FREERTOS_SYSTEM_CALL */
 662:Source\portable\Common/mpu_wrappers.c **** {
 1408              		.loc 1 662 0
 1409              		.cfi_startproc
 1410              		@ args = 0, pretend = 0, frame = 16
 1411              		@ frame_needed = 1, uses_anonymous_args = 0
 1412 0000 80B5     		push	{r7, lr}
 1413              		.cfi_def_cfa_offset 8
 1414              		.cfi_offset 7, -8
 1415              		.cfi_offset 14, -4
 1416 0002 84B0     		sub	sp, sp, #16
 1417              		.cfi_def_cfa_offset 24
 1418 0004 00AF     		add	r7, sp, #0
 1419              		.cfi_def_cfa_register 7
 1420 0006 7860     		str	r0, [r7, #4]
 663:Source\portable\Common/mpu_wrappers.c **** BaseType_t xRunningPrivileged = xPortRaisePrivilege();
 1421              		.loc 1 663 0
 1422 0008 FFF7FEFF 		bl	xPortRaisePrivilege
 1423 000c F860     		str	r0, [r7, #12]
 664:Source\portable\Common/mpu_wrappers.c **** UBaseType_t uxReturn;
 665:Source\portable\Common/mpu_wrappers.c **** 
 666:Source\portable\Common/mpu_wrappers.c **** 	uxReturn = uxQueueSpacesAvailable( xQueue );
 1424              		.loc 1 666 0
 1425 000e 7868     		ldr	r0, [r7, #4]
 1426 0010 FFF7FEFF 		bl	uxQueueSpacesAvailable
 1427 0014 B860     		str	r0, [r7, #8]
 667:Source\portable\Common/mpu_wrappers.c **** 	vPortResetPrivilege( xRunningPrivileged );
 1428              		.loc 1 667 0
 1429 0016 F868     		ldr	r0, [r7, #12]
 1430 0018 FFF7FEFF 		bl	vPortResetPrivilege
 668:Source\portable\Common/mpu_wrappers.c **** 	return uxReturn;
 1431              		.loc 1 668 0
 1432 001c BB68     		ldr	r3, [r7, #8]
 669:Source\portable\Common/mpu_wrappers.c **** }
 1433              		.loc 1 669 0
 1434 001e 1846     		mov	r0, r3
 1435 0020 1037     		adds	r7, r7, #16
 1436              		.cfi_def_cfa_offset 8
 1437 0022 BD46     		mov	sp, r7
 1438              		.cfi_def_cfa_register 13
 1439              		@ sp needed
 1440 0024 80BD     		pop	{r7, pc}
ARM GAS  C:\Users\mikke\AppData\Local\Temp\ccQCZNNL.s 			page 38


 1441              		.cfi_endproc
 1442              	.LFE99:
 1443              		.size	MPU_uxQueueSpacesAvailable, .-MPU_uxQueueSpacesAvailable
 1444 0026 00BF     		.section	.text.MPU_xQueueReceive,"ax",%progbits
 1445              		.align	2
 1446              		.global	MPU_xQueueReceive
 1447              		.thumb
 1448              		.thumb_func
 1449              		.type	MPU_xQueueReceive, %function
 1450              	MPU_xQueueReceive:
 1451              	.LFB100:
 670:Source\portable\Common/mpu_wrappers.c **** /*-----------------------------------------------------------*/
 671:Source\portable\Common/mpu_wrappers.c **** 
 672:Source\portable\Common/mpu_wrappers.c **** BaseType_t MPU_xQueueReceive( QueueHandle_t pxQueue, void * const pvBuffer, TickType_t xTicksToWait
 673:Source\portable\Common/mpu_wrappers.c **** {
 1452              		.loc 1 673 0
 1453              		.cfi_startproc
 1454              		@ args = 0, pretend = 0, frame = 24
 1455              		@ frame_needed = 1, uses_anonymous_args = 0
 1456 0000 80B5     		push	{r7, lr}
 1457              		.cfi_def_cfa_offset 8
 1458              		.cfi_offset 7, -8
 1459              		.cfi_offset 14, -4
 1460 0002 86B0     		sub	sp, sp, #24
 1461              		.cfi_def_cfa_offset 32
 1462 0004 00AF     		add	r7, sp, #0
 1463              		.cfi_def_cfa_register 7
 1464 0006 F860     		str	r0, [r7, #12]
 1465 0008 B960     		str	r1, [r7, #8]
 1466 000a 7A60     		str	r2, [r7, #4]
 674:Source\portable\Common/mpu_wrappers.c **** BaseType_t xRunningPrivileged = xPortRaisePrivilege();
 1467              		.loc 1 674 0
 1468 000c FFF7FEFF 		bl	xPortRaisePrivilege
 1469 0010 7861     		str	r0, [r7, #20]
 675:Source\portable\Common/mpu_wrappers.c **** BaseType_t xReturn;
 676:Source\portable\Common/mpu_wrappers.c **** 
 677:Source\portable\Common/mpu_wrappers.c **** 	xReturn = xQueueReceive( pxQueue, pvBuffer, xTicksToWait );
 1470              		.loc 1 677 0
 1471 0012 7A68     		ldr	r2, [r7, #4]
 1472 0014 B968     		ldr	r1, [r7, #8]
 1473 0016 F868     		ldr	r0, [r7, #12]
 1474 0018 FFF7FEFF 		bl	xQueueReceive
 1475 001c 3861     		str	r0, [r7, #16]
 678:Source\portable\Common/mpu_wrappers.c **** 	vPortResetPrivilege( xRunningPrivileged );
 1476              		.loc 1 678 0
 1477 001e 7869     		ldr	r0, [r7, #20]
 1478 0020 FFF7FEFF 		bl	vPortResetPrivilege
 679:Source\portable\Common/mpu_wrappers.c **** 	return xReturn;
 1479              		.loc 1 679 0
 1480 0024 3B69     		ldr	r3, [r7, #16]
 680:Source\portable\Common/mpu_wrappers.c **** }
 1481              		.loc 1 680 0
 1482 0026 1846     		mov	r0, r3
 1483 0028 1837     		adds	r7, r7, #24
 1484              		.cfi_def_cfa_offset 8
 1485 002a BD46     		mov	sp, r7
 1486              		.cfi_def_cfa_register 13
ARM GAS  C:\Users\mikke\AppData\Local\Temp\ccQCZNNL.s 			page 39


 1487              		@ sp needed
 1488 002c 80BD     		pop	{r7, pc}
 1489              		.cfi_endproc
 1490              	.LFE100:
 1491              		.size	MPU_xQueueReceive, .-MPU_xQueueReceive
 1492 002e 00BF     		.section	.text.MPU_xQueuePeek,"ax",%progbits
 1493              		.align	2
 1494              		.global	MPU_xQueuePeek
 1495              		.thumb
 1496              		.thumb_func
 1497              		.type	MPU_xQueuePeek, %function
 1498              	MPU_xQueuePeek:
 1499              	.LFB101:
 681:Source\portable\Common/mpu_wrappers.c **** /*-----------------------------------------------------------*/
 682:Source\portable\Common/mpu_wrappers.c **** 
 683:Source\portable\Common/mpu_wrappers.c **** BaseType_t MPU_xQueuePeek( QueueHandle_t xQueue, void * const pvBuffer, TickType_t xTicksToWait ) /
 684:Source\portable\Common/mpu_wrappers.c **** {
 1500              		.loc 1 684 0
 1501              		.cfi_startproc
 1502              		@ args = 0, pretend = 0, frame = 24
 1503              		@ frame_needed = 1, uses_anonymous_args = 0
 1504 0000 80B5     		push	{r7, lr}
 1505              		.cfi_def_cfa_offset 8
 1506              		.cfi_offset 7, -8
 1507              		.cfi_offset 14, -4
 1508 0002 86B0     		sub	sp, sp, #24
 1509              		.cfi_def_cfa_offset 32
 1510 0004 00AF     		add	r7, sp, #0
 1511              		.cfi_def_cfa_register 7
 1512 0006 F860     		str	r0, [r7, #12]
 1513 0008 B960     		str	r1, [r7, #8]
 1514 000a 7A60     		str	r2, [r7, #4]
 685:Source\portable\Common/mpu_wrappers.c **** BaseType_t xRunningPrivileged = xPortRaisePrivilege();
 1515              		.loc 1 685 0
 1516 000c FFF7FEFF 		bl	xPortRaisePrivilege
 1517 0010 7861     		str	r0, [r7, #20]
 686:Source\portable\Common/mpu_wrappers.c **** BaseType_t xReturn;
 687:Source\portable\Common/mpu_wrappers.c **** 
 688:Source\portable\Common/mpu_wrappers.c **** 	xReturn = xQueuePeek( xQueue, pvBuffer, xTicksToWait );
 1518              		.loc 1 688 0
 1519 0012 7A68     		ldr	r2, [r7, #4]
 1520 0014 B968     		ldr	r1, [r7, #8]
 1521 0016 F868     		ldr	r0, [r7, #12]
 1522 0018 FFF7FEFF 		bl	xQueuePeek
 1523 001c 3861     		str	r0, [r7, #16]
 689:Source\portable\Common/mpu_wrappers.c **** 	vPortResetPrivilege( xRunningPrivileged );
 1524              		.loc 1 689 0
 1525 001e 7869     		ldr	r0, [r7, #20]
 1526 0020 FFF7FEFF 		bl	vPortResetPrivilege
 690:Source\portable\Common/mpu_wrappers.c **** 	return xReturn;
 1527              		.loc 1 690 0
 1528 0024 3B69     		ldr	r3, [r7, #16]
 691:Source\portable\Common/mpu_wrappers.c **** }
 1529              		.loc 1 691 0
 1530 0026 1846     		mov	r0, r3
 1531 0028 1837     		adds	r7, r7, #24
 1532              		.cfi_def_cfa_offset 8
ARM GAS  C:\Users\mikke\AppData\Local\Temp\ccQCZNNL.s 			page 40


 1533 002a BD46     		mov	sp, r7
 1534              		.cfi_def_cfa_register 13
 1535              		@ sp needed
 1536 002c 80BD     		pop	{r7, pc}
 1537              		.cfi_endproc
 1538              	.LFE101:
 1539              		.size	MPU_xQueuePeek, .-MPU_xQueuePeek
 1540 002e 00BF     		.section	.text.MPU_xQueueSemaphoreTake,"ax",%progbits
 1541              		.align	2
 1542              		.global	MPU_xQueueSemaphoreTake
 1543              		.thumb
 1544              		.thumb_func
 1545              		.type	MPU_xQueueSemaphoreTake, %function
 1546              	MPU_xQueueSemaphoreTake:
 1547              	.LFB102:
 692:Source\portable\Common/mpu_wrappers.c **** /*-----------------------------------------------------------*/
 693:Source\portable\Common/mpu_wrappers.c **** 
 694:Source\portable\Common/mpu_wrappers.c **** BaseType_t MPU_xQueueSemaphoreTake( QueueHandle_t xQueue, TickType_t xTicksToWait ) /* FREERTOS_SYS
 695:Source\portable\Common/mpu_wrappers.c **** {
 1548              		.loc 1 695 0
 1549              		.cfi_startproc
 1550              		@ args = 0, pretend = 0, frame = 16
 1551              		@ frame_needed = 1, uses_anonymous_args = 0
 1552 0000 80B5     		push	{r7, lr}
 1553              		.cfi_def_cfa_offset 8
 1554              		.cfi_offset 7, -8
 1555              		.cfi_offset 14, -4
 1556 0002 84B0     		sub	sp, sp, #16
 1557              		.cfi_def_cfa_offset 24
 1558 0004 00AF     		add	r7, sp, #0
 1559              		.cfi_def_cfa_register 7
 1560 0006 7860     		str	r0, [r7, #4]
 1561 0008 3960     		str	r1, [r7]
 696:Source\portable\Common/mpu_wrappers.c **** BaseType_t xRunningPrivileged = xPortRaisePrivilege();
 1562              		.loc 1 696 0
 1563 000a FFF7FEFF 		bl	xPortRaisePrivilege
 1564 000e F860     		str	r0, [r7, #12]
 697:Source\portable\Common/mpu_wrappers.c **** BaseType_t xReturn;
 698:Source\portable\Common/mpu_wrappers.c **** 
 699:Source\portable\Common/mpu_wrappers.c **** 	xReturn = xQueueSemaphoreTake( xQueue, xTicksToWait );
 1565              		.loc 1 699 0
 1566 0010 3968     		ldr	r1, [r7]
 1567 0012 7868     		ldr	r0, [r7, #4]
 1568 0014 FFF7FEFF 		bl	xQueueSemaphoreTake
 1569 0018 B860     		str	r0, [r7, #8]
 700:Source\portable\Common/mpu_wrappers.c **** 	vPortResetPrivilege( xRunningPrivileged );
 1570              		.loc 1 700 0
 1571 001a F868     		ldr	r0, [r7, #12]
 1572 001c FFF7FEFF 		bl	vPortResetPrivilege
 701:Source\portable\Common/mpu_wrappers.c **** 	return xReturn;
 1573              		.loc 1 701 0
 1574 0020 BB68     		ldr	r3, [r7, #8]
 702:Source\portable\Common/mpu_wrappers.c **** }
 1575              		.loc 1 702 0
 1576 0022 1846     		mov	r0, r3
 1577 0024 1037     		adds	r7, r7, #16
 1578              		.cfi_def_cfa_offset 8
ARM GAS  C:\Users\mikke\AppData\Local\Temp\ccQCZNNL.s 			page 41


 1579 0026 BD46     		mov	sp, r7
 1580              		.cfi_def_cfa_register 13
 1581              		@ sp needed
 1582 0028 80BD     		pop	{r7, pc}
 1583              		.cfi_endproc
 1584              	.LFE102:
 1585              		.size	MPU_xQueueSemaphoreTake, .-MPU_xQueueSemaphoreTake
 1586              		.section	.text.MPU_xQueueCreateMutex,"ax",%progbits
 1587              		.align	2
 1588              		.global	MPU_xQueueCreateMutex
 1589              		.thumb
 1590              		.thumb_func
 1591              		.type	MPU_xQueueCreateMutex, %function
 1592              	MPU_xQueueCreateMutex:
 1593              	.LFB103:
 703:Source\portable\Common/mpu_wrappers.c **** /*-----------------------------------------------------------*/
 704:Source\portable\Common/mpu_wrappers.c **** 
 705:Source\portable\Common/mpu_wrappers.c **** #if ( ( configUSE_MUTEXES == 1 ) && ( INCLUDE_xSemaphoreGetMutexHolder == 1 ) )
 706:Source\portable\Common/mpu_wrappers.c **** 	TaskHandle_t MPU_xQueueGetMutexHolder( QueueHandle_t xSemaphore ) /* FREERTOS_SYSTEM_CALL */
 707:Source\portable\Common/mpu_wrappers.c **** 	{
 708:Source\portable\Common/mpu_wrappers.c **** 	BaseType_t xRunningPrivileged = xPortRaisePrivilege();
 709:Source\portable\Common/mpu_wrappers.c **** 	void * xReturn;
 710:Source\portable\Common/mpu_wrappers.c **** 
 711:Source\portable\Common/mpu_wrappers.c **** 		xReturn = xQueueGetMutexHolder( xSemaphore );
 712:Source\portable\Common/mpu_wrappers.c **** 		vPortResetPrivilege( xRunningPrivileged );
 713:Source\portable\Common/mpu_wrappers.c **** 		return xReturn;
 714:Source\portable\Common/mpu_wrappers.c **** 	}
 715:Source\portable\Common/mpu_wrappers.c **** #endif
 716:Source\portable\Common/mpu_wrappers.c **** /*-----------------------------------------------------------*/
 717:Source\portable\Common/mpu_wrappers.c **** 
 718:Source\portable\Common/mpu_wrappers.c **** #if( ( configUSE_MUTEXES == 1 ) && ( configSUPPORT_DYNAMIC_ALLOCATION == 1 ) )
 719:Source\portable\Common/mpu_wrappers.c **** 	QueueHandle_t MPU_xQueueCreateMutex( const uint8_t ucQueueType ) /* FREERTOS_SYSTEM_CALL */
 720:Source\portable\Common/mpu_wrappers.c **** 	{
 1594              		.loc 1 720 0
 1595              		.cfi_startproc
 1596              		@ args = 0, pretend = 0, frame = 16
 1597              		@ frame_needed = 1, uses_anonymous_args = 0
 1598 0000 80B5     		push	{r7, lr}
 1599              		.cfi_def_cfa_offset 8
 1600              		.cfi_offset 7, -8
 1601              		.cfi_offset 14, -4
 1602 0002 84B0     		sub	sp, sp, #16
 1603              		.cfi_def_cfa_offset 24
 1604 0004 00AF     		add	r7, sp, #0
 1605              		.cfi_def_cfa_register 7
 1606 0006 0346     		mov	r3, r0
 1607 0008 FB71     		strb	r3, [r7, #7]
 721:Source\portable\Common/mpu_wrappers.c **** 	QueueHandle_t xReturn;
 722:Source\portable\Common/mpu_wrappers.c **** 	BaseType_t xRunningPrivileged = xPortRaisePrivilege();
 1608              		.loc 1 722 0
 1609 000a FFF7FEFF 		bl	xPortRaisePrivilege
 1610 000e F860     		str	r0, [r7, #12]
 723:Source\portable\Common/mpu_wrappers.c **** 
 724:Source\portable\Common/mpu_wrappers.c **** 		xReturn = xQueueCreateMutex( ucQueueType );
 1611              		.loc 1 724 0
 1612 0010 FB79     		ldrb	r3, [r7, #7]	@ zero_extendqisi2
 1613 0012 1846     		mov	r0, r3
ARM GAS  C:\Users\mikke\AppData\Local\Temp\ccQCZNNL.s 			page 42


 1614 0014 FFF7FEFF 		bl	xQueueCreateMutex
 1615 0018 B860     		str	r0, [r7, #8]
 725:Source\portable\Common/mpu_wrappers.c **** 		vPortResetPrivilege( xRunningPrivileged );
 1616              		.loc 1 725 0
 1617 001a F868     		ldr	r0, [r7, #12]
 1618 001c FFF7FEFF 		bl	vPortResetPrivilege
 726:Source\portable\Common/mpu_wrappers.c **** 		return xReturn;
 1619              		.loc 1 726 0
 1620 0020 BB68     		ldr	r3, [r7, #8]
 727:Source\portable\Common/mpu_wrappers.c **** 	}
 1621              		.loc 1 727 0
 1622 0022 1846     		mov	r0, r3
 1623 0024 1037     		adds	r7, r7, #16
 1624              		.cfi_def_cfa_offset 8
 1625 0026 BD46     		mov	sp, r7
 1626              		.cfi_def_cfa_register 13
 1627              		@ sp needed
 1628 0028 80BD     		pop	{r7, pc}
 1629              		.cfi_endproc
 1630              	.LFE103:
 1631              		.size	MPU_xQueueCreateMutex, .-MPU_xQueueCreateMutex
 1632 002a 00BF     		.section	.text.MPU_xQueueCreateCountingSemaphore,"ax",%progbits
 1633              		.align	2
 1634              		.global	MPU_xQueueCreateCountingSemaphore
 1635              		.thumb
 1636              		.thumb_func
 1637              		.type	MPU_xQueueCreateCountingSemaphore, %function
 1638              	MPU_xQueueCreateCountingSemaphore:
 1639              	.LFB104:
 728:Source\portable\Common/mpu_wrappers.c **** #endif
 729:Source\portable\Common/mpu_wrappers.c **** /*-----------------------------------------------------------*/
 730:Source\portable\Common/mpu_wrappers.c **** 
 731:Source\portable\Common/mpu_wrappers.c **** #if( ( configUSE_MUTEXES == 1 ) && ( configSUPPORT_STATIC_ALLOCATION == 1 ) )
 732:Source\portable\Common/mpu_wrappers.c **** 	QueueHandle_t MPU_xQueueCreateMutexStatic( const uint8_t ucQueueType, StaticQueue_t *pxStaticQueue
 733:Source\portable\Common/mpu_wrappers.c **** 	{
 734:Source\portable\Common/mpu_wrappers.c **** 	QueueHandle_t xReturn;
 735:Source\portable\Common/mpu_wrappers.c **** 	BaseType_t xRunningPrivileged = xPortRaisePrivilege();
 736:Source\portable\Common/mpu_wrappers.c **** 
 737:Source\portable\Common/mpu_wrappers.c **** 		xReturn = xQueueCreateMutexStatic( ucQueueType, pxStaticQueue );
 738:Source\portable\Common/mpu_wrappers.c **** 		vPortResetPrivilege( xRunningPrivileged );
 739:Source\portable\Common/mpu_wrappers.c **** 		return xReturn;
 740:Source\portable\Common/mpu_wrappers.c **** 	}
 741:Source\portable\Common/mpu_wrappers.c **** #endif
 742:Source\portable\Common/mpu_wrappers.c **** /*-----------------------------------------------------------*/
 743:Source\portable\Common/mpu_wrappers.c **** 
 744:Source\portable\Common/mpu_wrappers.c **** #if( ( configUSE_COUNTING_SEMAPHORES == 1 ) && ( configSUPPORT_DYNAMIC_ALLOCATION == 1 ) )
 745:Source\portable\Common/mpu_wrappers.c **** 	QueueHandle_t MPU_xQueueCreateCountingSemaphore( UBaseType_t uxCountValue, UBaseType_t uxInitialCo
 746:Source\portable\Common/mpu_wrappers.c **** 	{
 1640              		.loc 1 746 0
 1641              		.cfi_startproc
 1642              		@ args = 0, pretend = 0, frame = 16
 1643              		@ frame_needed = 1, uses_anonymous_args = 0
 1644 0000 80B5     		push	{r7, lr}
 1645              		.cfi_def_cfa_offset 8
 1646              		.cfi_offset 7, -8
 1647              		.cfi_offset 14, -4
 1648 0002 84B0     		sub	sp, sp, #16
ARM GAS  C:\Users\mikke\AppData\Local\Temp\ccQCZNNL.s 			page 43


 1649              		.cfi_def_cfa_offset 24
 1650 0004 00AF     		add	r7, sp, #0
 1651              		.cfi_def_cfa_register 7
 1652 0006 7860     		str	r0, [r7, #4]
 1653 0008 3960     		str	r1, [r7]
 747:Source\portable\Common/mpu_wrappers.c **** 	QueueHandle_t xReturn;
 748:Source\portable\Common/mpu_wrappers.c **** 	BaseType_t xRunningPrivileged = xPortRaisePrivilege();
 1654              		.loc 1 748 0
 1655 000a FFF7FEFF 		bl	xPortRaisePrivilege
 1656 000e F860     		str	r0, [r7, #12]
 749:Source\portable\Common/mpu_wrappers.c **** 
 750:Source\portable\Common/mpu_wrappers.c **** 		xReturn = xQueueCreateCountingSemaphore( uxCountValue, uxInitialCount );
 1657              		.loc 1 750 0
 1658 0010 3968     		ldr	r1, [r7]
 1659 0012 7868     		ldr	r0, [r7, #4]
 1660 0014 FFF7FEFF 		bl	xQueueCreateCountingSemaphore
 1661 0018 B860     		str	r0, [r7, #8]
 751:Source\portable\Common/mpu_wrappers.c **** 		vPortResetPrivilege( xRunningPrivileged );
 1662              		.loc 1 751 0
 1663 001a F868     		ldr	r0, [r7, #12]
 1664 001c FFF7FEFF 		bl	vPortResetPrivilege
 752:Source\portable\Common/mpu_wrappers.c **** 		return xReturn;
 1665              		.loc 1 752 0
 1666 0020 BB68     		ldr	r3, [r7, #8]
 753:Source\portable\Common/mpu_wrappers.c **** 	}
 1667              		.loc 1 753 0
 1668 0022 1846     		mov	r0, r3
 1669 0024 1037     		adds	r7, r7, #16
 1670              		.cfi_def_cfa_offset 8
 1671 0026 BD46     		mov	sp, r7
 1672              		.cfi_def_cfa_register 13
 1673              		@ sp needed
 1674 0028 80BD     		pop	{r7, pc}
 1675              		.cfi_endproc
 1676              	.LFE104:
 1677              		.size	MPU_xQueueCreateCountingSemaphore, .-MPU_xQueueCreateCountingSemaphore
 1678              		.section	.text.MPU_xQueueTakeMutexRecursive,"ax",%progbits
 1679              		.align	2
 1680              		.global	MPU_xQueueTakeMutexRecursive
 1681              		.thumb
 1682              		.thumb_func
 1683              		.type	MPU_xQueueTakeMutexRecursive, %function
 1684              	MPU_xQueueTakeMutexRecursive:
 1685              	.LFB105:
 754:Source\portable\Common/mpu_wrappers.c **** #endif
 755:Source\portable\Common/mpu_wrappers.c **** /*-----------------------------------------------------------*/
 756:Source\portable\Common/mpu_wrappers.c **** 
 757:Source\portable\Common/mpu_wrappers.c **** #if( ( configUSE_COUNTING_SEMAPHORES == 1 ) && ( configSUPPORT_STATIC_ALLOCATION == 1 ) )
 758:Source\portable\Common/mpu_wrappers.c **** 
 759:Source\portable\Common/mpu_wrappers.c **** 	QueueHandle_t MPU_xQueueCreateCountingSemaphoreStatic( const UBaseType_t uxMaxCount, const UBaseTy
 760:Source\portable\Common/mpu_wrappers.c **** 	{
 761:Source\portable\Common/mpu_wrappers.c **** 	QueueHandle_t xReturn;
 762:Source\portable\Common/mpu_wrappers.c **** 	BaseType_t xRunningPrivileged = xPortRaisePrivilege();
 763:Source\portable\Common/mpu_wrappers.c **** 
 764:Source\portable\Common/mpu_wrappers.c **** 		xReturn = xQueueCreateCountingSemaphoreStatic( uxMaxCount, uxInitialCount, pxStaticQueue );
 765:Source\portable\Common/mpu_wrappers.c **** 		vPortResetPrivilege( xRunningPrivileged );
 766:Source\portable\Common/mpu_wrappers.c **** 		return xReturn;
ARM GAS  C:\Users\mikke\AppData\Local\Temp\ccQCZNNL.s 			page 44


 767:Source\portable\Common/mpu_wrappers.c **** 	}
 768:Source\portable\Common/mpu_wrappers.c **** #endif
 769:Source\portable\Common/mpu_wrappers.c **** /*-----------------------------------------------------------*/
 770:Source\portable\Common/mpu_wrappers.c **** 
 771:Source\portable\Common/mpu_wrappers.c **** #if ( configUSE_RECURSIVE_MUTEXES == 1 )
 772:Source\portable\Common/mpu_wrappers.c **** 	BaseType_t MPU_xQueueTakeMutexRecursive( QueueHandle_t xMutex, TickType_t xBlockTime ) /* FREERTOS
 773:Source\portable\Common/mpu_wrappers.c **** 	{
 1686              		.loc 1 773 0
 1687              		.cfi_startproc
 1688              		@ args = 0, pretend = 0, frame = 16
 1689              		@ frame_needed = 1, uses_anonymous_args = 0
 1690 0000 80B5     		push	{r7, lr}
 1691              		.cfi_def_cfa_offset 8
 1692              		.cfi_offset 7, -8
 1693              		.cfi_offset 14, -4
 1694 0002 84B0     		sub	sp, sp, #16
 1695              		.cfi_def_cfa_offset 24
 1696 0004 00AF     		add	r7, sp, #0
 1697              		.cfi_def_cfa_register 7
 1698 0006 7860     		str	r0, [r7, #4]
 1699 0008 3960     		str	r1, [r7]
 774:Source\portable\Common/mpu_wrappers.c **** 	BaseType_t xReturn;
 775:Source\portable\Common/mpu_wrappers.c **** 	BaseType_t xRunningPrivileged = xPortRaisePrivilege();
 1700              		.loc 1 775 0
 1701 000a FFF7FEFF 		bl	xPortRaisePrivilege
 1702 000e F860     		str	r0, [r7, #12]
 776:Source\portable\Common/mpu_wrappers.c **** 
 777:Source\portable\Common/mpu_wrappers.c **** 		xReturn = xQueueTakeMutexRecursive( xMutex, xBlockTime );
 1703              		.loc 1 777 0
 1704 0010 3968     		ldr	r1, [r7]
 1705 0012 7868     		ldr	r0, [r7, #4]
 1706 0014 FFF7FEFF 		bl	xQueueTakeMutexRecursive
 1707 0018 B860     		str	r0, [r7, #8]
 778:Source\portable\Common/mpu_wrappers.c **** 		vPortResetPrivilege( xRunningPrivileged );
 1708              		.loc 1 778 0
 1709 001a F868     		ldr	r0, [r7, #12]
 1710 001c FFF7FEFF 		bl	vPortResetPrivilege
 779:Source\portable\Common/mpu_wrappers.c **** 		return xReturn;
 1711              		.loc 1 779 0
 1712 0020 BB68     		ldr	r3, [r7, #8]
 780:Source\portable\Common/mpu_wrappers.c **** 	}
 1713              		.loc 1 780 0
 1714 0022 1846     		mov	r0, r3
 1715 0024 1037     		adds	r7, r7, #16
 1716              		.cfi_def_cfa_offset 8
 1717 0026 BD46     		mov	sp, r7
 1718              		.cfi_def_cfa_register 13
 1719              		@ sp needed
 1720 0028 80BD     		pop	{r7, pc}
 1721              		.cfi_endproc
 1722              	.LFE105:
 1723              		.size	MPU_xQueueTakeMutexRecursive, .-MPU_xQueueTakeMutexRecursive
 1724              		.section	.text.MPU_xQueueGiveMutexRecursive,"ax",%progbits
 1725              		.align	2
 1726              		.global	MPU_xQueueGiveMutexRecursive
 1727              		.thumb
 1728              		.thumb_func
ARM GAS  C:\Users\mikke\AppData\Local\Temp\ccQCZNNL.s 			page 45


 1729              		.type	MPU_xQueueGiveMutexRecursive, %function
 1730              	MPU_xQueueGiveMutexRecursive:
 1731              	.LFB106:
 781:Source\portable\Common/mpu_wrappers.c **** #endif
 782:Source\portable\Common/mpu_wrappers.c **** /*-----------------------------------------------------------*/
 783:Source\portable\Common/mpu_wrappers.c **** 
 784:Source\portable\Common/mpu_wrappers.c **** #if ( configUSE_RECURSIVE_MUTEXES == 1 )
 785:Source\portable\Common/mpu_wrappers.c **** 	BaseType_t MPU_xQueueGiveMutexRecursive( QueueHandle_t xMutex ) /* FREERTOS_SYSTEM_CALL */
 786:Source\portable\Common/mpu_wrappers.c **** 	{
 1732              		.loc 1 786 0
 1733              		.cfi_startproc
 1734              		@ args = 0, pretend = 0, frame = 16
 1735              		@ frame_needed = 1, uses_anonymous_args = 0
 1736 0000 80B5     		push	{r7, lr}
 1737              		.cfi_def_cfa_offset 8
 1738              		.cfi_offset 7, -8
 1739              		.cfi_offset 14, -4
 1740 0002 84B0     		sub	sp, sp, #16
 1741              		.cfi_def_cfa_offset 24
 1742 0004 00AF     		add	r7, sp, #0
 1743              		.cfi_def_cfa_register 7
 1744 0006 7860     		str	r0, [r7, #4]
 787:Source\portable\Common/mpu_wrappers.c **** 	BaseType_t xReturn;
 788:Source\portable\Common/mpu_wrappers.c **** 	BaseType_t xRunningPrivileged = xPortRaisePrivilege();
 1745              		.loc 1 788 0
 1746 0008 FFF7FEFF 		bl	xPortRaisePrivilege
 1747 000c F860     		str	r0, [r7, #12]
 789:Source\portable\Common/mpu_wrappers.c **** 
 790:Source\portable\Common/mpu_wrappers.c **** 		xReturn = xQueueGiveMutexRecursive( xMutex );
 1748              		.loc 1 790 0
 1749 000e 7868     		ldr	r0, [r7, #4]
 1750 0010 FFF7FEFF 		bl	xQueueGiveMutexRecursive
 1751 0014 B860     		str	r0, [r7, #8]
 791:Source\portable\Common/mpu_wrappers.c **** 		vPortResetPrivilege( xRunningPrivileged );
 1752              		.loc 1 791 0
 1753 0016 F868     		ldr	r0, [r7, #12]
 1754 0018 FFF7FEFF 		bl	vPortResetPrivilege
 792:Source\portable\Common/mpu_wrappers.c **** 		return xReturn;
 1755              		.loc 1 792 0
 1756 001c BB68     		ldr	r3, [r7, #8]
 793:Source\portable\Common/mpu_wrappers.c **** 	}
 1757              		.loc 1 793 0
 1758 001e 1846     		mov	r0, r3
 1759 0020 1037     		adds	r7, r7, #16
 1760              		.cfi_def_cfa_offset 8
 1761 0022 BD46     		mov	sp, r7
 1762              		.cfi_def_cfa_register 13
 1763              		@ sp needed
 1764 0024 80BD     		pop	{r7, pc}
 1765              		.cfi_endproc
 1766              	.LFE106:
 1767              		.size	MPU_xQueueGiveMutexRecursive, .-MPU_xQueueGiveMutexRecursive
 1768 0026 00BF     		.section	.text.MPU_vQueueAddToRegistry,"ax",%progbits
 1769              		.align	2
 1770              		.global	MPU_vQueueAddToRegistry
 1771              		.thumb
 1772              		.thumb_func
ARM GAS  C:\Users\mikke\AppData\Local\Temp\ccQCZNNL.s 			page 46


 1773              		.type	MPU_vQueueAddToRegistry, %function
 1774              	MPU_vQueueAddToRegistry:
 1775              	.LFB107:
 794:Source\portable\Common/mpu_wrappers.c **** #endif
 795:Source\portable\Common/mpu_wrappers.c **** /*-----------------------------------------------------------*/
 796:Source\portable\Common/mpu_wrappers.c **** 
 797:Source\portable\Common/mpu_wrappers.c **** #if( ( configUSE_QUEUE_SETS == 1 ) && ( configSUPPORT_DYNAMIC_ALLOCATION == 1 ) )
 798:Source\portable\Common/mpu_wrappers.c **** 	QueueSetHandle_t MPU_xQueueCreateSet( UBaseType_t uxEventQueueLength ) /* FREERTOS_SYSTEM_CALL */
 799:Source\portable\Common/mpu_wrappers.c **** 	{
 800:Source\portable\Common/mpu_wrappers.c **** 	QueueSetHandle_t xReturn;
 801:Source\portable\Common/mpu_wrappers.c **** 	BaseType_t xRunningPrivileged = xPortRaisePrivilege();
 802:Source\portable\Common/mpu_wrappers.c **** 
 803:Source\portable\Common/mpu_wrappers.c **** 		xReturn = xQueueCreateSet( uxEventQueueLength );
 804:Source\portable\Common/mpu_wrappers.c **** 		vPortResetPrivilege( xRunningPrivileged );
 805:Source\portable\Common/mpu_wrappers.c **** 		return xReturn;
 806:Source\portable\Common/mpu_wrappers.c **** 	}
 807:Source\portable\Common/mpu_wrappers.c **** #endif
 808:Source\portable\Common/mpu_wrappers.c **** /*-----------------------------------------------------------*/
 809:Source\portable\Common/mpu_wrappers.c **** 
 810:Source\portable\Common/mpu_wrappers.c **** #if ( configUSE_QUEUE_SETS == 1 )
 811:Source\portable\Common/mpu_wrappers.c **** 	QueueSetMemberHandle_t MPU_xQueueSelectFromSet( QueueSetHandle_t xQueueSet, TickType_t xBlockTimeT
 812:Source\portable\Common/mpu_wrappers.c **** 	{
 813:Source\portable\Common/mpu_wrappers.c **** 	QueueSetMemberHandle_t xReturn;
 814:Source\portable\Common/mpu_wrappers.c **** 	BaseType_t xRunningPrivileged = xPortRaisePrivilege();
 815:Source\portable\Common/mpu_wrappers.c **** 
 816:Source\portable\Common/mpu_wrappers.c **** 		xReturn = xQueueSelectFromSet( xQueueSet, xBlockTimeTicks );
 817:Source\portable\Common/mpu_wrappers.c **** 		vPortResetPrivilege( xRunningPrivileged );
 818:Source\portable\Common/mpu_wrappers.c **** 		return xReturn;
 819:Source\portable\Common/mpu_wrappers.c **** 	}
 820:Source\portable\Common/mpu_wrappers.c **** #endif
 821:Source\portable\Common/mpu_wrappers.c **** /*-----------------------------------------------------------*/
 822:Source\portable\Common/mpu_wrappers.c **** 
 823:Source\portable\Common/mpu_wrappers.c **** #if ( configUSE_QUEUE_SETS == 1 )
 824:Source\portable\Common/mpu_wrappers.c **** 	BaseType_t MPU_xQueueAddToSet( QueueSetMemberHandle_t xQueueOrSemaphore, QueueSetHandle_t xQueueSe
 825:Source\portable\Common/mpu_wrappers.c **** 	{
 826:Source\portable\Common/mpu_wrappers.c **** 	BaseType_t xReturn;
 827:Source\portable\Common/mpu_wrappers.c **** 	BaseType_t xRunningPrivileged = xPortRaisePrivilege();
 828:Source\portable\Common/mpu_wrappers.c **** 
 829:Source\portable\Common/mpu_wrappers.c **** 		xReturn = xQueueAddToSet( xQueueOrSemaphore, xQueueSet );
 830:Source\portable\Common/mpu_wrappers.c **** 		vPortResetPrivilege( xRunningPrivileged );
 831:Source\portable\Common/mpu_wrappers.c **** 		return xReturn;
 832:Source\portable\Common/mpu_wrappers.c **** 	}
 833:Source\portable\Common/mpu_wrappers.c **** #endif
 834:Source\portable\Common/mpu_wrappers.c **** /*-----------------------------------------------------------*/
 835:Source\portable\Common/mpu_wrappers.c **** 
 836:Source\portable\Common/mpu_wrappers.c **** #if ( configUSE_QUEUE_SETS == 1 )
 837:Source\portable\Common/mpu_wrappers.c **** 	BaseType_t MPU_xQueueRemoveFromSet( QueueSetMemberHandle_t xQueueOrSemaphore, QueueSetHandle_t xQu
 838:Source\portable\Common/mpu_wrappers.c **** 	{
 839:Source\portable\Common/mpu_wrappers.c **** 	BaseType_t xReturn;
 840:Source\portable\Common/mpu_wrappers.c **** 	BaseType_t xRunningPrivileged = xPortRaisePrivilege();
 841:Source\portable\Common/mpu_wrappers.c **** 
 842:Source\portable\Common/mpu_wrappers.c **** 		xReturn = xQueueRemoveFromSet( xQueueOrSemaphore, xQueueSet );
 843:Source\portable\Common/mpu_wrappers.c **** 		vPortResetPrivilege( xRunningPrivileged );
 844:Source\portable\Common/mpu_wrappers.c **** 		return xReturn;
 845:Source\portable\Common/mpu_wrappers.c **** 	}
 846:Source\portable\Common/mpu_wrappers.c **** #endif
 847:Source\portable\Common/mpu_wrappers.c **** /*-----------------------------------------------------------*/
ARM GAS  C:\Users\mikke\AppData\Local\Temp\ccQCZNNL.s 			page 47


 848:Source\portable\Common/mpu_wrappers.c **** 
 849:Source\portable\Common/mpu_wrappers.c **** #if configQUEUE_REGISTRY_SIZE > 0
 850:Source\portable\Common/mpu_wrappers.c **** 	void MPU_vQueueAddToRegistry( QueueHandle_t xQueue, const char *pcName ) /* FREERTOS_SYSTEM_CALL *
 851:Source\portable\Common/mpu_wrappers.c **** 	{
 1776              		.loc 1 851 0
 1777              		.cfi_startproc
 1778              		@ args = 0, pretend = 0, frame = 16
 1779              		@ frame_needed = 1, uses_anonymous_args = 0
 1780 0000 80B5     		push	{r7, lr}
 1781              		.cfi_def_cfa_offset 8
 1782              		.cfi_offset 7, -8
 1783              		.cfi_offset 14, -4
 1784 0002 84B0     		sub	sp, sp, #16
 1785              		.cfi_def_cfa_offset 24
 1786 0004 00AF     		add	r7, sp, #0
 1787              		.cfi_def_cfa_register 7
 1788 0006 7860     		str	r0, [r7, #4]
 1789 0008 3960     		str	r1, [r7]
 852:Source\portable\Common/mpu_wrappers.c **** 	BaseType_t xRunningPrivileged = xPortRaisePrivilege();
 1790              		.loc 1 852 0
 1791 000a FFF7FEFF 		bl	xPortRaisePrivilege
 1792 000e F860     		str	r0, [r7, #12]
 853:Source\portable\Common/mpu_wrappers.c **** 
 854:Source\portable\Common/mpu_wrappers.c **** 		vQueueAddToRegistry( xQueue, pcName );
 1793              		.loc 1 854 0
 1794 0010 3968     		ldr	r1, [r7]
 1795 0012 7868     		ldr	r0, [r7, #4]
 1796 0014 FFF7FEFF 		bl	vQueueAddToRegistry
 855:Source\portable\Common/mpu_wrappers.c **** 
 856:Source\portable\Common/mpu_wrappers.c **** 		vPortResetPrivilege( xRunningPrivileged );
 1797              		.loc 1 856 0
 1798 0018 F868     		ldr	r0, [r7, #12]
 1799 001a FFF7FEFF 		bl	vPortResetPrivilege
 857:Source\portable\Common/mpu_wrappers.c **** 	}
 1800              		.loc 1 857 0
 1801 001e 00BF     		nop
 1802 0020 1037     		adds	r7, r7, #16
 1803              		.cfi_def_cfa_offset 8
 1804 0022 BD46     		mov	sp, r7
 1805              		.cfi_def_cfa_register 13
 1806              		@ sp needed
 1807 0024 80BD     		pop	{r7, pc}
 1808              		.cfi_endproc
 1809              	.LFE107:
 1810              		.size	MPU_vQueueAddToRegistry, .-MPU_vQueueAddToRegistry
 1811 0026 00BF     		.section	.text.MPU_vQueueUnregisterQueue,"ax",%progbits
 1812              		.align	2
 1813              		.global	MPU_vQueueUnregisterQueue
 1814              		.thumb
 1815              		.thumb_func
 1816              		.type	MPU_vQueueUnregisterQueue, %function
 1817              	MPU_vQueueUnregisterQueue:
 1818              	.LFB108:
 858:Source\portable\Common/mpu_wrappers.c **** #endif
 859:Source\portable\Common/mpu_wrappers.c **** /*-----------------------------------------------------------*/
 860:Source\portable\Common/mpu_wrappers.c **** 
 861:Source\portable\Common/mpu_wrappers.c **** #if configQUEUE_REGISTRY_SIZE > 0
ARM GAS  C:\Users\mikke\AppData\Local\Temp\ccQCZNNL.s 			page 48


 862:Source\portable\Common/mpu_wrappers.c **** 	void MPU_vQueueUnregisterQueue( QueueHandle_t xQueue ) /* FREERTOS_SYSTEM_CALL */
 863:Source\portable\Common/mpu_wrappers.c **** 	{
 1819              		.loc 1 863 0
 1820              		.cfi_startproc
 1821              		@ args = 0, pretend = 0, frame = 16
 1822              		@ frame_needed = 1, uses_anonymous_args = 0
 1823 0000 80B5     		push	{r7, lr}
 1824              		.cfi_def_cfa_offset 8
 1825              		.cfi_offset 7, -8
 1826              		.cfi_offset 14, -4
 1827 0002 84B0     		sub	sp, sp, #16
 1828              		.cfi_def_cfa_offset 24
 1829 0004 00AF     		add	r7, sp, #0
 1830              		.cfi_def_cfa_register 7
 1831 0006 7860     		str	r0, [r7, #4]
 864:Source\portable\Common/mpu_wrappers.c **** 	BaseType_t xRunningPrivileged = xPortRaisePrivilege();
 1832              		.loc 1 864 0
 1833 0008 FFF7FEFF 		bl	xPortRaisePrivilege
 1834 000c F860     		str	r0, [r7, #12]
 865:Source\portable\Common/mpu_wrappers.c **** 
 866:Source\portable\Common/mpu_wrappers.c **** 		vQueueUnregisterQueue( xQueue );
 1835              		.loc 1 866 0
 1836 000e 7868     		ldr	r0, [r7, #4]
 1837 0010 FFF7FEFF 		bl	vQueueUnregisterQueue
 867:Source\portable\Common/mpu_wrappers.c **** 
 868:Source\portable\Common/mpu_wrappers.c **** 		vPortResetPrivilege( xRunningPrivileged );
 1838              		.loc 1 868 0
 1839 0014 F868     		ldr	r0, [r7, #12]
 1840 0016 FFF7FEFF 		bl	vPortResetPrivilege
 869:Source\portable\Common/mpu_wrappers.c **** 	}
 1841              		.loc 1 869 0
 1842 001a 00BF     		nop
 1843 001c 1037     		adds	r7, r7, #16
 1844              		.cfi_def_cfa_offset 8
 1845 001e BD46     		mov	sp, r7
 1846              		.cfi_def_cfa_register 13
 1847              		@ sp needed
 1848 0020 80BD     		pop	{r7, pc}
 1849              		.cfi_endproc
 1850              	.LFE108:
 1851              		.size	MPU_vQueueUnregisterQueue, .-MPU_vQueueUnregisterQueue
 1852 0022 00BF     		.section	.text.MPU_pcQueueGetName,"ax",%progbits
 1853              		.align	2
 1854              		.global	MPU_pcQueueGetName
 1855              		.thumb
 1856              		.thumb_func
 1857              		.type	MPU_pcQueueGetName, %function
 1858              	MPU_pcQueueGetName:
 1859              	.LFB109:
 870:Source\portable\Common/mpu_wrappers.c **** #endif
 871:Source\portable\Common/mpu_wrappers.c **** /*-----------------------------------------------------------*/
 872:Source\portable\Common/mpu_wrappers.c **** 
 873:Source\portable\Common/mpu_wrappers.c **** #if configQUEUE_REGISTRY_SIZE > 0
 874:Source\portable\Common/mpu_wrappers.c **** 	const char *MPU_pcQueueGetName( QueueHandle_t xQueue ) /* FREERTOS_SYSTEM_CALL */
 875:Source\portable\Common/mpu_wrappers.c **** 	{
 1860              		.loc 1 875 0
 1861              		.cfi_startproc
ARM GAS  C:\Users\mikke\AppData\Local\Temp\ccQCZNNL.s 			page 49


 1862              		@ args = 0, pretend = 0, frame = 16
 1863              		@ frame_needed = 1, uses_anonymous_args = 0
 1864 0000 80B5     		push	{r7, lr}
 1865              		.cfi_def_cfa_offset 8
 1866              		.cfi_offset 7, -8
 1867              		.cfi_offset 14, -4
 1868 0002 84B0     		sub	sp, sp, #16
 1869              		.cfi_def_cfa_offset 24
 1870 0004 00AF     		add	r7, sp, #0
 1871              		.cfi_def_cfa_register 7
 1872 0006 7860     		str	r0, [r7, #4]
 876:Source\portable\Common/mpu_wrappers.c **** 	BaseType_t xRunningPrivileged = xPortRaisePrivilege();
 1873              		.loc 1 876 0
 1874 0008 FFF7FEFF 		bl	xPortRaisePrivilege
 1875 000c F860     		str	r0, [r7, #12]
 877:Source\portable\Common/mpu_wrappers.c **** 	const char *pcReturn;
 878:Source\portable\Common/mpu_wrappers.c **** 
 879:Source\portable\Common/mpu_wrappers.c **** 		pcReturn = pcQueueGetName( xQueue );
 1876              		.loc 1 879 0
 1877 000e 7868     		ldr	r0, [r7, #4]
 1878 0010 FFF7FEFF 		bl	pcQueueGetName
 1879 0014 B860     		str	r0, [r7, #8]
 880:Source\portable\Common/mpu_wrappers.c **** 
 881:Source\portable\Common/mpu_wrappers.c **** 		vPortResetPrivilege( xRunningPrivileged );
 1880              		.loc 1 881 0
 1881 0016 F868     		ldr	r0, [r7, #12]
 1882 0018 FFF7FEFF 		bl	vPortResetPrivilege
 882:Source\portable\Common/mpu_wrappers.c **** 		return pcReturn;
 1883              		.loc 1 882 0
 1884 001c BB68     		ldr	r3, [r7, #8]
 883:Source\portable\Common/mpu_wrappers.c **** 	}
 1885              		.loc 1 883 0
 1886 001e 1846     		mov	r0, r3
 1887 0020 1037     		adds	r7, r7, #16
 1888              		.cfi_def_cfa_offset 8
 1889 0022 BD46     		mov	sp, r7
 1890              		.cfi_def_cfa_register 13
 1891              		@ sp needed
 1892 0024 80BD     		pop	{r7, pc}
 1893              		.cfi_endproc
 1894              	.LFE109:
 1895              		.size	MPU_pcQueueGetName, .-MPU_pcQueueGetName
 1896 0026 00BF     		.section	.text.MPU_vQueueDelete,"ax",%progbits
 1897              		.align	2
 1898              		.global	MPU_vQueueDelete
 1899              		.thumb
 1900              		.thumb_func
 1901              		.type	MPU_vQueueDelete, %function
 1902              	MPU_vQueueDelete:
 1903              	.LFB110:
 884:Source\portable\Common/mpu_wrappers.c **** #endif
 885:Source\portable\Common/mpu_wrappers.c **** /*-----------------------------------------------------------*/
 886:Source\portable\Common/mpu_wrappers.c **** 
 887:Source\portable\Common/mpu_wrappers.c **** void MPU_vQueueDelete( QueueHandle_t xQueue ) /* FREERTOS_SYSTEM_CALL */
 888:Source\portable\Common/mpu_wrappers.c **** {
 1904              		.loc 1 888 0
 1905              		.cfi_startproc
ARM GAS  C:\Users\mikke\AppData\Local\Temp\ccQCZNNL.s 			page 50


 1906              		@ args = 0, pretend = 0, frame = 16
 1907              		@ frame_needed = 1, uses_anonymous_args = 0
 1908 0000 80B5     		push	{r7, lr}
 1909              		.cfi_def_cfa_offset 8
 1910              		.cfi_offset 7, -8
 1911              		.cfi_offset 14, -4
 1912 0002 84B0     		sub	sp, sp, #16
 1913              		.cfi_def_cfa_offset 24
 1914 0004 00AF     		add	r7, sp, #0
 1915              		.cfi_def_cfa_register 7
 1916 0006 7860     		str	r0, [r7, #4]
 889:Source\portable\Common/mpu_wrappers.c **** BaseType_t xRunningPrivileged = xPortRaisePrivilege();
 1917              		.loc 1 889 0
 1918 0008 FFF7FEFF 		bl	xPortRaisePrivilege
 1919 000c F860     		str	r0, [r7, #12]
 890:Source\portable\Common/mpu_wrappers.c **** 
 891:Source\portable\Common/mpu_wrappers.c **** 	vQueueDelete( xQueue );
 1920              		.loc 1 891 0
 1921 000e 7868     		ldr	r0, [r7, #4]
 1922 0010 FFF7FEFF 		bl	vQueueDelete
 892:Source\portable\Common/mpu_wrappers.c **** 
 893:Source\portable\Common/mpu_wrappers.c **** 	vPortResetPrivilege( xRunningPrivileged );
 1923              		.loc 1 893 0
 1924 0014 F868     		ldr	r0, [r7, #12]
 1925 0016 FFF7FEFF 		bl	vPortResetPrivilege
 894:Source\portable\Common/mpu_wrappers.c **** }
 1926              		.loc 1 894 0
 1927 001a 00BF     		nop
 1928 001c 1037     		adds	r7, r7, #16
 1929              		.cfi_def_cfa_offset 8
 1930 001e BD46     		mov	sp, r7
 1931              		.cfi_def_cfa_register 13
 1932              		@ sp needed
 1933 0020 80BD     		pop	{r7, pc}
 1934              		.cfi_endproc
 1935              	.LFE110:
 1936              		.size	MPU_vQueueDelete, .-MPU_vQueueDelete
 1937 0022 00BF     		.section	.text.MPU_pvPortMalloc,"ax",%progbits
 1938              		.align	2
 1939              		.global	MPU_pvPortMalloc
 1940              		.thumb
 1941              		.thumb_func
 1942              		.type	MPU_pvPortMalloc, %function
 1943              	MPU_pvPortMalloc:
 1944              	.LFB111:
 895:Source\portable\Common/mpu_wrappers.c **** /*-----------------------------------------------------------*/
 896:Source\portable\Common/mpu_wrappers.c **** 
 897:Source\portable\Common/mpu_wrappers.c **** #if( configSUPPORT_DYNAMIC_ALLOCATION == 1 )
 898:Source\portable\Common/mpu_wrappers.c **** 	void *MPU_pvPortMalloc( size_t xSize ) /* FREERTOS_SYSTEM_CALL */
 899:Source\portable\Common/mpu_wrappers.c **** 	{
 1945              		.loc 1 899 0
 1946              		.cfi_startproc
 1947              		@ args = 0, pretend = 0, frame = 16
 1948              		@ frame_needed = 1, uses_anonymous_args = 0
 1949 0000 80B5     		push	{r7, lr}
 1950              		.cfi_def_cfa_offset 8
 1951              		.cfi_offset 7, -8
ARM GAS  C:\Users\mikke\AppData\Local\Temp\ccQCZNNL.s 			page 51


 1952              		.cfi_offset 14, -4
 1953 0002 84B0     		sub	sp, sp, #16
 1954              		.cfi_def_cfa_offset 24
 1955 0004 00AF     		add	r7, sp, #0
 1956              		.cfi_def_cfa_register 7
 1957 0006 7860     		str	r0, [r7, #4]
 900:Source\portable\Common/mpu_wrappers.c **** 	void *pvReturn;
 901:Source\portable\Common/mpu_wrappers.c **** 	BaseType_t xRunningPrivileged = xPortRaisePrivilege();
 1958              		.loc 1 901 0
 1959 0008 FFF7FEFF 		bl	xPortRaisePrivilege
 1960 000c F860     		str	r0, [r7, #12]
 902:Source\portable\Common/mpu_wrappers.c **** 
 903:Source\portable\Common/mpu_wrappers.c **** 		pvReturn = pvPortMalloc( xSize );
 1961              		.loc 1 903 0
 1962 000e 7868     		ldr	r0, [r7, #4]
 1963 0010 FFF7FEFF 		bl	pvPortMalloc
 1964 0014 B860     		str	r0, [r7, #8]
 904:Source\portable\Common/mpu_wrappers.c **** 
 905:Source\portable\Common/mpu_wrappers.c **** 		vPortResetPrivilege( xRunningPrivileged );
 1965              		.loc 1 905 0
 1966 0016 F868     		ldr	r0, [r7, #12]
 1967 0018 FFF7FEFF 		bl	vPortResetPrivilege
 906:Source\portable\Common/mpu_wrappers.c **** 
 907:Source\portable\Common/mpu_wrappers.c **** 		return pvReturn;
 1968              		.loc 1 907 0
 1969 001c BB68     		ldr	r3, [r7, #8]
 908:Source\portable\Common/mpu_wrappers.c **** 	}
 1970              		.loc 1 908 0
 1971 001e 1846     		mov	r0, r3
 1972 0020 1037     		adds	r7, r7, #16
 1973              		.cfi_def_cfa_offset 8
 1974 0022 BD46     		mov	sp, r7
 1975              		.cfi_def_cfa_register 13
 1976              		@ sp needed
 1977 0024 80BD     		pop	{r7, pc}
 1978              		.cfi_endproc
 1979              	.LFE111:
 1980              		.size	MPU_pvPortMalloc, .-MPU_pvPortMalloc
 1981 0026 00BF     		.section	.text.MPU_vPortFree,"ax",%progbits
 1982              		.align	2
 1983              		.global	MPU_vPortFree
 1984              		.thumb
 1985              		.thumb_func
 1986              		.type	MPU_vPortFree, %function
 1987              	MPU_vPortFree:
 1988              	.LFB112:
 909:Source\portable\Common/mpu_wrappers.c **** #endif /* configSUPPORT_DYNAMIC_ALLOCATION */
 910:Source\portable\Common/mpu_wrappers.c **** /*-----------------------------------------------------------*/
 911:Source\portable\Common/mpu_wrappers.c **** 
 912:Source\portable\Common/mpu_wrappers.c **** #if( configSUPPORT_DYNAMIC_ALLOCATION == 1 )
 913:Source\portable\Common/mpu_wrappers.c **** 	void MPU_vPortFree( void *pv ) /* FREERTOS_SYSTEM_CALL */
 914:Source\portable\Common/mpu_wrappers.c **** 	{
 1989              		.loc 1 914 0
 1990              		.cfi_startproc
 1991              		@ args = 0, pretend = 0, frame = 16
 1992              		@ frame_needed = 1, uses_anonymous_args = 0
 1993 0000 80B5     		push	{r7, lr}
ARM GAS  C:\Users\mikke\AppData\Local\Temp\ccQCZNNL.s 			page 52


 1994              		.cfi_def_cfa_offset 8
 1995              		.cfi_offset 7, -8
 1996              		.cfi_offset 14, -4
 1997 0002 84B0     		sub	sp, sp, #16
 1998              		.cfi_def_cfa_offset 24
 1999 0004 00AF     		add	r7, sp, #0
 2000              		.cfi_def_cfa_register 7
 2001 0006 7860     		str	r0, [r7, #4]
 915:Source\portable\Common/mpu_wrappers.c **** 	BaseType_t xRunningPrivileged = xPortRaisePrivilege();
 2002              		.loc 1 915 0
 2003 0008 FFF7FEFF 		bl	xPortRaisePrivilege
 2004 000c F860     		str	r0, [r7, #12]
 916:Source\portable\Common/mpu_wrappers.c **** 
 917:Source\portable\Common/mpu_wrappers.c **** 		vPortFree( pv );
 2005              		.loc 1 917 0
 2006 000e 7868     		ldr	r0, [r7, #4]
 2007 0010 FFF7FEFF 		bl	vPortFree
 918:Source\portable\Common/mpu_wrappers.c **** 
 919:Source\portable\Common/mpu_wrappers.c **** 		vPortResetPrivilege( xRunningPrivileged );
 2008              		.loc 1 919 0
 2009 0014 F868     		ldr	r0, [r7, #12]
 2010 0016 FFF7FEFF 		bl	vPortResetPrivilege
 920:Source\portable\Common/mpu_wrappers.c **** 	}
 2011              		.loc 1 920 0
 2012 001a 00BF     		nop
 2013 001c 1037     		adds	r7, r7, #16
 2014              		.cfi_def_cfa_offset 8
 2015 001e BD46     		mov	sp, r7
 2016              		.cfi_def_cfa_register 13
 2017              		@ sp needed
 2018 0020 80BD     		pop	{r7, pc}
 2019              		.cfi_endproc
 2020              	.LFE112:
 2021              		.size	MPU_vPortFree, .-MPU_vPortFree
 2022 0022 00BF     		.section	.text.MPU_vPortInitialiseBlocks,"ax",%progbits
 2023              		.align	2
 2024              		.global	MPU_vPortInitialiseBlocks
 2025              		.thumb
 2026              		.thumb_func
 2027              		.type	MPU_vPortInitialiseBlocks, %function
 2028              	MPU_vPortInitialiseBlocks:
 2029              	.LFB113:
 921:Source\portable\Common/mpu_wrappers.c **** #endif /* configSUPPORT_DYNAMIC_ALLOCATION */
 922:Source\portable\Common/mpu_wrappers.c **** /*-----------------------------------------------------------*/
 923:Source\portable\Common/mpu_wrappers.c **** 
 924:Source\portable\Common/mpu_wrappers.c **** #if( configSUPPORT_DYNAMIC_ALLOCATION == 1 )
 925:Source\portable\Common/mpu_wrappers.c **** 	void MPU_vPortInitialiseBlocks( void ) /* FREERTOS_SYSTEM_CALL */
 926:Source\portable\Common/mpu_wrappers.c **** 	{
 2030              		.loc 1 926 0
 2031              		.cfi_startproc
 2032              		@ args = 0, pretend = 0, frame = 8
 2033              		@ frame_needed = 1, uses_anonymous_args = 0
 2034 0000 80B5     		push	{r7, lr}
 2035              		.cfi_def_cfa_offset 8
 2036              		.cfi_offset 7, -8
 2037              		.cfi_offset 14, -4
 2038 0002 82B0     		sub	sp, sp, #8
ARM GAS  C:\Users\mikke\AppData\Local\Temp\ccQCZNNL.s 			page 53


 2039              		.cfi_def_cfa_offset 16
 2040 0004 00AF     		add	r7, sp, #0
 2041              		.cfi_def_cfa_register 7
 927:Source\portable\Common/mpu_wrappers.c **** 	BaseType_t xRunningPrivileged = xPortRaisePrivilege();
 2042              		.loc 1 927 0
 2043 0006 FFF7FEFF 		bl	xPortRaisePrivilege
 2044 000a 7860     		str	r0, [r7, #4]
 928:Source\portable\Common/mpu_wrappers.c **** 
 929:Source\portable\Common/mpu_wrappers.c **** 		vPortInitialiseBlocks();
 2045              		.loc 1 929 0
 2046 000c FFF7FEFF 		bl	vPortInitialiseBlocks
 930:Source\portable\Common/mpu_wrappers.c **** 
 931:Source\portable\Common/mpu_wrappers.c **** 		vPortResetPrivilege( xRunningPrivileged );
 2047              		.loc 1 931 0
 2048 0010 7868     		ldr	r0, [r7, #4]
 2049 0012 FFF7FEFF 		bl	vPortResetPrivilege
 932:Source\portable\Common/mpu_wrappers.c **** 	}
 2050              		.loc 1 932 0
 2051 0016 00BF     		nop
 2052 0018 0837     		adds	r7, r7, #8
 2053              		.cfi_def_cfa_offset 8
 2054 001a BD46     		mov	sp, r7
 2055              		.cfi_def_cfa_register 13
 2056              		@ sp needed
 2057 001c 80BD     		pop	{r7, pc}
 2058              		.cfi_endproc
 2059              	.LFE113:
 2060              		.size	MPU_vPortInitialiseBlocks, .-MPU_vPortInitialiseBlocks
 2061 001e 00BF     		.section	.text.MPU_xPortGetFreeHeapSize,"ax",%progbits
 2062              		.align	2
 2063              		.global	MPU_xPortGetFreeHeapSize
 2064              		.thumb
 2065              		.thumb_func
 2066              		.type	MPU_xPortGetFreeHeapSize, %function
 2067              	MPU_xPortGetFreeHeapSize:
 2068              	.LFB114:
 933:Source\portable\Common/mpu_wrappers.c **** #endif /* configSUPPORT_DYNAMIC_ALLOCATION */
 934:Source\portable\Common/mpu_wrappers.c **** /*-----------------------------------------------------------*/
 935:Source\portable\Common/mpu_wrappers.c **** 
 936:Source\portable\Common/mpu_wrappers.c **** #if( configSUPPORT_DYNAMIC_ALLOCATION == 1 )
 937:Source\portable\Common/mpu_wrappers.c **** 	size_t MPU_xPortGetFreeHeapSize( void ) /* FREERTOS_SYSTEM_CALL */
 938:Source\portable\Common/mpu_wrappers.c **** 	{
 2069              		.loc 1 938 0
 2070              		.cfi_startproc
 2071              		@ args = 0, pretend = 0, frame = 8
 2072              		@ frame_needed = 1, uses_anonymous_args = 0
 2073 0000 80B5     		push	{r7, lr}
 2074              		.cfi_def_cfa_offset 8
 2075              		.cfi_offset 7, -8
 2076              		.cfi_offset 14, -4
 2077 0002 82B0     		sub	sp, sp, #8
 2078              		.cfi_def_cfa_offset 16
 2079 0004 00AF     		add	r7, sp, #0
 2080              		.cfi_def_cfa_register 7
 939:Source\portable\Common/mpu_wrappers.c **** 	size_t xReturn;
 940:Source\portable\Common/mpu_wrappers.c **** 	BaseType_t xRunningPrivileged = xPortRaisePrivilege();
 2081              		.loc 1 940 0
ARM GAS  C:\Users\mikke\AppData\Local\Temp\ccQCZNNL.s 			page 54


 2082 0006 FFF7FEFF 		bl	xPortRaisePrivilege
 2083 000a 7860     		str	r0, [r7, #4]
 941:Source\portable\Common/mpu_wrappers.c **** 
 942:Source\portable\Common/mpu_wrappers.c **** 		xReturn = xPortGetFreeHeapSize();
 2084              		.loc 1 942 0
 2085 000c FFF7FEFF 		bl	xPortGetFreeHeapSize
 2086 0010 3860     		str	r0, [r7]
 943:Source\portable\Common/mpu_wrappers.c **** 
 944:Source\portable\Common/mpu_wrappers.c **** 		vPortResetPrivilege( xRunningPrivileged );
 2087              		.loc 1 944 0
 2088 0012 7868     		ldr	r0, [r7, #4]
 2089 0014 FFF7FEFF 		bl	vPortResetPrivilege
 945:Source\portable\Common/mpu_wrappers.c **** 
 946:Source\portable\Common/mpu_wrappers.c **** 		return xReturn;
 2090              		.loc 1 946 0
 2091 0018 3B68     		ldr	r3, [r7]
 947:Source\portable\Common/mpu_wrappers.c **** 	}
 2092              		.loc 1 947 0
 2093 001a 1846     		mov	r0, r3
 2094 001c 0837     		adds	r7, r7, #8
 2095              		.cfi_def_cfa_offset 8
 2096 001e BD46     		mov	sp, r7
 2097              		.cfi_def_cfa_register 13
 2098              		@ sp needed
 2099 0020 80BD     		pop	{r7, pc}
 2100              		.cfi_endproc
 2101              	.LFE114:
 2102              		.size	MPU_xPortGetFreeHeapSize, .-MPU_xPortGetFreeHeapSize
 2103 0022 00BF     		.section	.text.MPU_xEventGroupCreate,"ax",%progbits
 2104              		.align	2
 2105              		.global	MPU_xEventGroupCreate
 2106              		.thumb
 2107              		.thumb_func
 2108              		.type	MPU_xEventGroupCreate, %function
 2109              	MPU_xEventGroupCreate:
 2110              	.LFB115:
 948:Source\portable\Common/mpu_wrappers.c **** #endif /* configSUPPORT_DYNAMIC_ALLOCATION */
 949:Source\portable\Common/mpu_wrappers.c **** /*-----------------------------------------------------------*/
 950:Source\portable\Common/mpu_wrappers.c **** 
 951:Source\portable\Common/mpu_wrappers.c **** #if( ( configSUPPORT_DYNAMIC_ALLOCATION == 1 ) && ( configUSE_TIMERS == 1 ) )
 952:Source\portable\Common/mpu_wrappers.c **** 	TimerHandle_t MPU_xTimerCreate( const char * const pcTimerName, const TickType_t xTimerPeriodInTic
 953:Source\portable\Common/mpu_wrappers.c **** 	{
 954:Source\portable\Common/mpu_wrappers.c **** 	TimerHandle_t xReturn;
 955:Source\portable\Common/mpu_wrappers.c **** 	BaseType_t xRunningPrivileged = xPortRaisePrivilege();
 956:Source\portable\Common/mpu_wrappers.c **** 
 957:Source\portable\Common/mpu_wrappers.c **** 		xReturn = xTimerCreate( pcTimerName, xTimerPeriodInTicks, uxAutoReload, pvTimerID, pxCallbackFunc
 958:Source\portable\Common/mpu_wrappers.c **** 		vPortResetPrivilege( xRunningPrivileged );
 959:Source\portable\Common/mpu_wrappers.c **** 
 960:Source\portable\Common/mpu_wrappers.c **** 		return xReturn;
 961:Source\portable\Common/mpu_wrappers.c **** 	}
 962:Source\portable\Common/mpu_wrappers.c **** #endif
 963:Source\portable\Common/mpu_wrappers.c **** /*-----------------------------------------------------------*/
 964:Source\portable\Common/mpu_wrappers.c **** 
 965:Source\portable\Common/mpu_wrappers.c **** #if( ( configSUPPORT_STATIC_ALLOCATION == 1 ) && ( configUSE_TIMERS == 1 ) )
 966:Source\portable\Common/mpu_wrappers.c **** 	TimerHandle_t MPU_xTimerCreateStatic( const char * const pcTimerName, const TickType_t xTimerPerio
 967:Source\portable\Common/mpu_wrappers.c **** 	{
 968:Source\portable\Common/mpu_wrappers.c **** 	TimerHandle_t xReturn;
ARM GAS  C:\Users\mikke\AppData\Local\Temp\ccQCZNNL.s 			page 55


 969:Source\portable\Common/mpu_wrappers.c **** 	BaseType_t xRunningPrivileged = xPortRaisePrivilege();
 970:Source\portable\Common/mpu_wrappers.c **** 
 971:Source\portable\Common/mpu_wrappers.c **** 		xReturn = xTimerCreateStatic( pcTimerName, xTimerPeriodInTicks, uxAutoReload, pvTimerID, pxCallba
 972:Source\portable\Common/mpu_wrappers.c **** 		vPortResetPrivilege( xRunningPrivileged );
 973:Source\portable\Common/mpu_wrappers.c **** 
 974:Source\portable\Common/mpu_wrappers.c **** 		return xReturn;
 975:Source\portable\Common/mpu_wrappers.c **** 	}
 976:Source\portable\Common/mpu_wrappers.c **** #endif
 977:Source\portable\Common/mpu_wrappers.c **** /*-----------------------------------------------------------*/
 978:Source\portable\Common/mpu_wrappers.c **** 
 979:Source\portable\Common/mpu_wrappers.c **** #if( configUSE_TIMERS == 1 )
 980:Source\portable\Common/mpu_wrappers.c **** 	void *MPU_pvTimerGetTimerID( const TimerHandle_t xTimer ) /* FREERTOS_SYSTEM_CALL */
 981:Source\portable\Common/mpu_wrappers.c **** 	{
 982:Source\portable\Common/mpu_wrappers.c **** 	void * pvReturn;
 983:Source\portable\Common/mpu_wrappers.c **** 	BaseType_t xRunningPrivileged = xPortRaisePrivilege();
 984:Source\portable\Common/mpu_wrappers.c **** 
 985:Source\portable\Common/mpu_wrappers.c **** 		pvReturn = pvTimerGetTimerID( xTimer );
 986:Source\portable\Common/mpu_wrappers.c **** 		vPortResetPrivilege( xRunningPrivileged );
 987:Source\portable\Common/mpu_wrappers.c **** 
 988:Source\portable\Common/mpu_wrappers.c **** 		return pvReturn;
 989:Source\portable\Common/mpu_wrappers.c **** 	}
 990:Source\portable\Common/mpu_wrappers.c **** #endif
 991:Source\portable\Common/mpu_wrappers.c **** /*-----------------------------------------------------------*/
 992:Source\portable\Common/mpu_wrappers.c **** 
 993:Source\portable\Common/mpu_wrappers.c **** #if( configUSE_TIMERS == 1 )
 994:Source\portable\Common/mpu_wrappers.c **** 	void MPU_vTimerSetTimerID( TimerHandle_t xTimer, void *pvNewID ) /* FREERTOS_SYSTEM_CALL */
 995:Source\portable\Common/mpu_wrappers.c **** 	{
 996:Source\portable\Common/mpu_wrappers.c **** 	BaseType_t xRunningPrivileged = xPortRaisePrivilege();
 997:Source\portable\Common/mpu_wrappers.c **** 
 998:Source\portable\Common/mpu_wrappers.c **** 		vTimerSetTimerID( xTimer, pvNewID );
 999:Source\portable\Common/mpu_wrappers.c **** 		vPortResetPrivilege( xRunningPrivileged );
1000:Source\portable\Common/mpu_wrappers.c **** 	}
1001:Source\portable\Common/mpu_wrappers.c **** #endif
1002:Source\portable\Common/mpu_wrappers.c **** /*-----------------------------------------------------------*/
1003:Source\portable\Common/mpu_wrappers.c **** 
1004:Source\portable\Common/mpu_wrappers.c **** #if( configUSE_TIMERS == 1 )
1005:Source\portable\Common/mpu_wrappers.c **** 	BaseType_t MPU_xTimerIsTimerActive( TimerHandle_t xTimer ) /* FREERTOS_SYSTEM_CALL */
1006:Source\portable\Common/mpu_wrappers.c **** 	{
1007:Source\portable\Common/mpu_wrappers.c **** 	BaseType_t xReturn;
1008:Source\portable\Common/mpu_wrappers.c **** 	BaseType_t xRunningPrivileged = xPortRaisePrivilege();
1009:Source\portable\Common/mpu_wrappers.c **** 
1010:Source\portable\Common/mpu_wrappers.c **** 		xReturn = xTimerIsTimerActive( xTimer );
1011:Source\portable\Common/mpu_wrappers.c **** 		vPortResetPrivilege( xRunningPrivileged );
1012:Source\portable\Common/mpu_wrappers.c **** 
1013:Source\portable\Common/mpu_wrappers.c **** 		return xReturn;
1014:Source\portable\Common/mpu_wrappers.c **** 	}
1015:Source\portable\Common/mpu_wrappers.c **** #endif
1016:Source\portable\Common/mpu_wrappers.c **** /*-----------------------------------------------------------*/
1017:Source\portable\Common/mpu_wrappers.c **** 
1018:Source\portable\Common/mpu_wrappers.c **** #if( configUSE_TIMERS == 1 )
1019:Source\portable\Common/mpu_wrappers.c **** 	TaskHandle_t MPU_xTimerGetTimerDaemonTaskHandle( void ) /* FREERTOS_SYSTEM_CALL */
1020:Source\portable\Common/mpu_wrappers.c **** 	{
1021:Source\portable\Common/mpu_wrappers.c **** 	TaskHandle_t xReturn;
1022:Source\portable\Common/mpu_wrappers.c **** 	BaseType_t xRunningPrivileged = xPortRaisePrivilege();
1023:Source\portable\Common/mpu_wrappers.c **** 
1024:Source\portable\Common/mpu_wrappers.c **** 		xReturn = xTimerGetTimerDaemonTaskHandle();
1025:Source\portable\Common/mpu_wrappers.c **** 		vPortResetPrivilege( xRunningPrivileged );
ARM GAS  C:\Users\mikke\AppData\Local\Temp\ccQCZNNL.s 			page 56


1026:Source\portable\Common/mpu_wrappers.c **** 
1027:Source\portable\Common/mpu_wrappers.c **** 		return xReturn;
1028:Source\portable\Common/mpu_wrappers.c **** 	}
1029:Source\portable\Common/mpu_wrappers.c **** #endif
1030:Source\portable\Common/mpu_wrappers.c **** /*-----------------------------------------------------------*/
1031:Source\portable\Common/mpu_wrappers.c **** 
1032:Source\portable\Common/mpu_wrappers.c **** #if( ( INCLUDE_xTimerPendFunctionCall == 1 ) && ( configUSE_TIMERS == 1 ) )
1033:Source\portable\Common/mpu_wrappers.c **** 	BaseType_t MPU_xTimerPendFunctionCall( PendedFunction_t xFunctionToPend, void *pvParameter1, uint3
1034:Source\portable\Common/mpu_wrappers.c **** 	{
1035:Source\portable\Common/mpu_wrappers.c **** 	BaseType_t xReturn;
1036:Source\portable\Common/mpu_wrappers.c **** 	BaseType_t xRunningPrivileged = xPortRaisePrivilege();
1037:Source\portable\Common/mpu_wrappers.c **** 
1038:Source\portable\Common/mpu_wrappers.c **** 		xReturn = xTimerPendFunctionCall( xFunctionToPend, pvParameter1, ulParameter2, xTicksToWait );
1039:Source\portable\Common/mpu_wrappers.c **** 		vPortResetPrivilege( xRunningPrivileged );
1040:Source\portable\Common/mpu_wrappers.c **** 
1041:Source\portable\Common/mpu_wrappers.c **** 		return xReturn;
1042:Source\portable\Common/mpu_wrappers.c **** 	}
1043:Source\portable\Common/mpu_wrappers.c **** #endif
1044:Source\portable\Common/mpu_wrappers.c **** /*-----------------------------------------------------------*/
1045:Source\portable\Common/mpu_wrappers.c **** 
1046:Source\portable\Common/mpu_wrappers.c **** #if( configUSE_TIMERS == 1 )
1047:Source\portable\Common/mpu_wrappers.c **** 	void MPU_vTimerSetReloadMode( TimerHandle_t xTimer, const UBaseType_t uxAutoReload ) /* FREERTOS_S
1048:Source\portable\Common/mpu_wrappers.c **** 	{
1049:Source\portable\Common/mpu_wrappers.c **** 	BaseType_t xRunningPrivileged = xPortRaisePrivilege();
1050:Source\portable\Common/mpu_wrappers.c **** 
1051:Source\portable\Common/mpu_wrappers.c **** 		vTimerSetReloadMode( xTimer, uxAutoReload );
1052:Source\portable\Common/mpu_wrappers.c **** 		vPortResetPrivilege( xRunningPrivileged );
1053:Source\portable\Common/mpu_wrappers.c **** 	}
1054:Source\portable\Common/mpu_wrappers.c **** #endif
1055:Source\portable\Common/mpu_wrappers.c **** /*-----------------------------------------------------------*/
1056:Source\portable\Common/mpu_wrappers.c **** 
1057:Source\portable\Common/mpu_wrappers.c **** #if( configUSE_TIMERS == 1 )
1058:Source\portable\Common/mpu_wrappers.c **** 	UBaseType_t MPU_uxTimerGetReloadMode( TimerHandle_t xTimer )
1059:Source\portable\Common/mpu_wrappers.c **** 	{
1060:Source\portable\Common/mpu_wrappers.c **** 	BaseType_t xRunningPrivileged = xPortRaisePrivilege();
1061:Source\portable\Common/mpu_wrappers.c **** 	UBaseType_t uxReturn;
1062:Source\portable\Common/mpu_wrappers.c **** 
1063:Source\portable\Common/mpu_wrappers.c **** 		uxReturn = uxTimerGetReloadMode( xTimer );
1064:Source\portable\Common/mpu_wrappers.c **** 		vPortResetPrivilege( xRunningPrivileged );
1065:Source\portable\Common/mpu_wrappers.c **** 		return uxReturn;
1066:Source\portable\Common/mpu_wrappers.c **** 	}
1067:Source\portable\Common/mpu_wrappers.c **** #endif
1068:Source\portable\Common/mpu_wrappers.c **** /*-----------------------------------------------------------*/
1069:Source\portable\Common/mpu_wrappers.c **** 
1070:Source\portable\Common/mpu_wrappers.c **** #if( configUSE_TIMERS == 1 )
1071:Source\portable\Common/mpu_wrappers.c **** 	const char * MPU_pcTimerGetName( TimerHandle_t xTimer ) /* FREERTOS_SYSTEM_CALL */
1072:Source\portable\Common/mpu_wrappers.c **** 	{
1073:Source\portable\Common/mpu_wrappers.c **** 	const char * pcReturn;
1074:Source\portable\Common/mpu_wrappers.c **** 	BaseType_t xRunningPrivileged = xPortRaisePrivilege();
1075:Source\portable\Common/mpu_wrappers.c **** 
1076:Source\portable\Common/mpu_wrappers.c **** 		pcReturn = pcTimerGetName( xTimer );
1077:Source\portable\Common/mpu_wrappers.c **** 		vPortResetPrivilege( xRunningPrivileged );
1078:Source\portable\Common/mpu_wrappers.c **** 
1079:Source\portable\Common/mpu_wrappers.c **** 		return pcReturn;
1080:Source\portable\Common/mpu_wrappers.c **** 	}
1081:Source\portable\Common/mpu_wrappers.c **** #endif
1082:Source\portable\Common/mpu_wrappers.c **** /*-----------------------------------------------------------*/
ARM GAS  C:\Users\mikke\AppData\Local\Temp\ccQCZNNL.s 			page 57


1083:Source\portable\Common/mpu_wrappers.c **** 
1084:Source\portable\Common/mpu_wrappers.c **** #if( configUSE_TIMERS == 1 )
1085:Source\portable\Common/mpu_wrappers.c **** 	TickType_t MPU_xTimerGetPeriod( TimerHandle_t xTimer ) /* FREERTOS_SYSTEM_CALL */
1086:Source\portable\Common/mpu_wrappers.c **** 	{
1087:Source\portable\Common/mpu_wrappers.c **** 	TickType_t xReturn;
1088:Source\portable\Common/mpu_wrappers.c **** 	BaseType_t xRunningPrivileged = xPortRaisePrivilege();
1089:Source\portable\Common/mpu_wrappers.c **** 
1090:Source\portable\Common/mpu_wrappers.c **** 		xReturn = xTimerGetPeriod( xTimer );
1091:Source\portable\Common/mpu_wrappers.c **** 		vPortResetPrivilege( xRunningPrivileged );
1092:Source\portable\Common/mpu_wrappers.c **** 
1093:Source\portable\Common/mpu_wrappers.c **** 		return xReturn;
1094:Source\portable\Common/mpu_wrappers.c **** 	}
1095:Source\portable\Common/mpu_wrappers.c **** #endif
1096:Source\portable\Common/mpu_wrappers.c **** /*-----------------------------------------------------------*/
1097:Source\portable\Common/mpu_wrappers.c **** 
1098:Source\portable\Common/mpu_wrappers.c **** #if( configUSE_TIMERS == 1 )
1099:Source\portable\Common/mpu_wrappers.c **** 	TickType_t MPU_xTimerGetExpiryTime( TimerHandle_t xTimer ) /* FREERTOS_SYSTEM_CALL */
1100:Source\portable\Common/mpu_wrappers.c **** 	{
1101:Source\portable\Common/mpu_wrappers.c **** 	TickType_t xReturn;
1102:Source\portable\Common/mpu_wrappers.c **** 	BaseType_t xRunningPrivileged = xPortRaisePrivilege();
1103:Source\portable\Common/mpu_wrappers.c **** 
1104:Source\portable\Common/mpu_wrappers.c **** 		xReturn = xTimerGetExpiryTime( xTimer );
1105:Source\portable\Common/mpu_wrappers.c **** 		vPortResetPrivilege( xRunningPrivileged );
1106:Source\portable\Common/mpu_wrappers.c **** 
1107:Source\portable\Common/mpu_wrappers.c **** 		return xReturn;
1108:Source\portable\Common/mpu_wrappers.c **** 	}
1109:Source\portable\Common/mpu_wrappers.c **** #endif
1110:Source\portable\Common/mpu_wrappers.c **** /*-----------------------------------------------------------*/
1111:Source\portable\Common/mpu_wrappers.c **** 
1112:Source\portable\Common/mpu_wrappers.c **** #if( configUSE_TIMERS == 1 )
1113:Source\portable\Common/mpu_wrappers.c **** 	BaseType_t MPU_xTimerGenericCommand( TimerHandle_t xTimer, const BaseType_t xCommandID, const Tick
1114:Source\portable\Common/mpu_wrappers.c **** 	{
1115:Source\portable\Common/mpu_wrappers.c **** 	BaseType_t xReturn;
1116:Source\portable\Common/mpu_wrappers.c **** 	BaseType_t xRunningPrivileged = xPortRaisePrivilege();
1117:Source\portable\Common/mpu_wrappers.c **** 
1118:Source\portable\Common/mpu_wrappers.c **** 		xReturn = xTimerGenericCommand( xTimer, xCommandID, xOptionalValue, pxHigherPriorityTaskWoken, xT
1119:Source\portable\Common/mpu_wrappers.c **** 		vPortResetPrivilege( xRunningPrivileged );
1120:Source\portable\Common/mpu_wrappers.c **** 
1121:Source\portable\Common/mpu_wrappers.c **** 		return xReturn;
1122:Source\portable\Common/mpu_wrappers.c **** 	}
1123:Source\portable\Common/mpu_wrappers.c **** #endif
1124:Source\portable\Common/mpu_wrappers.c **** /*-----------------------------------------------------------*/
1125:Source\portable\Common/mpu_wrappers.c **** 
1126:Source\portable\Common/mpu_wrappers.c **** #if( configSUPPORT_DYNAMIC_ALLOCATION == 1 )
1127:Source\portable\Common/mpu_wrappers.c **** 	EventGroupHandle_t MPU_xEventGroupCreate( void ) /* FREERTOS_SYSTEM_CALL */
1128:Source\portable\Common/mpu_wrappers.c **** 	{
 2111              		.loc 1 1128 0
 2112              		.cfi_startproc
 2113              		@ args = 0, pretend = 0, frame = 8
 2114              		@ frame_needed = 1, uses_anonymous_args = 0
 2115 0000 80B5     		push	{r7, lr}
 2116              		.cfi_def_cfa_offset 8
 2117              		.cfi_offset 7, -8
 2118              		.cfi_offset 14, -4
 2119 0002 82B0     		sub	sp, sp, #8
 2120              		.cfi_def_cfa_offset 16
 2121 0004 00AF     		add	r7, sp, #0
ARM GAS  C:\Users\mikke\AppData\Local\Temp\ccQCZNNL.s 			page 58


 2122              		.cfi_def_cfa_register 7
1129:Source\portable\Common/mpu_wrappers.c **** 	EventGroupHandle_t xReturn;
1130:Source\portable\Common/mpu_wrappers.c **** 	BaseType_t xRunningPrivileged = xPortRaisePrivilege();
 2123              		.loc 1 1130 0
 2124 0006 FFF7FEFF 		bl	xPortRaisePrivilege
 2125 000a 7860     		str	r0, [r7, #4]
1131:Source\portable\Common/mpu_wrappers.c **** 
1132:Source\portable\Common/mpu_wrappers.c **** 		xReturn = xEventGroupCreate();
 2126              		.loc 1 1132 0
 2127 000c FFF7FEFF 		bl	xEventGroupCreate
 2128 0010 3860     		str	r0, [r7]
1133:Source\portable\Common/mpu_wrappers.c **** 		vPortResetPrivilege( xRunningPrivileged );
 2129              		.loc 1 1133 0
 2130 0012 7868     		ldr	r0, [r7, #4]
 2131 0014 FFF7FEFF 		bl	vPortResetPrivilege
1134:Source\portable\Common/mpu_wrappers.c **** 
1135:Source\portable\Common/mpu_wrappers.c **** 		return xReturn;
 2132              		.loc 1 1135 0
 2133 0018 3B68     		ldr	r3, [r7]
1136:Source\portable\Common/mpu_wrappers.c **** 	}
 2134              		.loc 1 1136 0
 2135 001a 1846     		mov	r0, r3
 2136 001c 0837     		adds	r7, r7, #8
 2137              		.cfi_def_cfa_offset 8
 2138 001e BD46     		mov	sp, r7
 2139              		.cfi_def_cfa_register 13
 2140              		@ sp needed
 2141 0020 80BD     		pop	{r7, pc}
 2142              		.cfi_endproc
 2143              	.LFE115:
 2144              		.size	MPU_xEventGroupCreate, .-MPU_xEventGroupCreate
 2145 0022 00BF     		.section	.text.MPU_xEventGroupWaitBits,"ax",%progbits
 2146              		.align	2
 2147              		.global	MPU_xEventGroupWaitBits
 2148              		.thumb
 2149              		.thumb_func
 2150              		.type	MPU_xEventGroupWaitBits, %function
 2151              	MPU_xEventGroupWaitBits:
 2152              	.LFB116:
1137:Source\portable\Common/mpu_wrappers.c **** #endif
1138:Source\portable\Common/mpu_wrappers.c **** /*-----------------------------------------------------------*/
1139:Source\portable\Common/mpu_wrappers.c **** 
1140:Source\portable\Common/mpu_wrappers.c **** #if( configSUPPORT_STATIC_ALLOCATION == 1 )
1141:Source\portable\Common/mpu_wrappers.c **** 	EventGroupHandle_t MPU_xEventGroupCreateStatic( StaticEventGroup_t *pxEventGroupBuffer ) /* FREERT
1142:Source\portable\Common/mpu_wrappers.c **** 	{
1143:Source\portable\Common/mpu_wrappers.c **** 	EventGroupHandle_t xReturn;
1144:Source\portable\Common/mpu_wrappers.c **** 	BaseType_t xRunningPrivileged = xPortRaisePrivilege();
1145:Source\portable\Common/mpu_wrappers.c **** 
1146:Source\portable\Common/mpu_wrappers.c **** 		xReturn = xEventGroupCreateStatic( pxEventGroupBuffer );
1147:Source\portable\Common/mpu_wrappers.c **** 		vPortResetPrivilege( xRunningPrivileged );
1148:Source\portable\Common/mpu_wrappers.c **** 
1149:Source\portable\Common/mpu_wrappers.c **** 		return xReturn;
1150:Source\portable\Common/mpu_wrappers.c **** 	}
1151:Source\portable\Common/mpu_wrappers.c **** #endif
1152:Source\portable\Common/mpu_wrappers.c **** /*-----------------------------------------------------------*/
1153:Source\portable\Common/mpu_wrappers.c **** 
1154:Source\portable\Common/mpu_wrappers.c **** EventBits_t MPU_xEventGroupWaitBits( EventGroupHandle_t xEventGroup, const EventBits_t uxBitsToWait
ARM GAS  C:\Users\mikke\AppData\Local\Temp\ccQCZNNL.s 			page 59


1155:Source\portable\Common/mpu_wrappers.c **** {
 2153              		.loc 1 1155 0
 2154              		.cfi_startproc
 2155              		@ args = 4, pretend = 0, frame = 24
 2156              		@ frame_needed = 1, uses_anonymous_args = 0
 2157 0000 80B5     		push	{r7, lr}
 2158              		.cfi_def_cfa_offset 8
 2159              		.cfi_offset 7, -8
 2160              		.cfi_offset 14, -4
 2161 0002 88B0     		sub	sp, sp, #32
 2162              		.cfi_def_cfa_offset 40
 2163 0004 02AF     		add	r7, sp, #8
 2164              		.cfi_def_cfa 7, 32
 2165 0006 F860     		str	r0, [r7, #12]
 2166 0008 B960     		str	r1, [r7, #8]
 2167 000a 7A60     		str	r2, [r7, #4]
 2168 000c 3B60     		str	r3, [r7]
1156:Source\portable\Common/mpu_wrappers.c **** EventBits_t xReturn;
1157:Source\portable\Common/mpu_wrappers.c **** BaseType_t xRunningPrivileged = xPortRaisePrivilege();
 2169              		.loc 1 1157 0
 2170 000e FFF7FEFF 		bl	xPortRaisePrivilege
 2171 0012 7861     		str	r0, [r7, #20]
1158:Source\portable\Common/mpu_wrappers.c **** 
1159:Source\portable\Common/mpu_wrappers.c **** 	xReturn = xEventGroupWaitBits( xEventGroup, uxBitsToWaitFor, xClearOnExit, xWaitForAllBits, xTicks
 2172              		.loc 1 1159 0
 2173 0014 3B6A     		ldr	r3, [r7, #32]
 2174 0016 0093     		str	r3, [sp]
 2175 0018 3B68     		ldr	r3, [r7]
 2176 001a 7A68     		ldr	r2, [r7, #4]
 2177 001c B968     		ldr	r1, [r7, #8]
 2178 001e F868     		ldr	r0, [r7, #12]
 2179 0020 FFF7FEFF 		bl	xEventGroupWaitBits
 2180 0024 3861     		str	r0, [r7, #16]
1160:Source\portable\Common/mpu_wrappers.c **** 	vPortResetPrivilege( xRunningPrivileged );
 2181              		.loc 1 1160 0
 2182 0026 7869     		ldr	r0, [r7, #20]
 2183 0028 FFF7FEFF 		bl	vPortResetPrivilege
1161:Source\portable\Common/mpu_wrappers.c **** 
1162:Source\portable\Common/mpu_wrappers.c **** 	return xReturn;
 2184              		.loc 1 1162 0
 2185 002c 3B69     		ldr	r3, [r7, #16]
1163:Source\portable\Common/mpu_wrappers.c **** }
 2186              		.loc 1 1163 0
 2187 002e 1846     		mov	r0, r3
 2188 0030 1837     		adds	r7, r7, #24
 2189              		.cfi_def_cfa_offset 8
 2190 0032 BD46     		mov	sp, r7
 2191              		.cfi_def_cfa_register 13
 2192              		@ sp needed
 2193 0034 80BD     		pop	{r7, pc}
 2194              		.cfi_endproc
 2195              	.LFE116:
 2196              		.size	MPU_xEventGroupWaitBits, .-MPU_xEventGroupWaitBits
 2197 0036 00BF     		.section	.text.MPU_xEventGroupClearBits,"ax",%progbits
 2198              		.align	2
 2199              		.global	MPU_xEventGroupClearBits
 2200              		.thumb
ARM GAS  C:\Users\mikke\AppData\Local\Temp\ccQCZNNL.s 			page 60


 2201              		.thumb_func
 2202              		.type	MPU_xEventGroupClearBits, %function
 2203              	MPU_xEventGroupClearBits:
 2204              	.LFB117:
1164:Source\portable\Common/mpu_wrappers.c **** /*-----------------------------------------------------------*/
1165:Source\portable\Common/mpu_wrappers.c **** 
1166:Source\portable\Common/mpu_wrappers.c **** EventBits_t MPU_xEventGroupClearBits( EventGroupHandle_t xEventGroup, const EventBits_t uxBitsToCle
1167:Source\portable\Common/mpu_wrappers.c **** {
 2205              		.loc 1 1167 0
 2206              		.cfi_startproc
 2207              		@ args = 0, pretend = 0, frame = 16
 2208              		@ frame_needed = 1, uses_anonymous_args = 0
 2209 0000 80B5     		push	{r7, lr}
 2210              		.cfi_def_cfa_offset 8
 2211              		.cfi_offset 7, -8
 2212              		.cfi_offset 14, -4
 2213 0002 84B0     		sub	sp, sp, #16
 2214              		.cfi_def_cfa_offset 24
 2215 0004 00AF     		add	r7, sp, #0
 2216              		.cfi_def_cfa_register 7
 2217 0006 7860     		str	r0, [r7, #4]
 2218 0008 3960     		str	r1, [r7]
1168:Source\portable\Common/mpu_wrappers.c **** EventBits_t xReturn;
1169:Source\portable\Common/mpu_wrappers.c **** BaseType_t xRunningPrivileged = xPortRaisePrivilege();
 2219              		.loc 1 1169 0
 2220 000a FFF7FEFF 		bl	xPortRaisePrivilege
 2221 000e F860     		str	r0, [r7, #12]
1170:Source\portable\Common/mpu_wrappers.c **** 
1171:Source\portable\Common/mpu_wrappers.c **** 	xReturn = xEventGroupClearBits( xEventGroup, uxBitsToClear );
 2222              		.loc 1 1171 0
 2223 0010 3968     		ldr	r1, [r7]
 2224 0012 7868     		ldr	r0, [r7, #4]
 2225 0014 FFF7FEFF 		bl	xEventGroupClearBits
 2226 0018 B860     		str	r0, [r7, #8]
1172:Source\portable\Common/mpu_wrappers.c **** 	vPortResetPrivilege( xRunningPrivileged );
 2227              		.loc 1 1172 0
 2228 001a F868     		ldr	r0, [r7, #12]
 2229 001c FFF7FEFF 		bl	vPortResetPrivilege
1173:Source\portable\Common/mpu_wrappers.c **** 
1174:Source\portable\Common/mpu_wrappers.c **** 	return xReturn;
 2230              		.loc 1 1174 0
 2231 0020 BB68     		ldr	r3, [r7, #8]
1175:Source\portable\Common/mpu_wrappers.c **** }
 2232              		.loc 1 1175 0
 2233 0022 1846     		mov	r0, r3
 2234 0024 1037     		adds	r7, r7, #16
 2235              		.cfi_def_cfa_offset 8
 2236 0026 BD46     		mov	sp, r7
 2237              		.cfi_def_cfa_register 13
 2238              		@ sp needed
 2239 0028 80BD     		pop	{r7, pc}
 2240              		.cfi_endproc
 2241              	.LFE117:
 2242              		.size	MPU_xEventGroupClearBits, .-MPU_xEventGroupClearBits
 2243              		.section	.text.MPU_xEventGroupSetBits,"ax",%progbits
 2244              		.align	2
 2245              		.global	MPU_xEventGroupSetBits
ARM GAS  C:\Users\mikke\AppData\Local\Temp\ccQCZNNL.s 			page 61


 2246              		.thumb
 2247              		.thumb_func
 2248              		.type	MPU_xEventGroupSetBits, %function
 2249              	MPU_xEventGroupSetBits:
 2250              	.LFB118:
1176:Source\portable\Common/mpu_wrappers.c **** /*-----------------------------------------------------------*/
1177:Source\portable\Common/mpu_wrappers.c **** 
1178:Source\portable\Common/mpu_wrappers.c **** EventBits_t MPU_xEventGroupSetBits( EventGroupHandle_t xEventGroup, const EventBits_t uxBitsToSet )
1179:Source\portable\Common/mpu_wrappers.c **** {
 2251              		.loc 1 1179 0
 2252              		.cfi_startproc
 2253              		@ args = 0, pretend = 0, frame = 16
 2254              		@ frame_needed = 1, uses_anonymous_args = 0
 2255 0000 80B5     		push	{r7, lr}
 2256              		.cfi_def_cfa_offset 8
 2257              		.cfi_offset 7, -8
 2258              		.cfi_offset 14, -4
 2259 0002 84B0     		sub	sp, sp, #16
 2260              		.cfi_def_cfa_offset 24
 2261 0004 00AF     		add	r7, sp, #0
 2262              		.cfi_def_cfa_register 7
 2263 0006 7860     		str	r0, [r7, #4]
 2264 0008 3960     		str	r1, [r7]
1180:Source\portable\Common/mpu_wrappers.c **** EventBits_t xReturn;
1181:Source\portable\Common/mpu_wrappers.c **** BaseType_t xRunningPrivileged = xPortRaisePrivilege();
 2265              		.loc 1 1181 0
 2266 000a FFF7FEFF 		bl	xPortRaisePrivilege
 2267 000e F860     		str	r0, [r7, #12]
1182:Source\portable\Common/mpu_wrappers.c **** 
1183:Source\portable\Common/mpu_wrappers.c **** 	xReturn = xEventGroupSetBits( xEventGroup, uxBitsToSet );
 2268              		.loc 1 1183 0
 2269 0010 3968     		ldr	r1, [r7]
 2270 0012 7868     		ldr	r0, [r7, #4]
 2271 0014 FFF7FEFF 		bl	xEventGroupSetBits
 2272 0018 B860     		str	r0, [r7, #8]
1184:Source\portable\Common/mpu_wrappers.c **** 	vPortResetPrivilege( xRunningPrivileged );
 2273              		.loc 1 1184 0
 2274 001a F868     		ldr	r0, [r7, #12]
 2275 001c FFF7FEFF 		bl	vPortResetPrivilege
1185:Source\portable\Common/mpu_wrappers.c **** 
1186:Source\portable\Common/mpu_wrappers.c **** 	return xReturn;
 2276              		.loc 1 1186 0
 2277 0020 BB68     		ldr	r3, [r7, #8]
1187:Source\portable\Common/mpu_wrappers.c **** }
 2278              		.loc 1 1187 0
 2279 0022 1846     		mov	r0, r3
 2280 0024 1037     		adds	r7, r7, #16
 2281              		.cfi_def_cfa_offset 8
 2282 0026 BD46     		mov	sp, r7
 2283              		.cfi_def_cfa_register 13
 2284              		@ sp needed
 2285 0028 80BD     		pop	{r7, pc}
 2286              		.cfi_endproc
 2287              	.LFE118:
 2288              		.size	MPU_xEventGroupSetBits, .-MPU_xEventGroupSetBits
 2289              		.section	.text.MPU_xEventGroupSync,"ax",%progbits
 2290              		.align	2
ARM GAS  C:\Users\mikke\AppData\Local\Temp\ccQCZNNL.s 			page 62


 2291              		.global	MPU_xEventGroupSync
 2292              		.thumb
 2293              		.thumb_func
 2294              		.type	MPU_xEventGroupSync, %function
 2295              	MPU_xEventGroupSync:
 2296              	.LFB119:
1188:Source\portable\Common/mpu_wrappers.c **** /*-----------------------------------------------------------*/
1189:Source\portable\Common/mpu_wrappers.c **** 
1190:Source\portable\Common/mpu_wrappers.c **** EventBits_t MPU_xEventGroupSync( EventGroupHandle_t xEventGroup, const EventBits_t uxBitsToSet, con
1191:Source\portable\Common/mpu_wrappers.c **** {
 2297              		.loc 1 1191 0
 2298              		.cfi_startproc
 2299              		@ args = 0, pretend = 0, frame = 24
 2300              		@ frame_needed = 1, uses_anonymous_args = 0
 2301 0000 80B5     		push	{r7, lr}
 2302              		.cfi_def_cfa_offset 8
 2303              		.cfi_offset 7, -8
 2304              		.cfi_offset 14, -4
 2305 0002 86B0     		sub	sp, sp, #24
 2306              		.cfi_def_cfa_offset 32
 2307 0004 00AF     		add	r7, sp, #0
 2308              		.cfi_def_cfa_register 7
 2309 0006 F860     		str	r0, [r7, #12]
 2310 0008 B960     		str	r1, [r7, #8]
 2311 000a 7A60     		str	r2, [r7, #4]
 2312 000c 3B60     		str	r3, [r7]
1192:Source\portable\Common/mpu_wrappers.c **** EventBits_t xReturn;
1193:Source\portable\Common/mpu_wrappers.c **** BaseType_t xRunningPrivileged = xPortRaisePrivilege();
 2313              		.loc 1 1193 0
 2314 000e FFF7FEFF 		bl	xPortRaisePrivilege
 2315 0012 7861     		str	r0, [r7, #20]
1194:Source\portable\Common/mpu_wrappers.c **** 
1195:Source\portable\Common/mpu_wrappers.c **** 	xReturn = xEventGroupSync( xEventGroup, uxBitsToSet, uxBitsToWaitFor, xTicksToWait );
 2316              		.loc 1 1195 0
 2317 0014 3B68     		ldr	r3, [r7]
 2318 0016 7A68     		ldr	r2, [r7, #4]
 2319 0018 B968     		ldr	r1, [r7, #8]
 2320 001a F868     		ldr	r0, [r7, #12]
 2321 001c FFF7FEFF 		bl	xEventGroupSync
 2322 0020 3861     		str	r0, [r7, #16]
1196:Source\portable\Common/mpu_wrappers.c **** 	vPortResetPrivilege( xRunningPrivileged );
 2323              		.loc 1 1196 0
 2324 0022 7869     		ldr	r0, [r7, #20]
 2325 0024 FFF7FEFF 		bl	vPortResetPrivilege
1197:Source\portable\Common/mpu_wrappers.c **** 
1198:Source\portable\Common/mpu_wrappers.c **** 	return xReturn;
 2326              		.loc 1 1198 0
 2327 0028 3B69     		ldr	r3, [r7, #16]
1199:Source\portable\Common/mpu_wrappers.c **** }
 2328              		.loc 1 1199 0
 2329 002a 1846     		mov	r0, r3
 2330 002c 1837     		adds	r7, r7, #24
 2331              		.cfi_def_cfa_offset 8
 2332 002e BD46     		mov	sp, r7
 2333              		.cfi_def_cfa_register 13
 2334              		@ sp needed
 2335 0030 80BD     		pop	{r7, pc}
ARM GAS  C:\Users\mikke\AppData\Local\Temp\ccQCZNNL.s 			page 63


 2336              		.cfi_endproc
 2337              	.LFE119:
 2338              		.size	MPU_xEventGroupSync, .-MPU_xEventGroupSync
 2339 0032 00BF     		.section	.text.MPU_vEventGroupDelete,"ax",%progbits
 2340              		.align	2
 2341              		.global	MPU_vEventGroupDelete
 2342              		.thumb
 2343              		.thumb_func
 2344              		.type	MPU_vEventGroupDelete, %function
 2345              	MPU_vEventGroupDelete:
 2346              	.LFB120:
1200:Source\portable\Common/mpu_wrappers.c **** /*-----------------------------------------------------------*/
1201:Source\portable\Common/mpu_wrappers.c **** 
1202:Source\portable\Common/mpu_wrappers.c **** void MPU_vEventGroupDelete( EventGroupHandle_t xEventGroup ) /* FREERTOS_SYSTEM_CALL */
1203:Source\portable\Common/mpu_wrappers.c **** {
 2347              		.loc 1 1203 0
 2348              		.cfi_startproc
 2349              		@ args = 0, pretend = 0, frame = 16
 2350              		@ frame_needed = 1, uses_anonymous_args = 0
 2351 0000 80B5     		push	{r7, lr}
 2352              		.cfi_def_cfa_offset 8
 2353              		.cfi_offset 7, -8
 2354              		.cfi_offset 14, -4
 2355 0002 84B0     		sub	sp, sp, #16
 2356              		.cfi_def_cfa_offset 24
 2357 0004 00AF     		add	r7, sp, #0
 2358              		.cfi_def_cfa_register 7
 2359 0006 7860     		str	r0, [r7, #4]
1204:Source\portable\Common/mpu_wrappers.c **** BaseType_t xRunningPrivileged = xPortRaisePrivilege();
 2360              		.loc 1 1204 0
 2361 0008 FFF7FEFF 		bl	xPortRaisePrivilege
 2362 000c F860     		str	r0, [r7, #12]
1205:Source\portable\Common/mpu_wrappers.c **** 
1206:Source\portable\Common/mpu_wrappers.c **** 	vEventGroupDelete( xEventGroup );
 2363              		.loc 1 1206 0
 2364 000e 7868     		ldr	r0, [r7, #4]
 2365 0010 FFF7FEFF 		bl	vEventGroupDelete
1207:Source\portable\Common/mpu_wrappers.c **** 	vPortResetPrivilege( xRunningPrivileged );
 2366              		.loc 1 1207 0
 2367 0014 F868     		ldr	r0, [r7, #12]
 2368 0016 FFF7FEFF 		bl	vPortResetPrivilege
1208:Source\portable\Common/mpu_wrappers.c **** }
 2369              		.loc 1 1208 0
 2370 001a 00BF     		nop
 2371 001c 1037     		adds	r7, r7, #16
 2372              		.cfi_def_cfa_offset 8
 2373 001e BD46     		mov	sp, r7
 2374              		.cfi_def_cfa_register 13
 2375              		@ sp needed
 2376 0020 80BD     		pop	{r7, pc}
 2377              		.cfi_endproc
 2378              	.LFE120:
 2379              		.size	MPU_vEventGroupDelete, .-MPU_vEventGroupDelete
 2380 0022 00BF     		.section	.text.MPU_xStreamBufferSend,"ax",%progbits
 2381              		.align	2
 2382              		.global	MPU_xStreamBufferSend
 2383              		.thumb
ARM GAS  C:\Users\mikke\AppData\Local\Temp\ccQCZNNL.s 			page 64


 2384              		.thumb_func
 2385              		.type	MPU_xStreamBufferSend, %function
 2386              	MPU_xStreamBufferSend:
 2387              	.LFB121:
1209:Source\portable\Common/mpu_wrappers.c **** /*-----------------------------------------------------------*/
1210:Source\portable\Common/mpu_wrappers.c **** 
1211:Source\portable\Common/mpu_wrappers.c **** size_t MPU_xStreamBufferSend( StreamBufferHandle_t xStreamBuffer, const void *pvTxData, size_t xDat
1212:Source\portable\Common/mpu_wrappers.c **** {
 2388              		.loc 1 1212 0
 2389              		.cfi_startproc
 2390              		@ args = 0, pretend = 0, frame = 24
 2391              		@ frame_needed = 1, uses_anonymous_args = 0
 2392 0000 80B5     		push	{r7, lr}
 2393              		.cfi_def_cfa_offset 8
 2394              		.cfi_offset 7, -8
 2395              		.cfi_offset 14, -4
 2396 0002 86B0     		sub	sp, sp, #24
 2397              		.cfi_def_cfa_offset 32
 2398 0004 00AF     		add	r7, sp, #0
 2399              		.cfi_def_cfa_register 7
 2400 0006 F860     		str	r0, [r7, #12]
 2401 0008 B960     		str	r1, [r7, #8]
 2402 000a 7A60     		str	r2, [r7, #4]
 2403 000c 3B60     		str	r3, [r7]
1213:Source\portable\Common/mpu_wrappers.c **** size_t xReturn;
1214:Source\portable\Common/mpu_wrappers.c **** BaseType_t xRunningPrivileged = xPortRaisePrivilege();
 2404              		.loc 1 1214 0
 2405 000e FFF7FEFF 		bl	xPortRaisePrivilege
 2406 0012 7861     		str	r0, [r7, #20]
1215:Source\portable\Common/mpu_wrappers.c **** 
1216:Source\portable\Common/mpu_wrappers.c **** 	xReturn = xStreamBufferSend( xStreamBuffer, pvTxData, xDataLengthBytes, xTicksToWait );
 2407              		.loc 1 1216 0
 2408 0014 3B68     		ldr	r3, [r7]
 2409 0016 7A68     		ldr	r2, [r7, #4]
 2410 0018 B968     		ldr	r1, [r7, #8]
 2411 001a F868     		ldr	r0, [r7, #12]
 2412 001c FFF7FEFF 		bl	xStreamBufferSend
 2413 0020 3861     		str	r0, [r7, #16]
1217:Source\portable\Common/mpu_wrappers.c **** 	vPortResetPrivilege( xRunningPrivileged );
 2414              		.loc 1 1217 0
 2415 0022 7869     		ldr	r0, [r7, #20]
 2416 0024 FFF7FEFF 		bl	vPortResetPrivilege
1218:Source\portable\Common/mpu_wrappers.c **** 
1219:Source\portable\Common/mpu_wrappers.c **** 	return xReturn;
 2417              		.loc 1 1219 0
 2418 0028 3B69     		ldr	r3, [r7, #16]
1220:Source\portable\Common/mpu_wrappers.c **** }
 2419              		.loc 1 1220 0
 2420 002a 1846     		mov	r0, r3
 2421 002c 1837     		adds	r7, r7, #24
 2422              		.cfi_def_cfa_offset 8
 2423 002e BD46     		mov	sp, r7
 2424              		.cfi_def_cfa_register 13
 2425              		@ sp needed
 2426 0030 80BD     		pop	{r7, pc}
 2427              		.cfi_endproc
 2428              	.LFE121:
ARM GAS  C:\Users\mikke\AppData\Local\Temp\ccQCZNNL.s 			page 65


 2429              		.size	MPU_xStreamBufferSend, .-MPU_xStreamBufferSend
 2430 0032 00BF     		.section	.text.MPU_xStreamBufferNextMessageLengthBytes,"ax",%progbits
 2431              		.align	2
 2432              		.global	MPU_xStreamBufferNextMessageLengthBytes
 2433              		.thumb
 2434              		.thumb_func
 2435              		.type	MPU_xStreamBufferNextMessageLengthBytes, %function
 2436              	MPU_xStreamBufferNextMessageLengthBytes:
 2437              	.LFB122:
1221:Source\portable\Common/mpu_wrappers.c **** /*-----------------------------------------------------------*/
1222:Source\portable\Common/mpu_wrappers.c **** 
1223:Source\portable\Common/mpu_wrappers.c **** size_t MPU_xStreamBufferNextMessageLengthBytes( StreamBufferHandle_t xStreamBuffer ) /* FREERTOS_SY
1224:Source\portable\Common/mpu_wrappers.c **** {
 2438              		.loc 1 1224 0
 2439              		.cfi_startproc
 2440              		@ args = 0, pretend = 0, frame = 16
 2441              		@ frame_needed = 1, uses_anonymous_args = 0
 2442 0000 80B5     		push	{r7, lr}
 2443              		.cfi_def_cfa_offset 8
 2444              		.cfi_offset 7, -8
 2445              		.cfi_offset 14, -4
 2446 0002 84B0     		sub	sp, sp, #16
 2447              		.cfi_def_cfa_offset 24
 2448 0004 00AF     		add	r7, sp, #0
 2449              		.cfi_def_cfa_register 7
 2450 0006 7860     		str	r0, [r7, #4]
1225:Source\portable\Common/mpu_wrappers.c **** size_t xReturn;
1226:Source\portable\Common/mpu_wrappers.c **** BaseType_t xRunningPrivileged = xPortRaisePrivilege();
 2451              		.loc 1 1226 0
 2452 0008 FFF7FEFF 		bl	xPortRaisePrivilege
 2453 000c F860     		str	r0, [r7, #12]
1227:Source\portable\Common/mpu_wrappers.c **** 
1228:Source\portable\Common/mpu_wrappers.c **** 	xReturn = xStreamBufferNextMessageLengthBytes( xStreamBuffer );
 2454              		.loc 1 1228 0
 2455 000e 7868     		ldr	r0, [r7, #4]
 2456 0010 FFF7FEFF 		bl	xStreamBufferNextMessageLengthBytes
 2457 0014 B860     		str	r0, [r7, #8]
1229:Source\portable\Common/mpu_wrappers.c **** 	vPortResetPrivilege( xRunningPrivileged );
 2458              		.loc 1 1229 0
 2459 0016 F868     		ldr	r0, [r7, #12]
 2460 0018 FFF7FEFF 		bl	vPortResetPrivilege
1230:Source\portable\Common/mpu_wrappers.c **** 
1231:Source\portable\Common/mpu_wrappers.c **** 	return xReturn;
 2461              		.loc 1 1231 0
 2462 001c BB68     		ldr	r3, [r7, #8]
1232:Source\portable\Common/mpu_wrappers.c **** }
 2463              		.loc 1 1232 0
 2464 001e 1846     		mov	r0, r3
 2465 0020 1037     		adds	r7, r7, #16
 2466              		.cfi_def_cfa_offset 8
 2467 0022 BD46     		mov	sp, r7
 2468              		.cfi_def_cfa_register 13
 2469              		@ sp needed
 2470 0024 80BD     		pop	{r7, pc}
 2471              		.cfi_endproc
 2472              	.LFE122:
 2473              		.size	MPU_xStreamBufferNextMessageLengthBytes, .-MPU_xStreamBufferNextMessageLengthBytes
ARM GAS  C:\Users\mikke\AppData\Local\Temp\ccQCZNNL.s 			page 66


 2474 0026 00BF     		.section	.text.MPU_xStreamBufferReceive,"ax",%progbits
 2475              		.align	2
 2476              		.global	MPU_xStreamBufferReceive
 2477              		.thumb
 2478              		.thumb_func
 2479              		.type	MPU_xStreamBufferReceive, %function
 2480              	MPU_xStreamBufferReceive:
 2481              	.LFB123:
1233:Source\portable\Common/mpu_wrappers.c **** /*-----------------------------------------------------------*/
1234:Source\portable\Common/mpu_wrappers.c **** 
1235:Source\portable\Common/mpu_wrappers.c **** size_t MPU_xStreamBufferReceive( StreamBufferHandle_t xStreamBuffer, void *pvRxData, size_t xBuffer
1236:Source\portable\Common/mpu_wrappers.c **** {
 2482              		.loc 1 1236 0
 2483              		.cfi_startproc
 2484              		@ args = 0, pretend = 0, frame = 24
 2485              		@ frame_needed = 1, uses_anonymous_args = 0
 2486 0000 80B5     		push	{r7, lr}
 2487              		.cfi_def_cfa_offset 8
 2488              		.cfi_offset 7, -8
 2489              		.cfi_offset 14, -4
 2490 0002 86B0     		sub	sp, sp, #24
 2491              		.cfi_def_cfa_offset 32
 2492 0004 00AF     		add	r7, sp, #0
 2493              		.cfi_def_cfa_register 7
 2494 0006 F860     		str	r0, [r7, #12]
 2495 0008 B960     		str	r1, [r7, #8]
 2496 000a 7A60     		str	r2, [r7, #4]
 2497 000c 3B60     		str	r3, [r7]
1237:Source\portable\Common/mpu_wrappers.c **** size_t xReturn;
1238:Source\portable\Common/mpu_wrappers.c **** BaseType_t xRunningPrivileged = xPortRaisePrivilege();
 2498              		.loc 1 1238 0
 2499 000e FFF7FEFF 		bl	xPortRaisePrivilege
 2500 0012 7861     		str	r0, [r7, #20]
1239:Source\portable\Common/mpu_wrappers.c **** 
1240:Source\portable\Common/mpu_wrappers.c **** 	xReturn = xStreamBufferReceive( xStreamBuffer, pvRxData, xBufferLengthBytes, xTicksToWait );
 2501              		.loc 1 1240 0
 2502 0014 3B68     		ldr	r3, [r7]
 2503 0016 7A68     		ldr	r2, [r7, #4]
 2504 0018 B968     		ldr	r1, [r7, #8]
 2505 001a F868     		ldr	r0, [r7, #12]
 2506 001c FFF7FEFF 		bl	xStreamBufferReceive
 2507 0020 3861     		str	r0, [r7, #16]
1241:Source\portable\Common/mpu_wrappers.c **** 	vPortResetPrivilege( xRunningPrivileged );
 2508              		.loc 1 1241 0
 2509 0022 7869     		ldr	r0, [r7, #20]
 2510 0024 FFF7FEFF 		bl	vPortResetPrivilege
1242:Source\portable\Common/mpu_wrappers.c **** 
1243:Source\portable\Common/mpu_wrappers.c **** 	return xReturn;
 2511              		.loc 1 1243 0
 2512 0028 3B69     		ldr	r3, [r7, #16]
1244:Source\portable\Common/mpu_wrappers.c **** }
 2513              		.loc 1 1244 0
 2514 002a 1846     		mov	r0, r3
 2515 002c 1837     		adds	r7, r7, #24
 2516              		.cfi_def_cfa_offset 8
 2517 002e BD46     		mov	sp, r7
 2518              		.cfi_def_cfa_register 13
ARM GAS  C:\Users\mikke\AppData\Local\Temp\ccQCZNNL.s 			page 67


 2519              		@ sp needed
 2520 0030 80BD     		pop	{r7, pc}
 2521              		.cfi_endproc
 2522              	.LFE123:
 2523              		.size	MPU_xStreamBufferReceive, .-MPU_xStreamBufferReceive
 2524 0032 00BF     		.section	.text.MPU_vStreamBufferDelete,"ax",%progbits
 2525              		.align	2
 2526              		.global	MPU_vStreamBufferDelete
 2527              		.thumb
 2528              		.thumb_func
 2529              		.type	MPU_vStreamBufferDelete, %function
 2530              	MPU_vStreamBufferDelete:
 2531              	.LFB124:
1245:Source\portable\Common/mpu_wrappers.c **** /*-----------------------------------------------------------*/
1246:Source\portable\Common/mpu_wrappers.c **** 
1247:Source\portable\Common/mpu_wrappers.c **** void MPU_vStreamBufferDelete( StreamBufferHandle_t xStreamBuffer ) /* FREERTOS_SYSTEM_CALL */
1248:Source\portable\Common/mpu_wrappers.c **** {
 2532              		.loc 1 1248 0
 2533              		.cfi_startproc
 2534              		@ args = 0, pretend = 0, frame = 16
 2535              		@ frame_needed = 1, uses_anonymous_args = 0
 2536 0000 80B5     		push	{r7, lr}
 2537              		.cfi_def_cfa_offset 8
 2538              		.cfi_offset 7, -8
 2539              		.cfi_offset 14, -4
 2540 0002 84B0     		sub	sp, sp, #16
 2541              		.cfi_def_cfa_offset 24
 2542 0004 00AF     		add	r7, sp, #0
 2543              		.cfi_def_cfa_register 7
 2544 0006 7860     		str	r0, [r7, #4]
1249:Source\portable\Common/mpu_wrappers.c **** BaseType_t xRunningPrivileged = xPortRaisePrivilege();
 2545              		.loc 1 1249 0
 2546 0008 FFF7FEFF 		bl	xPortRaisePrivilege
 2547 000c F860     		str	r0, [r7, #12]
1250:Source\portable\Common/mpu_wrappers.c **** 
1251:Source\portable\Common/mpu_wrappers.c **** 	vStreamBufferDelete( xStreamBuffer );
 2548              		.loc 1 1251 0
 2549 000e 7868     		ldr	r0, [r7, #4]
 2550 0010 FFF7FEFF 		bl	vStreamBufferDelete
1252:Source\portable\Common/mpu_wrappers.c **** 	vPortResetPrivilege( xRunningPrivileged );
 2551              		.loc 1 1252 0
 2552 0014 F868     		ldr	r0, [r7, #12]
 2553 0016 FFF7FEFF 		bl	vPortResetPrivilege
1253:Source\portable\Common/mpu_wrappers.c **** }
 2554              		.loc 1 1253 0
 2555 001a 00BF     		nop
 2556 001c 1037     		adds	r7, r7, #16
 2557              		.cfi_def_cfa_offset 8
 2558 001e BD46     		mov	sp, r7
 2559              		.cfi_def_cfa_register 13
 2560              		@ sp needed
 2561 0020 80BD     		pop	{r7, pc}
 2562              		.cfi_endproc
 2563              	.LFE124:
 2564              		.size	MPU_vStreamBufferDelete, .-MPU_vStreamBufferDelete
 2565 0022 00BF     		.section	.text.MPU_xStreamBufferIsFull,"ax",%progbits
 2566              		.align	2
ARM GAS  C:\Users\mikke\AppData\Local\Temp\ccQCZNNL.s 			page 68


 2567              		.global	MPU_xStreamBufferIsFull
 2568              		.thumb
 2569              		.thumb_func
 2570              		.type	MPU_xStreamBufferIsFull, %function
 2571              	MPU_xStreamBufferIsFull:
 2572              	.LFB125:
1254:Source\portable\Common/mpu_wrappers.c **** /*-----------------------------------------------------------*/
1255:Source\portable\Common/mpu_wrappers.c **** 
1256:Source\portable\Common/mpu_wrappers.c **** BaseType_t MPU_xStreamBufferIsFull( StreamBufferHandle_t xStreamBuffer ) /* FREERTOS_SYSTEM_CALL */
1257:Source\portable\Common/mpu_wrappers.c **** {
 2573              		.loc 1 1257 0
 2574              		.cfi_startproc
 2575              		@ args = 0, pretend = 0, frame = 16
 2576              		@ frame_needed = 1, uses_anonymous_args = 0
 2577 0000 80B5     		push	{r7, lr}
 2578              		.cfi_def_cfa_offset 8
 2579              		.cfi_offset 7, -8
 2580              		.cfi_offset 14, -4
 2581 0002 84B0     		sub	sp, sp, #16
 2582              		.cfi_def_cfa_offset 24
 2583 0004 00AF     		add	r7, sp, #0
 2584              		.cfi_def_cfa_register 7
 2585 0006 7860     		str	r0, [r7, #4]
1258:Source\portable\Common/mpu_wrappers.c **** BaseType_t xReturn;
1259:Source\portable\Common/mpu_wrappers.c **** BaseType_t xRunningPrivileged = xPortRaisePrivilege();
 2586              		.loc 1 1259 0
 2587 0008 FFF7FEFF 		bl	xPortRaisePrivilege
 2588 000c F860     		str	r0, [r7, #12]
1260:Source\portable\Common/mpu_wrappers.c **** 
1261:Source\portable\Common/mpu_wrappers.c **** 	xReturn = xStreamBufferIsFull( xStreamBuffer );
 2589              		.loc 1 1261 0
 2590 000e 7868     		ldr	r0, [r7, #4]
 2591 0010 FFF7FEFF 		bl	xStreamBufferIsFull
 2592 0014 B860     		str	r0, [r7, #8]
1262:Source\portable\Common/mpu_wrappers.c **** 	vPortResetPrivilege( xRunningPrivileged );
 2593              		.loc 1 1262 0
 2594 0016 F868     		ldr	r0, [r7, #12]
 2595 0018 FFF7FEFF 		bl	vPortResetPrivilege
1263:Source\portable\Common/mpu_wrappers.c **** 
1264:Source\portable\Common/mpu_wrappers.c **** 	return xReturn;
 2596              		.loc 1 1264 0
 2597 001c BB68     		ldr	r3, [r7, #8]
1265:Source\portable\Common/mpu_wrappers.c **** }
 2598              		.loc 1 1265 0
 2599 001e 1846     		mov	r0, r3
 2600 0020 1037     		adds	r7, r7, #16
 2601              		.cfi_def_cfa_offset 8
 2602 0022 BD46     		mov	sp, r7
 2603              		.cfi_def_cfa_register 13
 2604              		@ sp needed
 2605 0024 80BD     		pop	{r7, pc}
 2606              		.cfi_endproc
 2607              	.LFE125:
 2608              		.size	MPU_xStreamBufferIsFull, .-MPU_xStreamBufferIsFull
 2609 0026 00BF     		.section	.text.MPU_xStreamBufferIsEmpty,"ax",%progbits
 2610              		.align	2
 2611              		.global	MPU_xStreamBufferIsEmpty
ARM GAS  C:\Users\mikke\AppData\Local\Temp\ccQCZNNL.s 			page 69


 2612              		.thumb
 2613              		.thumb_func
 2614              		.type	MPU_xStreamBufferIsEmpty, %function
 2615              	MPU_xStreamBufferIsEmpty:
 2616              	.LFB126:
1266:Source\portable\Common/mpu_wrappers.c **** /*-----------------------------------------------------------*/
1267:Source\portable\Common/mpu_wrappers.c **** 
1268:Source\portable\Common/mpu_wrappers.c **** BaseType_t MPU_xStreamBufferIsEmpty( StreamBufferHandle_t xStreamBuffer ) /* FREERTOS_SYSTEM_CALL *
1269:Source\portable\Common/mpu_wrappers.c **** {
 2617              		.loc 1 1269 0
 2618              		.cfi_startproc
 2619              		@ args = 0, pretend = 0, frame = 16
 2620              		@ frame_needed = 1, uses_anonymous_args = 0
 2621 0000 80B5     		push	{r7, lr}
 2622              		.cfi_def_cfa_offset 8
 2623              		.cfi_offset 7, -8
 2624              		.cfi_offset 14, -4
 2625 0002 84B0     		sub	sp, sp, #16
 2626              		.cfi_def_cfa_offset 24
 2627 0004 00AF     		add	r7, sp, #0
 2628              		.cfi_def_cfa_register 7
 2629 0006 7860     		str	r0, [r7, #4]
1270:Source\portable\Common/mpu_wrappers.c **** BaseType_t xReturn;
1271:Source\portable\Common/mpu_wrappers.c **** BaseType_t xRunningPrivileged = xPortRaisePrivilege();
 2630              		.loc 1 1271 0
 2631 0008 FFF7FEFF 		bl	xPortRaisePrivilege
 2632 000c F860     		str	r0, [r7, #12]
1272:Source\portable\Common/mpu_wrappers.c **** 
1273:Source\portable\Common/mpu_wrappers.c **** 	xReturn = xStreamBufferIsEmpty( xStreamBuffer );
 2633              		.loc 1 1273 0
 2634 000e 7868     		ldr	r0, [r7, #4]
 2635 0010 FFF7FEFF 		bl	xStreamBufferIsEmpty
 2636 0014 B860     		str	r0, [r7, #8]
1274:Source\portable\Common/mpu_wrappers.c **** 	vPortResetPrivilege( xRunningPrivileged );
 2637              		.loc 1 1274 0
 2638 0016 F868     		ldr	r0, [r7, #12]
 2639 0018 FFF7FEFF 		bl	vPortResetPrivilege
1275:Source\portable\Common/mpu_wrappers.c **** 
1276:Source\portable\Common/mpu_wrappers.c **** 	return xReturn;
 2640              		.loc 1 1276 0
 2641 001c BB68     		ldr	r3, [r7, #8]
1277:Source\portable\Common/mpu_wrappers.c **** }
 2642              		.loc 1 1277 0
 2643 001e 1846     		mov	r0, r3
 2644 0020 1037     		adds	r7, r7, #16
 2645              		.cfi_def_cfa_offset 8
 2646 0022 BD46     		mov	sp, r7
 2647              		.cfi_def_cfa_register 13
 2648              		@ sp needed
 2649 0024 80BD     		pop	{r7, pc}
 2650              		.cfi_endproc
 2651              	.LFE126:
 2652              		.size	MPU_xStreamBufferIsEmpty, .-MPU_xStreamBufferIsEmpty
 2653 0026 00BF     		.section	.text.MPU_xStreamBufferReset,"ax",%progbits
 2654              		.align	2
 2655              		.global	MPU_xStreamBufferReset
 2656              		.thumb
ARM GAS  C:\Users\mikke\AppData\Local\Temp\ccQCZNNL.s 			page 70


 2657              		.thumb_func
 2658              		.type	MPU_xStreamBufferReset, %function
 2659              	MPU_xStreamBufferReset:
 2660              	.LFB127:
1278:Source\portable\Common/mpu_wrappers.c **** /*-----------------------------------------------------------*/
1279:Source\portable\Common/mpu_wrappers.c **** 
1280:Source\portable\Common/mpu_wrappers.c **** BaseType_t MPU_xStreamBufferReset( StreamBufferHandle_t xStreamBuffer ) /* FREERTOS_SYSTEM_CALL */
1281:Source\portable\Common/mpu_wrappers.c **** {
 2661              		.loc 1 1281 0
 2662              		.cfi_startproc
 2663              		@ args = 0, pretend = 0, frame = 16
 2664              		@ frame_needed = 1, uses_anonymous_args = 0
 2665 0000 80B5     		push	{r7, lr}
 2666              		.cfi_def_cfa_offset 8
 2667              		.cfi_offset 7, -8
 2668              		.cfi_offset 14, -4
 2669 0002 84B0     		sub	sp, sp, #16
 2670              		.cfi_def_cfa_offset 24
 2671 0004 00AF     		add	r7, sp, #0
 2672              		.cfi_def_cfa_register 7
 2673 0006 7860     		str	r0, [r7, #4]
1282:Source\portable\Common/mpu_wrappers.c **** BaseType_t xReturn;
1283:Source\portable\Common/mpu_wrappers.c **** BaseType_t xRunningPrivileged = xPortRaisePrivilege();
 2674              		.loc 1 1283 0
 2675 0008 FFF7FEFF 		bl	xPortRaisePrivilege
 2676 000c F860     		str	r0, [r7, #12]
1284:Source\portable\Common/mpu_wrappers.c **** 
1285:Source\portable\Common/mpu_wrappers.c **** 	xReturn = xStreamBufferReset( xStreamBuffer );
 2677              		.loc 1 1285 0
 2678 000e 7868     		ldr	r0, [r7, #4]
 2679 0010 FFF7FEFF 		bl	xStreamBufferReset
 2680 0014 B860     		str	r0, [r7, #8]
1286:Source\portable\Common/mpu_wrappers.c **** 	vPortResetPrivilege( xRunningPrivileged );
 2681              		.loc 1 1286 0
 2682 0016 F868     		ldr	r0, [r7, #12]
 2683 0018 FFF7FEFF 		bl	vPortResetPrivilege
1287:Source\portable\Common/mpu_wrappers.c **** 
1288:Source\portable\Common/mpu_wrappers.c **** 	return xReturn;
 2684              		.loc 1 1288 0
 2685 001c BB68     		ldr	r3, [r7, #8]
1289:Source\portable\Common/mpu_wrappers.c **** }
 2686              		.loc 1 1289 0
 2687 001e 1846     		mov	r0, r3
 2688 0020 1037     		adds	r7, r7, #16
 2689              		.cfi_def_cfa_offset 8
 2690 0022 BD46     		mov	sp, r7
 2691              		.cfi_def_cfa_register 13
 2692              		@ sp needed
 2693 0024 80BD     		pop	{r7, pc}
 2694              		.cfi_endproc
 2695              	.LFE127:
 2696              		.size	MPU_xStreamBufferReset, .-MPU_xStreamBufferReset
 2697 0026 00BF     		.section	.text.MPU_xStreamBufferSpacesAvailable,"ax",%progbits
 2698              		.align	2
 2699              		.global	MPU_xStreamBufferSpacesAvailable
 2700              		.thumb
 2701              		.thumb_func
ARM GAS  C:\Users\mikke\AppData\Local\Temp\ccQCZNNL.s 			page 71


 2702              		.type	MPU_xStreamBufferSpacesAvailable, %function
 2703              	MPU_xStreamBufferSpacesAvailable:
 2704              	.LFB128:
1290:Source\portable\Common/mpu_wrappers.c **** /*-----------------------------------------------------------*/
1291:Source\portable\Common/mpu_wrappers.c **** 
1292:Source\portable\Common/mpu_wrappers.c **** size_t MPU_xStreamBufferSpacesAvailable( StreamBufferHandle_t xStreamBuffer ) /* FREERTOS_SYSTEM_CA
1293:Source\portable\Common/mpu_wrappers.c **** {
 2705              		.loc 1 1293 0
 2706              		.cfi_startproc
 2707              		@ args = 0, pretend = 0, frame = 16
 2708              		@ frame_needed = 1, uses_anonymous_args = 0
 2709 0000 80B5     		push	{r7, lr}
 2710              		.cfi_def_cfa_offset 8
 2711              		.cfi_offset 7, -8
 2712              		.cfi_offset 14, -4
 2713 0002 84B0     		sub	sp, sp, #16
 2714              		.cfi_def_cfa_offset 24
 2715 0004 00AF     		add	r7, sp, #0
 2716              		.cfi_def_cfa_register 7
 2717 0006 7860     		str	r0, [r7, #4]
1294:Source\portable\Common/mpu_wrappers.c **** size_t xReturn;
1295:Source\portable\Common/mpu_wrappers.c **** BaseType_t xRunningPrivileged = xPortRaisePrivilege();
 2718              		.loc 1 1295 0
 2719 0008 FFF7FEFF 		bl	xPortRaisePrivilege
 2720 000c F860     		str	r0, [r7, #12]
1296:Source\portable\Common/mpu_wrappers.c **** 
1297:Source\portable\Common/mpu_wrappers.c **** 	xReturn = xStreamBufferSpacesAvailable( xStreamBuffer );
 2721              		.loc 1 1297 0
 2722 000e 7868     		ldr	r0, [r7, #4]
 2723 0010 FFF7FEFF 		bl	xStreamBufferSpacesAvailable
 2724 0014 B860     		str	r0, [r7, #8]
1298:Source\portable\Common/mpu_wrappers.c **** 	vPortResetPrivilege( xRunningPrivileged );
 2725              		.loc 1 1298 0
 2726 0016 F868     		ldr	r0, [r7, #12]
 2727 0018 FFF7FEFF 		bl	vPortResetPrivilege
1299:Source\portable\Common/mpu_wrappers.c **** 
1300:Source\portable\Common/mpu_wrappers.c **** 	return xReturn;
 2728              		.loc 1 1300 0
 2729 001c BB68     		ldr	r3, [r7, #8]
1301:Source\portable\Common/mpu_wrappers.c **** }
 2730              		.loc 1 1301 0
 2731 001e 1846     		mov	r0, r3
 2732 0020 1037     		adds	r7, r7, #16
 2733              		.cfi_def_cfa_offset 8
 2734 0022 BD46     		mov	sp, r7
 2735              		.cfi_def_cfa_register 13
 2736              		@ sp needed
 2737 0024 80BD     		pop	{r7, pc}
 2738              		.cfi_endproc
 2739              	.LFE128:
 2740              		.size	MPU_xStreamBufferSpacesAvailable, .-MPU_xStreamBufferSpacesAvailable
 2741 0026 00BF     		.section	.text.MPU_xStreamBufferBytesAvailable,"ax",%progbits
 2742              		.align	2
 2743              		.global	MPU_xStreamBufferBytesAvailable
 2744              		.thumb
 2745              		.thumb_func
 2746              		.type	MPU_xStreamBufferBytesAvailable, %function
ARM GAS  C:\Users\mikke\AppData\Local\Temp\ccQCZNNL.s 			page 72


 2747              	MPU_xStreamBufferBytesAvailable:
 2748              	.LFB129:
1302:Source\portable\Common/mpu_wrappers.c **** /*-----------------------------------------------------------*/
1303:Source\portable\Common/mpu_wrappers.c **** 
1304:Source\portable\Common/mpu_wrappers.c **** size_t MPU_xStreamBufferBytesAvailable( StreamBufferHandle_t xStreamBuffer ) /* FREERTOS_SYSTEM_CAL
1305:Source\portable\Common/mpu_wrappers.c **** {
 2749              		.loc 1 1305 0
 2750              		.cfi_startproc
 2751              		@ args = 0, pretend = 0, frame = 16
 2752              		@ frame_needed = 1, uses_anonymous_args = 0
 2753 0000 80B5     		push	{r7, lr}
 2754              		.cfi_def_cfa_offset 8
 2755              		.cfi_offset 7, -8
 2756              		.cfi_offset 14, -4
 2757 0002 84B0     		sub	sp, sp, #16
 2758              		.cfi_def_cfa_offset 24
 2759 0004 00AF     		add	r7, sp, #0
 2760              		.cfi_def_cfa_register 7
 2761 0006 7860     		str	r0, [r7, #4]
1306:Source\portable\Common/mpu_wrappers.c **** size_t xReturn;
1307:Source\portable\Common/mpu_wrappers.c **** BaseType_t xRunningPrivileged = xPortRaisePrivilege();
 2762              		.loc 1 1307 0
 2763 0008 FFF7FEFF 		bl	xPortRaisePrivilege
 2764 000c F860     		str	r0, [r7, #12]
1308:Source\portable\Common/mpu_wrappers.c **** 
1309:Source\portable\Common/mpu_wrappers.c **** 	xReturn = xStreamBufferBytesAvailable( xStreamBuffer );
 2765              		.loc 1 1309 0
 2766 000e 7868     		ldr	r0, [r7, #4]
 2767 0010 FFF7FEFF 		bl	xStreamBufferBytesAvailable
 2768 0014 B860     		str	r0, [r7, #8]
1310:Source\portable\Common/mpu_wrappers.c **** 	vPortResetPrivilege( xRunningPrivileged );
 2769              		.loc 1 1310 0
 2770 0016 F868     		ldr	r0, [r7, #12]
 2771 0018 FFF7FEFF 		bl	vPortResetPrivilege
1311:Source\portable\Common/mpu_wrappers.c **** 
1312:Source\portable\Common/mpu_wrappers.c **** 	return xReturn;
 2772              		.loc 1 1312 0
 2773 001c BB68     		ldr	r3, [r7, #8]
1313:Source\portable\Common/mpu_wrappers.c **** }
 2774              		.loc 1 1313 0
 2775 001e 1846     		mov	r0, r3
 2776 0020 1037     		adds	r7, r7, #16
 2777              		.cfi_def_cfa_offset 8
 2778 0022 BD46     		mov	sp, r7
 2779              		.cfi_def_cfa_register 13
 2780              		@ sp needed
 2781 0024 80BD     		pop	{r7, pc}
 2782              		.cfi_endproc
 2783              	.LFE129:
 2784              		.size	MPU_xStreamBufferBytesAvailable, .-MPU_xStreamBufferBytesAvailable
 2785 0026 00BF     		.section	.text.MPU_xStreamBufferSetTriggerLevel,"ax",%progbits
 2786              		.align	2
 2787              		.global	MPU_xStreamBufferSetTriggerLevel
 2788              		.thumb
 2789              		.thumb_func
 2790              		.type	MPU_xStreamBufferSetTriggerLevel, %function
 2791              	MPU_xStreamBufferSetTriggerLevel:
ARM GAS  C:\Users\mikke\AppData\Local\Temp\ccQCZNNL.s 			page 73


 2792              	.LFB130:
1314:Source\portable\Common/mpu_wrappers.c **** /*-----------------------------------------------------------*/
1315:Source\portable\Common/mpu_wrappers.c **** 
1316:Source\portable\Common/mpu_wrappers.c **** BaseType_t MPU_xStreamBufferSetTriggerLevel( StreamBufferHandle_t xStreamBuffer, size_t xTriggerLev
1317:Source\portable\Common/mpu_wrappers.c **** {
 2793              		.loc 1 1317 0
 2794              		.cfi_startproc
 2795              		@ args = 0, pretend = 0, frame = 16
 2796              		@ frame_needed = 1, uses_anonymous_args = 0
 2797 0000 80B5     		push	{r7, lr}
 2798              		.cfi_def_cfa_offset 8
 2799              		.cfi_offset 7, -8
 2800              		.cfi_offset 14, -4
 2801 0002 84B0     		sub	sp, sp, #16
 2802              		.cfi_def_cfa_offset 24
 2803 0004 00AF     		add	r7, sp, #0
 2804              		.cfi_def_cfa_register 7
 2805 0006 7860     		str	r0, [r7, #4]
 2806 0008 3960     		str	r1, [r7]
1318:Source\portable\Common/mpu_wrappers.c **** BaseType_t xReturn;
1319:Source\portable\Common/mpu_wrappers.c **** BaseType_t xRunningPrivileged = xPortRaisePrivilege();
 2807              		.loc 1 1319 0
 2808 000a FFF7FEFF 		bl	xPortRaisePrivilege
 2809 000e F860     		str	r0, [r7, #12]
1320:Source\portable\Common/mpu_wrappers.c **** 
1321:Source\portable\Common/mpu_wrappers.c **** 	xReturn = xStreamBufferSetTriggerLevel( xStreamBuffer, xTriggerLevel );
 2810              		.loc 1 1321 0
 2811 0010 3968     		ldr	r1, [r7]
 2812 0012 7868     		ldr	r0, [r7, #4]
 2813 0014 FFF7FEFF 		bl	xStreamBufferSetTriggerLevel
 2814 0018 B860     		str	r0, [r7, #8]
1322:Source\portable\Common/mpu_wrappers.c **** 	vPortResetPrivilege( xRunningPrivileged );
 2815              		.loc 1 1322 0
 2816 001a F868     		ldr	r0, [r7, #12]
 2817 001c FFF7FEFF 		bl	vPortResetPrivilege
1323:Source\portable\Common/mpu_wrappers.c **** 
1324:Source\portable\Common/mpu_wrappers.c **** 	return xReturn;
 2818              		.loc 1 1324 0
 2819 0020 BB68     		ldr	r3, [r7, #8]
1325:Source\portable\Common/mpu_wrappers.c **** }
 2820              		.loc 1 1325 0
 2821 0022 1846     		mov	r0, r3
 2822 0024 1037     		adds	r7, r7, #16
 2823              		.cfi_def_cfa_offset 8
 2824 0026 BD46     		mov	sp, r7
 2825              		.cfi_def_cfa_register 13
 2826              		@ sp needed
 2827 0028 80BD     		pop	{r7, pc}
 2828              		.cfi_endproc
 2829              	.LFE130:
 2830              		.size	MPU_xStreamBufferSetTriggerLevel, .-MPU_xStreamBufferSetTriggerLevel
 2831              		.section	.text.MPU_xStreamBufferGenericCreate,"ax",%progbits
 2832              		.align	2
 2833              		.global	MPU_xStreamBufferGenericCreate
 2834              		.thumb
 2835              		.thumb_func
 2836              		.type	MPU_xStreamBufferGenericCreate, %function
ARM GAS  C:\Users\mikke\AppData\Local\Temp\ccQCZNNL.s 			page 74


 2837              	MPU_xStreamBufferGenericCreate:
 2838              	.LFB131:
1326:Source\portable\Common/mpu_wrappers.c **** /*-----------------------------------------------------------*/
1327:Source\portable\Common/mpu_wrappers.c **** 
1328:Source\portable\Common/mpu_wrappers.c **** #if( configSUPPORT_DYNAMIC_ALLOCATION == 1 )
1329:Source\portable\Common/mpu_wrappers.c **** 	StreamBufferHandle_t MPU_xStreamBufferGenericCreate( size_t xBufferSizeBytes, size_t xTriggerLevel
1330:Source\portable\Common/mpu_wrappers.c **** 	{
 2839              		.loc 1 1330 0
 2840              		.cfi_startproc
 2841              		@ args = 0, pretend = 0, frame = 24
 2842              		@ frame_needed = 1, uses_anonymous_args = 0
 2843 0000 80B5     		push	{r7, lr}
 2844              		.cfi_def_cfa_offset 8
 2845              		.cfi_offset 7, -8
 2846              		.cfi_offset 14, -4
 2847 0002 86B0     		sub	sp, sp, #24
 2848              		.cfi_def_cfa_offset 32
 2849 0004 00AF     		add	r7, sp, #0
 2850              		.cfi_def_cfa_register 7
 2851 0006 F860     		str	r0, [r7, #12]
 2852 0008 B960     		str	r1, [r7, #8]
 2853 000a 7A60     		str	r2, [r7, #4]
1331:Source\portable\Common/mpu_wrappers.c **** 	StreamBufferHandle_t xReturn;
1332:Source\portable\Common/mpu_wrappers.c **** 	BaseType_t xRunningPrivileged = xPortRaisePrivilege();
 2854              		.loc 1 1332 0
 2855 000c FFF7FEFF 		bl	xPortRaisePrivilege
 2856 0010 7861     		str	r0, [r7, #20]
1333:Source\portable\Common/mpu_wrappers.c **** 
1334:Source\portable\Common/mpu_wrappers.c **** 		xReturn = xStreamBufferGenericCreate( xBufferSizeBytes, xTriggerLevelBytes, xIsMessageBuffer );
 2857              		.loc 1 1334 0
 2858 0012 7A68     		ldr	r2, [r7, #4]
 2859 0014 B968     		ldr	r1, [r7, #8]
 2860 0016 F868     		ldr	r0, [r7, #12]
 2861 0018 FFF7FEFF 		bl	xStreamBufferGenericCreate
 2862 001c 3861     		str	r0, [r7, #16]
1335:Source\portable\Common/mpu_wrappers.c **** 		vPortResetPrivilege( xRunningPrivileged );
 2863              		.loc 1 1335 0
 2864 001e 7869     		ldr	r0, [r7, #20]
 2865 0020 FFF7FEFF 		bl	vPortResetPrivilege
1336:Source\portable\Common/mpu_wrappers.c **** 
1337:Source\portable\Common/mpu_wrappers.c **** 		return xReturn;
 2866              		.loc 1 1337 0
 2867 0024 3B69     		ldr	r3, [r7, #16]
1338:Source\portable\Common/mpu_wrappers.c **** 	}
 2868              		.loc 1 1338 0
 2869 0026 1846     		mov	r0, r3
 2870 0028 1837     		adds	r7, r7, #24
 2871              		.cfi_def_cfa_offset 8
 2872 002a BD46     		mov	sp, r7
 2873              		.cfi_def_cfa_register 13
 2874              		@ sp needed
 2875 002c 80BD     		pop	{r7, pc}
 2876              		.cfi_endproc
 2877              	.LFE131:
 2878              		.size	MPU_xStreamBufferGenericCreate, .-MPU_xStreamBufferGenericCreate
 2879 002e 00BF     		.text
 2880              	.Letext0:
ARM GAS  C:\Users\mikke\AppData\Local\Temp\ccQCZNNL.s 			page 75


 2881              		.file 2 "c:\\program files (x86)\\cypress\\psoc creator\\4.3\\psoc creator\\import\\gnu\\arm\\5.4.
 2882              		.file 3 "c:\\program files (x86)\\cypress\\psoc creator\\4.3\\psoc creator\\import\\gnu\\arm\\5.4.
 2883              		.file 4 "c:\\program files (x86)\\cypress\\psoc creator\\4.3\\psoc creator\\import\\gnu\\arm\\5.4.
 2884              		.file 5 ".\\Source\\include/projdefs.h"
 2885              		.file 6 ".\\Source\\portable\\GCC\\ARM_CM3/portmacro.h"
 2886              		.file 7 ".\\Source\\include/task.h"
 2887              		.file 8 ".\\Source\\include/queue.h"
 2888              		.file 9 ".\\Source\\include/event_groups.h"
 2889              		.file 10 ".\\Source\\include/stream_buffer.h"
 2890              		.file 11 "Generated_Source\\PSoC5/core_cm3.h"