ARM GAS  C:\Users\Gusta\AppData\Local\Temp\ccuUMYV0.s 			page 1


   1              		.syntax unified
   2              		.cpu cortex-m3
   3              		.fpu softvfp
   4              		.eabi_attribute 20, 1
   5              		.eabi_attribute 21, 1
   6              		.eabi_attribute 23, 3
   7              		.eabi_attribute 24, 1
   8              		.eabi_attribute 25, 1
   9              		.eabi_attribute 26, 1
  10              		.eabi_attribute 30, 6
  11              		.eabi_attribute 34, 1
  12              		.eabi_attribute 18, 4
  13              		.thumb
  14              		.syntax unified
  15              		.file	"Nutrients.c"
  16              		.text
  17              	.Ltext0:
  18              		.cfi_sections	.debug_frame
  19              		.comm	DS18x8_Sensor,32,4
  20              		.comm	DS18x8_DataReady,1,1
  21              		.global	iSizeOfNutrients
  22              		.section	.rodata
  23              		.align	2
  24              		.type	iSizeOfNutrients, %object
  25              		.size	iSizeOfNutrients, 4
  26              	iSizeOfNutrients:
  27 0000 28000000 		.word	40
  28              		.comm	currentNutrients,320,4
  29              		.global	iPHIndex
  30              		.bss
  31              		.align	2
  32              		.type	iPHIndex, %object
  33              		.size	iPHIndex, 4
  34              	iPHIndex:
  35 0000 00000000 		.space	4
  36              		.global	iECIndex
  37              		.align	2
  38              		.type	iECIndex, %object
  39              		.size	iECIndex, 4
  40              	iECIndex:
  41 0004 00000000 		.space	4
  42              		.global	iWateTempIndex
  43              		.align	2
  44              		.type	iWateTempIndex, %object
  45              		.size	iWateTempIndex, 4
  46              	iWateTempIndex:
  47 0008 00000000 		.space	4
  48              		.global	fNeutralVoltage
  49              		.section	.rodata
  50              		.align	2
  51              		.type	fNeutralVoltage, %object
  52              		.size	fNeutralVoltage, 4
  53              	fNeutralVoltage:
  54 0004 0080BB44 		.word	1153138688
  55              		.global	fAcidVoltage
  56              		.align	2
  57              		.type	fAcidVoltage, %object
ARM GAS  C:\Users\Gusta\AppData\Local\Temp\ccuUMYV0.s 			page 2


  58              		.size	fAcidVoltage, 4
  59              	fAcidVoltage:
  60 0008 140EFE44 		.word	1157500436
  61              		.comm	xQueueNutrientPump,12,4
  62              		.comm	xQueuePHValue,4,4
  63              		.comm	xQueueWaterTemp,4,4
  64              		.comm	xQueueFlowWater,4,4
  65              		.global	MAX_SPEED
  66              		.type	MAX_SPEED, %object
  67              		.size	MAX_SPEED, 1
  68              	MAX_SPEED:
  69 000c 06       		.byte	6
  70              		.global	STOP_SPEED
  71              		.type	STOP_SPEED, %object
  72              		.size	STOP_SPEED, 1
  73              	STOP_SPEED:
  74 000d 13       		.byte	19
  75 000e 0000     		.align	2
  76              		.type	pcTextForNutrientPump, %object
  77              		.size	pcTextForNutrientPump, 3
  78              	pcTextForNutrientPump:
  79 0010 00       		.byte	0
  80 0011 01       		.byte	1
  81 0012 02       		.byte	2
  82 0013 00       		.align	2
  83              	.LC0:
  84 0014 50756D70 		.ascii	"Pump 1\000"
  84      203100
  85 001b 00       		.align	2
  86              	.LC1:
  87 001c 50756D70 		.ascii	"Pump 2\000"
  87      203200
  88 0023 00       		.align	2
  89              	.LC2:
  90 0024 504800   		.ascii	"PH\000"
  91 0027 00       		.align	2
  92              	.LC3:
  93 0028 56616E64 		.ascii	"VandTemp\000"
  93      54656D70 
  93      00
  94 0031 000000   		.align	2
  95              	.LC4:
  96 0034 57617465 		.ascii	"WaterFlow\000"
  96      72466C6F 
  96      7700
  97              		.section	.text.vNutrientsInit,"ax",%progbits
  98              		.align	2
  99              		.global	vNutrientsInit
 100              		.thumb
 101              		.thumb_func
 102              		.type	vNutrientsInit, %function
 103              	vNutrientsInit:
 104              	.LFB68:
 105              		.file 1 "Nutrients.c"
   1:Nutrients.c   **** /* ========================================
   2:Nutrients.c   ****  *
   3:Nutrients.c   ****  * Copyright YOUR COMPANY, THE YEAR
ARM GAS  C:\Users\Gusta\AppData\Local\Temp\ccuUMYV0.s 			page 3


   4:Nutrients.c   ****  * All Rights Reserved
   5:Nutrients.c   ****  * UNPUBLISHED, LICENSED SOFTWARE.
   6:Nutrients.c   ****  *
   7:Nutrients.c   ****  * CONFIDENTIAL AND PROPRIETARY INFORMATION
   8:Nutrients.c   ****  * WHICH IS THE PROPERTY OF your company.
   9:Nutrients.c   ****  *
  10:Nutrients.c   ****  * ========================================
  11:Nutrients.c   **** */
  12:Nutrients.c   **** 
  13:Nutrients.c   **** /* [] END OF FILE */
  14:Nutrients.c   **** 
  15:Nutrients.c   **** #include "FreeRTOS.h"
  16:Nutrients.c   **** #include "Nutrients.h"
  17:Nutrients.c   **** #include "task.h"
  18:Nutrients.c   **** #include "queue.h"
  19:Nutrients.c   **** 
  20:Nutrients.c   **** struct Nutrients{ // Struct contains nutrients values measured
  21:Nutrients.c   ****     uint16  iPHvalue;
  22:Nutrients.c   ****     uint16  iECvalue;
  23:Nutrients.c   ****     uint16  iWaterTemp;
  24:Nutrients.c   ****     uint8   iFlowWater;
  25:Nutrients.c   **** };
  26:Nutrients.c   **** 
  27:Nutrients.c   **** const int iSizeOfNutrients = 40; // Should be the same as the value of the array below
  28:Nutrients.c   **** struct Nutrients currentNutrients[40]; // Create struct array with space for 40 measurements
  29:Nutrients.c   **** int iPHIndex = 0; // Use this index to save pH measurements into the struct array
  30:Nutrients.c   **** int iECIndex = 0; // Use this index to save EC measurements into the struct array
  31:Nutrients.c   **** int iWateTempIndex = 0; // Use this index to save water temperature measurements into the struct ar
  32:Nutrients.c   **** 
  33:Nutrients.c   **** const float fNeutralVoltage = 1500; //Voltage at pH 7, should be calibrated
  34:Nutrients.c   **** const float fAcidVoltage = 2032.44; //Voltage at pH 4, should be calibrated
  35:Nutrients.c   **** 
  36:Nutrients.c   **** QueueHandle_t xQueueNutrientPump[3]; // Create a queue for 3 nutrient pumps
  37:Nutrients.c   **** QueueHandle_t xQueuePHValue;        // Create a queue for sending pH values through UART
  38:Nutrients.c   **** QueueHandle_t xQueueWaterTemp;     // Create a queue for sending temperatures values through UART
  39:Nutrients.c   **** QueueHandle_t xQueueFlowWater;    // Create a queue for sending flow values through UART
  40:Nutrients.c   **** 
  41:Nutrients.c   **** 
  42:Nutrients.c   **** const uint8 MAX_SPEED = 6; // Max speed constant for the nutrient pumps
  43:Nutrients.c   **** const uint8 STOP_SPEED = 19; // Stop speed for the nutrient pumps
  44:Nutrients.c   **** static const uint8 pcTextForNutrientPump[3] = {0, 1, 2};
  45:Nutrients.c   **** 
  46:Nutrients.c   **** 
  47:Nutrients.c   **** void vNutrientsInit() {
 106              		.loc 1 47 0
 107              		.cfi_startproc
 108              		@ args = 0, pretend = 0, frame = 0
 109              		@ frame_needed = 1, uses_anonymous_args = 0
 110 0000 80B5     		push	{r7, lr}
 111              		.cfi_def_cfa_offset 8
 112              		.cfi_offset 7, -8
 113              		.cfi_offset 14, -4
 114 0002 82B0     		sub	sp, sp, #8
 115              		.cfi_def_cfa_offset 16
 116 0004 02AF     		add	r7, sp, #8
 117              		.cfi_def_cfa 7, 8
  48:Nutrients.c   ****     /*  The queue is created to hold a maximum of 1 value, each of which is
ARM GAS  C:\Users\Gusta\AppData\Local\Temp\ccuUMYV0.s 			page 4


  49:Nutrients.c   ****         large enough to hold a variable at the size of Bool. */
  50:Nutrients.c   ****     xQueueNutrientPump[0] = xQueueCreate( 1, sizeof( _Bool ) );
 118              		.loc 1 50 0
 119 0006 0022     		movs	r2, #0
 120 0008 0121     		movs	r1, #1
 121 000a 0120     		movs	r0, #1
 122 000c FFF7FEFF 		bl	xQueueGenericCreate
 123 0010 0246     		mov	r2, r0
 124 0012 384B     		ldr	r3, .L2
 125 0014 1A60     		str	r2, [r3]
  51:Nutrients.c   ****     xQueueNutrientPump[1] = xQueueCreate( 1, sizeof( _Bool ) );
 126              		.loc 1 51 0
 127 0016 0022     		movs	r2, #0
 128 0018 0121     		movs	r1, #1
 129 001a 0120     		movs	r0, #1
 130 001c FFF7FEFF 		bl	xQueueGenericCreate
 131 0020 0246     		mov	r2, r0
 132 0022 344B     		ldr	r3, .L2
 133 0024 5A60     		str	r2, [r3, #4]
  52:Nutrients.c   ****     xQueueNutrientPump[2] = xQueueCreate( 1, sizeof( _Bool ) );
 134              		.loc 1 52 0
 135 0026 0022     		movs	r2, #0
 136 0028 0121     		movs	r1, #1
 137 002a 0120     		movs	r0, #1
 138 002c FFF7FEFF 		bl	xQueueGenericCreate
 139 0030 0246     		mov	r2, r0
 140 0032 304B     		ldr	r3, .L2
 141 0034 9A60     		str	r2, [r3, #8]
  53:Nutrients.c   ****     
  54:Nutrients.c   ****     xQueuePHValue = xQueueCreate(1 , sizeof(uint16));
 142              		.loc 1 54 0
 143 0036 0022     		movs	r2, #0
 144 0038 0221     		movs	r1, #2
 145 003a 0120     		movs	r0, #1
 146 003c FFF7FEFF 		bl	xQueueGenericCreate
 147 0040 0246     		mov	r2, r0
 148 0042 2D4B     		ldr	r3, .L2+4
 149 0044 1A60     		str	r2, [r3]
  55:Nutrients.c   ****     xQueueWaterTemp = xQueueCreate(1 , sizeof(uint16));
 150              		.loc 1 55 0
 151 0046 0022     		movs	r2, #0
 152 0048 0221     		movs	r1, #2
 153 004a 0120     		movs	r0, #1
 154 004c FFF7FEFF 		bl	xQueueGenericCreate
 155 0050 0246     		mov	r2, r0
 156 0052 2A4B     		ldr	r3, .L2+8
 157 0054 1A60     		str	r2, [r3]
  56:Nutrients.c   ****     xQueueFlowWater = xQueueCreate(1, sizeof(uint8));
 158              		.loc 1 56 0
 159 0056 0022     		movs	r2, #0
 160 0058 0121     		movs	r1, #1
 161 005a 0120     		movs	r0, #1
 162 005c FFF7FEFF 		bl	xQueueGenericCreate
 163 0060 0246     		mov	r2, r0
 164 0062 274B     		ldr	r3, .L2+12
 165 0064 1A60     		str	r2, [r3]
  57:Nutrients.c   ****     
ARM GAS  C:\Users\Gusta\AppData\Local\Temp\ccuUMYV0.s 			page 5


  58:Nutrients.c   ****     /*  Create the task that will control one nutrient pump. The task is created with
  59:Nutrients.c   ****         priority 1. */
  60:Nutrients.c   ****     xTaskCreate(vTaskNutrientPump, "Pump 1", 100, (void*)pcTextForNutrientPump, 2, NULL);
 166              		.loc 1 60 0
 167 0066 0023     		movs	r3, #0
 168 0068 0193     		str	r3, [sp, #4]
 169 006a 0223     		movs	r3, #2
 170 006c 0093     		str	r3, [sp]
 171 006e 254B     		ldr	r3, .L2+16
 172 0070 6422     		movs	r2, #100
 173 0072 2549     		ldr	r1, .L2+20
 174 0074 2548     		ldr	r0, .L2+24
 175 0076 FFF7FEFF 		bl	xTaskCreate
  61:Nutrients.c   ****     xTaskCreate(vTaskNutrientPump, "Pump 2", 100, (void*)pcTextForNutrientPump + 1, 2, NULL);
 176              		.loc 1 61 0
 177 007a 254A     		ldr	r2, .L2+28
 178 007c 0023     		movs	r3, #0
 179 007e 0193     		str	r3, [sp, #4]
 180 0080 0223     		movs	r3, #2
 181 0082 0093     		str	r3, [sp]
 182 0084 1346     		mov	r3, r2
 183 0086 6422     		movs	r2, #100
 184 0088 2249     		ldr	r1, .L2+32
 185 008a 2048     		ldr	r0, .L2+24
 186 008c FFF7FEFF 		bl	xTaskCreate
  62:Nutrients.c   ****     xTaskCreate(vTaskNutrientPump, "Pump 2", 100, (void*)pcTextForNutrientPump + 2, 2, NULL);
 187              		.loc 1 62 0
 188 0090 214A     		ldr	r2, .L2+36
 189 0092 0023     		movs	r3, #0
 190 0094 0193     		str	r3, [sp, #4]
 191 0096 0223     		movs	r3, #2
 192 0098 0093     		str	r3, [sp]
 193 009a 1346     		mov	r3, r2
 194 009c 6422     		movs	r2, #100
 195 009e 1D49     		ldr	r1, .L2+32
 196 00a0 1A48     		ldr	r0, .L2+24
 197 00a2 FFF7FEFF 		bl	xTaskCreate
  63:Nutrients.c   **** 
  64:Nutrients.c   ****     
  65:Nutrients.c   ****     xTaskCreate(vTaskMeasurePH, "PH", 1000 , NULL , 2 , NULL);
 198              		.loc 1 65 0
 199 00a6 0023     		movs	r3, #0
 200 00a8 0193     		str	r3, [sp, #4]
 201 00aa 0223     		movs	r3, #2
 202 00ac 0093     		str	r3, [sp]
 203 00ae 0023     		movs	r3, #0
 204 00b0 4FF47A72 		mov	r2, #1000
 205 00b4 1949     		ldr	r1, .L2+40
 206 00b6 1A48     		ldr	r0, .L2+44
 207 00b8 FFF7FEFF 		bl	xTaskCreate
  66:Nutrients.c   ****     xTaskCreate(vTaskWaterTemp, "VandTemp", 1000, NULL, 2 , NULL);
 208              		.loc 1 66 0
 209 00bc 0023     		movs	r3, #0
 210 00be 0193     		str	r3, [sp, #4]
 211 00c0 0223     		movs	r3, #2
 212 00c2 0093     		str	r3, [sp]
 213 00c4 0023     		movs	r3, #0
ARM GAS  C:\Users\Gusta\AppData\Local\Temp\ccuUMYV0.s 			page 6


 214 00c6 4FF47A72 		mov	r2, #1000
 215 00ca 1649     		ldr	r1, .L2+48
 216 00cc 1648     		ldr	r0, .L2+52
 217 00ce FFF7FEFF 		bl	xTaskCreate
  67:Nutrients.c   ****     xTaskCreate(vTaskFlowWater, "WaterFlow", 1000, NULL, 4, NULL);
 218              		.loc 1 67 0
 219 00d2 0023     		movs	r3, #0
 220 00d4 0193     		str	r3, [sp, #4]
 221 00d6 0423     		movs	r3, #4
 222 00d8 0093     		str	r3, [sp]
 223 00da 0023     		movs	r3, #0
 224 00dc 4FF47A72 		mov	r2, #1000
 225 00e0 1249     		ldr	r1, .L2+56
 226 00e2 1348     		ldr	r0, .L2+60
 227 00e4 FFF7FEFF 		bl	xTaskCreate
  68:Nutrients.c   ****     /*Initialize test tasks*/
  69:Nutrients.c   ****     #if NUTRIENTSTEST == 1
  70:Nutrients.c   ****         vTestTaskInit();
 228              		.loc 1 70 0
 229 00e8 FFF7FEFF 		bl	vTestTaskInit
  71:Nutrients.c   ****     #endif
  72:Nutrients.c   ****     
  73:Nutrients.c   ****     
  74:Nutrients.c   **** }
 230              		.loc 1 74 0
 231 00ec 00BF     		nop
 232 00ee BD46     		mov	sp, r7
 233              		.cfi_def_cfa_register 13
 234              		@ sp needed
 235 00f0 80BD     		pop	{r7, pc}
 236              	.L3:
 237 00f2 00BF     		.align	2
 238              	.L2:
 239 00f4 00000000 		.word	xQueueNutrientPump
 240 00f8 00000000 		.word	xQueuePHValue
 241 00fc 00000000 		.word	xQueueWaterTemp
 242 0100 00000000 		.word	xQueueFlowWater
 243 0104 10000000 		.word	pcTextForNutrientPump
 244 0108 14000000 		.word	.LC0
 245 010c 00000000 		.word	vTaskNutrientPump
 246 0110 11000000 		.word	pcTextForNutrientPump+1
 247 0114 1C000000 		.word	.LC1
 248 0118 12000000 		.word	pcTextForNutrientPump+2
 249 011c 24000000 		.word	.LC2
 250 0120 00000000 		.word	vTaskMeasurePH
 251 0124 28000000 		.word	.LC3
 252 0128 00000000 		.word	vTaskWaterTemp
 253 012c 34000000 		.word	.LC4
 254 0130 00000000 		.word	vTaskFlowWater
 255              		.cfi_endproc
 256              	.LFE68:
 257              		.size	vNutrientsInit, .-vNutrientsInit
 258              		.section	.text.vTaskNutrientPump,"ax",%progbits
 259              		.align	2
 260              		.global	vTaskNutrientPump
 261              		.thumb
 262              		.thumb_func
ARM GAS  C:\Users\Gusta\AppData\Local\Temp\ccuUMYV0.s 			page 7


 263              		.type	vTaskNutrientPump, %function
 264              	vTaskNutrientPump:
 265              	.LFB69:
  75:Nutrients.c   **** 
  76:Nutrients.c   **** 
  77:Nutrients.c   **** 
  78:Nutrients.c   **** 
  79:Nutrients.c   **** void vTaskNutrientPump( void *pvParameters ) {
 266              		.loc 1 79 0
 267              		.cfi_startproc
 268              		@ args = 0, pretend = 0, frame = 24
 269              		@ frame_needed = 1, uses_anonymous_args = 0
 270 0000 80B5     		push	{r7, lr}
 271              		.cfi_def_cfa_offset 8
 272              		.cfi_offset 7, -8
 273              		.cfi_offset 14, -4
 274 0002 86B0     		sub	sp, sp, #24
 275              		.cfi_def_cfa_offset 32
 276 0004 00AF     		add	r7, sp, #0
 277              		.cfi_def_cfa_register 7
 278 0006 7860     		str	r0, [r7, #4]
  80:Nutrients.c   ****     _Bool bState;
  81:Nutrients.c   ****     BaseType_t xStatus;
  82:Nutrients.c   ****     uint8 *piNutrientPump;
  83:Nutrients.c   ****     
  84:Nutrients.c   ****     piNutrientPump = ( uint8 * ) pvParameters;
 279              		.loc 1 84 0
 280 0008 7B68     		ldr	r3, [r7, #4]
 281 000a 7B61     		str	r3, [r7, #20]
 282              	.L15:
  85:Nutrients.c   ****     
  86:Nutrients.c   ****     for(;;) {
  87:Nutrients.c   ****         /* Switch case for controlling the nutrient pumps */
  88:Nutrients.c   ****         switch (*piNutrientPump) {
 283              		.loc 1 88 0
 284 000c 7B69     		ldr	r3, [r7, #20]
 285 000e 1B78     		ldrb	r3, [r3]	@ zero_extendqisi2
 286 0010 012B     		cmp	r3, #1
 287 0012 1DD0     		beq	.L6
 288 0014 022B     		cmp	r3, #2
 289 0016 35D0     		beq	.L7
 290 0018 002B     		cmp	r3, #0
 291 001a 52D1     		bne	.L5
  89:Nutrients.c   ****             case 0:
  90:Nutrients.c   ****                 xStatus = xQueueReceive( xQueueNutrientPump[0], &bState, portMAX_DELAY ); // Checks
 292              		.loc 1 90 0
 293 001c 294B     		ldr	r3, .L19
 294 001e 1B68     		ldr	r3, [r3]
 295 0020 07F10F01 		add	r1, r7, #15
 296 0024 4FF0FF32 		mov	r2, #-1
 297 0028 1846     		mov	r0, r3
 298 002a FFF7FEFF 		bl	xQueueReceive
 299 002e 3861     		str	r0, [r7, #16]
  91:Nutrients.c   ****         
  92:Nutrients.c   ****                 if (xStatus == pdPASS) {
 300              		.loc 1 92 0
 301 0030 3B69     		ldr	r3, [r7, #16]
ARM GAS  C:\Users\Gusta\AppData\Local\Temp\ccuUMYV0.s 			page 8


 302 0032 012B     		cmp	r3, #1
 303 0034 40D1     		bne	.L16
  93:Nutrients.c   ****                     if (bState) {
 304              		.loc 1 93 0
 305 0036 FB7B     		ldrb	r3, [r7, #15]	@ zero_extendqisi2
 306 0038 002B     		cmp	r3, #0
 307 003a 04D0     		beq	.L10
  94:Nutrients.c   ****                         PWM_PERISTALTISK_1_WriteCompare1(MAX_SPEED); // Start running the pump.
 308              		.loc 1 94 0
 309 003c 0623     		movs	r3, #6
 310 003e 1846     		mov	r0, r3
 311 0040 FFF7FEFF 		bl	PWM_PERISTALTISK_1_WriteCompare1
  95:Nutrients.c   ****                     } else {
  96:Nutrients.c   ****                         PWM_PERISTALTISK_1_WriteCompare1(STOP_SPEED); // Stop running the pump.
  97:Nutrients.c   ****                     }
  98:Nutrients.c   ****                 }
  99:Nutrients.c   ****                 break;
 312              		.loc 1 99 0
 313 0044 38E0     		b	.L16
 314              	.L10:
  96:Nutrients.c   ****                     }
 315              		.loc 1 96 0
 316 0046 1323     		movs	r3, #19
 317 0048 1846     		mov	r0, r3
 318 004a FFF7FEFF 		bl	PWM_PERISTALTISK_1_WriteCompare1
 319              		.loc 1 99 0
 320 004e 33E0     		b	.L16
 321              	.L6:
 100:Nutrients.c   ****             
 101:Nutrients.c   ****             case 1:
 102:Nutrients.c   ****                 xStatus = xQueueReceive( xQueueNutrientPump[1], &bState, portMAX_DELAY ); // Checks
 322              		.loc 1 102 0
 323 0050 1C4B     		ldr	r3, .L19
 324 0052 5B68     		ldr	r3, [r3, #4]
 325 0054 07F10F01 		add	r1, r7, #15
 326 0058 4FF0FF32 		mov	r2, #-1
 327 005c 1846     		mov	r0, r3
 328 005e FFF7FEFF 		bl	xQueueReceive
 329 0062 3861     		str	r0, [r7, #16]
 103:Nutrients.c   ****         
 104:Nutrients.c   ****                 if (xStatus == pdPASS) {
 330              		.loc 1 104 0
 331 0064 3B69     		ldr	r3, [r7, #16]
 332 0066 012B     		cmp	r3, #1
 333 0068 28D1     		bne	.L17
 105:Nutrients.c   ****                     if (bState) {
 334              		.loc 1 105 0
 335 006a FB7B     		ldrb	r3, [r7, #15]	@ zero_extendqisi2
 336 006c 002B     		cmp	r3, #0
 337 006e 04D0     		beq	.L12
 106:Nutrients.c   ****                         PWM_PERISTALTISK_1_WriteCompare2(MAX_SPEED);
 338              		.loc 1 106 0
 339 0070 0623     		movs	r3, #6
 340 0072 1846     		mov	r0, r3
 341 0074 FFF7FEFF 		bl	PWM_PERISTALTISK_1_WriteCompare2
 107:Nutrients.c   ****                     } else {
 108:Nutrients.c   ****                         PWM_PERISTALTISK_1_WriteCompare2(STOP_SPEED);
ARM GAS  C:\Users\Gusta\AppData\Local\Temp\ccuUMYV0.s 			page 9


 109:Nutrients.c   ****                     }
 110:Nutrients.c   ****                 }
 111:Nutrients.c   ****                 break;
 342              		.loc 1 111 0
 343 0078 20E0     		b	.L17
 344              	.L12:
 108:Nutrients.c   ****                     }
 345              		.loc 1 108 0
 346 007a 1323     		movs	r3, #19
 347 007c 1846     		mov	r0, r3
 348 007e FFF7FEFF 		bl	PWM_PERISTALTISK_1_WriteCompare2
 349              		.loc 1 111 0
 350 0082 1BE0     		b	.L17
 351              	.L7:
 112:Nutrients.c   ****                 
 113:Nutrients.c   ****             case 2:
 114:Nutrients.c   ****                 xStatus = xQueueReceive( xQueueNutrientPump[2], &bState, portMAX_DELAY ); // Checks
 352              		.loc 1 114 0
 353 0084 0F4B     		ldr	r3, .L19
 354 0086 9B68     		ldr	r3, [r3, #8]
 355 0088 07F10F01 		add	r1, r7, #15
 356 008c 4FF0FF32 		mov	r2, #-1
 357 0090 1846     		mov	r0, r3
 358 0092 FFF7FEFF 		bl	xQueueReceive
 359 0096 3861     		str	r0, [r7, #16]
 115:Nutrients.c   ****         
 116:Nutrients.c   ****                 if (xStatus == pdPASS) {
 360              		.loc 1 116 0
 361 0098 3B69     		ldr	r3, [r7, #16]
 362 009a 012B     		cmp	r3, #1
 363 009c 10D1     		bne	.L18
 117:Nutrients.c   ****                     if (bState) {
 364              		.loc 1 117 0
 365 009e FB7B     		ldrb	r3, [r7, #15]	@ zero_extendqisi2
 366 00a0 002B     		cmp	r3, #0
 367 00a2 04D0     		beq	.L14
 118:Nutrients.c   ****                         PWM_PERISTALTISK_2_WriteCompare(MAX_SPEED);
 368              		.loc 1 118 0
 369 00a4 0623     		movs	r3, #6
 370 00a6 1846     		mov	r0, r3
 371 00a8 FFF7FEFF 		bl	PWM_PERISTALTISK_2_WriteCompare
 119:Nutrients.c   ****                     } else {
 120:Nutrients.c   ****                         PWM_PERISTALTISK_2_WriteCompare(STOP_SPEED);
 121:Nutrients.c   ****                     }
 122:Nutrients.c   ****                 }
 123:Nutrients.c   ****                 break;
 372              		.loc 1 123 0
 373 00ac 08E0     		b	.L18
 374              	.L14:
 120:Nutrients.c   ****                     }
 375              		.loc 1 120 0
 376 00ae 1323     		movs	r3, #19
 377 00b0 1846     		mov	r0, r3
 378 00b2 FFF7FEFF 		bl	PWM_PERISTALTISK_2_WriteCompare
 379              		.loc 1 123 0
 380 00b6 03E0     		b	.L18
 381              	.L16:
ARM GAS  C:\Users\Gusta\AppData\Local\Temp\ccuUMYV0.s 			page 10


  99:Nutrients.c   ****             
 382              		.loc 1 99 0
 383 00b8 00BF     		nop
 384 00ba A7E7     		b	.L15
 385              	.L17:
 111:Nutrients.c   ****                 
 386              		.loc 1 111 0
 387 00bc 00BF     		nop
 388 00be A5E7     		b	.L15
 389              	.L18:
 390              		.loc 1 123 0
 391 00c0 00BF     		nop
 392              	.L5:
 124:Nutrients.c   ****         }
 125:Nutrients.c   ****     }
 393              		.loc 1 125 0 discriminator 1
 394 00c2 A3E7     		b	.L15
 395              	.L20:
 396              		.align	2
 397              	.L19:
 398 00c4 00000000 		.word	xQueueNutrientPump
 399              		.cfi_endproc
 400              	.LFE69:
 401              		.size	vTaskNutrientPump, .-vTaskNutrientPump
 402              		.global	__aeabi_i2d
 403              		.global	__aeabi_ddiv
 404              		.global	__aeabi_dmul
 405              		.global	__aeabi_d2f
 406              		.global	__aeabi_fmul
 407              		.global	__aeabi_f2uiz
 408              		.section	.text.vTaskMeasurePH,"ax",%progbits
 409              		.align	2
 410              		.global	vTaskMeasurePH
 411              		.thumb
 412              		.thumb_func
 413              		.type	vTaskMeasurePH, %function
 414              	vTaskMeasurePH:
 415              	.LFB70:
 126:Nutrients.c   **** }
 127:Nutrients.c   **** 
 128:Nutrients.c   **** void vTaskMeasurePH(){
 416              		.loc 1 128 0
 417              		.cfi_startproc
 418              		@ args = 0, pretend = 0, frame = 24
 419              		@ frame_needed = 1, uses_anonymous_args = 0
 420 0000 90B5     		push	{r4, r7, lr}
 421              		.cfi_def_cfa_offset 12
 422              		.cfi_offset 4, -12
 423              		.cfi_offset 7, -8
 424              		.cfi_offset 14, -4
 425 0002 87B0     		sub	sp, sp, #28
 426              		.cfi_def_cfa_offset 40
 427 0004 00AF     		add	r7, sp, #0
 428              		.cfi_def_cfa_register 7
 129:Nutrients.c   ****     float fPHVoltage;
 130:Nutrients.c   ****     const TickType_t xDelayms = pdMS_TO_TICKS( 100 ); // Sets the measurement resolution.
 429              		.loc 1 130 0
ARM GAS  C:\Users\Gusta\AppData\Local\Temp\ccuUMYV0.s 			page 11


 430 0006 6423     		movs	r3, #100
 431 0008 3B61     		str	r3, [r7, #16]
 131:Nutrients.c   ****     float fPHValue;
 132:Nutrients.c   ****     float fMilliPHValue;
 133:Nutrients.c   ****     uint16 iMilliPHValue;
 134:Nutrients.c   ****     _Bool bState = 0;
 432              		.loc 1 134 0
 433 000a 0023     		movs	r3, #0
 434 000c FB75     		strb	r3, [r7, #23]
 435              	.L25:
 135:Nutrients.c   ****     
 136:Nutrients.c   ****     for(;;){
 137:Nutrients.c   ****         if(bState == 0){
 436              		.loc 1 137 0
 437 000e FB7D     		ldrb	r3, [r7, #23]
 438 0010 83F00103 		eor	r3, r3, #1
 439 0014 DBB2     		uxtb	r3, r3
 440 0016 002B     		cmp	r3, #0
 441 0018 04D0     		beq	.L22
 138:Nutrients.c   ****             ADC_PH_StartConvert();
 442              		.loc 1 138 0
 443 001a FFF7FEFF 		bl	ADC_PH_StartConvert
 139:Nutrients.c   ****             bState = 1;
 444              		.loc 1 139 0
 445 001e 0123     		movs	r3, #1
 446 0020 FB75     		strb	r3, [r7, #23]
 447 0022 F4E7     		b	.L25
 448              	.L22:
 140:Nutrients.c   ****         }
 141:Nutrients.c   ****         else if( (ADC_PH_IsEndConversion(ADC_PH_RETURN_STATUS) != 0) && (bState == 1) ){
 449              		.loc 1 141 0
 450 0024 0120     		movs	r0, #1
 451 0026 FFF7FEFF 		bl	ADC_PH_IsEndConversion
 452 002a 0346     		mov	r3, r0
 453 002c 002B     		cmp	r3, #0
 454 002e EED0     		beq	.L25
 455              		.loc 1 141 0 is_stmt 0 discriminator 1
 456 0030 FB7D     		ldrb	r3, [r7, #23]	@ zero_extendqisi2
 457 0032 002B     		cmp	r3, #0
 458 0034 EBD0     		beq	.L25
 142:Nutrients.c   ****             fPHVoltage = ((ADC_PH_GetResult16()) / 4096.0) * 3000.0; // Calculate voltage from meas
 459              		.loc 1 142 0 is_stmt 1
 460 0036 FFF7FEFF 		bl	ADC_PH_GetResult16
 461 003a 0346     		mov	r3, r0
 462 003c 1846     		mov	r0, r3
 463 003e FFF7FEFF 		bl	__aeabi_i2d
 464 0042 4FF00002 		mov	r2, #0
 465 0046 204B     		ldr	r3, .L26+8
 466 0048 FFF7FEFF 		bl	__aeabi_ddiv
 467 004c 0346     		mov	r3, r0
 468 004e 0C46     		mov	r4, r1
 469 0050 1846     		mov	r0, r3
 470 0052 2146     		mov	r1, r4
 471 0054 1AA3     		adr	r3, .L26
 472 0056 D3E90023 		ldrd	r2, [r3]
 473 005a FFF7FEFF 		bl	__aeabi_dmul
 474 005e 0346     		mov	r3, r0
ARM GAS  C:\Users\Gusta\AppData\Local\Temp\ccuUMYV0.s 			page 12


 475 0060 0C46     		mov	r4, r1
 476 0062 1846     		mov	r0, r3
 477 0064 2146     		mov	r1, r4
 478 0066 FFF7FEFF 		bl	__aeabi_d2f
 479 006a 0346     		mov	r3, r0
 480 006c FB60     		str	r3, [r7, #12]	@ float
 143:Nutrients.c   ****             fPHValue = fCalculatePHValue(fPHVoltage); // Convert the voltage to a pH value
 481              		.loc 1 143 0
 482 006e F868     		ldr	r0, [r7, #12]	@ float
 483 0070 FFF7FEFF 		bl	fCalculatePHValue
 484 0074 B860     		str	r0, [r7, #8]	@ float
 144:Nutrients.c   ****             fMilliPHValue = fPHValue * 1000; // Convert to milli pH value. This makes sure that we 
 485              		.loc 1 144 0
 486 0076 1549     		ldr	r1, .L26+12
 487 0078 B868     		ldr	r0, [r7, #8]	@ float
 488 007a FFF7FEFF 		bl	__aeabi_fmul
 489 007e 0346     		mov	r3, r0
 490 0080 7B60     		str	r3, [r7, #4]	@ float
 145:Nutrients.c   ****             iMilliPHValue = (uint16) fMilliPHValue; // Convert to a sendable message for UART (from
 491              		.loc 1 145 0
 492 0082 7868     		ldr	r0, [r7, #4]	@ float
 493 0084 FFF7FEFF 		bl	__aeabi_f2uiz
 494 0088 0346     		mov	r3, r0
 495 008a 7B80     		strh	r3, [r7, #2]	@ movhi
 146:Nutrients.c   ****             currentNutrients[iPHIndex].iPHvalue = iMilliPHValue; // Save in the currentNutrients ar
 496              		.loc 1 146 0
 497 008c 104B     		ldr	r3, .L26+16
 498 008e 1B68     		ldr	r3, [r3]
 499 0090 1049     		ldr	r1, .L26+20
 500 0092 7A88     		ldrh	r2, [r7, #2]	@ movhi
 501 0094 21F83320 		strh	r2, [r1, r3, lsl #3]	@ movhi
 147:Nutrients.c   ****             iPHIndex++;
 502              		.loc 1 147 0
 503 0098 0D4B     		ldr	r3, .L26+16
 504 009a 1B68     		ldr	r3, [r3]
 505 009c 0133     		adds	r3, r3, #1
 506 009e 0C4A     		ldr	r2, .L26+16
 507 00a0 1360     		str	r3, [r2]
 148:Nutrients.c   ****             if(iPHIndex == iSizeOfNutrients) {
 508              		.loc 1 148 0
 509 00a2 0B4B     		ldr	r3, .L26+16
 510 00a4 1B68     		ldr	r3, [r3]
 511 00a6 2822     		movs	r2, #40
 512 00a8 9342     		cmp	r3, r2
 513 00aa 02D1     		bne	.L24
 149:Nutrients.c   ****                 iPHIndex = 0;
 514              		.loc 1 149 0
 515 00ac 084B     		ldr	r3, .L26+16
 516 00ae 0022     		movs	r2, #0
 517 00b0 1A60     		str	r2, [r3]
 518              	.L24:
 150:Nutrients.c   ****             }
 151:Nutrients.c   ****             bState = 0;
 519              		.loc 1 151 0
 520 00b2 0023     		movs	r3, #0
 521 00b4 FB75     		strb	r3, [r7, #23]
 152:Nutrients.c   ****           //  xQueueSendToBack(xQueuePHValue , &iMilliPHValue , portMAX_DELAY); // Send the value t
ARM GAS  C:\Users\Gusta\AppData\Local\Temp\ccuUMYV0.s 			page 13


 153:Nutrients.c   ****             vTaskDelay(xDelayms);
 522              		.loc 1 153 0
 523 00b6 3869     		ldr	r0, [r7, #16]
 524 00b8 FFF7FEFF 		bl	vTaskDelay
 154:Nutrients.c   ****         }
 155:Nutrients.c   ****     }
 525              		.loc 1 155 0
 526 00bc A7E7     		b	.L25
 527              	.L27:
 528 00be 00BF     		.align	3
 529              	.L26:
 530 00c0 00000000 		.word	0
 531 00c4 0070A740 		.word	1084715008
 532 00c8 0000B040 		.word	1085276160
 533 00cc 00007A44 		.word	1148846080
 534 00d0 00000000 		.word	iPHIndex
 535 00d4 00000000 		.word	currentNutrients
 536              		.cfi_endproc
 537              	.LFE70:
 538              		.size	vTaskMeasurePH, .-vTaskMeasurePH
 539              		.global	__aeabi_f2d
 540              		.global	__aeabi_dsub
 541              		.global	__aeabi_dadd
 542              		.section	.text.fCalculatePHValue,"ax",%progbits
 543              		.align	2
 544              		.global	fCalculatePHValue
 545              		.thumb
 546              		.thumb_func
 547              		.type	fCalculatePHValue, %function
 548              	fCalculatePHValue:
 549              	.LFB71:
 156:Nutrients.c   **** }
 157:Nutrients.c   **** 
 158:Nutrients.c   **** 
 159:Nutrients.c   **** float fCalculatePHValue(float fPHVoltage){
 550              		.loc 1 159 0
 551              		.cfi_startproc
 552              		@ args = 0, pretend = 0, frame = 16
 553              		@ frame_needed = 1, uses_anonymous_args = 0
 554 0000 B0B5     		push	{r4, r5, r7, lr}
 555              		.cfi_def_cfa_offset 16
 556              		.cfi_offset 4, -16
 557              		.cfi_offset 5, -12
 558              		.cfi_offset 7, -8
 559              		.cfi_offset 14, -4
 560 0002 84B0     		sub	sp, sp, #16
 561              		.cfi_def_cfa_offset 32
 562 0004 00AF     		add	r7, sp, #0
 563              		.cfi_def_cfa_register 7
 564 0006 7860     		str	r0, [r7, #4]	@ float
 160:Nutrients.c   ****     float fSlope = (7.0-4.0) / ( (fNeutralVoltage - 1500.0)/3.0 - (fAcidVoltage - 1500.0)/3.0); //c
 565              		.loc 1 160 0
 566 0008 534B     		ldr	r3, .L30+8
 567 000a 1846     		mov	r0, r3
 568 000c FFF7FEFF 		bl	__aeabi_f2d
 569 0010 4FA3     		adr	r3, .L30
 570 0012 D3E90023 		ldrd	r2, [r3]
ARM GAS  C:\Users\Gusta\AppData\Local\Temp\ccuUMYV0.s 			page 14


 571 0016 FFF7FEFF 		bl	__aeabi_dsub
 572 001a 0346     		mov	r3, r0
 573 001c 0C46     		mov	r4, r1
 574 001e 1846     		mov	r0, r3
 575 0020 2146     		mov	r1, r4
 576 0022 4FF00002 		mov	r2, #0
 577 0026 4D4B     		ldr	r3, .L30+12
 578 0028 FFF7FEFF 		bl	__aeabi_ddiv
 579 002c 0346     		mov	r3, r0
 580 002e 0C46     		mov	r4, r1
 581 0030 2546     		mov	r5, r4
 582 0032 1C46     		mov	r4, r3
 583 0034 4A4B     		ldr	r3, .L30+16
 584 0036 1846     		mov	r0, r3
 585 0038 FFF7FEFF 		bl	__aeabi_f2d
 586 003c 44A3     		adr	r3, .L30
 587 003e D3E90023 		ldrd	r2, [r3]
 588 0042 FFF7FEFF 		bl	__aeabi_dsub
 589 0046 0246     		mov	r2, r0
 590 0048 0B46     		mov	r3, r1
 591 004a 1046     		mov	r0, r2
 592 004c 1946     		mov	r1, r3
 593 004e 4FF00002 		mov	r2, #0
 594 0052 424B     		ldr	r3, .L30+12
 595 0054 FFF7FEFF 		bl	__aeabi_ddiv
 596 0058 0246     		mov	r2, r0
 597 005a 0B46     		mov	r3, r1
 598 005c 2046     		mov	r0, r4
 599 005e 2946     		mov	r1, r5
 600 0060 FFF7FEFF 		bl	__aeabi_dsub
 601 0064 0346     		mov	r3, r0
 602 0066 0C46     		mov	r4, r1
 603 0068 1A46     		mov	r2, r3
 604 006a 2346     		mov	r3, r4
 605 006c 4FF00000 		mov	r0, #0
 606 0070 3A49     		ldr	r1, .L30+12
 607 0072 FFF7FEFF 		bl	__aeabi_ddiv
 608 0076 0346     		mov	r3, r0
 609 0078 0C46     		mov	r4, r1
 610 007a 1846     		mov	r0, r3
 611 007c 2146     		mov	r1, r4
 612 007e FFF7FEFF 		bl	__aeabi_d2f
 613 0082 0346     		mov	r3, r0
 614 0084 FB60     		str	r3, [r7, #12]	@ float
 161:Nutrients.c   ****     float fIntercept = 7.0 - fSlope*(fNeutralVoltage-1500.0)/3.0; //calculate b in y = ax + b
 615              		.loc 1 161 0
 616 0086 F868     		ldr	r0, [r7, #12]	@ float
 617 0088 FFF7FEFF 		bl	__aeabi_f2d
 618 008c 0446     		mov	r4, r0
 619 008e 0D46     		mov	r5, r1
 620 0090 314B     		ldr	r3, .L30+8
 621 0092 1846     		mov	r0, r3
 622 0094 FFF7FEFF 		bl	__aeabi_f2d
 623 0098 2DA3     		adr	r3, .L30
 624 009a D3E90023 		ldrd	r2, [r3]
 625 009e FFF7FEFF 		bl	__aeabi_dsub
 626 00a2 0246     		mov	r2, r0
ARM GAS  C:\Users\Gusta\AppData\Local\Temp\ccuUMYV0.s 			page 15


 627 00a4 0B46     		mov	r3, r1
 628 00a6 2046     		mov	r0, r4
 629 00a8 2946     		mov	r1, r5
 630 00aa FFF7FEFF 		bl	__aeabi_dmul
 631 00ae 0346     		mov	r3, r0
 632 00b0 0C46     		mov	r4, r1
 633 00b2 1846     		mov	r0, r3
 634 00b4 2146     		mov	r1, r4
 635 00b6 4FF00002 		mov	r2, #0
 636 00ba 284B     		ldr	r3, .L30+12
 637 00bc FFF7FEFF 		bl	__aeabi_ddiv
 638 00c0 0346     		mov	r3, r0
 639 00c2 0C46     		mov	r4, r1
 640 00c4 1A46     		mov	r2, r3
 641 00c6 2346     		mov	r3, r4
 642 00c8 4FF00000 		mov	r0, #0
 643 00cc 2549     		ldr	r1, .L30+20
 644 00ce FFF7FEFF 		bl	__aeabi_dsub
 645 00d2 0346     		mov	r3, r0
 646 00d4 0C46     		mov	r4, r1
 647 00d6 1846     		mov	r0, r3
 648 00d8 2146     		mov	r1, r4
 649 00da FFF7FEFF 		bl	__aeabi_d2f
 650 00de 0346     		mov	r3, r0
 651 00e0 BB60     		str	r3, [r7, #8]	@ float
 162:Nutrients.c   ****     return fSlope*(fPHVoltage-1500.0)/3.0 + fIntercept; //return pH value
 652              		.loc 1 162 0
 653 00e2 F868     		ldr	r0, [r7, #12]	@ float
 654 00e4 FFF7FEFF 		bl	__aeabi_f2d
 655 00e8 0446     		mov	r4, r0
 656 00ea 0D46     		mov	r5, r1
 657 00ec 7868     		ldr	r0, [r7, #4]	@ float
 658 00ee FFF7FEFF 		bl	__aeabi_f2d
 659 00f2 17A3     		adr	r3, .L30
 660 00f4 D3E90023 		ldrd	r2, [r3]
 661 00f8 FFF7FEFF 		bl	__aeabi_dsub
 662 00fc 0246     		mov	r2, r0
 663 00fe 0B46     		mov	r3, r1
 664 0100 2046     		mov	r0, r4
 665 0102 2946     		mov	r1, r5
 666 0104 FFF7FEFF 		bl	__aeabi_dmul
 667 0108 0346     		mov	r3, r0
 668 010a 0C46     		mov	r4, r1
 669 010c 1846     		mov	r0, r3
 670 010e 2146     		mov	r1, r4
 671 0110 4FF00002 		mov	r2, #0
 672 0114 114B     		ldr	r3, .L30+12
 673 0116 FFF7FEFF 		bl	__aeabi_ddiv
 674 011a 0346     		mov	r3, r0
 675 011c 0C46     		mov	r4, r1
 676 011e 2546     		mov	r5, r4
 677 0120 1C46     		mov	r4, r3
 678 0122 B868     		ldr	r0, [r7, #8]	@ float
 679 0124 FFF7FEFF 		bl	__aeabi_f2d
 680 0128 0246     		mov	r2, r0
 681 012a 0B46     		mov	r3, r1
 682 012c 2046     		mov	r0, r4
ARM GAS  C:\Users\Gusta\AppData\Local\Temp\ccuUMYV0.s 			page 16


 683 012e 2946     		mov	r1, r5
 684 0130 FFF7FEFF 		bl	__aeabi_dadd
 685 0134 0346     		mov	r3, r0
 686 0136 0C46     		mov	r4, r1
 687 0138 1846     		mov	r0, r3
 688 013a 2146     		mov	r1, r4
 689 013c FFF7FEFF 		bl	__aeabi_d2f
 690 0140 0346     		mov	r3, r0
 163:Nutrients.c   **** }
 691              		.loc 1 163 0
 692 0142 1846     		mov	r0, r3
 693 0144 1037     		adds	r7, r7, #16
 694              		.cfi_def_cfa_offset 16
 695 0146 BD46     		mov	sp, r7
 696              		.cfi_def_cfa_register 13
 697              		@ sp needed
 698 0148 B0BD     		pop	{r4, r5, r7, pc}
 699              	.L31:
 700 014a 00BFAFF3 		.align	3
 700      0080
 701              	.L30:
 702 0150 00000000 		.word	0
 703 0154 00709740 		.word	1083666432
 704 0158 0080BB44 		.word	1153138688
 705 015c 00000840 		.word	1074266112
 706 0160 140EFE44 		.word	1157500436
 707 0164 00001C40 		.word	1075576832
 708              		.cfi_endproc
 709              	.LFE71:
 710              		.size	fCalculatePHValue, .-fCalculatePHValue
 711              		.section	.text.vTaskWaterTemp,"ax",%progbits
 712              		.align	2
 713              		.global	vTaskWaterTemp
 714              		.thumb
 715              		.thumb_func
 716              		.type	vTaskWaterTemp, %function
 717              	vTaskWaterTemp:
 718              	.LFB72:
 164:Nutrients.c   **** 
 165:Nutrients.c   **** 
 166:Nutrients.c   **** 
 167:Nutrients.c   **** void vTaskWaterTemp(){
 719              		.loc 1 167 0
 720              		.cfi_startproc
 721              		@ args = 0, pretend = 0, frame = 16
 722              		@ frame_needed = 1, uses_anonymous_args = 0
 723 0000 80B5     		push	{r7, lr}
 724              		.cfi_def_cfa_offset 8
 725              		.cfi_offset 7, -8
 726              		.cfi_offset 14, -4
 727 0002 84B0     		sub	sp, sp, #16
 728              		.cfi_def_cfa_offset 24
 729 0004 00AF     		add	r7, sp, #0
 730              		.cfi_def_cfa_register 7
 168:Nutrients.c   ****        const TickType_t xDelayms = pdMS_TO_TICKS( 2000 ); // Sets the measurement resolution.
 731              		.loc 1 168 0
 732 0006 4FF4FA63 		mov	r3, #2000
ARM GAS  C:\Users\Gusta\AppData\Local\Temp\ccuUMYV0.s 			page 17


 733 000a BB60     		str	r3, [r7, #8]
 169:Nutrients.c   ****     int16 waterTemp; 
 170:Nutrients.c   ****     _Bool flagTimer = 1;
 734              		.loc 1 170 0
 735 000c 0123     		movs	r3, #1
 736 000e FB73     		strb	r3, [r7, #15]
 737              	.L35:
 171:Nutrients.c   ****     for(;;) 
 172:Nutrients.c   ****     { 
 173:Nutrients.c   ****         if (flagTimer == 1){
 738              		.loc 1 173 0
 739 0010 FB7B     		ldrb	r3, [r7, #15]	@ zero_extendqisi2
 740 0012 002B     		cmp	r3, #0
 741 0014 03D0     		beq	.L33
 174:Nutrients.c   ****             flagTimer = 0;
 742              		.loc 1 174 0
 743 0016 0023     		movs	r3, #0
 744 0018 FB73     		strb	r3, [r7, #15]
 175:Nutrients.c   ****             DS18x8_SendTemperatureRequest(); //  Sending request to sensor, checking bus, and setti
 745              		.loc 1 175 0
 746 001a FFF7FEFF 		bl	DS18x8_SendTemperatureRequest
 747              	.L33:
 176:Nutrients.c   ****         }
 177:Nutrients.c   ****         if (DS18x8_DataReady) // DS18 completed temperature measurement - begin read data
 748              		.loc 1 177 0
 749 001e 0D4B     		ldr	r3, .L36
 750 0020 1B78     		ldrb	r3, [r3]
 751 0022 DBB2     		uxtb	r3, r3
 752 0024 002B     		cmp	r3, #0
 753 0026 F3D0     		beq	.L35
 178:Nutrients.c   ****         {   
 179:Nutrients.c   ****             DS18x8_ReadTemperature(); //  Reads temperature from DS scratchpad and stores in DS18x8
 754              		.loc 1 179 0
 755 0028 FFF7FEFF 		bl	DS18x8_ReadTemperature
 180:Nutrients.c   ****             waterTemp = DS18x8_GetTemperatureAsInt100 (0);  // Converts reading to int16 ex: 38.06 
 756              		.loc 1 180 0
 757 002c 0020     		movs	r0, #0
 758 002e FFF7FEFF 		bl	DS18x8_GetTemperatureAsInt100
 759 0032 0346     		mov	r3, r0
 760 0034 FB80     		strh	r3, [r7, #6]	@ movhi
 181:Nutrients.c   ****             xQueueSendToBack(xQueueWaterTemp, &waterTemp, portMAX_DELAY); // Send the value to the 
 761              		.loc 1 181 0
 762 0036 084B     		ldr	r3, .L36+4
 763 0038 1868     		ldr	r0, [r3]
 764 003a B91D     		adds	r1, r7, #6
 765 003c 0023     		movs	r3, #0
 766 003e 4FF0FF32 		mov	r2, #-1
 767 0042 FFF7FEFF 		bl	xQueueGenericSend
 182:Nutrients.c   ****             flagTimer = 1;
 768              		.loc 1 182 0
 769 0046 0123     		movs	r3, #1
 770 0048 FB73     		strb	r3, [r7, #15]
 183:Nutrients.c   ****             vTaskDelay(xDelayms);
 771              		.loc 1 183 0
 772 004a B868     		ldr	r0, [r7, #8]
 773 004c FFF7FEFF 		bl	vTaskDelay
 184:Nutrients.c   ****         }    
ARM GAS  C:\Users\Gusta\AppData\Local\Temp\ccuUMYV0.s 			page 18


 185:Nutrients.c   ****     }   
 774              		.loc 1 185 0
 775 0050 DEE7     		b	.L35
 776              	.L37:
 777 0052 00BF     		.align	2
 778              	.L36:
 779 0054 00000000 		.word	DS18x8_DataReady
 780 0058 00000000 		.word	xQueueWaterTemp
 781              		.cfi_endproc
 782              	.LFE72:
 783              		.size	vTaskWaterTemp, .-vTaskWaterTemp
 784              		.section	.text.vTaskFlowWater,"ax",%progbits
 785              		.align	2
 786              		.global	vTaskFlowWater
 787              		.thumb
 788              		.thumb_func
 789              		.type	vTaskFlowWater, %function
 790              	vTaskFlowWater:
 791              	.LFB73:
 186:Nutrients.c   **** }
 187:Nutrients.c   **** 
 188:Nutrients.c   **** void vTaskFlowWater()
 189:Nutrients.c   **** {
 792              		.loc 1 189 0
 793              		.cfi_startproc
 794              		@ args = 0, pretend = 0, frame = 8
 795              		@ frame_needed = 1, uses_anonymous_args = 0
 796 0000 80B5     		push	{r7, lr}
 797              		.cfi_def_cfa_offset 8
 798              		.cfi_offset 7, -8
 799              		.cfi_offset 14, -4
 800 0002 82B0     		sub	sp, sp, #8
 801              		.cfi_def_cfa_offset 16
 802 0004 00AF     		add	r7, sp, #0
 803              		.cfi_def_cfa_register 7
 190:Nutrients.c   ****     const TickType_t xDelayms = pdMS_TO_TICKS( 2000 ); // Sets the measurement resolution.
 804              		.loc 1 190 0
 805 0006 4FF4FA63 		mov	r3, #2000
 806 000a 7B60     		str	r3, [r7, #4]
 807              	.L39:
 191:Nutrients.c   ****     uint8 flowWaterResult;
 192:Nutrients.c   ****     for(;;)
 193:Nutrients.c   ****     {
 194:Nutrients.c   ****         ADC_Flow_StartConvert();
 808              		.loc 1 194 0 discriminator 1
 809 000c FFF7FEFF 		bl	ADC_Flow_StartConvert
 195:Nutrients.c   ****         flowWaterResult = ADC_Flow_GetResult8();
 810              		.loc 1 195 0 discriminator 1
 811 0010 FFF7FEFF 		bl	ADC_Flow_GetResult8
 812 0014 0346     		mov	r3, r0
 813 0016 DBB2     		uxtb	r3, r3
 814 0018 FB70     		strb	r3, [r7, #3]
 196:Nutrients.c   ****         xQueueSendToBack(xQueueFlowWater, &flowWaterResult, portMAX_DELAY);
 815              		.loc 1 196 0 discriminator 1
 816 001a 064B     		ldr	r3, .L40
 817 001c 1868     		ldr	r0, [r3]
 818 001e F91C     		adds	r1, r7, #3
ARM GAS  C:\Users\Gusta\AppData\Local\Temp\ccuUMYV0.s 			page 19


 819 0020 0023     		movs	r3, #0
 820 0022 4FF0FF32 		mov	r2, #-1
 821 0026 FFF7FEFF 		bl	xQueueGenericSend
 197:Nutrients.c   ****         vTaskDelay(xDelayms);
 822              		.loc 1 197 0 discriminator 1
 823 002a 7868     		ldr	r0, [r7, #4]
 824 002c FFF7FEFF 		bl	vTaskDelay
 198:Nutrients.c   ****     }
 825              		.loc 1 198 0 discriminator 1
 826 0030 ECE7     		b	.L39
 827              	.L41:
 828 0032 00BF     		.align	2
 829              	.L40:
 830 0034 00000000 		.word	xQueueFlowWater
 831              		.cfi_endproc
 832              	.LFE73:
 833              		.size	vTaskFlowWater, .-vTaskFlowWater
 834              		.section	.rodata
 835 003e 0000     		.align	2
 836              	.LC5:
 837 0040 57617465 		.ascii	"Waterflow: \000"
 837      72666C6F 
 837      773A2000 
 838              		.align	2
 839              	.LC6:
 840 004c 0A00     		.ascii	"\012\000"
 841              		.section	.text.vTestFlowWater,"ax",%progbits
 842              		.align	2
 843              		.global	vTestFlowWater
 844              		.thumb
 845              		.thumb_func
 846              		.type	vTestFlowWater, %function
 847              	vTestFlowWater:
 848              	.LFB74:
 199:Nutrients.c   **** }
 200:Nutrients.c   **** 
 201:Nutrients.c   **** 
 202:Nutrients.c   **** 
 203:Nutrients.c   **** /* --- TEST TASK --- */
 204:Nutrients.c   **** 
 205:Nutrients.c   **** /*
 206:Nutrients.c   ****     Task for testing existing implementations.
 207:Nutrients.c   **** 
 208:Nutrients.c   ****     DO NOT delete this functions/tasks, but comment them out if they arn't nexessary 
 209:Nutrients.c   ****     for your current implementation/testing
 210:Nutrients.c   ****     
 211:Nutrients.c   ****     All test task/functions, must start with (type)Test(Task/Function/Var)(Name)
 212:Nutrients.c   **** 
 213:Nutrients.c   ****     
 214:Nutrients.c   **** */
 215:Nutrients.c   **** 
 216:Nutrients.c   **** void vTestFlowWater()
 217:Nutrients.c   **** {
 849              		.loc 1 217 0
 850              		.cfi_startproc
 851              		@ args = 0, pretend = 0, frame = 8
 852              		@ frame_needed = 1, uses_anonymous_args = 0
ARM GAS  C:\Users\Gusta\AppData\Local\Temp\ccuUMYV0.s 			page 20


 853 0000 80B5     		push	{r7, lr}
 854              		.cfi_def_cfa_offset 8
 855              		.cfi_offset 7, -8
 856              		.cfi_offset 14, -4
 857 0002 82B0     		sub	sp, sp, #8
 858              		.cfi_def_cfa_offset 16
 859 0004 00AF     		add	r7, sp, #0
 860              		.cfi_def_cfa_register 7
 861              	.L43:
 218:Nutrients.c   ****     uint8 FlowWaterTest;
 219:Nutrients.c   ****     for(;;)
 220:Nutrients.c   ****     {
 221:Nutrients.c   ****         xQueueReceive(xQueueFlowWater, &FlowWaterTest, portMAX_DELAY);
 862              		.loc 1 221 0 discriminator 1
 863 0006 094B     		ldr	r3, .L44
 864 0008 1B68     		ldr	r3, [r3]
 865 000a F91D     		adds	r1, r7, #7
 866 000c 4FF0FF32 		mov	r2, #-1
 867 0010 1846     		mov	r0, r3
 868 0012 FFF7FEFF 		bl	xQueueReceive
 222:Nutrients.c   ****         SW_UART_TEST_USB_PutString("Waterflow: ");
 869              		.loc 1 222 0 discriminator 1
 870 0016 0648     		ldr	r0, .L44+4
 871 0018 FFF7FEFF 		bl	SW_UART_TEST_USB_PutString
 223:Nutrients.c   ****         SW_UART_TEST_USB_PutHexByte(FlowWaterTest);
 872              		.loc 1 223 0 discriminator 1
 873 001c FB79     		ldrb	r3, [r7, #7]	@ zero_extendqisi2
 874 001e 1846     		mov	r0, r3
 875 0020 FFF7FEFF 		bl	SW_UART_TEST_USB_PutHexByte
 224:Nutrients.c   ****         SW_UART_TEST_USB_PutString("\n");
 876              		.loc 1 224 0 discriminator 1
 877 0024 0348     		ldr	r0, .L44+8
 878 0026 FFF7FEFF 		bl	SW_UART_TEST_USB_PutString
 225:Nutrients.c   ****     }
 879              		.loc 1 225 0 discriminator 1
 880 002a ECE7     		b	.L43
 881              	.L45:
 882              		.align	2
 883              	.L44:
 884 002c 00000000 		.word	xQueueFlowWater
 885 0030 40000000 		.word	.LC5
 886 0034 4C000000 		.word	.LC6
 887              		.cfi_endproc
 888              	.LFE74:
 889              		.size	vTestFlowWater, .-vTestFlowWater
 890              		.section	.rodata
 891 004e 0000     		.align	2
 892              	.LC7:
 893 0050 57617465 		.ascii	"Watertemp: \000"
 893      7274656D 
 893      703A2000 
 894              		.section	.text.vTestTaskWaterTemp,"ax",%progbits
 895              		.align	2
 896              		.global	vTestTaskWaterTemp
 897              		.thumb
 898              		.thumb_func
 899              		.type	vTestTaskWaterTemp, %function
ARM GAS  C:\Users\Gusta\AppData\Local\Temp\ccuUMYV0.s 			page 21


 900              	vTestTaskWaterTemp:
 901              	.LFB75:
 226:Nutrients.c   **** }
 227:Nutrients.c   **** 
 228:Nutrients.c   **** 
 229:Nutrients.c   **** 
 230:Nutrients.c   **** void vTestTaskWaterTemp(){
 902              		.loc 1 230 0
 903              		.cfi_startproc
 904              		@ args = 0, pretend = 0, frame = 8
 905              		@ frame_needed = 1, uses_anonymous_args = 0
 906 0000 80B5     		push	{r7, lr}
 907              		.cfi_def_cfa_offset 8
 908              		.cfi_offset 7, -8
 909              		.cfi_offset 14, -4
 910 0002 82B0     		sub	sp, sp, #8
 911              		.cfi_def_cfa_offset 16
 912 0004 00AF     		add	r7, sp, #0
 913              		.cfi_def_cfa_register 7
 914              	.L47:
 231:Nutrients.c   ****     uint16 WaterTempTest;
 232:Nutrients.c   ****     for(;;){
 233:Nutrients.c   ****         xQueueReceive( xQueueWaterTemp, &WaterTempTest, portMAX_DELAY);
 915              		.loc 1 233 0 discriminator 1
 916 0006 094B     		ldr	r3, .L48
 917 0008 1B68     		ldr	r3, [r3]
 918 000a B91D     		adds	r1, r7, #6
 919 000c 4FF0FF32 		mov	r2, #-1
 920 0010 1846     		mov	r0, r3
 921 0012 FFF7FEFF 		bl	xQueueReceive
 234:Nutrients.c   ****         SW_UART_TEST_USB_PutString("Watertemp: ");
 922              		.loc 1 234 0 discriminator 1
 923 0016 0648     		ldr	r0, .L48+4
 924 0018 FFF7FEFF 		bl	SW_UART_TEST_USB_PutString
 235:Nutrients.c   ****         SW_UART_TEST_USB_PutHexInt(WaterTempTest);
 925              		.loc 1 235 0 discriminator 1
 926 001c FB88     		ldrh	r3, [r7, #6]
 927 001e 1846     		mov	r0, r3
 928 0020 FFF7FEFF 		bl	SW_UART_TEST_USB_PutHexInt
 236:Nutrients.c   ****         SW_UART_TEST_USB_PutString("\n");
 929              		.loc 1 236 0 discriminator 1
 930 0024 0348     		ldr	r0, .L48+8
 931 0026 FFF7FEFF 		bl	SW_UART_TEST_USB_PutString
 237:Nutrients.c   ****      }
 932              		.loc 1 237 0 discriminator 1
 933 002a ECE7     		b	.L47
 934              	.L49:
 935              		.align	2
 936              	.L48:
 937 002c 00000000 		.word	xQueueWaterTemp
 938 0030 50000000 		.word	.LC7
 939 0034 4C000000 		.word	.LC6
 940              		.cfi_endproc
 941              	.LFE75:
 942              		.size	vTestTaskWaterTemp, .-vTestTaskWaterTemp
 943              		.section	.rodata
 944              		.align	2
ARM GAS  C:\Users\Gusta\AppData\Local\Temp\ccuUMYV0.s 			page 22


 945              	.LC8:
 946 005c 54657374 		.ascii	"Test Pump 1\000"
 946      2050756D 
 946      70203100 
 947              		.align	2
 948              	.LC9:
 949 0068 54657374 		.ascii	"Test water flow\000"
 949      20776174 
 949      65722066 
 949      6C6F7700 
 950              		.section	.text.vTestTaskInit,"ax",%progbits
 951              		.align	2
 952              		.global	vTestTaskInit
 953              		.thumb
 954              		.thumb_func
 955              		.type	vTestTaskInit, %function
 956              	vTestTaskInit:
 957              	.LFB76:
 238:Nutrients.c   **** }
 239:Nutrients.c   **** 
 240:Nutrients.c   **** 
 241:Nutrients.c   **** void vTestTaskInit(){
 958              		.loc 1 241 0
 959              		.cfi_startproc
 960              		@ args = 0, pretend = 0, frame = 0
 961              		@ frame_needed = 1, uses_anonymous_args = 0
 962 0000 80B5     		push	{r7, lr}
 963              		.cfi_def_cfa_offset 8
 964              		.cfi_offset 7, -8
 965              		.cfi_offset 14, -4
 966 0002 82B0     		sub	sp, sp, #8
 967              		.cfi_def_cfa_offset 16
 968 0004 02AF     		add	r7, sp, #8
 969              		.cfi_def_cfa 7, 8
 242:Nutrients.c   ****     xTaskCreate(vTestTaskNutrientPump, "Test Pump 1", 100, NULL, 1, NULL); 
 970              		.loc 1 242 0
 971 0006 0023     		movs	r3, #0
 972 0008 0193     		str	r3, [sp, #4]
 973 000a 0123     		movs	r3, #1
 974 000c 0093     		str	r3, [sp]
 975 000e 0023     		movs	r3, #0
 976 0010 6422     		movs	r2, #100
 977 0012 0849     		ldr	r1, .L51
 978 0014 0848     		ldr	r0, .L51+4
 979 0016 FFF7FEFF 		bl	xTaskCreate
 243:Nutrients.c   ****    // xTaskCreate(vTestTaskUARTDataTransmit, "Test PH print", 100, NULL, 2, NULL); 
 244:Nutrients.c   ****     //xTaskCreate(vTestTaskWaterTemp, "Test Water Temp", 100, NULL, 3, NULL);
 245:Nutrients.c   ****     xTaskCreate(vTestFlowWater, "Test water flow", 100, NULL, 4, NULL);
 980              		.loc 1 245 0
 981 001a 0023     		movs	r3, #0
 982 001c 0193     		str	r3, [sp, #4]
 983 001e 0423     		movs	r3, #4
 984 0020 0093     		str	r3, [sp]
 985 0022 0023     		movs	r3, #0
 986 0024 6422     		movs	r2, #100
 987 0026 0549     		ldr	r1, .L51+8
 988 0028 0548     		ldr	r0, .L51+12
ARM GAS  C:\Users\Gusta\AppData\Local\Temp\ccuUMYV0.s 			page 23


 989 002a FFF7FEFF 		bl	xTaskCreate
 246:Nutrients.c   **** }
 990              		.loc 1 246 0
 991 002e 00BF     		nop
 992 0030 BD46     		mov	sp, r7
 993              		.cfi_def_cfa_register 13
 994              		@ sp needed
 995 0032 80BD     		pop	{r7, pc}
 996              	.L52:
 997              		.align	2
 998              	.L51:
 999 0034 5C000000 		.word	.LC8
 1000 0038 00000000 		.word	vTestTaskNutrientPump
 1001 003c 68000000 		.word	.LC9
 1002 0040 00000000 		.word	vTestFlowWater
 1003              		.cfi_endproc
 1004              	.LFE76:
 1005              		.size	vTestTaskInit, .-vTestTaskInit
 1006              		.section	.rodata
 1007              		.align	2
 1008              	.LC10:
 1009 0078 693A2000 		.ascii	"i: \000"
 1010              		.align	2
 1011              	.LC11:
 1012 007c 20307800 		.ascii	" 0x\000"
 1013              		.section	.text.vTestTaskUARTDataTransmit,"ax",%progbits
 1014              		.align	2
 1015              		.global	vTestTaskUARTDataTransmit
 1016              		.thumb
 1017              		.thumb_func
 1018              		.type	vTestTaskUARTDataTransmit, %function
 1019              	vTestTaskUARTDataTransmit:
 1020              	.LFB77:
 247:Nutrients.c   **** 
 248:Nutrients.c   **** 
 249:Nutrients.c   **** void vTestTaskUARTDataTransmit(){
 1021              		.loc 1 249 0
 1022              		.cfi_startproc
 1023              		@ args = 0, pretend = 0, frame = 8
 1024              		@ frame_needed = 1, uses_anonymous_args = 0
 1025 0000 80B5     		push	{r7, lr}
 1026              		.cfi_def_cfa_offset 8
 1027              		.cfi_offset 7, -8
 1028              		.cfi_offset 14, -4
 1029 0002 82B0     		sub	sp, sp, #8
 1030              		.cfi_def_cfa_offset 16
 1031 0004 00AF     		add	r7, sp, #0
 1032              		.cfi_def_cfa_register 7
 1033              	.L54:
 250:Nutrients.c   ****     uint16 iPHValueForPrint;
 251:Nutrients.c   ****     for(;;){
 252:Nutrients.c   ****         xQueueReceive( xQueuePHValue, &iPHValueForPrint, portMAX_DELAY );
 1034              		.loc 1 252 0 discriminator 1
 1035 0006 104B     		ldr	r3, .L55
 1036 0008 1B68     		ldr	r3, [r3]
 1037 000a B91D     		adds	r1, r7, #6
 1038 000c 4FF0FF32 		mov	r2, #-1
ARM GAS  C:\Users\Gusta\AppData\Local\Temp\ccuUMYV0.s 			page 24


 1039 0010 1846     		mov	r0, r3
 1040 0012 FFF7FEFF 		bl	xQueueReceive
 253:Nutrients.c   ****         SW_UART_TEST_USB_PutString("i: ");
 1041              		.loc 1 253 0 discriminator 1
 1042 0016 0D48     		ldr	r0, .L55+4
 1043 0018 FFF7FEFF 		bl	SW_UART_TEST_USB_PutString
 254:Nutrients.c   ****         SW_UART_TEST_USB_PutHexInt(iPHIndex);
 1044              		.loc 1 254 0 discriminator 1
 1045 001c 0C4B     		ldr	r3, .L55+8
 1046 001e 1B68     		ldr	r3, [r3]
 1047 0020 9BB2     		uxth	r3, r3
 1048 0022 1846     		mov	r0, r3
 1049 0024 FFF7FEFF 		bl	SW_UART_TEST_USB_PutHexInt
 255:Nutrients.c   ****         SW_UART_TEST_USB_PutString(" 0x");
 1050              		.loc 1 255 0 discriminator 1
 1051 0028 0A48     		ldr	r0, .L55+12
 1052 002a FFF7FEFF 		bl	SW_UART_TEST_USB_PutString
 256:Nutrients.c   ****         SW_UART_TEST_USB_PutHexInt(currentNutrients[iPHIndex].iPHvalue);
 1053              		.loc 1 256 0 discriminator 1
 1054 002e 084B     		ldr	r3, .L55+8
 1055 0030 1B68     		ldr	r3, [r3]
 1056 0032 094A     		ldr	r2, .L55+16
 1057 0034 32F83330 		ldrh	r3, [r2, r3, lsl #3]
 1058 0038 1846     		mov	r0, r3
 1059 003a FFF7FEFF 		bl	SW_UART_TEST_USB_PutHexInt
 257:Nutrients.c   ****         SW_UART_TEST_USB_PutString("\n");
 1060              		.loc 1 257 0 discriminator 1
 1061 003e 0748     		ldr	r0, .L55+20
 1062 0040 FFF7FEFF 		bl	SW_UART_TEST_USB_PutString
 258:Nutrients.c   ****     }
 1063              		.loc 1 258 0 discriminator 1
 1064 0044 DFE7     		b	.L54
 1065              	.L56:
 1066 0046 00BF     		.align	2
 1067              	.L55:
 1068 0048 00000000 		.word	xQueuePHValue
 1069 004c 78000000 		.word	.LC10
 1070 0050 00000000 		.word	iPHIndex
 1071 0054 7C000000 		.word	.LC11
 1072 0058 00000000 		.word	currentNutrients
 1073 005c 4C000000 		.word	.LC6
 1074              		.cfi_endproc
 1075              	.LFE77:
 1076              		.size	vTestTaskUARTDataTransmit, .-vTestTaskUARTDataTransmit
 1077              		.section	.text.vTestTaskNutrientPump,"ax",%progbits
 1078              		.align	2
 1079              		.global	vTestTaskNutrientPump
 1080              		.thumb
 1081              		.thumb_func
 1082              		.type	vTestTaskNutrientPump, %function
 1083              	vTestTaskNutrientPump:
 1084              	.LFB78:
 259:Nutrients.c   **** }
 260:Nutrients.c   **** 
 261:Nutrients.c   **** 
 262:Nutrients.c   **** 
 263:Nutrients.c   **** void vTestTaskNutrientPump() {
ARM GAS  C:\Users\Gusta\AppData\Local\Temp\ccuUMYV0.s 			page 25


 1085              		.loc 1 263 0
 1086              		.cfi_startproc
 1087              		@ args = 0, pretend = 0, frame = 8
 1088              		@ frame_needed = 1, uses_anonymous_args = 0
 1089 0000 80B5     		push	{r7, lr}
 1090              		.cfi_def_cfa_offset 8
 1091              		.cfi_offset 7, -8
 1092              		.cfi_offset 14, -4
 1093 0002 82B0     		sub	sp, sp, #8
 1094              		.cfi_def_cfa_offset 16
 1095 0004 00AF     		add	r7, sp, #0
 1096              		.cfi_def_cfa_register 7
 264:Nutrients.c   ****     _Bool bTestState1 = 1;
 1097              		.loc 1 264 0
 1098 0006 0123     		movs	r3, #1
 1099 0008 FB70     		strb	r3, [r7, #3]
 265:Nutrients.c   ****     _Bool bTestState2 = 0;
 1100              		.loc 1 265 0
 1101 000a 0023     		movs	r3, #0
 1102 000c BB70     		strb	r3, [r7, #2]
 266:Nutrients.c   ****     const TickType_t xDelayms = pdMS_TO_TICKS( 200 );
 1103              		.loc 1 266 0
 1104 000e C823     		movs	r3, #200
 1105 0010 7B60     		str	r3, [r7, #4]
 1106              	.L60:
 267:Nutrients.c   ****     
 268:Nutrients.c   ****     for(;;) {
 269:Nutrients.c   ****         if(bTestState1 == 1) {
 1107              		.loc 1 269 0
 1108 0012 FB78     		ldrb	r3, [r7, #3]	@ zero_extendqisi2
 1109 0014 002B     		cmp	r3, #0
 1110 0016 04D0     		beq	.L58
 270:Nutrients.c   ****             bTestState1 = 0;
 1111              		.loc 1 270 0
 1112 0018 0023     		movs	r3, #0
 1113 001a FB70     		strb	r3, [r7, #3]
 271:Nutrients.c   ****             bTestState2 = 1;
 1114              		.loc 1 271 0
 1115 001c 0123     		movs	r3, #1
 1116 001e BB70     		strb	r3, [r7, #2]
 1117 0020 03E0     		b	.L59
 1118              	.L58:
 272:Nutrients.c   ****         }
 273:Nutrients.c   ****         else {
 274:Nutrients.c   ****             bTestState1 = 1;
 1119              		.loc 1 274 0
 1120 0022 0123     		movs	r3, #1
 1121 0024 FB70     		strb	r3, [r7, #3]
 275:Nutrients.c   ****             bTestState2 = 0;
 1122              		.loc 1 275 0
 1123 0026 0023     		movs	r3, #0
 1124 0028 BB70     		strb	r3, [r7, #2]
 1125              	.L59:
 276:Nutrients.c   ****         }
 277:Nutrients.c   ****         xQueueSendToBack(xQueueNutrientPump[0], &bTestState1, portMAX_DELAY);
 1126              		.loc 1 277 0
 1127 002a 0E4B     		ldr	r3, .L61
ARM GAS  C:\Users\Gusta\AppData\Local\Temp\ccuUMYV0.s 			page 26


 1128 002c 1868     		ldr	r0, [r3]
 1129 002e F91C     		adds	r1, r7, #3
 1130 0030 0023     		movs	r3, #0
 1131 0032 4FF0FF32 		mov	r2, #-1
 1132 0036 FFF7FEFF 		bl	xQueueGenericSend
 278:Nutrients.c   ****         xQueueSendToBack(xQueueNutrientPump[1], &bTestState2, portMAX_DELAY);
 1133              		.loc 1 278 0
 1134 003a 0A4B     		ldr	r3, .L61
 1135 003c 5868     		ldr	r0, [r3, #4]
 1136 003e B91C     		adds	r1, r7, #2
 1137 0040 0023     		movs	r3, #0
 1138 0042 4FF0FF32 		mov	r2, #-1
 1139 0046 FFF7FEFF 		bl	xQueueGenericSend
 279:Nutrients.c   ****         xQueueSendToBack(xQueueNutrientPump[2], &bTestState1, portMAX_DELAY);
 1140              		.loc 1 279 0
 1141 004a 064B     		ldr	r3, .L61
 1142 004c 9868     		ldr	r0, [r3, #8]
 1143 004e F91C     		adds	r1, r7, #3
 1144 0050 0023     		movs	r3, #0
 1145 0052 4FF0FF32 		mov	r2, #-1
 1146 0056 FFF7FEFF 		bl	xQueueGenericSend
 280:Nutrients.c   ****         vTaskDelay(xDelayms);
 1147              		.loc 1 280 0
 1148 005a 7868     		ldr	r0, [r7, #4]
 1149 005c FFF7FEFF 		bl	vTaskDelay
 281:Nutrients.c   ****     }
 1150              		.loc 1 281 0
 1151 0060 D7E7     		b	.L60
 1152              	.L62:
 1153 0062 00BF     		.align	2
 1154              	.L61:
 1155 0064 00000000 		.word	xQueueNutrientPump
 1156              		.cfi_endproc
 1157              	.LFE78:
 1158              		.size	vTestTaskNutrientPump, .-vTestTaskNutrientPump
 1159              		.text
 1160              	.Letext0:
 1161              		.file 2 "c:\\program files (x86)\\cypress\\psoc creator\\4.3\\psoc creator\\import\\gnu\\arm\\5.4.
 1162              		.file 3 "c:\\program files (x86)\\cypress\\psoc creator\\4.3\\psoc creator\\import\\gnu\\arm\\5.4.
 1163              		.file 4 "Generated_Source\\PSoC5/cytypes.h"
 1164              		.file 5 "Generated_Source\\PSoC5/DS18x8.h"
 1165              		.file 6 ".\\Source\\portable\\GCC\\ARM_CM3/portmacro.h"
 1166              		.file 7 ".\\Source\\include/queue.h"
 1167              		.file 8 "Generated_Source\\PSoC5/core_cm3.h"
 1168              		.section	.debug_info,"",%progbits
 1169              	.Ldebug_info0:
 1170 0000 4D050000 		.4byte	0x54d
 1171 0004 0400     		.2byte	0x4
 1172 0006 00000000 		.4byte	.Ldebug_abbrev0
 1173 000a 04       		.byte	0x4
 1174 000b 01       		.uleb128 0x1
 1175 000c 92000000 		.4byte	.LASF80
 1176 0010 0C       		.byte	0xc
 1177 0011 A1030000 		.4byte	.LASF81
 1178 0015 4F040000 		.4byte	.LASF82
 1179 0019 00000000 		.4byte	.Ldebug_ranges0+0
 1180 001d 00000000 		.4byte	0
ARM GAS  C:\Users\Gusta\AppData\Local\Temp\ccuUMYV0.s 			page 27


 1181 0021 00000000 		.4byte	.Ldebug_line0
 1182 0025 02       		.uleb128 0x2
 1183 0026 04       		.byte	0x4
 1184 0027 05       		.byte	0x5
 1185 0028 696E7400 		.ascii	"int\000"
 1186 002c 03       		.uleb128 0x3
 1187 002d 04       		.byte	0x4
 1188 002e 07       		.byte	0x7
 1189 002f C5020000 		.4byte	.LASF0
 1190 0033 03       		.uleb128 0x3
 1191 0034 08       		.byte	0x8
 1192 0035 05       		.byte	0x5
 1193 0036 D6010000 		.4byte	.LASF1
 1194 003a 03       		.uleb128 0x3
 1195 003b 08       		.byte	0x8
 1196 003c 04       		.byte	0x4
 1197 003d 61020000 		.4byte	.LASF2
 1198 0041 03       		.uleb128 0x3
 1199 0042 01       		.byte	0x1
 1200 0043 06       		.byte	0x6
 1201 0044 AA010000 		.4byte	.LASF3
 1202 0048 04       		.uleb128 0x4
 1203 0049 F6040000 		.4byte	.LASF7
 1204 004d 02       		.byte	0x2
 1205 004e 1D       		.byte	0x1d
 1206 004f 53000000 		.4byte	0x53
 1207 0053 03       		.uleb128 0x3
 1208 0054 01       		.byte	0x1
 1209 0055 08       		.byte	0x8
 1210 0056 77020000 		.4byte	.LASF4
 1211 005a 03       		.uleb128 0x3
 1212 005b 02       		.byte	0x2
 1213 005c 05       		.byte	0x5
 1214 005d 58000000 		.4byte	.LASF5
 1215 0061 03       		.uleb128 0x3
 1216 0062 02       		.byte	0x2
 1217 0063 07       		.byte	0x7
 1218 0064 45030000 		.4byte	.LASF6
 1219 0068 04       		.uleb128 0x4
 1220 0069 FC030000 		.4byte	.LASF8
 1221 006d 02       		.byte	0x2
 1222 006e 3F       		.byte	0x3f
 1223 006f 73000000 		.4byte	0x73
 1224 0073 03       		.uleb128 0x3
 1225 0074 04       		.byte	0x4
 1226 0075 05       		.byte	0x5
 1227 0076 FB010000 		.4byte	.LASF9
 1228 007a 04       		.uleb128 0x4
 1229 007b D5030000 		.4byte	.LASF10
 1230 007f 02       		.byte	0x2
 1231 0080 41       		.byte	0x41
 1232 0081 85000000 		.4byte	0x85
 1233 0085 03       		.uleb128 0x3
 1234 0086 04       		.byte	0x4
 1235 0087 07       		.byte	0x7
 1236 0088 AD030000 		.4byte	.LASF11
 1237 008c 03       		.uleb128 0x3
ARM GAS  C:\Users\Gusta\AppData\Local\Temp\ccuUMYV0.s 			page 28


 1238 008d 08       		.byte	0x8
 1239 008e 07       		.byte	0x7
 1240 008f 93020000 		.4byte	.LASF12
 1241 0093 04       		.uleb128 0x4
 1242 0094 8D010000 		.4byte	.LASF13
 1243 0098 03       		.byte	0x3
 1244 0099 18       		.byte	0x18
 1245 009a 48000000 		.4byte	0x48
 1246 009e 04       		.uleb128 0x4
 1247 009f 3D030000 		.4byte	.LASF14
 1248 00a3 03       		.byte	0x3
 1249 00a4 2C       		.byte	0x2c
 1250 00a5 68000000 		.4byte	0x68
 1251 00a9 04       		.uleb128 0x4
 1252 00aa BC020000 		.4byte	.LASF15
 1253 00ae 03       		.byte	0x3
 1254 00af 30       		.byte	0x30
 1255 00b0 7A000000 		.4byte	0x7a
 1256 00b4 05       		.uleb128 0x5
 1257 00b5 A4010000 		.4byte	.LASF16
 1258 00b9 04       		.byte	0x4
 1259 00ba E401     		.2byte	0x1e4
 1260 00bc 53000000 		.4byte	0x53
 1261 00c0 05       		.uleb128 0x5
 1262 00c1 6C010000 		.4byte	.LASF17
 1263 00c5 04       		.byte	0x4
 1264 00c6 E501     		.2byte	0x1e5
 1265 00c8 61000000 		.4byte	0x61
 1266 00cc 05       		.uleb128 0x5
 1267 00cd 9E010000 		.4byte	.LASF18
 1268 00d1 04       		.byte	0x4
 1269 00d2 E801     		.2byte	0x1e8
 1270 00d4 5A000000 		.4byte	0x5a
 1271 00d8 03       		.uleb128 0x3
 1272 00d9 04       		.byte	0x4
 1273 00da 04       		.byte	0x4
 1274 00db B6010000 		.4byte	.LASF19
 1275 00df 03       		.uleb128 0x3
 1276 00e0 08       		.byte	0x8
 1277 00e1 04       		.byte	0x4
 1278 00e2 BF030000 		.4byte	.LASF20
 1279 00e6 03       		.uleb128 0x3
 1280 00e7 01       		.byte	0x1
 1281 00e8 08       		.byte	0x8
 1282 00e9 32030000 		.4byte	.LASF21
 1283 00ed 06       		.uleb128 0x6
 1284 00ee B4000000 		.4byte	0xb4
 1285 00f2 03       		.uleb128 0x3
 1286 00f3 04       		.byte	0x4
 1287 00f4 07       		.byte	0x7
 1288 00f5 70000000 		.4byte	.LASF22
 1289 00f9 07       		.uleb128 0x7
 1290 00fa 04       		.byte	0x4
 1291 00fb 08       		.uleb128 0x8
 1292 00fc 5F030000 		.4byte	.LASF28
 1293 0100 04       		.byte	0x4
 1294 0101 05       		.byte	0x5
ARM GAS  C:\Users\Gusta\AppData\Local\Temp\ccuUMYV0.s 			page 29


 1295 0102 30       		.byte	0x30
 1296 0103 20010000 		.4byte	0x120
 1297 0107 09       		.uleb128 0x9
 1298 0108 34040000 		.4byte	.LASF23
 1299 010c 05       		.byte	0x5
 1300 010d 31       		.byte	0x31
 1301 010e C0000000 		.4byte	0xc0
 1302 0112 00       		.byte	0
 1303 0113 09       		.uleb128 0x9
 1304 0114 10040000 		.4byte	.LASF24
 1305 0118 05       		.byte	0x5
 1306 0119 32       		.byte	0x32
 1307 011a B4000000 		.4byte	0xb4
 1308 011e 02       		.byte	0x2
 1309 011f 00       		.byte	0
 1310 0120 04       		.uleb128 0x4
 1311 0121 E8020000 		.4byte	.LASF25
 1312 0125 06       		.byte	0x6
 1313 0126 38       		.byte	0x38
 1314 0127 73000000 		.4byte	0x73
 1315 012b 04       		.uleb128 0x4
 1316 012c 56020000 		.4byte	.LASF26
 1317 0130 06       		.byte	0x6
 1318 0131 3F       		.byte	0x3f
 1319 0132 A9000000 		.4byte	0xa9
 1320 0136 04       		.uleb128 0x4
 1321 0137 2A020000 		.4byte	.LASF27
 1322 013b 07       		.byte	0x7
 1323 013c 30       		.byte	0x30
 1324 013d 41010000 		.4byte	0x141
 1325 0141 0A       		.uleb128 0xa
 1326 0142 04       		.byte	0x4
 1327 0143 47010000 		.4byte	0x147
 1328 0147 0B       		.uleb128 0xb
 1329 0148 06030000 		.4byte	.LASF83
 1330 014c 08       		.uleb128 0x8
 1331 014d 6D020000 		.4byte	.LASF29
 1332 0151 08       		.byte	0x8
 1333 0152 01       		.byte	0x1
 1334 0153 14       		.byte	0x14
 1335 0154 89010000 		.4byte	0x189
 1336 0158 09       		.uleb128 0x9
 1337 0159 E4010000 		.4byte	.LASF30
 1338 015d 01       		.byte	0x1
 1339 015e 15       		.byte	0x15
 1340 015f C0000000 		.4byte	0xc0
 1341 0163 00       		.byte	0
 1342 0164 09       		.uleb128 0x9
 1343 0165 04020000 		.4byte	.LASF31
 1344 0169 01       		.byte	0x1
 1345 016a 16       		.byte	0x16
 1346 016b C0000000 		.4byte	0xc0
 1347 016f 02       		.byte	0x2
 1348 0170 09       		.uleb128 0x9
 1349 0171 96030000 		.4byte	.LASF32
 1350 0175 01       		.byte	0x1
 1351 0176 17       		.byte	0x17
ARM GAS  C:\Users\Gusta\AppData\Local\Temp\ccuUMYV0.s 			page 30


 1352 0177 C0000000 		.4byte	0xc0
 1353 017b 04       		.byte	0x4
 1354 017c 09       		.uleb128 0x9
 1355 017d 4D000000 		.4byte	.LASF33
 1356 0181 01       		.byte	0x1
 1357 0182 18       		.byte	0x18
 1358 0183 B4000000 		.4byte	0xb4
 1359 0187 06       		.byte	0x6
 1360 0188 00       		.byte	0
 1361 0189 0C       		.uleb128 0xc
 1362 018a 6E030000 		.4byte	.LASF56
 1363 018e 01       		.byte	0x1
 1364 018f 2F       		.byte	0x2f
 1365 0190 00000000 		.4byte	.LFB68
 1366 0194 34010000 		.4byte	.LFE68-.LFB68
 1367 0198 01       		.uleb128 0x1
 1368 0199 9C       		.byte	0x9c
 1369 019a 0D       		.uleb128 0xd
 1370 019b AA020000 		.4byte	.LASF84
 1371 019f 01       		.byte	0x1
 1372 01a0 4F       		.byte	0x4f
 1373 01a1 00000000 		.4byte	.LFB69
 1374 01a5 C8000000 		.4byte	.LFE69-.LFB69
 1375 01a9 01       		.uleb128 0x1
 1376 01aa 9C       		.byte	0x9c
 1377 01ab E8010000 		.4byte	0x1e8
 1378 01af 0E       		.uleb128 0xe
 1379 01b0 27040000 		.4byte	.LASF43
 1380 01b4 01       		.byte	0x1
 1381 01b5 4F       		.byte	0x4f
 1382 01b6 F9000000 		.4byte	0xf9
 1383 01ba 02       		.uleb128 0x2
 1384 01bb 91       		.byte	0x91
 1385 01bc 64       		.sleb128 -28
 1386 01bd 0F       		.uleb128 0xf
 1387 01be DE040000 		.4byte	.LASF34
 1388 01c2 01       		.byte	0x1
 1389 01c3 50       		.byte	0x50
 1390 01c4 E8010000 		.4byte	0x1e8
 1391 01c8 02       		.uleb128 0x2
 1392 01c9 91       		.byte	0x91
 1393 01ca 6F       		.sleb128 -17
 1394 01cb 0F       		.uleb128 0xf
 1395 01cc 8A000000 		.4byte	.LASF35
 1396 01d0 01       		.byte	0x1
 1397 01d1 51       		.byte	0x51
 1398 01d2 20010000 		.4byte	0x120
 1399 01d6 02       		.uleb128 0x2
 1400 01d7 91       		.byte	0x91
 1401 01d8 70       		.sleb128 -16
 1402 01d9 0F       		.uleb128 0xf
 1403 01da 40040000 		.4byte	.LASF36
 1404 01de 01       		.byte	0x1
 1405 01df 52       		.byte	0x52
 1406 01e0 EF010000 		.4byte	0x1ef
 1407 01e4 02       		.uleb128 0x2
 1408 01e5 91       		.byte	0x91
ARM GAS  C:\Users\Gusta\AppData\Local\Temp\ccuUMYV0.s 			page 31


 1409 01e6 74       		.sleb128 -12
 1410 01e7 00       		.byte	0
 1411 01e8 03       		.uleb128 0x3
 1412 01e9 01       		.byte	0x1
 1413 01ea 02       		.byte	0x2
 1414 01eb 37030000 		.4byte	.LASF37
 1415 01ef 0A       		.uleb128 0xa
 1416 01f0 04       		.byte	0x4
 1417 01f1 B4000000 		.4byte	0xb4
 1418 01f5 10       		.uleb128 0x10
 1419 01f6 18040000 		.4byte	.LASF46
 1420 01fa 01       		.byte	0x1
 1421 01fb 80       		.byte	0x80
 1422 01fc 00000000 		.4byte	.LFB70
 1423 0200 D8000000 		.4byte	.LFE70-.LFB70
 1424 0204 01       		.uleb128 0x1
 1425 0205 9C       		.byte	0x9c
 1426 0206 5F020000 		.4byte	0x25f
 1427 020a 0F       		.uleb128 0xf
 1428 020b BC010000 		.4byte	.LASF38
 1429 020f 01       		.byte	0x1
 1430 0210 81       		.byte	0x81
 1431 0211 D8000000 		.4byte	0xd8
 1432 0215 02       		.uleb128 0x2
 1433 0216 91       		.byte	0x91
 1434 0217 64       		.sleb128 -28
 1435 0218 0F       		.uleb128 0xf
 1436 0219 54010000 		.4byte	.LASF39
 1437 021d 01       		.byte	0x1
 1438 021e 82       		.byte	0x82
 1439 021f 5F020000 		.4byte	0x25f
 1440 0223 02       		.uleb128 0x2
 1441 0224 91       		.byte	0x91
 1442 0225 68       		.sleb128 -24
 1443 0226 0F       		.uleb128 0xf
 1444 0227 FD020000 		.4byte	.LASF40
 1445 022b 01       		.byte	0x1
 1446 022c 83       		.byte	0x83
 1447 022d D8000000 		.4byte	0xd8
 1448 0231 02       		.uleb128 0x2
 1449 0232 91       		.byte	0x91
 1450 0233 60       		.sleb128 -32
 1451 0234 0F       		.uleb128 0xf
 1452 0235 21000000 		.4byte	.LASF41
 1453 0239 01       		.byte	0x1
 1454 023a 84       		.byte	0x84
 1455 023b D8000000 		.4byte	0xd8
 1456 023f 02       		.uleb128 0x2
 1457 0240 91       		.byte	0x91
 1458 0241 5C       		.sleb128 -36
 1459 0242 0F       		.uleb128 0xf
 1460 0243 ED010000 		.4byte	.LASF42
 1461 0247 01       		.byte	0x1
 1462 0248 85       		.byte	0x85
 1463 0249 C0000000 		.4byte	0xc0
 1464 024d 02       		.uleb128 0x2
 1465 024e 91       		.byte	0x91
ARM GAS  C:\Users\Gusta\AppData\Local\Temp\ccuUMYV0.s 			page 32


 1466 024f 5A       		.sleb128 -38
 1467 0250 0F       		.uleb128 0xf
 1468 0251 DE040000 		.4byte	.LASF34
 1469 0255 01       		.byte	0x1
 1470 0256 86       		.byte	0x86
 1471 0257 E8010000 		.4byte	0x1e8
 1472 025b 02       		.uleb128 0x2
 1473 025c 91       		.byte	0x91
 1474 025d 6F       		.sleb128 -17
 1475 025e 00       		.byte	0
 1476 025f 11       		.uleb128 0x11
 1477 0260 2B010000 		.4byte	0x12b
 1478 0264 12       		.uleb128 0x12
 1479 0265 EA030000 		.4byte	.LASF85
 1480 0269 01       		.byte	0x1
 1481 026a 9F       		.byte	0x9f
 1482 026b D8000000 		.4byte	0xd8
 1483 026f 00000000 		.4byte	.LFB71
 1484 0273 68010000 		.4byte	.LFE71-.LFB71
 1485 0277 01       		.uleb128 0x1
 1486 0278 9C       		.byte	0x9c
 1487 0279 A8020000 		.4byte	0x2a8
 1488 027d 0E       		.uleb128 0xe
 1489 027e BC010000 		.4byte	.LASF38
 1490 0282 01       		.byte	0x1
 1491 0283 9F       		.byte	0x9f
 1492 0284 D8000000 		.4byte	0xd8
 1493 0288 02       		.uleb128 0x2
 1494 0289 91       		.byte	0x91
 1495 028a 64       		.sleb128 -28
 1496 028b 0F       		.uleb128 0xf
 1497 028c 58030000 		.4byte	.LASF44
 1498 0290 01       		.byte	0x1
 1499 0291 A0       		.byte	0xa0
 1500 0292 D8000000 		.4byte	0xd8
 1501 0296 02       		.uleb128 0x2
 1502 0297 91       		.byte	0x91
 1503 0298 6C       		.sleb128 -20
 1504 0299 0F       		.uleb128 0xf
 1505 029a 33010000 		.4byte	.LASF45
 1506 029e 01       		.byte	0x1
 1507 029f A1       		.byte	0xa1
 1508 02a0 D8000000 		.4byte	0xd8
 1509 02a4 02       		.uleb128 0x2
 1510 02a5 91       		.byte	0x91
 1511 02a6 68       		.sleb128 -24
 1512 02a7 00       		.byte	0
 1513 02a8 10       		.uleb128 0x10
 1514 02a9 C7010000 		.4byte	.LASF47
 1515 02ad 01       		.byte	0x1
 1516 02ae A7       		.byte	0xa7
 1517 02af 00000000 		.4byte	.LFB72
 1518 02b3 5C000000 		.4byte	.LFE72-.LFB72
 1519 02b7 01       		.uleb128 0x1
 1520 02b8 9C       		.byte	0x9c
 1521 02b9 E8020000 		.4byte	0x2e8
 1522 02bd 0F       		.uleb128 0xf
ARM GAS  C:\Users\Gusta\AppData\Local\Temp\ccuUMYV0.s 			page 33


 1523 02be 54010000 		.4byte	.LASF39
 1524 02c2 01       		.byte	0x1
 1525 02c3 A8       		.byte	0xa8
 1526 02c4 5F020000 		.4byte	0x25f
 1527 02c8 02       		.uleb128 0x2
 1528 02c9 91       		.byte	0x91
 1529 02ca 70       		.sleb128 -16
 1530 02cb 0F       		.uleb128 0xf
 1531 02cc F3020000 		.4byte	.LASF48
 1532 02d0 01       		.byte	0x1
 1533 02d1 A9       		.byte	0xa9
 1534 02d2 CC000000 		.4byte	0xcc
 1535 02d6 02       		.uleb128 0x2
 1536 02d7 91       		.byte	0x91
 1537 02d8 6E       		.sleb128 -18
 1538 02d9 0F       		.uleb128 0xf
 1539 02da E0030000 		.4byte	.LASF49
 1540 02de 01       		.byte	0x1
 1541 02df AA       		.byte	0xaa
 1542 02e0 E8010000 		.4byte	0x1e8
 1543 02e4 02       		.uleb128 0x2
 1544 02e5 91       		.byte	0x91
 1545 02e6 77       		.sleb128 -9
 1546 02e7 00       		.byte	0
 1547 02e8 10       		.uleb128 0x10
 1548 02e9 5D010000 		.4byte	.LASF50
 1549 02ed 01       		.byte	0x1
 1550 02ee BC       		.byte	0xbc
 1551 02ef 00000000 		.4byte	.LFB73
 1552 02f3 38000000 		.4byte	.LFE73-.LFB73
 1553 02f7 01       		.uleb128 0x1
 1554 02f8 9C       		.byte	0x9c
 1555 02f9 1A030000 		.4byte	0x31a
 1556 02fd 0F       		.uleb128 0xf
 1557 02fe 54010000 		.4byte	.LASF39
 1558 0302 01       		.byte	0x1
 1559 0303 BE       		.byte	0xbe
 1560 0304 5F020000 		.4byte	0x25f
 1561 0308 02       		.uleb128 0x2
 1562 0309 91       		.byte	0x91
 1563 030a 74       		.sleb128 -12
 1564 030b 0F       		.uleb128 0xf
 1565 030c 38020000 		.4byte	.LASF51
 1566 0310 01       		.byte	0x1
 1567 0311 BF       		.byte	0xbf
 1568 0312 B4000000 		.4byte	0xb4
 1569 0316 02       		.uleb128 0x2
 1570 0317 91       		.byte	0x91
 1571 0318 73       		.sleb128 -13
 1572 0319 00       		.byte	0
 1573 031a 10       		.uleb128 0x10
 1574 031b CF040000 		.4byte	.LASF52
 1575 031f 01       		.byte	0x1
 1576 0320 D8       		.byte	0xd8
 1577 0321 00000000 		.4byte	.LFB74
 1578 0325 38000000 		.4byte	.LFE74-.LFB74
 1579 0329 01       		.uleb128 0x1
ARM GAS  C:\Users\Gusta\AppData\Local\Temp\ccuUMYV0.s 			page 34


 1580 032a 9C       		.byte	0x9c
 1581 032b 3E030000 		.4byte	0x33e
 1582 032f 0F       		.uleb128 0xf
 1583 0330 85020000 		.4byte	.LASF53
 1584 0334 01       		.byte	0x1
 1585 0335 DA       		.byte	0xda
 1586 0336 B4000000 		.4byte	0xb4
 1587 033a 02       		.uleb128 0x2
 1588 033b 91       		.byte	0x91
 1589 033c 77       		.sleb128 -9
 1590 033d 00       		.byte	0
 1591 033e 10       		.uleb128 0x10
 1592 033f 0E000000 		.4byte	.LASF54
 1593 0343 01       		.byte	0x1
 1594 0344 E6       		.byte	0xe6
 1595 0345 00000000 		.4byte	.LFB75
 1596 0349 38000000 		.4byte	.LFE75-.LFB75
 1597 034d 01       		.uleb128 0x1
 1598 034e 9C       		.byte	0x9c
 1599 034f 62030000 		.4byte	0x362
 1600 0353 0F       		.uleb128 0xf
 1601 0354 3F000000 		.4byte	.LASF55
 1602 0358 01       		.byte	0x1
 1603 0359 E7       		.byte	0xe7
 1604 035a C0000000 		.4byte	0xc0
 1605 035e 02       		.uleb128 0x2
 1606 035f 91       		.byte	0x91
 1607 0360 76       		.sleb128 -10
 1608 0361 00       		.byte	0
 1609 0362 0C       		.uleb128 0xc
 1610 0363 00000000 		.4byte	.LASF57
 1611 0367 01       		.byte	0x1
 1612 0368 F1       		.byte	0xf1
 1613 0369 00000000 		.4byte	.LFB76
 1614 036d 44000000 		.4byte	.LFE76-.LFB76
 1615 0371 01       		.uleb128 0x1
 1616 0372 9C       		.byte	0x9c
 1617 0373 10       		.uleb128 0x10
 1618 0374 73010000 		.4byte	.LASF58
 1619 0378 01       		.byte	0x1
 1620 0379 F9       		.byte	0xf9
 1621 037a 00000000 		.4byte	.LFB77
 1622 037e 60000000 		.4byte	.LFE77-.LFB77
 1623 0382 01       		.uleb128 0x1
 1624 0383 9C       		.byte	0x9c
 1625 0384 97030000 		.4byte	0x397
 1626 0388 0F       		.uleb128 0xf
 1627 0389 21030000 		.4byte	.LASF59
 1628 038d 01       		.byte	0x1
 1629 038e FA       		.byte	0xfa
 1630 038f C0000000 		.4byte	0xc0
 1631 0393 02       		.uleb128 0x2
 1632 0394 91       		.byte	0x91
 1633 0395 76       		.sleb128 -10
 1634 0396 00       		.byte	0
 1635 0397 13       		.uleb128 0x13
 1636 0398 3E010000 		.4byte	.LASF60
ARM GAS  C:\Users\Gusta\AppData\Local\Temp\ccuUMYV0.s 			page 35


 1637 039c 01       		.byte	0x1
 1638 039d 0701     		.2byte	0x107
 1639 039f 00000000 		.4byte	.LFB78
 1640 03a3 68000000 		.4byte	.LFE78-.LFB78
 1641 03a7 01       		.uleb128 0x1
 1642 03a8 9C       		.byte	0x9c
 1643 03a9 DB030000 		.4byte	0x3db
 1644 03ad 14       		.uleb128 0x14
 1645 03ae 00050000 		.4byte	.LASF61
 1646 03b2 01       		.byte	0x1
 1647 03b3 0801     		.2byte	0x108
 1648 03b5 E8010000 		.4byte	0x1e8
 1649 03b9 02       		.uleb128 0x2
 1650 03ba 91       		.byte	0x91
 1651 03bb 73       		.sleb128 -13
 1652 03bc 14       		.uleb128 0x14
 1653 03bd 0C050000 		.4byte	.LASF62
 1654 03c1 01       		.byte	0x1
 1655 03c2 0901     		.2byte	0x109
 1656 03c4 E8010000 		.4byte	0x1e8
 1657 03c8 02       		.uleb128 0x2
 1658 03c9 91       		.byte	0x91
 1659 03ca 72       		.sleb128 -14
 1660 03cb 14       		.uleb128 0x14
 1661 03cc 54010000 		.4byte	.LASF39
 1662 03d0 01       		.byte	0x1
 1663 03d1 0A01     		.2byte	0x10a
 1664 03d3 5F020000 		.4byte	0x25f
 1665 03d7 02       		.uleb128 0x2
 1666 03d8 91       		.byte	0x91
 1667 03d9 74       		.sleb128 -12
 1668 03da 00       		.byte	0
 1669 03db 15       		.uleb128 0x15
 1670 03dc EB030000 		.4byte	0x3eb
 1671 03e0 EB030000 		.4byte	0x3eb
 1672 03e4 16       		.uleb128 0x16
 1673 03e5 F2000000 		.4byte	0xf2
 1674 03e9 02       		.byte	0x2
 1675 03ea 00       		.byte	0
 1676 03eb 11       		.uleb128 0x11
 1677 03ec B4000000 		.4byte	0xb4
 1678 03f0 0F       		.uleb128 0xf
 1679 03f1 D2020000 		.4byte	.LASF63
 1680 03f5 01       		.byte	0x1
 1681 03f6 2C       		.byte	0x2c
 1682 03f7 01040000 		.4byte	0x401
 1683 03fb 05       		.uleb128 0x5
 1684 03fc 03       		.byte	0x3
 1685 03fd 10000000 		.4byte	pcTextForNutrientPump
 1686 0401 11       		.uleb128 0x11
 1687 0402 DB030000 		.4byte	0x3db
 1688 0406 15       		.uleb128 0x15
 1689 0407 FB000000 		.4byte	0xfb
 1690 040b 16040000 		.4byte	0x416
 1691 040f 16       		.uleb128 0x16
 1692 0410 F2000000 		.4byte	0xf2
 1693 0414 07       		.byte	0x7
ARM GAS  C:\Users\Gusta\AppData\Local\Temp\ccuUMYV0.s 			page 36


 1694 0415 00       		.byte	0
 1695 0416 17       		.uleb128 0x17
 1696 0417 62000000 		.4byte	.LASF64
 1697 041b 05       		.byte	0x5
 1698 041c 34       		.byte	0x34
 1699 041d 06040000 		.4byte	0x406
 1700 0421 05       		.uleb128 0x5
 1701 0422 03       		.byte	0x3
 1702 0423 00000000 		.4byte	DS18x8_Sensor
 1703 0427 17       		.uleb128 0x17
 1704 0428 E5040000 		.4byte	.LASF65
 1705 042c 05       		.byte	0x5
 1706 042d 39       		.byte	0x39
 1707 042e ED000000 		.4byte	0xed
 1708 0432 05       		.uleb128 0x5
 1709 0433 03       		.byte	0x3
 1710 0434 00000000 		.4byte	DS18x8_DataReady
 1711 0438 18       		.uleb128 0x18
 1712 0439 B1040000 		.4byte	.LASF66
 1713 043d 08       		.byte	0x8
 1714 043e 1207     		.2byte	0x712
 1715 0440 44040000 		.4byte	0x444
 1716 0444 06       		.uleb128 0x6
 1717 0445 9E000000 		.4byte	0x9e
 1718 0449 17       		.uleb128 0x17
 1719 044a 79000000 		.4byte	.LASF67
 1720 044e 01       		.byte	0x1
 1721 044f 1B       		.byte	0x1b
 1722 0450 5A040000 		.4byte	0x45a
 1723 0454 05       		.uleb128 0x5
 1724 0455 03       		.byte	0x3
 1725 0456 00000000 		.4byte	iSizeOfNutrients
 1726 045a 11       		.uleb128 0x11
 1727 045b 25000000 		.4byte	0x25
 1728 045f 15       		.uleb128 0x15
 1729 0460 4C010000 		.4byte	0x14c
 1730 0464 6F040000 		.4byte	0x46f
 1731 0468 16       		.uleb128 0x16
 1732 0469 F2000000 		.4byte	0xf2
 1733 046d 27       		.byte	0x27
 1734 046e 00       		.byte	0
 1735 046f 17       		.uleb128 0x17
 1736 0470 BE040000 		.4byte	.LASF68
 1737 0474 01       		.byte	0x1
 1738 0475 1C       		.byte	0x1c
 1739 0476 5F040000 		.4byte	0x45f
 1740 047a 05       		.uleb128 0x5
 1741 047b 03       		.byte	0x3
 1742 047c 00000000 		.4byte	currentNutrients
 1743 0480 17       		.uleb128 0x17
 1744 0481 95010000 		.4byte	.LASF69
 1745 0485 01       		.byte	0x1
 1746 0486 1D       		.byte	0x1d
 1747 0487 25000000 		.4byte	0x25
 1748 048b 05       		.uleb128 0x5
 1749 048c 03       		.byte	0x3
 1750 048d 00000000 		.4byte	iPHIndex
ARM GAS  C:\Users\Gusta\AppData\Local\Temp\ccuUMYV0.s 			page 37


 1751 0491 17       		.uleb128 0x17
 1752 0492 8D030000 		.4byte	.LASF70
 1753 0496 01       		.byte	0x1
 1754 0497 1E       		.byte	0x1e
 1755 0498 25000000 		.4byte	0x25
 1756 049c 05       		.uleb128 0x5
 1757 049d 03       		.byte	0x3
 1758 049e 00000000 		.4byte	iECIndex
 1759 04a2 17       		.uleb128 0x17
 1760 04a3 C6030000 		.4byte	.LASF71
 1761 04a7 01       		.byte	0x1
 1762 04a8 1F       		.byte	0x1f
 1763 04a9 25000000 		.4byte	0x25
 1764 04ad 05       		.uleb128 0x5
 1765 04ae 03       		.byte	0x3
 1766 04af 00000000 		.4byte	iWateTempIndex
 1767 04b3 17       		.uleb128 0x17
 1768 04b4 2F000000 		.4byte	.LASF72
 1769 04b8 01       		.byte	0x1
 1770 04b9 21       		.byte	0x21
 1771 04ba C4040000 		.4byte	0x4c4
 1772 04be 05       		.uleb128 0x5
 1773 04bf 03       		.byte	0x3
 1774 04c0 00000000 		.4byte	fNeutralVoltage
 1775 04c4 11       		.uleb128 0x11
 1776 04c5 D8000000 		.4byte	0xd8
 1777 04c9 17       		.uleb128 0x17
 1778 04ca 0D020000 		.4byte	.LASF73
 1779 04ce 01       		.byte	0x1
 1780 04cf 22       		.byte	0x22
 1781 04d0 C4040000 		.4byte	0x4c4
 1782 04d4 05       		.uleb128 0x5
 1783 04d5 03       		.byte	0x3
 1784 04d6 00000000 		.4byte	fAcidVoltage
 1785 04da 15       		.uleb128 0x15
 1786 04db 36010000 		.4byte	0x136
 1787 04df EA040000 		.4byte	0x4ea
 1788 04e3 16       		.uleb128 0x16
 1789 04e4 F2000000 		.4byte	0xf2
 1790 04e8 02       		.byte	0x2
 1791 04e9 00       		.byte	0
 1792 04ea 17       		.uleb128 0x17
 1793 04eb 20010000 		.4byte	.LASF74
 1794 04ef 01       		.byte	0x1
 1795 04f0 24       		.byte	0x24
 1796 04f1 DA040000 		.4byte	0x4da
 1797 04f5 05       		.uleb128 0x5
 1798 04f6 03       		.byte	0x3
 1799 04f7 00000000 		.4byte	xQueueNutrientPump
 1800 04fb 17       		.uleb128 0x17
 1801 04fc 48020000 		.4byte	.LASF75
 1802 0500 01       		.byte	0x1
 1803 0501 25       		.byte	0x25
 1804 0502 36010000 		.4byte	0x136
 1805 0506 05       		.uleb128 0x5
 1806 0507 03       		.byte	0x3
 1807 0508 00000000 		.4byte	xQueuePHValue
ARM GAS  C:\Users\Gusta\AppData\Local\Temp\ccuUMYV0.s 			page 38


 1808 050c 17       		.uleb128 0x17
 1809 050d 1A020000 		.4byte	.LASF76
 1810 0511 01       		.byte	0x1
 1811 0512 26       		.byte	0x26
 1812 0513 36010000 		.4byte	0x136
 1813 0517 05       		.uleb128 0x5
 1814 0518 03       		.byte	0x3
 1815 0519 00000000 		.4byte	xQueueWaterTemp
 1816 051d 17       		.uleb128 0x17
 1817 051e 7D030000 		.4byte	.LASF77
 1818 0522 01       		.byte	0x1
 1819 0523 27       		.byte	0x27
 1820 0524 36010000 		.4byte	0x136
 1821 0528 05       		.uleb128 0x5
 1822 0529 03       		.byte	0x3
 1823 052a 00000000 		.4byte	xQueueFlowWater
 1824 052e 17       		.uleb128 0x17
 1825 052f 06040000 		.4byte	.LASF78
 1826 0533 01       		.byte	0x1
 1827 0534 2A       		.byte	0x2a
 1828 0535 EB030000 		.4byte	0x3eb
 1829 0539 05       		.uleb128 0x5
 1830 053a 03       		.byte	0x3
 1831 053b 00000000 		.4byte	MAX_SPEED
 1832 053f 17       		.uleb128 0x17
 1833 0540 16030000 		.4byte	.LASF79
 1834 0544 01       		.byte	0x1
 1835 0545 2B       		.byte	0x2b
 1836 0546 EB030000 		.4byte	0x3eb
 1837 054a 05       		.uleb128 0x5
 1838 054b 03       		.byte	0x3
 1839 054c 00000000 		.4byte	STOP_SPEED
 1840 0550 00       		.byte	0
 1841              		.section	.debug_abbrev,"",%progbits
 1842              	.Ldebug_abbrev0:
 1843 0000 01       		.uleb128 0x1
 1844 0001 11       		.uleb128 0x11
 1845 0002 01       		.byte	0x1
 1846 0003 25       		.uleb128 0x25
 1847 0004 0E       		.uleb128 0xe
 1848 0005 13       		.uleb128 0x13
 1849 0006 0B       		.uleb128 0xb
 1850 0007 03       		.uleb128 0x3
 1851 0008 0E       		.uleb128 0xe
 1852 0009 1B       		.uleb128 0x1b
 1853 000a 0E       		.uleb128 0xe
 1854 000b 55       		.uleb128 0x55
 1855 000c 17       		.uleb128 0x17
 1856 000d 11       		.uleb128 0x11
 1857 000e 01       		.uleb128 0x1
 1858 000f 10       		.uleb128 0x10
 1859 0010 17       		.uleb128 0x17
 1860 0011 00       		.byte	0
 1861 0012 00       		.byte	0
 1862 0013 02       		.uleb128 0x2
 1863 0014 24       		.uleb128 0x24
 1864 0015 00       		.byte	0
ARM GAS  C:\Users\Gusta\AppData\Local\Temp\ccuUMYV0.s 			page 39


 1865 0016 0B       		.uleb128 0xb
 1866 0017 0B       		.uleb128 0xb
 1867 0018 3E       		.uleb128 0x3e
 1868 0019 0B       		.uleb128 0xb
 1869 001a 03       		.uleb128 0x3
 1870 001b 08       		.uleb128 0x8
 1871 001c 00       		.byte	0
 1872 001d 00       		.byte	0
 1873 001e 03       		.uleb128 0x3
 1874 001f 24       		.uleb128 0x24
 1875 0020 00       		.byte	0
 1876 0021 0B       		.uleb128 0xb
 1877 0022 0B       		.uleb128 0xb
 1878 0023 3E       		.uleb128 0x3e
 1879 0024 0B       		.uleb128 0xb
 1880 0025 03       		.uleb128 0x3
 1881 0026 0E       		.uleb128 0xe
 1882 0027 00       		.byte	0
 1883 0028 00       		.byte	0
 1884 0029 04       		.uleb128 0x4
 1885 002a 16       		.uleb128 0x16
 1886 002b 00       		.byte	0
 1887 002c 03       		.uleb128 0x3
 1888 002d 0E       		.uleb128 0xe
 1889 002e 3A       		.uleb128 0x3a
 1890 002f 0B       		.uleb128 0xb
 1891 0030 3B       		.uleb128 0x3b
 1892 0031 0B       		.uleb128 0xb
 1893 0032 49       		.uleb128 0x49
 1894 0033 13       		.uleb128 0x13
 1895 0034 00       		.byte	0
 1896 0035 00       		.byte	0
 1897 0036 05       		.uleb128 0x5
 1898 0037 16       		.uleb128 0x16
 1899 0038 00       		.byte	0
 1900 0039 03       		.uleb128 0x3
 1901 003a 0E       		.uleb128 0xe
 1902 003b 3A       		.uleb128 0x3a
 1903 003c 0B       		.uleb128 0xb
 1904 003d 3B       		.uleb128 0x3b
 1905 003e 05       		.uleb128 0x5
 1906 003f 49       		.uleb128 0x49
 1907 0040 13       		.uleb128 0x13
 1908 0041 00       		.byte	0
 1909 0042 00       		.byte	0
 1910 0043 06       		.uleb128 0x6
 1911 0044 35       		.uleb128 0x35
 1912 0045 00       		.byte	0
 1913 0046 49       		.uleb128 0x49
 1914 0047 13       		.uleb128 0x13
 1915 0048 00       		.byte	0
 1916 0049 00       		.byte	0
 1917 004a 07       		.uleb128 0x7
 1918 004b 0F       		.uleb128 0xf
 1919 004c 00       		.byte	0
 1920 004d 0B       		.uleb128 0xb
 1921 004e 0B       		.uleb128 0xb
ARM GAS  C:\Users\Gusta\AppData\Local\Temp\ccuUMYV0.s 			page 40


 1922 004f 00       		.byte	0
 1923 0050 00       		.byte	0
 1924 0051 08       		.uleb128 0x8
 1925 0052 13       		.uleb128 0x13
 1926 0053 01       		.byte	0x1
 1927 0054 03       		.uleb128 0x3
 1928 0055 0E       		.uleb128 0xe
 1929 0056 0B       		.uleb128 0xb
 1930 0057 0B       		.uleb128 0xb
 1931 0058 3A       		.uleb128 0x3a
 1932 0059 0B       		.uleb128 0xb
 1933 005a 3B       		.uleb128 0x3b
 1934 005b 0B       		.uleb128 0xb
 1935 005c 01       		.uleb128 0x1
 1936 005d 13       		.uleb128 0x13
 1937 005e 00       		.byte	0
 1938 005f 00       		.byte	0
 1939 0060 09       		.uleb128 0x9
 1940 0061 0D       		.uleb128 0xd
 1941 0062 00       		.byte	0
 1942 0063 03       		.uleb128 0x3
 1943 0064 0E       		.uleb128 0xe
 1944 0065 3A       		.uleb128 0x3a
 1945 0066 0B       		.uleb128 0xb
 1946 0067 3B       		.uleb128 0x3b
 1947 0068 0B       		.uleb128 0xb
 1948 0069 49       		.uleb128 0x49
 1949 006a 13       		.uleb128 0x13
 1950 006b 38       		.uleb128 0x38
 1951 006c 0B       		.uleb128 0xb
 1952 006d 00       		.byte	0
 1953 006e 00       		.byte	0
 1954 006f 0A       		.uleb128 0xa
 1955 0070 0F       		.uleb128 0xf
 1956 0071 00       		.byte	0
 1957 0072 0B       		.uleb128 0xb
 1958 0073 0B       		.uleb128 0xb
 1959 0074 49       		.uleb128 0x49
 1960 0075 13       		.uleb128 0x13
 1961 0076 00       		.byte	0
 1962 0077 00       		.byte	0
 1963 0078 0B       		.uleb128 0xb
 1964 0079 13       		.uleb128 0x13
 1965 007a 00       		.byte	0
 1966 007b 03       		.uleb128 0x3
 1967 007c 0E       		.uleb128 0xe
 1968 007d 3C       		.uleb128 0x3c
 1969 007e 19       		.uleb128 0x19
 1970 007f 00       		.byte	0
 1971 0080 00       		.byte	0
 1972 0081 0C       		.uleb128 0xc
 1973 0082 2E       		.uleb128 0x2e
 1974 0083 00       		.byte	0
 1975 0084 3F       		.uleb128 0x3f
 1976 0085 19       		.uleb128 0x19
 1977 0086 03       		.uleb128 0x3
 1978 0087 0E       		.uleb128 0xe
ARM GAS  C:\Users\Gusta\AppData\Local\Temp\ccuUMYV0.s 			page 41


 1979 0088 3A       		.uleb128 0x3a
 1980 0089 0B       		.uleb128 0xb
 1981 008a 3B       		.uleb128 0x3b
 1982 008b 0B       		.uleb128 0xb
 1983 008c 11       		.uleb128 0x11
 1984 008d 01       		.uleb128 0x1
 1985 008e 12       		.uleb128 0x12
 1986 008f 06       		.uleb128 0x6
 1987 0090 40       		.uleb128 0x40
 1988 0091 18       		.uleb128 0x18
 1989 0092 9642     		.uleb128 0x2116
 1990 0094 19       		.uleb128 0x19
 1991 0095 00       		.byte	0
 1992 0096 00       		.byte	0
 1993 0097 0D       		.uleb128 0xd
 1994 0098 2E       		.uleb128 0x2e
 1995 0099 01       		.byte	0x1
 1996 009a 3F       		.uleb128 0x3f
 1997 009b 19       		.uleb128 0x19
 1998 009c 03       		.uleb128 0x3
 1999 009d 0E       		.uleb128 0xe
 2000 009e 3A       		.uleb128 0x3a
 2001 009f 0B       		.uleb128 0xb
 2002 00a0 3B       		.uleb128 0x3b
 2003 00a1 0B       		.uleb128 0xb
 2004 00a2 27       		.uleb128 0x27
 2005 00a3 19       		.uleb128 0x19
 2006 00a4 11       		.uleb128 0x11
 2007 00a5 01       		.uleb128 0x1
 2008 00a6 12       		.uleb128 0x12
 2009 00a7 06       		.uleb128 0x6
 2010 00a8 40       		.uleb128 0x40
 2011 00a9 18       		.uleb128 0x18
 2012 00aa 9642     		.uleb128 0x2116
 2013 00ac 19       		.uleb128 0x19
 2014 00ad 01       		.uleb128 0x1
 2015 00ae 13       		.uleb128 0x13
 2016 00af 00       		.byte	0
 2017 00b0 00       		.byte	0
 2018 00b1 0E       		.uleb128 0xe
 2019 00b2 05       		.uleb128 0x5
 2020 00b3 00       		.byte	0
 2021 00b4 03       		.uleb128 0x3
 2022 00b5 0E       		.uleb128 0xe
 2023 00b6 3A       		.uleb128 0x3a
 2024 00b7 0B       		.uleb128 0xb
 2025 00b8 3B       		.uleb128 0x3b
 2026 00b9 0B       		.uleb128 0xb
 2027 00ba 49       		.uleb128 0x49
 2028 00bb 13       		.uleb128 0x13
 2029 00bc 02       		.uleb128 0x2
 2030 00bd 18       		.uleb128 0x18
 2031 00be 00       		.byte	0
 2032 00bf 00       		.byte	0
 2033 00c0 0F       		.uleb128 0xf
 2034 00c1 34       		.uleb128 0x34
 2035 00c2 00       		.byte	0
ARM GAS  C:\Users\Gusta\AppData\Local\Temp\ccuUMYV0.s 			page 42


 2036 00c3 03       		.uleb128 0x3
 2037 00c4 0E       		.uleb128 0xe
 2038 00c5 3A       		.uleb128 0x3a
 2039 00c6 0B       		.uleb128 0xb
 2040 00c7 3B       		.uleb128 0x3b
 2041 00c8 0B       		.uleb128 0xb
 2042 00c9 49       		.uleb128 0x49
 2043 00ca 13       		.uleb128 0x13
 2044 00cb 02       		.uleb128 0x2
 2045 00cc 18       		.uleb128 0x18
 2046 00cd 00       		.byte	0
 2047 00ce 00       		.byte	0
 2048 00cf 10       		.uleb128 0x10
 2049 00d0 2E       		.uleb128 0x2e
 2050 00d1 01       		.byte	0x1
 2051 00d2 3F       		.uleb128 0x3f
 2052 00d3 19       		.uleb128 0x19
 2053 00d4 03       		.uleb128 0x3
 2054 00d5 0E       		.uleb128 0xe
 2055 00d6 3A       		.uleb128 0x3a
 2056 00d7 0B       		.uleb128 0xb
 2057 00d8 3B       		.uleb128 0x3b
 2058 00d9 0B       		.uleb128 0xb
 2059 00da 11       		.uleb128 0x11
 2060 00db 01       		.uleb128 0x1
 2061 00dc 12       		.uleb128 0x12
 2062 00dd 06       		.uleb128 0x6
 2063 00de 40       		.uleb128 0x40
 2064 00df 18       		.uleb128 0x18
 2065 00e0 9642     		.uleb128 0x2116
 2066 00e2 19       		.uleb128 0x19
 2067 00e3 01       		.uleb128 0x1
 2068 00e4 13       		.uleb128 0x13
 2069 00e5 00       		.byte	0
 2070 00e6 00       		.byte	0
 2071 00e7 11       		.uleb128 0x11
 2072 00e8 26       		.uleb128 0x26
 2073 00e9 00       		.byte	0
 2074 00ea 49       		.uleb128 0x49
 2075 00eb 13       		.uleb128 0x13
 2076 00ec 00       		.byte	0
 2077 00ed 00       		.byte	0
 2078 00ee 12       		.uleb128 0x12
 2079 00ef 2E       		.uleb128 0x2e
 2080 00f0 01       		.byte	0x1
 2081 00f1 3F       		.uleb128 0x3f
 2082 00f2 19       		.uleb128 0x19
 2083 00f3 03       		.uleb128 0x3
 2084 00f4 0E       		.uleb128 0xe
 2085 00f5 3A       		.uleb128 0x3a
 2086 00f6 0B       		.uleb128 0xb
 2087 00f7 3B       		.uleb128 0x3b
 2088 00f8 0B       		.uleb128 0xb
 2089 00f9 27       		.uleb128 0x27
 2090 00fa 19       		.uleb128 0x19
 2091 00fb 49       		.uleb128 0x49
 2092 00fc 13       		.uleb128 0x13
ARM GAS  C:\Users\Gusta\AppData\Local\Temp\ccuUMYV0.s 			page 43


 2093 00fd 11       		.uleb128 0x11
 2094 00fe 01       		.uleb128 0x1
 2095 00ff 12       		.uleb128 0x12
 2096 0100 06       		.uleb128 0x6
 2097 0101 40       		.uleb128 0x40
 2098 0102 18       		.uleb128 0x18
 2099 0103 9642     		.uleb128 0x2116
 2100 0105 19       		.uleb128 0x19
 2101 0106 01       		.uleb128 0x1
 2102 0107 13       		.uleb128 0x13
 2103 0108 00       		.byte	0
 2104 0109 00       		.byte	0
 2105 010a 13       		.uleb128 0x13
 2106 010b 2E       		.uleb128 0x2e
 2107 010c 01       		.byte	0x1
 2108 010d 3F       		.uleb128 0x3f
 2109 010e 19       		.uleb128 0x19
 2110 010f 03       		.uleb128 0x3
 2111 0110 0E       		.uleb128 0xe
 2112 0111 3A       		.uleb128 0x3a
 2113 0112 0B       		.uleb128 0xb
 2114 0113 3B       		.uleb128 0x3b
 2115 0114 05       		.uleb128 0x5
 2116 0115 11       		.uleb128 0x11
 2117 0116 01       		.uleb128 0x1
 2118 0117 12       		.uleb128 0x12
 2119 0118 06       		.uleb128 0x6
 2120 0119 40       		.uleb128 0x40
 2121 011a 18       		.uleb128 0x18
 2122 011b 9642     		.uleb128 0x2116
 2123 011d 19       		.uleb128 0x19
 2124 011e 01       		.uleb128 0x1
 2125 011f 13       		.uleb128 0x13
 2126 0120 00       		.byte	0
 2127 0121 00       		.byte	0
 2128 0122 14       		.uleb128 0x14
 2129 0123 34       		.uleb128 0x34
 2130 0124 00       		.byte	0
 2131 0125 03       		.uleb128 0x3
 2132 0126 0E       		.uleb128 0xe
 2133 0127 3A       		.uleb128 0x3a
 2134 0128 0B       		.uleb128 0xb
 2135 0129 3B       		.uleb128 0x3b
 2136 012a 05       		.uleb128 0x5
 2137 012b 49       		.uleb128 0x49
 2138 012c 13       		.uleb128 0x13
 2139 012d 02       		.uleb128 0x2
 2140 012e 18       		.uleb128 0x18
 2141 012f 00       		.byte	0
 2142 0130 00       		.byte	0
 2143 0131 15       		.uleb128 0x15
 2144 0132 01       		.uleb128 0x1
 2145 0133 01       		.byte	0x1
 2146 0134 49       		.uleb128 0x49
 2147 0135 13       		.uleb128 0x13
 2148 0136 01       		.uleb128 0x1
 2149 0137 13       		.uleb128 0x13
ARM GAS  C:\Users\Gusta\AppData\Local\Temp\ccuUMYV0.s 			page 44


 2150 0138 00       		.byte	0
 2151 0139 00       		.byte	0
 2152 013a 16       		.uleb128 0x16
 2153 013b 21       		.uleb128 0x21
 2154 013c 00       		.byte	0
 2155 013d 49       		.uleb128 0x49
 2156 013e 13       		.uleb128 0x13
 2157 013f 2F       		.uleb128 0x2f
 2158 0140 0B       		.uleb128 0xb
 2159 0141 00       		.byte	0
 2160 0142 00       		.byte	0
 2161 0143 17       		.uleb128 0x17
 2162 0144 34       		.uleb128 0x34
 2163 0145 00       		.byte	0
 2164 0146 03       		.uleb128 0x3
 2165 0147 0E       		.uleb128 0xe
 2166 0148 3A       		.uleb128 0x3a
 2167 0149 0B       		.uleb128 0xb
 2168 014a 3B       		.uleb128 0x3b
 2169 014b 0B       		.uleb128 0xb
 2170 014c 49       		.uleb128 0x49
 2171 014d 13       		.uleb128 0x13
 2172 014e 3F       		.uleb128 0x3f
 2173 014f 19       		.uleb128 0x19
 2174 0150 02       		.uleb128 0x2
 2175 0151 18       		.uleb128 0x18
 2176 0152 00       		.byte	0
 2177 0153 00       		.byte	0
 2178 0154 18       		.uleb128 0x18
 2179 0155 34       		.uleb128 0x34
 2180 0156 00       		.byte	0
 2181 0157 03       		.uleb128 0x3
 2182 0158 0E       		.uleb128 0xe
 2183 0159 3A       		.uleb128 0x3a
 2184 015a 0B       		.uleb128 0xb
 2185 015b 3B       		.uleb128 0x3b
 2186 015c 05       		.uleb128 0x5
 2187 015d 49       		.uleb128 0x49
 2188 015e 13       		.uleb128 0x13
 2189 015f 3F       		.uleb128 0x3f
 2190 0160 19       		.uleb128 0x19
 2191 0161 3C       		.uleb128 0x3c
 2192 0162 19       		.uleb128 0x19
 2193 0163 00       		.byte	0
 2194 0164 00       		.byte	0
 2195 0165 00       		.byte	0
 2196              		.section	.debug_aranges,"",%progbits
 2197 0000 6C000000 		.4byte	0x6c
 2198 0004 0200     		.2byte	0x2
 2199 0006 00000000 		.4byte	.Ldebug_info0
 2200 000a 04       		.byte	0x4
 2201 000b 00       		.byte	0
 2202 000c 0000     		.2byte	0
 2203 000e 0000     		.2byte	0
 2204 0010 00000000 		.4byte	.LFB68
 2205 0014 34010000 		.4byte	.LFE68-.LFB68
 2206 0018 00000000 		.4byte	.LFB69
ARM GAS  C:\Users\Gusta\AppData\Local\Temp\ccuUMYV0.s 			page 45


 2207 001c C8000000 		.4byte	.LFE69-.LFB69
 2208 0020 00000000 		.4byte	.LFB70
 2209 0024 D8000000 		.4byte	.LFE70-.LFB70
 2210 0028 00000000 		.4byte	.LFB71
 2211 002c 68010000 		.4byte	.LFE71-.LFB71
 2212 0030 00000000 		.4byte	.LFB72
 2213 0034 5C000000 		.4byte	.LFE72-.LFB72
 2214 0038 00000000 		.4byte	.LFB73
 2215 003c 38000000 		.4byte	.LFE73-.LFB73
 2216 0040 00000000 		.4byte	.LFB74
 2217 0044 38000000 		.4byte	.LFE74-.LFB74
 2218 0048 00000000 		.4byte	.LFB75
 2219 004c 38000000 		.4byte	.LFE75-.LFB75
 2220 0050 00000000 		.4byte	.LFB76
 2221 0054 44000000 		.4byte	.LFE76-.LFB76
 2222 0058 00000000 		.4byte	.LFB77
 2223 005c 60000000 		.4byte	.LFE77-.LFB77
 2224 0060 00000000 		.4byte	.LFB78
 2225 0064 68000000 		.4byte	.LFE78-.LFB78
 2226 0068 00000000 		.4byte	0
 2227 006c 00000000 		.4byte	0
 2228              		.section	.debug_ranges,"",%progbits
 2229              	.Ldebug_ranges0:
 2230 0000 00000000 		.4byte	.LFB68
 2231 0004 34010000 		.4byte	.LFE68
 2232 0008 00000000 		.4byte	.LFB69
 2233 000c C8000000 		.4byte	.LFE69
 2234 0010 00000000 		.4byte	.LFB70
 2235 0014 D8000000 		.4byte	.LFE70
 2236 0018 00000000 		.4byte	.LFB71
 2237 001c 68010000 		.4byte	.LFE71
 2238 0020 00000000 		.4byte	.LFB72
 2239 0024 5C000000 		.4byte	.LFE72
 2240 0028 00000000 		.4byte	.LFB73
 2241 002c 38000000 		.4byte	.LFE73
 2242 0030 00000000 		.4byte	.LFB74
 2243 0034 38000000 		.4byte	.LFE74
 2244 0038 00000000 		.4byte	.LFB75
 2245 003c 38000000 		.4byte	.LFE75
 2246 0040 00000000 		.4byte	.LFB76
 2247 0044 44000000 		.4byte	.LFE76
 2248 0048 00000000 		.4byte	.LFB77
 2249 004c 60000000 		.4byte	.LFE77
 2250 0050 00000000 		.4byte	.LFB78
 2251 0054 68000000 		.4byte	.LFE78
 2252 0058 00000000 		.4byte	0
 2253 005c 00000000 		.4byte	0
 2254              		.section	.debug_line,"",%progbits
 2255              	.Ldebug_line0:
 2256 0000 3C030000 		.section	.debug_str,"MS",%progbits,1
 2256      0200A601 
 2256      00000201 
 2256      FB0E0D00 
 2256      01010101 
 2257              	.LASF57:
 2258 0000 76546573 		.ascii	"vTestTaskInit\000"
 2258      74546173 
ARM GAS  C:\Users\Gusta\AppData\Local\Temp\ccuUMYV0.s 			page 46


 2258      6B496E69 
 2258      7400
 2259              	.LASF54:
 2260 000e 76546573 		.ascii	"vTestTaskWaterTemp\000"
 2260      74546173 
 2260      6B576174 
 2260      65725465 
 2260      6D7000
 2261              	.LASF41:
 2262 0021 664D696C 		.ascii	"fMilliPHValue\000"
 2262      6C695048 
 2262      56616C75 
 2262      6500
 2263              	.LASF72:
 2264 002f 664E6575 		.ascii	"fNeutralVoltage\000"
 2264      7472616C 
 2264      566F6C74 
 2264      61676500 
 2265              	.LASF55:
 2266 003f 57617465 		.ascii	"WaterTempTest\000"
 2266      7254656D 
 2266      70546573 
 2266      7400
 2267              	.LASF33:
 2268 004d 69466C6F 		.ascii	"iFlowWater\000"
 2268      77576174 
 2268      657200
 2269              	.LASF5:
 2270 0058 73686F72 		.ascii	"short int\000"
 2270      7420696E 
 2270      7400
 2271              	.LASF64:
 2272 0062 44533138 		.ascii	"DS18x8_Sensor\000"
 2272      78385F53 
 2272      656E736F 
 2272      7200
 2273              	.LASF22:
 2274 0070 73697A65 		.ascii	"sizetype\000"
 2274      74797065 
 2274      00
 2275              	.LASF67:
 2276 0079 6953697A 		.ascii	"iSizeOfNutrients\000"
 2276      654F664E 
 2276      75747269 
 2276      656E7473 
 2276      00
 2277              	.LASF35:
 2278 008a 78537461 		.ascii	"xStatus\000"
 2278      74757300 
 2279              	.LASF80:
 2280 0092 474E5520 		.ascii	"GNU C11 5.4.1 20160609 (release) [ARM/embedded-5-br"
 2280      43313120 
 2280      352E342E 
 2280      31203230 
 2280      31363036 
 2281 00c5 616E6368 		.ascii	"anch revision 237715] -mcpu=cortex-m3 -mthumb -g -O"
 2281      20726576 
ARM GAS  C:\Users\Gusta\AppData\Local\Temp\ccuUMYV0.s 			page 47


 2281      6973696F 
 2281      6E203233 
 2281      37373135 
 2282 00f8 30202D66 		.ascii	"0 -ffunction-sections -ffat-lto-objects\000"
 2282      66756E63 
 2282      74696F6E 
 2282      2D736563 
 2282      74696F6E 
 2283              	.LASF74:
 2284 0120 78517565 		.ascii	"xQueueNutrientPump\000"
 2284      75654E75 
 2284      74726965 
 2284      6E745075 
 2284      6D7000
 2285              	.LASF45:
 2286 0133 66496E74 		.ascii	"fIntercept\000"
 2286      65726365 
 2286      707400
 2287              	.LASF60:
 2288 013e 76546573 		.ascii	"vTestTaskNutrientPump\000"
 2288      74546173 
 2288      6B4E7574 
 2288      7269656E 
 2288      7450756D 
 2289              	.LASF39:
 2290 0154 7844656C 		.ascii	"xDelayms\000"
 2290      61796D73 
 2290      00
 2291              	.LASF50:
 2292 015d 76546173 		.ascii	"vTaskFlowWater\000"
 2292      6B466C6F 
 2292      77576174 
 2292      657200
 2293              	.LASF17:
 2294 016c 75696E74 		.ascii	"uint16\000"
 2294      313600
 2295              	.LASF58:
 2296 0173 76546573 		.ascii	"vTestTaskUARTDataTransmit\000"
 2296      74546173 
 2296      6B554152 
 2296      54446174 
 2296      61547261 
 2297              	.LASF13:
 2298 018d 75696E74 		.ascii	"uint8_t\000"
 2298      385F7400 
 2299              	.LASF69:
 2300 0195 69504849 		.ascii	"iPHIndex\000"
 2300      6E646578 
 2300      00
 2301              	.LASF18:
 2302 019e 696E7431 		.ascii	"int16\000"
 2302      3600
 2303              	.LASF16:
 2304 01a4 75696E74 		.ascii	"uint8\000"
 2304      3800
 2305              	.LASF3:
 2306 01aa 7369676E 		.ascii	"signed char\000"
ARM GAS  C:\Users\Gusta\AppData\Local\Temp\ccuUMYV0.s 			page 48


 2306      65642063 
 2306      68617200 
 2307              	.LASF19:
 2308 01b6 666C6F61 		.ascii	"float\000"
 2308      7400
 2309              	.LASF38:
 2310 01bc 66504856 		.ascii	"fPHVoltage\000"
 2310      6F6C7461 
 2310      676500
 2311              	.LASF47:
 2312 01c7 76546173 		.ascii	"vTaskWaterTemp\000"
 2312      6B576174 
 2312      65725465 
 2312      6D7000
 2313              	.LASF1:
 2314 01d6 6C6F6E67 		.ascii	"long long int\000"
 2314      206C6F6E 
 2314      6720696E 
 2314      7400
 2315              	.LASF30:
 2316 01e4 69504876 		.ascii	"iPHvalue\000"
 2316      616C7565 
 2316      00
 2317              	.LASF42:
 2318 01ed 694D696C 		.ascii	"iMilliPHValue\000"
 2318      6C695048 
 2318      56616C75 
 2318      6500
 2319              	.LASF9:
 2320 01fb 6C6F6E67 		.ascii	"long int\000"
 2320      20696E74 
 2320      00
 2321              	.LASF31:
 2322 0204 69454376 		.ascii	"iECvalue\000"
 2322      616C7565 
 2322      00
 2323              	.LASF73:
 2324 020d 66416369 		.ascii	"fAcidVoltage\000"
 2324      64566F6C 
 2324      74616765 
 2324      00
 2325              	.LASF76:
 2326 021a 78517565 		.ascii	"xQueueWaterTemp\000"
 2326      75655761 
 2326      74657254 
 2326      656D7000 
 2327              	.LASF27:
 2328 022a 51756575 		.ascii	"QueueHandle_t\000"
 2328      6548616E 
 2328      646C655F 
 2328      7400
 2329              	.LASF51:
 2330 0238 666C6F77 		.ascii	"flowWaterResult\000"
 2330      57617465 
 2330      72526573 
 2330      756C7400 
 2331              	.LASF75:
ARM GAS  C:\Users\Gusta\AppData\Local\Temp\ccuUMYV0.s 			page 49


 2332 0248 78517565 		.ascii	"xQueuePHValue\000"
 2332      75655048 
 2332      56616C75 
 2332      6500
 2333              	.LASF26:
 2334 0256 5469636B 		.ascii	"TickType_t\000"
 2334      54797065 
 2334      5F7400
 2335              	.LASF2:
 2336 0261 6C6F6E67 		.ascii	"long double\000"
 2336      20646F75 
 2336      626C6500 
 2337              	.LASF29:
 2338 026d 4E757472 		.ascii	"Nutrients\000"
 2338      69656E74 
 2338      7300
 2339              	.LASF4:
 2340 0277 756E7369 		.ascii	"unsigned char\000"
 2340      676E6564 
 2340      20636861 
 2340      7200
 2341              	.LASF53:
 2342 0285 466C6F77 		.ascii	"FlowWaterTest\000"
 2342      57617465 
 2342      72546573 
 2342      7400
 2343              	.LASF12:
 2344 0293 6C6F6E67 		.ascii	"long long unsigned int\000"
 2344      206C6F6E 
 2344      6720756E 
 2344      7369676E 
 2344      65642069 
 2345              	.LASF84:
 2346 02aa 76546173 		.ascii	"vTaskNutrientPump\000"
 2346      6B4E7574 
 2346      7269656E 
 2346      7450756D 
 2346      7000
 2347              	.LASF15:
 2348 02bc 75696E74 		.ascii	"uint32_t\000"
 2348      33325F74 
 2348      00
 2349              	.LASF0:
 2350 02c5 756E7369 		.ascii	"unsigned int\000"
 2350      676E6564 
 2350      20696E74 
 2350      00
 2351              	.LASF63:
 2352 02d2 70635465 		.ascii	"pcTextForNutrientPump\000"
 2352      7874466F 
 2352      724E7574 
 2352      7269656E 
 2352      7450756D 
 2353              	.LASF25:
 2354 02e8 42617365 		.ascii	"BaseType_t\000"
 2354      54797065 
 2354      5F7400
ARM GAS  C:\Users\Gusta\AppData\Local\Temp\ccuUMYV0.s 			page 50


 2355              	.LASF48:
 2356 02f3 77617465 		.ascii	"waterTemp\000"
 2356      7254656D 
 2356      7000
 2357              	.LASF40:
 2358 02fd 66504856 		.ascii	"fPHValue\000"
 2358      616C7565 
 2358      00
 2359              	.LASF83:
 2360 0306 51756575 		.ascii	"QueueDefinition\000"
 2360      65446566 
 2360      696E6974 
 2360      696F6E00 
 2361              	.LASF79:
 2362 0316 53544F50 		.ascii	"STOP_SPEED\000"
 2362      5F535045 
 2362      454400
 2363              	.LASF59:
 2364 0321 69504856 		.ascii	"iPHValueForPrint\000"
 2364      616C7565 
 2364      466F7250 
 2364      72696E74 
 2364      00
 2365              	.LASF21:
 2366 0332 63686172 		.ascii	"char\000"
 2366      00
 2367              	.LASF37:
 2368 0337 5F426F6F 		.ascii	"_Bool\000"
 2368      6C00
 2369              	.LASF14:
 2370 033d 696E7433 		.ascii	"int32_t\000"
 2370      325F7400 
 2371              	.LASF6:
 2372 0345 73686F72 		.ascii	"short unsigned int\000"
 2372      7420756E 
 2372      7369676E 
 2372      65642069 
 2372      6E7400
 2373              	.LASF44:
 2374 0358 66536C6F 		.ascii	"fSlope\000"
 2374      706500
 2375              	.LASF28:
 2376 035f 44533138 		.ascii	"DS18x8_TSensor\000"
 2376      78385F54 
 2376      53656E73 
 2376      6F7200
 2377              	.LASF56:
 2378 036e 764E7574 		.ascii	"vNutrientsInit\000"
 2378      7269656E 
 2378      7473496E 
 2378      697400
 2379              	.LASF77:
 2380 037d 78517565 		.ascii	"xQueueFlowWater\000"
 2380      7565466C 
 2380      6F775761 
 2380      74657200 
 2381              	.LASF70:
ARM GAS  C:\Users\Gusta\AppData\Local\Temp\ccuUMYV0.s 			page 51


 2382 038d 69454349 		.ascii	"iECIndex\000"
 2382      6E646578 
 2382      00
 2383              	.LASF32:
 2384 0396 69576174 		.ascii	"iWaterTemp\000"
 2384      65725465 
 2384      6D7000
 2385              	.LASF81:
 2386 03a1 4E757472 		.ascii	"Nutrients.c\000"
 2386      69656E74 
 2386      732E6300 
 2387              	.LASF11:
 2388 03ad 6C6F6E67 		.ascii	"long unsigned int\000"
 2388      20756E73 
 2388      69676E65 
 2388      6420696E 
 2388      7400
 2389              	.LASF20:
 2390 03bf 646F7562 		.ascii	"double\000"
 2390      6C6500
 2391              	.LASF71:
 2392 03c6 69576174 		.ascii	"iWateTempIndex\000"
 2392      6554656D 
 2392      70496E64 
 2392      657800
 2393              	.LASF10:
 2394 03d5 5F5F7569 		.ascii	"__uint32_t\000"
 2394      6E743332 
 2394      5F7400
 2395              	.LASF49:
 2396 03e0 666C6167 		.ascii	"flagTimer\000"
 2396      54696D65 
 2396      7200
 2397              	.LASF85:
 2398 03ea 6643616C 		.ascii	"fCalculatePHValue\000"
 2398      63756C61 
 2398      74655048 
 2398      56616C75 
 2398      6500
 2399              	.LASF8:
 2400 03fc 5F5F696E 		.ascii	"__int32_t\000"
 2400      7433325F 
 2400      7400
 2401              	.LASF78:
 2402 0406 4D41585F 		.ascii	"MAX_SPEED\000"
 2402      53504545 
 2402      4400
 2403              	.LASF24:
 2404 0410 70726573 		.ascii	"present\000"
 2404      656E7400 
 2405              	.LASF46:
 2406 0418 76546173 		.ascii	"vTaskMeasurePH\000"
 2406      6B4D6561 
 2406      73757265 
 2406      504800
 2407              	.LASF43:
 2408 0427 70765061 		.ascii	"pvParameters\000"
ARM GAS  C:\Users\Gusta\AppData\Local\Temp\ccuUMYV0.s 			page 52


 2408      72616D65 
 2408      74657273 
 2408      00
 2409              	.LASF23:
 2410 0434 54656D70 		.ascii	"Temperature\000"
 2410      65726174 
 2410      75726500 
 2411              	.LASF36:
 2412 0440 70694E75 		.ascii	"piNutrientPump\000"
 2412      74726965 
 2412      6E745075 
 2412      6D7000
 2413              	.LASF82:
 2414 044f 433A5C55 		.ascii	"C:\\Users\\Gusta\\OneDrive\\Dokumenter\\GitHub\\P4_"
 2414      73657273 
 2414      5C477573 
 2414      74615C4F 
 2414      6E654472 
 2415 047c 56657274 		.ascii	"Vertical_farm\\RTOS_TEMPLATE-master\\PlanteModul.cy"
 2415      6963616C 
 2415      5F666172 
 2415      6D5C5254 
 2415      4F535F54 
 2416 04ad 64736E00 		.ascii	"dsn\000"
 2417              	.LASF66:
 2418 04b1 49544D5F 		.ascii	"ITM_RxBuffer\000"
 2418      52784275 
 2418      66666572 
 2418      00
 2419              	.LASF68:
 2420 04be 63757272 		.ascii	"currentNutrients\000"
 2420      656E744E 
 2420      75747269 
 2420      656E7473 
 2420      00
 2421              	.LASF52:
 2422 04cf 76546573 		.ascii	"vTestFlowWater\000"
 2422      74466C6F 
 2422      77576174 
 2422      657200
 2423              	.LASF34:
 2424 04de 62537461 		.ascii	"bState\000"
 2424      746500
 2425              	.LASF65:
 2426 04e5 44533138 		.ascii	"DS18x8_DataReady\000"
 2426      78385F44 
 2426      61746152 
 2426      65616479 
 2426      00
 2427              	.LASF7:
 2428 04f6 5F5F7569 		.ascii	"__uint8_t\000"
 2428      6E74385F 
 2428      7400
 2429              	.LASF61:
 2430 0500 62546573 		.ascii	"bTestState1\000"
 2430      74537461 
 2430      74653100 
ARM GAS  C:\Users\Gusta\AppData\Local\Temp\ccuUMYV0.s 			page 53


 2431              	.LASF62:
 2432 050c 62546573 		.ascii	"bTestState2\000"
 2432      74537461 
 2432      74653200 
 2433              		.ident	"GCC: (GNU Tools for ARM Embedded Processors) 5.4.1 20160609 (release) [ARM/embedded-5-bran
