ARM GAS  C:\Users\mabo\AppData\Local\Temp\cckAFbbB.s 			page 1


   1              		.syntax unified
   2              		.cpu cortex-m3
   3              		.fpu softvfp
   4              		.eabi_attribute 20, 1
   5              		.eabi_attribute 21, 1
   6              		.eabi_attribute 23, 3
   7              		.eabi_attribute 24, 1
   8              		.eabi_attribute 25, 1
   9              		.eabi_attribute 26, 1
  10              		.eabi_attribute 30, 6
  11              		.eabi_attribute 34, 1
  12              		.eabi_attribute 18, 4
  13              		.thumb
  14              		.syntax unified
  15              		.file	"Nutrients.c"
  16              		.text
  17              	.Ltext0:
  18              		.cfi_sections	.debug_frame
  19              		.comm	xQueueNutrientPump,12,4
  20              		.global	MAX_SPEED
  21              		.section	.rodata
  22              		.type	MAX_SPEED, %object
  23              		.size	MAX_SPEED, 1
  24              	MAX_SPEED:
  25 0000 06       		.byte	6
  26              		.global	STOP_SPEED
  27              		.type	STOP_SPEED, %object
  28              		.size	STOP_SPEED, 1
  29              	STOP_SPEED:
  30 0001 13       		.byte	19
  31 0002 0000     		.align	2
  32              		.type	pcTextForNutrientPump, %object
  33              		.size	pcTextForNutrientPump, 3
  34              	pcTextForNutrientPump:
  35 0004 00       		.byte	0
  36 0005 01       		.byte	1
  37 0006 02       		.byte	2
  38 0007 00       		.align	2
  39              	.LC0:
  40 0008 50756D70 		.ascii	"Pump 1\000"
  40      203100
  41 000f 00       		.align	2
  42              	.LC1:
  43 0010 50756D70 		.ascii	"Pump 2\000"
  43      203200
  44              		.section	.text.vNutrientsInit,"ax",%progbits
  45              		.align	2
  46              		.global	vNutrientsInit
  47              		.thumb
  48              		.thumb_func
  49              		.type	vNutrientsInit, %function
  50              	vNutrientsInit:
  51              	.LFB68:
  52              		.file 1 "Nutrients.c"
   1:Nutrients.c   **** /* ========================================
   2:Nutrients.c   ****  *
   3:Nutrients.c   ****  * Copyright YOUR COMPANY, THE YEAR
ARM GAS  C:\Users\mabo\AppData\Local\Temp\cckAFbbB.s 			page 2


   4:Nutrients.c   ****  * All Rights Reserved
   5:Nutrients.c   ****  * UNPUBLISHED, LICENSED SOFTWARE.
   6:Nutrients.c   ****  *
   7:Nutrients.c   ****  * CONFIDENTIAL AND PROPRIETARY INFORMATION
   8:Nutrients.c   ****  * WHICH IS THE PROPERTY OF your company.
   9:Nutrients.c   ****  *
  10:Nutrients.c   ****  * ========================================
  11:Nutrients.c   **** */
  12:Nutrients.c   **** 
  13:Nutrients.c   **** /* [] END OF FILE */
  14:Nutrients.c   **** 
  15:Nutrients.c   **** #include "FreeRTOS.h"
  16:Nutrients.c   **** #include "Nutrients.h"
  17:Nutrients.c   **** #include "task.h"
  18:Nutrients.c   **** #include "queue.h"
  19:Nutrients.c   **** 
  20:Nutrients.c   **** 
  21:Nutrients.c   **** 
  22:Nutrients.c   **** QueueHandle_t xQueueNutrientPump[3];
  23:Nutrients.c   **** 
  24:Nutrients.c   **** const uint8 MAX_SPEED = 6;
  25:Nutrients.c   **** const uint8 STOP_SPEED = 19;
  26:Nutrients.c   **** static const uint8 pcTextForNutrientPump[3] = {0, 1, 2};
  27:Nutrients.c   **** 
  28:Nutrients.c   **** 
  29:Nutrients.c   **** void vNutrientsInit() {
  53              		.loc 1 29 0
  54              		.cfi_startproc
  55              		@ args = 0, pretend = 0, frame = 0
  56              		@ frame_needed = 1, uses_anonymous_args = 0
  57 0000 80B5     		push	{r7, lr}
  58              		.cfi_def_cfa_offset 8
  59              		.cfi_offset 7, -8
  60              		.cfi_offset 14, -4
  61 0002 82B0     		sub	sp, sp, #8
  62              		.cfi_def_cfa_offset 16
  63 0004 02AF     		add	r7, sp, #8
  64              		.cfi_def_cfa 7, 8
  30:Nutrients.c   ****     /*  The queue is created to hold a maximum of 1 value, each of which is
  31:Nutrients.c   ****         large enough to hold a variable at the size of Bool. */
  32:Nutrients.c   ****     xQueueNutrientPump[0] = xQueueCreate( 1, sizeof( _Bool ) );
  65              		.loc 1 32 0
  66 0006 0022     		movs	r2, #0
  67 0008 0121     		movs	r1, #1
  68 000a 0120     		movs	r0, #1
  69 000c FFF7FEFF 		bl	xQueueGenericCreate
  70 0010 0246     		mov	r2, r0
  71 0012 1B4B     		ldr	r3, .L2
  72 0014 1A60     		str	r2, [r3]
  33:Nutrients.c   ****     xQueueNutrientPump[1] = xQueueCreate( 1, sizeof( _Bool ) );
  73              		.loc 1 33 0
  74 0016 0022     		movs	r2, #0
  75 0018 0121     		movs	r1, #1
  76 001a 0120     		movs	r0, #1
  77 001c FFF7FEFF 		bl	xQueueGenericCreate
  78 0020 0246     		mov	r2, r0
  79 0022 174B     		ldr	r3, .L2
ARM GAS  C:\Users\mabo\AppData\Local\Temp\cckAFbbB.s 			page 3


  80 0024 5A60     		str	r2, [r3, #4]
  34:Nutrients.c   ****     xQueueNutrientPump[2] = xQueueCreate( 1, sizeof( _Bool ) );
  81              		.loc 1 34 0
  82 0026 0022     		movs	r2, #0
  83 0028 0121     		movs	r1, #1
  84 002a 0120     		movs	r0, #1
  85 002c FFF7FEFF 		bl	xQueueGenericCreate
  86 0030 0246     		mov	r2, r0
  87 0032 134B     		ldr	r3, .L2
  88 0034 9A60     		str	r2, [r3, #8]
  35:Nutrients.c   ****     
  36:Nutrients.c   ****     /*  Create the task that will control one nutrient pump. The task is created with
  37:Nutrients.c   ****         priority 1. */
  38:Nutrients.c   ****     xTaskCreate(vTaskNutrientPump, "Pump 1", 100, (void*)pcTextForNutrientPump, 2, NULL);
  89              		.loc 1 38 0
  90 0036 0023     		movs	r3, #0
  91 0038 0193     		str	r3, [sp, #4]
  92 003a 0223     		movs	r3, #2
  93 003c 0093     		str	r3, [sp]
  94 003e 114B     		ldr	r3, .L2+4
  95 0040 6422     		movs	r2, #100
  96 0042 1149     		ldr	r1, .L2+8
  97 0044 1148     		ldr	r0, .L2+12
  98 0046 FFF7FEFF 		bl	xTaskCreate
  39:Nutrients.c   ****     xTaskCreate(vTaskNutrientPump, "Pump 2", 100, (void*)pcTextForNutrientPump + 1, 2, NULL);
  99              		.loc 1 39 0
 100 004a 114A     		ldr	r2, .L2+16
 101 004c 0023     		movs	r3, #0
 102 004e 0193     		str	r3, [sp, #4]
 103 0050 0223     		movs	r3, #2
 104 0052 0093     		str	r3, [sp]
 105 0054 1346     		mov	r3, r2
 106 0056 6422     		movs	r2, #100
 107 0058 0E49     		ldr	r1, .L2+20
 108 005a 0C48     		ldr	r0, .L2+12
 109 005c FFF7FEFF 		bl	xTaskCreate
  40:Nutrients.c   ****     xTaskCreate(vTaskNutrientPump, "Pump 2", 100, (void*)pcTextForNutrientPump + 2, 2, NULL);
 110              		.loc 1 40 0
 111 0060 0D4A     		ldr	r2, .L2+24
 112 0062 0023     		movs	r3, #0
 113 0064 0193     		str	r3, [sp, #4]
 114 0066 0223     		movs	r3, #2
 115 0068 0093     		str	r3, [sp]
 116 006a 1346     		mov	r3, r2
 117 006c 6422     		movs	r2, #100
 118 006e 0949     		ldr	r1, .L2+20
 119 0070 0648     		ldr	r0, .L2+12
 120 0072 FFF7FEFF 		bl	xTaskCreate
  41:Nutrients.c   ****     
  42:Nutrients.c   ****     /*Initialize test tasks*/
  43:Nutrients.c   ****     #if NUTRIENTSTEST == 1
  44:Nutrients.c   ****         vTestTaskInit();
 121              		.loc 1 44 0
 122 0076 FFF7FEFF 		bl	vTestTaskInit
  45:Nutrients.c   ****     #endif
  46:Nutrients.c   ****     
  47:Nutrients.c   ****     
ARM GAS  C:\Users\mabo\AppData\Local\Temp\cckAFbbB.s 			page 4


  48:Nutrients.c   **** }
 123              		.loc 1 48 0
 124 007a 00BF     		nop
 125 007c BD46     		mov	sp, r7
 126              		.cfi_def_cfa_register 13
 127              		@ sp needed
 128 007e 80BD     		pop	{r7, pc}
 129              	.L3:
 130              		.align	2
 131              	.L2:
 132 0080 00000000 		.word	xQueueNutrientPump
 133 0084 04000000 		.word	pcTextForNutrientPump
 134 0088 08000000 		.word	.LC0
 135 008c 00000000 		.word	vTaskNutrientPump
 136 0090 05000000 		.word	pcTextForNutrientPump+1
 137 0094 10000000 		.word	.LC1
 138 0098 06000000 		.word	pcTextForNutrientPump+2
 139              		.cfi_endproc
 140              	.LFE68:
 141              		.size	vNutrientsInit, .-vNutrientsInit
 142              		.section	.text.vTaskNutrientPump,"ax",%progbits
 143              		.align	2
 144              		.global	vTaskNutrientPump
 145              		.thumb
 146              		.thumb_func
 147              		.type	vTaskNutrientPump, %function
 148              	vTaskNutrientPump:
 149              	.LFB69:
  49:Nutrients.c   **** 
  50:Nutrients.c   **** 
  51:Nutrients.c   **** 
  52:Nutrients.c   **** 
  53:Nutrients.c   **** void vTaskNutrientPump( void *pvParameters ) {
 150              		.loc 1 53 0
 151              		.cfi_startproc
 152              		@ args = 0, pretend = 0, frame = 24
 153              		@ frame_needed = 1, uses_anonymous_args = 0
 154 0000 80B5     		push	{r7, lr}
 155              		.cfi_def_cfa_offset 8
 156              		.cfi_offset 7, -8
 157              		.cfi_offset 14, -4
 158 0002 86B0     		sub	sp, sp, #24
 159              		.cfi_def_cfa_offset 32
 160 0004 00AF     		add	r7, sp, #0
 161              		.cfi_def_cfa_register 7
 162 0006 7860     		str	r0, [r7, #4]
  54:Nutrients.c   ****     _Bool bState;
  55:Nutrients.c   ****     BaseType_t xStatus;
  56:Nutrients.c   ****     uint8 *piNutrientPump;
  57:Nutrients.c   ****     
  58:Nutrients.c   ****     piNutrientPump = ( uint8 * ) pvParameters;
 163              		.loc 1 58 0
 164 0008 7B68     		ldr	r3, [r7, #4]
 165 000a 7B61     		str	r3, [r7, #20]
 166              	.L15:
  59:Nutrients.c   ****     
  60:Nutrients.c   ****     for(;;) {
ARM GAS  C:\Users\mabo\AppData\Local\Temp\cckAFbbB.s 			page 5


  61:Nutrients.c   ****         switch (*piNutrientPump) {
 167              		.loc 1 61 0
 168 000c 7B69     		ldr	r3, [r7, #20]
 169 000e 1B78     		ldrb	r3, [r3]	@ zero_extendqisi2
 170 0010 012B     		cmp	r3, #1
 171 0012 1DD0     		beq	.L6
 172 0014 022B     		cmp	r3, #2
 173 0016 35D0     		beq	.L7
 174 0018 002B     		cmp	r3, #0
 175 001a 52D1     		bne	.L5
  62:Nutrients.c   ****             case 0:
  63:Nutrients.c   ****                 xStatus = xQueueReceive( xQueueNutrientPump[0], &bState, portMAX_DELAY );
 176              		.loc 1 63 0
 177 001c 294B     		ldr	r3, .L19
 178 001e 1B68     		ldr	r3, [r3]
 179 0020 07F10F01 		add	r1, r7, #15
 180 0024 4FF0FF32 		mov	r2, #-1
 181 0028 1846     		mov	r0, r3
 182 002a FFF7FEFF 		bl	xQueueReceive
 183 002e 3861     		str	r0, [r7, #16]
  64:Nutrients.c   ****         
  65:Nutrients.c   ****                 if (xStatus == pdPASS) {
 184              		.loc 1 65 0
 185 0030 3B69     		ldr	r3, [r7, #16]
 186 0032 012B     		cmp	r3, #1
 187 0034 40D1     		bne	.L16
  66:Nutrients.c   ****                     if (bState) {
 188              		.loc 1 66 0
 189 0036 FB7B     		ldrb	r3, [r7, #15]	@ zero_extendqisi2
 190 0038 002B     		cmp	r3, #0
 191 003a 04D0     		beq	.L10
  67:Nutrients.c   ****                         PWM_PERISTALTISK_1_WriteCompare1(MAX_SPEED);
 192              		.loc 1 67 0
 193 003c 0623     		movs	r3, #6
 194 003e 1846     		mov	r0, r3
 195 0040 FFF7FEFF 		bl	PWM_PERISTALTISK_1_WriteCompare1
  68:Nutrients.c   ****                     } else {
  69:Nutrients.c   ****                         PWM_PERISTALTISK_1_WriteCompare1(STOP_SPEED);
  70:Nutrients.c   ****                     }
  71:Nutrients.c   ****                 }
  72:Nutrients.c   ****                 break;
 196              		.loc 1 72 0
 197 0044 38E0     		b	.L16
 198              	.L10:
  69:Nutrients.c   ****                     }
 199              		.loc 1 69 0
 200 0046 1323     		movs	r3, #19
 201 0048 1846     		mov	r0, r3
 202 004a FFF7FEFF 		bl	PWM_PERISTALTISK_1_WriteCompare1
 203              		.loc 1 72 0
 204 004e 33E0     		b	.L16
 205              	.L6:
  73:Nutrients.c   ****             
  74:Nutrients.c   ****             case 1:
  75:Nutrients.c   ****                 xStatus = xQueueReceive( xQueueNutrientPump[1], &bState, portMAX_DELAY );
 206              		.loc 1 75 0
 207 0050 1C4B     		ldr	r3, .L19
ARM GAS  C:\Users\mabo\AppData\Local\Temp\cckAFbbB.s 			page 6


 208 0052 5B68     		ldr	r3, [r3, #4]
 209 0054 07F10F01 		add	r1, r7, #15
 210 0058 4FF0FF32 		mov	r2, #-1
 211 005c 1846     		mov	r0, r3
 212 005e FFF7FEFF 		bl	xQueueReceive
 213 0062 3861     		str	r0, [r7, #16]
  76:Nutrients.c   ****         
  77:Nutrients.c   ****                 if (xStatus == pdPASS) {
 214              		.loc 1 77 0
 215 0064 3B69     		ldr	r3, [r7, #16]
 216 0066 012B     		cmp	r3, #1
 217 0068 28D1     		bne	.L17
  78:Nutrients.c   ****                     if (bState) {
 218              		.loc 1 78 0
 219 006a FB7B     		ldrb	r3, [r7, #15]	@ zero_extendqisi2
 220 006c 002B     		cmp	r3, #0
 221 006e 04D0     		beq	.L12
  79:Nutrients.c   ****                         PWM_PERISTALTISK_1_WriteCompare2(MAX_SPEED);
 222              		.loc 1 79 0
 223 0070 0623     		movs	r3, #6
 224 0072 1846     		mov	r0, r3
 225 0074 FFF7FEFF 		bl	PWM_PERISTALTISK_1_WriteCompare2
  80:Nutrients.c   ****                     } else {
  81:Nutrients.c   ****                         PWM_PERISTALTISK_1_WriteCompare2(STOP_SPEED);
  82:Nutrients.c   ****                     }
  83:Nutrients.c   ****                 }
  84:Nutrients.c   ****                 break;
 226              		.loc 1 84 0
 227 0078 20E0     		b	.L17
 228              	.L12:
  81:Nutrients.c   ****                     }
 229              		.loc 1 81 0
 230 007a 1323     		movs	r3, #19
 231 007c 1846     		mov	r0, r3
 232 007e FFF7FEFF 		bl	PWM_PERISTALTISK_1_WriteCompare2
 233              		.loc 1 84 0
 234 0082 1BE0     		b	.L17
 235              	.L7:
  85:Nutrients.c   ****                 
  86:Nutrients.c   ****             case 2:
  87:Nutrients.c   ****                 xStatus = xQueueReceive( xQueueNutrientPump[2], &bState, portMAX_DELAY );
 236              		.loc 1 87 0
 237 0084 0F4B     		ldr	r3, .L19
 238 0086 9B68     		ldr	r3, [r3, #8]
 239 0088 07F10F01 		add	r1, r7, #15
 240 008c 4FF0FF32 		mov	r2, #-1
 241 0090 1846     		mov	r0, r3
 242 0092 FFF7FEFF 		bl	xQueueReceive
 243 0096 3861     		str	r0, [r7, #16]
  88:Nutrients.c   ****         
  89:Nutrients.c   ****                 if (xStatus == pdPASS) {
 244              		.loc 1 89 0
 245 0098 3B69     		ldr	r3, [r7, #16]
 246 009a 012B     		cmp	r3, #1
 247 009c 10D1     		bne	.L18
  90:Nutrients.c   ****                     if (bState) {
 248              		.loc 1 90 0
ARM GAS  C:\Users\mabo\AppData\Local\Temp\cckAFbbB.s 			page 7


 249 009e FB7B     		ldrb	r3, [r7, #15]	@ zero_extendqisi2
 250 00a0 002B     		cmp	r3, #0
 251 00a2 04D0     		beq	.L14
  91:Nutrients.c   ****                         PWM_PERISTALTISK_2_WriteCompare(MAX_SPEED);
 252              		.loc 1 91 0
 253 00a4 0623     		movs	r3, #6
 254 00a6 1846     		mov	r0, r3
 255 00a8 FFF7FEFF 		bl	PWM_PERISTALTISK_2_WriteCompare
  92:Nutrients.c   ****                     } else {
  93:Nutrients.c   ****                         PWM_PERISTALTISK_2_WriteCompare(STOP_SPEED);
  94:Nutrients.c   ****                     }
  95:Nutrients.c   ****                 }
  96:Nutrients.c   ****                 break;
 256              		.loc 1 96 0
 257 00ac 08E0     		b	.L18
 258              	.L14:
  93:Nutrients.c   ****                     }
 259              		.loc 1 93 0
 260 00ae 1323     		movs	r3, #19
 261 00b0 1846     		mov	r0, r3
 262 00b2 FFF7FEFF 		bl	PWM_PERISTALTISK_2_WriteCompare
 263              		.loc 1 96 0
 264 00b6 03E0     		b	.L18
 265              	.L16:
  72:Nutrients.c   ****             
 266              		.loc 1 72 0
 267 00b8 00BF     		nop
 268 00ba A7E7     		b	.L15
 269              	.L17:
  84:Nutrients.c   ****                 
 270              		.loc 1 84 0
 271 00bc 00BF     		nop
 272 00be A5E7     		b	.L15
 273              	.L18:
 274              		.loc 1 96 0
 275 00c0 00BF     		nop
 276              	.L5:
  97:Nutrients.c   ****         }
  98:Nutrients.c   ****             
  99:Nutrients.c   **** 
 100:Nutrients.c   ****         
 101:Nutrients.c   ****     }
 277              		.loc 1 101 0 discriminator 1
 278 00c2 A3E7     		b	.L15
 279              	.L20:
 280              		.align	2
 281              	.L19:
 282 00c4 00000000 		.word	xQueueNutrientPump
 283              		.cfi_endproc
 284              	.LFE69:
 285              		.size	vTaskNutrientPump, .-vTaskNutrientPump
 286              		.section	.rodata
 287 0017 00       		.align	2
 288              	.LC2:
 289 0018 54657374 		.ascii	"Test Pump 1\000"
 289      2050756D 
 289      70203100 
ARM GAS  C:\Users\mabo\AppData\Local\Temp\cckAFbbB.s 			page 8


 290              		.section	.text.vTestTaskInit,"ax",%progbits
 291              		.align	2
 292              		.global	vTestTaskInit
 293              		.thumb
 294              		.thumb_func
 295              		.type	vTestTaskInit, %function
 296              	vTestTaskInit:
 297              	.LFB70:
 102:Nutrients.c   ****    
 103:Nutrients.c   ****     
 104:Nutrients.c   **** }
 105:Nutrients.c   **** 
 106:Nutrients.c   **** 
 107:Nutrients.c   **** 
 108:Nutrients.c   **** 
 109:Nutrients.c   **** 
 110:Nutrients.c   **** /* --- TEST TASK --- */
 111:Nutrients.c   **** 
 112:Nutrients.c   **** /*
 113:Nutrients.c   ****     Task for testing existing implementations.
 114:Nutrients.c   **** 
 115:Nutrients.c   ****     DO NOT delete this functions/tasks, but comment them out if they arn't nexessary 
 116:Nutrients.c   ****     for your current implementation/testing
 117:Nutrients.c   ****     
 118:Nutrients.c   ****     All test task/functions, must start with (type)Test(Task/Function/Var)(Name)
 119:Nutrients.c   **** 
 120:Nutrients.c   ****     
 121:Nutrients.c   **** */
 122:Nutrients.c   **** 
 123:Nutrients.c   **** void vTestTaskInit(){
 298              		.loc 1 123 0
 299              		.cfi_startproc
 300              		@ args = 0, pretend = 0, frame = 0
 301              		@ frame_needed = 1, uses_anonymous_args = 0
 302 0000 80B5     		push	{r7, lr}
 303              		.cfi_def_cfa_offset 8
 304              		.cfi_offset 7, -8
 305              		.cfi_offset 14, -4
 306 0002 82B0     		sub	sp, sp, #8
 307              		.cfi_def_cfa_offset 16
 308 0004 02AF     		add	r7, sp, #8
 309              		.cfi_def_cfa 7, 8
 124:Nutrients.c   ****     xTaskCreate(vTestTaskNutrientPump, "Test Pump 1", 100, NULL, 1, NULL); 
 310              		.loc 1 124 0
 311 0006 0023     		movs	r3, #0
 312 0008 0193     		str	r3, [sp, #4]
 313 000a 0123     		movs	r3, #1
 314 000c 0093     		str	r3, [sp]
 315 000e 0023     		movs	r3, #0
 316 0010 6422     		movs	r2, #100
 317 0012 0349     		ldr	r1, .L22
 318 0014 0348     		ldr	r0, .L22+4
 319 0016 FFF7FEFF 		bl	xTaskCreate
 125:Nutrients.c   **** }
 320              		.loc 1 125 0
 321 001a 00BF     		nop
 322 001c BD46     		mov	sp, r7
ARM GAS  C:\Users\mabo\AppData\Local\Temp\cckAFbbB.s 			page 9


 323              		.cfi_def_cfa_register 13
 324              		@ sp needed
 325 001e 80BD     		pop	{r7, pc}
 326              	.L23:
 327              		.align	2
 328              	.L22:
 329 0020 18000000 		.word	.LC2
 330 0024 00000000 		.word	vTestTaskNutrientPump
 331              		.cfi_endproc
 332              	.LFE70:
 333              		.size	vTestTaskInit, .-vTestTaskInit
 334              		.section	.text.vTestTaskNutrientPump,"ax",%progbits
 335              		.align	2
 336              		.global	vTestTaskNutrientPump
 337              		.thumb
 338              		.thumb_func
 339              		.type	vTestTaskNutrientPump, %function
 340              	vTestTaskNutrientPump:
 341              	.LFB71:
 126:Nutrients.c   **** 
 127:Nutrients.c   **** 
 128:Nutrients.c   **** void vTestTaskNutrientPump() {
 342              		.loc 1 128 0
 343              		.cfi_startproc
 344              		@ args = 0, pretend = 0, frame = 8
 345              		@ frame_needed = 1, uses_anonymous_args = 0
 346 0000 80B5     		push	{r7, lr}
 347              		.cfi_def_cfa_offset 8
 348              		.cfi_offset 7, -8
 349              		.cfi_offset 14, -4
 350 0002 82B0     		sub	sp, sp, #8
 351              		.cfi_def_cfa_offset 16
 352 0004 00AF     		add	r7, sp, #0
 353              		.cfi_def_cfa_register 7
 129:Nutrients.c   ****     _Bool bTestState1 = 1;
 354              		.loc 1 129 0
 355 0006 0123     		movs	r3, #1
 356 0008 FB70     		strb	r3, [r7, #3]
 130:Nutrients.c   ****     _Bool bTestState2 = 0;
 357              		.loc 1 130 0
 358 000a 0023     		movs	r3, #0
 359 000c BB70     		strb	r3, [r7, #2]
 131:Nutrients.c   ****     const TickType_t xDelayms = pdMS_TO_TICKS( 200 );
 360              		.loc 1 131 0
 361 000e C823     		movs	r3, #200
 362 0010 7B60     		str	r3, [r7, #4]
 363              	.L27:
 132:Nutrients.c   ****     
 133:Nutrients.c   ****     for(;;) {
 134:Nutrients.c   ****         if(bTestState1 == 1) {
 364              		.loc 1 134 0
 365 0012 FB78     		ldrb	r3, [r7, #3]	@ zero_extendqisi2
 366 0014 002B     		cmp	r3, #0
 367 0016 04D0     		beq	.L25
 135:Nutrients.c   ****             bTestState1 = 0;
 368              		.loc 1 135 0
 369 0018 0023     		movs	r3, #0
ARM GAS  C:\Users\mabo\AppData\Local\Temp\cckAFbbB.s 			page 10


 370 001a FB70     		strb	r3, [r7, #3]
 136:Nutrients.c   ****             bTestState2 = 1;
 371              		.loc 1 136 0
 372 001c 0123     		movs	r3, #1
 373 001e BB70     		strb	r3, [r7, #2]
 374 0020 03E0     		b	.L26
 375              	.L25:
 137:Nutrients.c   ****         }
 138:Nutrients.c   ****         else {
 139:Nutrients.c   ****             bTestState1 = 1;
 376              		.loc 1 139 0
 377 0022 0123     		movs	r3, #1
 378 0024 FB70     		strb	r3, [r7, #3]
 140:Nutrients.c   ****             bTestState2 = 0;
 379              		.loc 1 140 0
 380 0026 0023     		movs	r3, #0
 381 0028 BB70     		strb	r3, [r7, #2]
 382              	.L26:
 141:Nutrients.c   ****         }
 142:Nutrients.c   ****         
 143:Nutrients.c   ****         xQueueSendToBack(xQueueNutrientPump[0], &bTestState1, portMAX_DELAY);
 383              		.loc 1 143 0
 384 002a 0E4B     		ldr	r3, .L28
 385 002c 1868     		ldr	r0, [r3]
 386 002e F91C     		adds	r1, r7, #3
 387 0030 0023     		movs	r3, #0
 388 0032 4FF0FF32 		mov	r2, #-1
 389 0036 FFF7FEFF 		bl	xQueueGenericSend
 144:Nutrients.c   ****         xQueueSendToBack(xQueueNutrientPump[1], &bTestState2, portMAX_DELAY);
 390              		.loc 1 144 0
 391 003a 0A4B     		ldr	r3, .L28
 392 003c 5868     		ldr	r0, [r3, #4]
 393 003e B91C     		adds	r1, r7, #2
 394 0040 0023     		movs	r3, #0
 395 0042 4FF0FF32 		mov	r2, #-1
 396 0046 FFF7FEFF 		bl	xQueueGenericSend
 145:Nutrients.c   ****         xQueueSendToBack(xQueueNutrientPump[2], &bTestState1, portMAX_DELAY);
 397              		.loc 1 145 0
 398 004a 064B     		ldr	r3, .L28
 399 004c 9868     		ldr	r0, [r3, #8]
 400 004e F91C     		adds	r1, r7, #3
 401 0050 0023     		movs	r3, #0
 402 0052 4FF0FF32 		mov	r2, #-1
 403 0056 FFF7FEFF 		bl	xQueueGenericSend
 146:Nutrients.c   ****         
 147:Nutrients.c   ****         vTaskDelay(xDelayms);
 404              		.loc 1 147 0
 405 005a 7868     		ldr	r0, [r7, #4]
 406 005c FFF7FEFF 		bl	vTaskDelay
 148:Nutrients.c   ****     }
 407              		.loc 1 148 0
 408 0060 D7E7     		b	.L27
 409              	.L29:
 410 0062 00BF     		.align	2
 411              	.L28:
 412 0064 00000000 		.word	xQueueNutrientPump
 413              		.cfi_endproc
ARM GAS  C:\Users\mabo\AppData\Local\Temp\cckAFbbB.s 			page 11


 414              	.LFE71:
 415              		.size	vTestTaskNutrientPump, .-vTestTaskNutrientPump
 416              		.text
 417              	.Letext0:
 418              		.file 2 "c:\\program files (x86)\\cypress\\psoc creator\\4.3\\psoc creator\\import\\gnu\\arm\\5.4.
 419              		.file 3 "c:\\program files (x86)\\cypress\\psoc creator\\4.3\\psoc creator\\import\\gnu\\arm\\5.4.
 420              		.file 4 "Generated_Source\\PSoC5/cytypes.h"
 421              		.file 5 ".\\Source\\portable\\GCC\\ARM_CM3/portmacro.h"
 422              		.file 6 ".\\Source\\include/queue.h"
 423              		.file 7 "Generated_Source\\PSoC5/core_cm3.h"