ARM GAS  C:\Users\krist\AppData\Local\Temp\ccLTBo06.s 			page 1


   1              		.syntax unified
   2              		.cpu cortex-m3
   3              		.fpu softvfp
   4              		.eabi_attribute 20, 1
   5              		.eabi_attribute 21, 1
   6              		.eabi_attribute 23, 3
   7              		.eabi_attribute 24, 1
   8              		.eabi_attribute 25, 1
   9              		.eabi_attribute 26, 1
  10              		.eabi_attribute 30, 6
  11              		.eabi_attribute 34, 1
  12              		.eabi_attribute 18, 4
  13              		.thumb
  14              		.syntax unified
  15              		.file	"Nutrients.c"
  16              		.text
  17              	.Ltext0:
  18              		.cfi_sections	.debug_frame
  19              		.comm	DS18x8_Sensor,32,4
  20              		.comm	DS18x8_DataReady,1,1
  21              		.global	iSizeOfNutrients
  22              		.section	.rodata
  23              		.align	2
  24              		.type	iSizeOfNutrients, %object
  25              		.size	iSizeOfNutrients, 4
  26              	iSizeOfNutrients:
  27 0000 28000000 		.word	40
  28              		.comm	currentNutrients,240,4
  29              		.global	iPHIndex
  30              		.bss
  31              		.align	2
  32              		.type	iPHIndex, %object
  33              		.size	iPHIndex, 4
  34              	iPHIndex:
  35 0000 00000000 		.space	4
  36              		.global	iECIndex
  37              		.align	2
  38              		.type	iECIndex, %object
  39              		.size	iECIndex, 4
  40              	iECIndex:
  41 0004 00000000 		.space	4
  42              		.global	iWateTempIndex
  43              		.align	2
  44              		.type	iWateTempIndex, %object
  45              		.size	iWateTempIndex, 4
  46              	iWateTempIndex:
  47 0008 00000000 		.space	4
  48              		.global	fNeutralVoltage
  49              		.section	.rodata
  50              		.align	2
  51              		.type	fNeutralVoltage, %object
  52              		.size	fNeutralVoltage, 4
  53              	fNeutralVoltage:
  54 0004 0080BB44 		.word	1153138688
  55              		.global	fAcidVoltage
  56              		.align	2
  57              		.type	fAcidVoltage, %object
ARM GAS  C:\Users\krist\AppData\Local\Temp\ccLTBo06.s 			page 2


  58              		.size	fAcidVoltage, 4
  59              	fAcidVoltage:
  60 0008 140EFE44 		.word	1157500436
  61              		.comm	xQueueNutrientPump,12,4
  62              		.comm	xQueuePHValue,4,4
  63              		.comm	xQueueWaterTemp,4,4
  64              		.global	MAX_SPEED
  65              		.type	MAX_SPEED, %object
  66              		.size	MAX_SPEED, 1
  67              	MAX_SPEED:
  68 000c 06       		.byte	6
  69              		.global	STOP_SPEED
  70              		.type	STOP_SPEED, %object
  71              		.size	STOP_SPEED, 1
  72              	STOP_SPEED:
  73 000d 13       		.byte	19
  74 000e 0000     		.align	2
  75              		.type	pcTextForNutrientPump, %object
  76              		.size	pcTextForNutrientPump, 3
  77              	pcTextForNutrientPump:
  78 0010 00       		.byte	0
  79 0011 01       		.byte	1
  80 0012 02       		.byte	2
  81 0013 00       		.align	2
  82              	.LC0:
  83 0014 50756D70 		.ascii	"Pump 1\000"
  83      203100
  84 001b 00       		.align	2
  85              	.LC1:
  86 001c 50756D70 		.ascii	"Pump 2\000"
  86      203200
  87 0023 00       		.align	2
  88              	.LC2:
  89 0024 504800   		.ascii	"PH\000"
  90 0027 00       		.align	2
  91              	.LC3:
  92 0028 56616E64 		.ascii	"VandTemp\000"
  92      54656D70 
  92      00
  93              		.section	.text.vNutrientsInit,"ax",%progbits
  94              		.align	2
  95              		.global	vNutrientsInit
  96              		.thumb
  97              		.thumb_func
  98              		.type	vNutrientsInit, %function
  99              	vNutrientsInit:
 100              	.LFB68:
 101              		.file 1 "Nutrients.c"
   1:Nutrients.c   **** /* ========================================
   2:Nutrients.c   ****  *
   3:Nutrients.c   ****  * Copyright YOUR COMPANY, THE YEAR
   4:Nutrients.c   ****  * All Rights Reserved
   5:Nutrients.c   ****  * UNPUBLISHED, LICENSED SOFTWARE.
   6:Nutrients.c   ****  *
   7:Nutrients.c   ****  * CONFIDENTIAL AND PROPRIETARY INFORMATION
   8:Nutrients.c   ****  * WHICH IS THE PROPERTY OF your company.
   9:Nutrients.c   ****  *
ARM GAS  C:\Users\krist\AppData\Local\Temp\ccLTBo06.s 			page 3


  10:Nutrients.c   ****  * ========================================
  11:Nutrients.c   **** */
  12:Nutrients.c   **** 
  13:Nutrients.c   **** /* [] END OF FILE */
  14:Nutrients.c   **** 
  15:Nutrients.c   **** #include "FreeRTOS.h"
  16:Nutrients.c   **** #include "Nutrients.h"
  17:Nutrients.c   **** #include "task.h"
  18:Nutrients.c   **** #include "queue.h"
  19:Nutrients.c   **** 
  20:Nutrients.c   **** struct Nutrients{ // Struct contains nutrients values measured
  21:Nutrients.c   ****     uint16  iPHvalue;
  22:Nutrients.c   ****     uint16  iECvalue;
  23:Nutrients.c   ****     uint16  iWaterTemp;
  24:Nutrients.c   **** };
  25:Nutrients.c   **** 
  26:Nutrients.c   **** const int iSizeOfNutrients = 40; // Should be the same as the value of the array below
  27:Nutrients.c   **** struct Nutrients currentNutrients[40]; // Create struct array with space for 40 measurements
  28:Nutrients.c   **** int iPHIndex = 0; // Use this index to save pH measurements into the struct array
  29:Nutrients.c   **** int iECIndex = 0; // Use this index to save EC measurements into the struct array
  30:Nutrients.c   **** int iWateTempIndex = 0; // Use this index to save water temperature measurements into the struct ar
  31:Nutrients.c   **** 
  32:Nutrients.c   **** const float fNeutralVoltage = 1500; //Voltage at pH 7, should be calibrated
  33:Nutrients.c   **** const float fAcidVoltage = 2032.44; //Voltage at pH 4, should be calibrated
  34:Nutrients.c   **** 
  35:Nutrients.c   **** QueueHandle_t xQueueNutrientPump[3]; // Create a queue for 3 nutrient pumps
  36:Nutrients.c   **** QueueHandle_t xQueuePHValue;        // Create a queue for sending pH values through UART
  37:Nutrients.c   **** QueueHandle_t xQueueWaterTemp;
  38:Nutrients.c   **** 
  39:Nutrients.c   **** 
  40:Nutrients.c   **** const uint8 MAX_SPEED = 6; // Max speed constant for the nutrient pumps
  41:Nutrients.c   **** const uint8 STOP_SPEED = 19; // Stop speed for the nutrient pumps
  42:Nutrients.c   **** static const uint8 pcTextForNutrientPump[3] = {0, 1, 2};
  43:Nutrients.c   **** 
  44:Nutrients.c   **** 
  45:Nutrients.c   **** void vNutrientsInit() {
 102              		.loc 1 45 0
 103              		.cfi_startproc
 104              		@ args = 0, pretend = 0, frame = 0
 105              		@ frame_needed = 1, uses_anonymous_args = 0
 106 0000 80B5     		push	{r7, lr}
 107              		.cfi_def_cfa_offset 8
 108              		.cfi_offset 7, -8
 109              		.cfi_offset 14, -4
 110 0002 82B0     		sub	sp, sp, #8
 111              		.cfi_def_cfa_offset 16
 112 0004 02AF     		add	r7, sp, #8
 113              		.cfi_def_cfa 7, 8
  46:Nutrients.c   ****     /*  The queue is created to hold a maximum of 1 value, each of which is
  47:Nutrients.c   ****         large enough to hold a variable at the size of Bool. */
  48:Nutrients.c   ****     xQueueNutrientPump[0] = xQueueCreate( 1, sizeof( _Bool ) );
 114              		.loc 1 48 0
 115 0006 0022     		movs	r2, #0
 116 0008 0121     		movs	r1, #1
 117 000a 0120     		movs	r0, #1
 118 000c FFF7FEFF 		bl	xQueueGenericCreate
 119 0010 0246     		mov	r2, r0
ARM GAS  C:\Users\krist\AppData\Local\Temp\ccLTBo06.s 			page 4


 120 0012 2E4B     		ldr	r3, .L2
 121 0014 1A60     		str	r2, [r3]
  49:Nutrients.c   ****     xQueueNutrientPump[1] = xQueueCreate( 1, sizeof( _Bool ) );
 122              		.loc 1 49 0
 123 0016 0022     		movs	r2, #0
 124 0018 0121     		movs	r1, #1
 125 001a 0120     		movs	r0, #1
 126 001c FFF7FEFF 		bl	xQueueGenericCreate
 127 0020 0246     		mov	r2, r0
 128 0022 2A4B     		ldr	r3, .L2
 129 0024 5A60     		str	r2, [r3, #4]
  50:Nutrients.c   ****     xQueueNutrientPump[2] = xQueueCreate( 1, sizeof( _Bool ) );
 130              		.loc 1 50 0
 131 0026 0022     		movs	r2, #0
 132 0028 0121     		movs	r1, #1
 133 002a 0120     		movs	r0, #1
 134 002c FFF7FEFF 		bl	xQueueGenericCreate
 135 0030 0246     		mov	r2, r0
 136 0032 264B     		ldr	r3, .L2
 137 0034 9A60     		str	r2, [r3, #8]
  51:Nutrients.c   ****     
  52:Nutrients.c   ****     xQueuePHValue = xQueueCreate(1 , sizeof(uint16));
 138              		.loc 1 52 0
 139 0036 0022     		movs	r2, #0
 140 0038 0221     		movs	r1, #2
 141 003a 0120     		movs	r0, #1
 142 003c FFF7FEFF 		bl	xQueueGenericCreate
 143 0040 0246     		mov	r2, r0
 144 0042 234B     		ldr	r3, .L2+4
 145 0044 1A60     		str	r2, [r3]
  53:Nutrients.c   ****     xQueueWaterTemp = xQueueCreate(1 , sizeof(uint16));
 146              		.loc 1 53 0
 147 0046 0022     		movs	r2, #0
 148 0048 0221     		movs	r1, #2
 149 004a 0120     		movs	r0, #1
 150 004c FFF7FEFF 		bl	xQueueGenericCreate
 151 0050 0246     		mov	r2, r0
 152 0052 204B     		ldr	r3, .L2+8
 153 0054 1A60     		str	r2, [r3]
  54:Nutrients.c   ****     
  55:Nutrients.c   ****     /*  Create the task that will control one nutrient pump. The task is created with
  56:Nutrients.c   ****         priority 1. */
  57:Nutrients.c   ****     xTaskCreate(vTaskNutrientPump, "Pump 1", 100, (void*)pcTextForNutrientPump, 2, NULL);
 154              		.loc 1 57 0
 155 0056 0023     		movs	r3, #0
 156 0058 0193     		str	r3, [sp, #4]
 157 005a 0223     		movs	r3, #2
 158 005c 0093     		str	r3, [sp]
 159 005e 1E4B     		ldr	r3, .L2+12
 160 0060 6422     		movs	r2, #100
 161 0062 1E49     		ldr	r1, .L2+16
 162 0064 1E48     		ldr	r0, .L2+20
 163 0066 FFF7FEFF 		bl	xTaskCreate
  58:Nutrients.c   ****     xTaskCreate(vTaskNutrientPump, "Pump 2", 100, (void*)pcTextForNutrientPump + 1, 2, NULL);
 164              		.loc 1 58 0
 165 006a 1E4A     		ldr	r2, .L2+24
 166 006c 0023     		movs	r3, #0
ARM GAS  C:\Users\krist\AppData\Local\Temp\ccLTBo06.s 			page 5


 167 006e 0193     		str	r3, [sp, #4]
 168 0070 0223     		movs	r3, #2
 169 0072 0093     		str	r3, [sp]
 170 0074 1346     		mov	r3, r2
 171 0076 6422     		movs	r2, #100
 172 0078 1B49     		ldr	r1, .L2+28
 173 007a 1948     		ldr	r0, .L2+20
 174 007c FFF7FEFF 		bl	xTaskCreate
  59:Nutrients.c   ****     xTaskCreate(vTaskNutrientPump, "Pump 2", 100, (void*)pcTextForNutrientPump + 2, 2, NULL);
 175              		.loc 1 59 0
 176 0080 1A4A     		ldr	r2, .L2+32
 177 0082 0023     		movs	r3, #0
 178 0084 0193     		str	r3, [sp, #4]
 179 0086 0223     		movs	r3, #2
 180 0088 0093     		str	r3, [sp]
 181 008a 1346     		mov	r3, r2
 182 008c 6422     		movs	r2, #100
 183 008e 1649     		ldr	r1, .L2+28
 184 0090 1348     		ldr	r0, .L2+20
 185 0092 FFF7FEFF 		bl	xTaskCreate
  60:Nutrients.c   **** 
  61:Nutrients.c   ****     
  62:Nutrients.c   ****     xTaskCreate(vTaskMeasurePH, "PH", 1000 , NULL , 2 , NULL);
 186              		.loc 1 62 0
 187 0096 0023     		movs	r3, #0
 188 0098 0193     		str	r3, [sp, #4]
 189 009a 0223     		movs	r3, #2
 190 009c 0093     		str	r3, [sp]
 191 009e 0023     		movs	r3, #0
 192 00a0 4FF47A72 		mov	r2, #1000
 193 00a4 1249     		ldr	r1, .L2+36
 194 00a6 1348     		ldr	r0, .L2+40
 195 00a8 FFF7FEFF 		bl	xTaskCreate
  63:Nutrients.c   ****     xTaskCreate(vTaskWaterTemp, "VandTemp", 1000, NULL, 4 , NULL);
 196              		.loc 1 63 0
 197 00ac 0023     		movs	r3, #0
 198 00ae 0193     		str	r3, [sp, #4]
 199 00b0 0423     		movs	r3, #4
 200 00b2 0093     		str	r3, [sp]
 201 00b4 0023     		movs	r3, #0
 202 00b6 4FF47A72 		mov	r2, #1000
 203 00ba 0F49     		ldr	r1, .L2+44
 204 00bc 0F48     		ldr	r0, .L2+48
 205 00be FFF7FEFF 		bl	xTaskCreate
  64:Nutrients.c   ****     /*Initialize test tasks*/
  65:Nutrients.c   ****     #if NUTRIENTSTEST == 1
  66:Nutrients.c   ****         vTestTaskInit();
 206              		.loc 1 66 0
 207 00c2 FFF7FEFF 		bl	vTestTaskInit
  67:Nutrients.c   ****     #endif
  68:Nutrients.c   ****     
  69:Nutrients.c   ****     
  70:Nutrients.c   **** }
 208              		.loc 1 70 0
 209 00c6 00BF     		nop
 210 00c8 BD46     		mov	sp, r7
 211              		.cfi_def_cfa_register 13
ARM GAS  C:\Users\krist\AppData\Local\Temp\ccLTBo06.s 			page 6


 212              		@ sp needed
 213 00ca 80BD     		pop	{r7, pc}
 214              	.L3:
 215              		.align	2
 216              	.L2:
 217 00cc 00000000 		.word	xQueueNutrientPump
 218 00d0 00000000 		.word	xQueuePHValue
 219 00d4 00000000 		.word	xQueueWaterTemp
 220 00d8 10000000 		.word	pcTextForNutrientPump
 221 00dc 14000000 		.word	.LC0
 222 00e0 00000000 		.word	vTaskNutrientPump
 223 00e4 11000000 		.word	pcTextForNutrientPump+1
 224 00e8 1C000000 		.word	.LC1
 225 00ec 12000000 		.word	pcTextForNutrientPump+2
 226 00f0 24000000 		.word	.LC2
 227 00f4 00000000 		.word	vTaskMeasurePH
 228 00f8 28000000 		.word	.LC3
 229 00fc 00000000 		.word	vTaskWaterTemp
 230              		.cfi_endproc
 231              	.LFE68:
 232              		.size	vNutrientsInit, .-vNutrientsInit
 233              		.section	.text.vTaskNutrientPump,"ax",%progbits
 234              		.align	2
 235              		.global	vTaskNutrientPump
 236              		.thumb
 237              		.thumb_func
 238              		.type	vTaskNutrientPump, %function
 239              	vTaskNutrientPump:
 240              	.LFB69:
  71:Nutrients.c   **** 
  72:Nutrients.c   **** 
  73:Nutrients.c   **** 
  74:Nutrients.c   **** 
  75:Nutrients.c   **** void vTaskNutrientPump( void *pvParameters ) {
 241              		.loc 1 75 0
 242              		.cfi_startproc
 243              		@ args = 0, pretend = 0, frame = 24
 244              		@ frame_needed = 1, uses_anonymous_args = 0
 245 0000 80B5     		push	{r7, lr}
 246              		.cfi_def_cfa_offset 8
 247              		.cfi_offset 7, -8
 248              		.cfi_offset 14, -4
 249 0002 86B0     		sub	sp, sp, #24
 250              		.cfi_def_cfa_offset 32
 251 0004 00AF     		add	r7, sp, #0
 252              		.cfi_def_cfa_register 7
 253 0006 7860     		str	r0, [r7, #4]
  76:Nutrients.c   ****     _Bool bState;
  77:Nutrients.c   ****     BaseType_t xStatus;
  78:Nutrients.c   ****     uint8 *piNutrientPump;
  79:Nutrients.c   ****     
  80:Nutrients.c   ****     piNutrientPump = ( uint8 * ) pvParameters;
 254              		.loc 1 80 0
 255 0008 7B68     		ldr	r3, [r7, #4]
 256 000a 7B61     		str	r3, [r7, #20]
 257              	.L15:
  81:Nutrients.c   ****     
ARM GAS  C:\Users\krist\AppData\Local\Temp\ccLTBo06.s 			page 7


  82:Nutrients.c   ****     for(;;) {
  83:Nutrients.c   ****         /* Switch case for controlling the nutrient pumps */
  84:Nutrients.c   ****         switch (*piNutrientPump) {
 258              		.loc 1 84 0
 259 000c 7B69     		ldr	r3, [r7, #20]
 260 000e 1B78     		ldrb	r3, [r3]	@ zero_extendqisi2
 261 0010 012B     		cmp	r3, #1
 262 0012 1DD0     		beq	.L6
 263 0014 022B     		cmp	r3, #2
 264 0016 35D0     		beq	.L7
 265 0018 002B     		cmp	r3, #0
 266 001a 52D1     		bne	.L5
  85:Nutrients.c   ****             case 0:
  86:Nutrients.c   ****                 xStatus = xQueueReceive( xQueueNutrientPump[0], &bState, portMAX_DELAY ); // Checks
 267              		.loc 1 86 0
 268 001c 294B     		ldr	r3, .L19
 269 001e 1B68     		ldr	r3, [r3]
 270 0020 07F10F01 		add	r1, r7, #15
 271 0024 4FF0FF32 		mov	r2, #-1
 272 0028 1846     		mov	r0, r3
 273 002a FFF7FEFF 		bl	xQueueReceive
 274 002e 3861     		str	r0, [r7, #16]
  87:Nutrients.c   ****         
  88:Nutrients.c   ****                 if (xStatus == pdPASS) {
 275              		.loc 1 88 0
 276 0030 3B69     		ldr	r3, [r7, #16]
 277 0032 012B     		cmp	r3, #1
 278 0034 40D1     		bne	.L16
  89:Nutrients.c   ****                     if (bState) {
 279              		.loc 1 89 0
 280 0036 FB7B     		ldrb	r3, [r7, #15]	@ zero_extendqisi2
 281 0038 002B     		cmp	r3, #0
 282 003a 04D0     		beq	.L10
  90:Nutrients.c   ****                         PWM_PERISTALTISK_1_WriteCompare1(MAX_SPEED); // Start running the pump.
 283              		.loc 1 90 0
 284 003c 0623     		movs	r3, #6
 285 003e 1846     		mov	r0, r3
 286 0040 FFF7FEFF 		bl	PWM_PERISTALTISK_1_WriteCompare1
  91:Nutrients.c   ****                     } else {
  92:Nutrients.c   ****                         PWM_PERISTALTISK_1_WriteCompare1(STOP_SPEED); // Stop running the pump.
  93:Nutrients.c   ****                     }
  94:Nutrients.c   ****                 }
  95:Nutrients.c   ****                 break;
 287              		.loc 1 95 0
 288 0044 38E0     		b	.L16
 289              	.L10:
  92:Nutrients.c   ****                     }
 290              		.loc 1 92 0
 291 0046 1323     		movs	r3, #19
 292 0048 1846     		mov	r0, r3
 293 004a FFF7FEFF 		bl	PWM_PERISTALTISK_1_WriteCompare1
 294              		.loc 1 95 0
 295 004e 33E0     		b	.L16
 296              	.L6:
  96:Nutrients.c   ****             
  97:Nutrients.c   ****             case 1:
  98:Nutrients.c   ****                 xStatus = xQueueReceive( xQueueNutrientPump[1], &bState, portMAX_DELAY ); // Checks
ARM GAS  C:\Users\krist\AppData\Local\Temp\ccLTBo06.s 			page 8


 297              		.loc 1 98 0
 298 0050 1C4B     		ldr	r3, .L19
 299 0052 5B68     		ldr	r3, [r3, #4]
 300 0054 07F10F01 		add	r1, r7, #15
 301 0058 4FF0FF32 		mov	r2, #-1
 302 005c 1846     		mov	r0, r3
 303 005e FFF7FEFF 		bl	xQueueReceive
 304 0062 3861     		str	r0, [r7, #16]
  99:Nutrients.c   ****         
 100:Nutrients.c   ****                 if (xStatus == pdPASS) {
 305              		.loc 1 100 0
 306 0064 3B69     		ldr	r3, [r7, #16]
 307 0066 012B     		cmp	r3, #1
 308 0068 28D1     		bne	.L17
 101:Nutrients.c   ****                     if (bState) {
 309              		.loc 1 101 0
 310 006a FB7B     		ldrb	r3, [r7, #15]	@ zero_extendqisi2
 311 006c 002B     		cmp	r3, #0
 312 006e 04D0     		beq	.L12
 102:Nutrients.c   ****                         PWM_PERISTALTISK_1_WriteCompare2(MAX_SPEED);
 313              		.loc 1 102 0
 314 0070 0623     		movs	r3, #6
 315 0072 1846     		mov	r0, r3
 316 0074 FFF7FEFF 		bl	PWM_PERISTALTISK_1_WriteCompare2
 103:Nutrients.c   ****                     } else {
 104:Nutrients.c   ****                         PWM_PERISTALTISK_1_WriteCompare2(STOP_SPEED);
 105:Nutrients.c   ****                     }
 106:Nutrients.c   ****                 }
 107:Nutrients.c   ****                 break;
 317              		.loc 1 107 0
 318 0078 20E0     		b	.L17
 319              	.L12:
 104:Nutrients.c   ****                     }
 320              		.loc 1 104 0
 321 007a 1323     		movs	r3, #19
 322 007c 1846     		mov	r0, r3
 323 007e FFF7FEFF 		bl	PWM_PERISTALTISK_1_WriteCompare2
 324              		.loc 1 107 0
 325 0082 1BE0     		b	.L17
 326              	.L7:
 108:Nutrients.c   ****                 
 109:Nutrients.c   ****             case 2:
 110:Nutrients.c   ****                 xStatus = xQueueReceive( xQueueNutrientPump[2], &bState, portMAX_DELAY ); // Checks
 327              		.loc 1 110 0
 328 0084 0F4B     		ldr	r3, .L19
 329 0086 9B68     		ldr	r3, [r3, #8]
 330 0088 07F10F01 		add	r1, r7, #15
 331 008c 4FF0FF32 		mov	r2, #-1
 332 0090 1846     		mov	r0, r3
 333 0092 FFF7FEFF 		bl	xQueueReceive
 334 0096 3861     		str	r0, [r7, #16]
 111:Nutrients.c   ****         
 112:Nutrients.c   ****                 if (xStatus == pdPASS) {
 335              		.loc 1 112 0
 336 0098 3B69     		ldr	r3, [r7, #16]
 337 009a 012B     		cmp	r3, #1
 338 009c 10D1     		bne	.L18
ARM GAS  C:\Users\krist\AppData\Local\Temp\ccLTBo06.s 			page 9


 113:Nutrients.c   ****                     if (bState) {
 339              		.loc 1 113 0
 340 009e FB7B     		ldrb	r3, [r7, #15]	@ zero_extendqisi2
 341 00a0 002B     		cmp	r3, #0
 342 00a2 04D0     		beq	.L14
 114:Nutrients.c   ****                         PWM_PERISTALTISK_2_WriteCompare(MAX_SPEED);
 343              		.loc 1 114 0
 344 00a4 0623     		movs	r3, #6
 345 00a6 1846     		mov	r0, r3
 346 00a8 FFF7FEFF 		bl	PWM_PERISTALTISK_2_WriteCompare
 115:Nutrients.c   ****                     } else {
 116:Nutrients.c   ****                         PWM_PERISTALTISK_2_WriteCompare(STOP_SPEED);
 117:Nutrients.c   ****                     }
 118:Nutrients.c   ****                 }
 119:Nutrients.c   ****                 break;
 347              		.loc 1 119 0
 348 00ac 08E0     		b	.L18
 349              	.L14:
 116:Nutrients.c   ****                     }
 350              		.loc 1 116 0
 351 00ae 1323     		movs	r3, #19
 352 00b0 1846     		mov	r0, r3
 353 00b2 FFF7FEFF 		bl	PWM_PERISTALTISK_2_WriteCompare
 354              		.loc 1 119 0
 355 00b6 03E0     		b	.L18
 356              	.L16:
  95:Nutrients.c   ****             
 357              		.loc 1 95 0
 358 00b8 00BF     		nop
 359 00ba A7E7     		b	.L15
 360              	.L17:
 107:Nutrients.c   ****                 
 361              		.loc 1 107 0
 362 00bc 00BF     		nop
 363 00be A5E7     		b	.L15
 364              	.L18:
 365              		.loc 1 119 0
 366 00c0 00BF     		nop
 367              	.L5:
 120:Nutrients.c   ****         }
 121:Nutrients.c   ****     }
 368              		.loc 1 121 0 discriminator 1
 369 00c2 A3E7     		b	.L15
 370              	.L20:
 371              		.align	2
 372              	.L19:
 373 00c4 00000000 		.word	xQueueNutrientPump
 374              		.cfi_endproc
 375              	.LFE69:
 376              		.size	vTaskNutrientPump, .-vTaskNutrientPump
 377              		.global	__aeabi_i2d
 378              		.global	__aeabi_ddiv
 379              		.global	__aeabi_dmul
 380              		.global	__aeabi_d2f
 381              		.global	__aeabi_fmul
 382              		.global	__aeabi_f2uiz
 383              		.section	.text.vTaskMeasurePH,"ax",%progbits
ARM GAS  C:\Users\krist\AppData\Local\Temp\ccLTBo06.s 			page 10


 384              		.align	2
 385              		.global	vTaskMeasurePH
 386              		.thumb
 387              		.thumb_func
 388              		.type	vTaskMeasurePH, %function
 389              	vTaskMeasurePH:
 390              	.LFB70:
 122:Nutrients.c   **** }
 123:Nutrients.c   **** 
 124:Nutrients.c   **** void vTaskMeasurePH(){
 391              		.loc 1 124 0
 392              		.cfi_startproc
 393              		@ args = 0, pretend = 0, frame = 24
 394              		@ frame_needed = 1, uses_anonymous_args = 0
 395 0000 90B5     		push	{r4, r7, lr}
 396              		.cfi_def_cfa_offset 12
 397              		.cfi_offset 4, -12
 398              		.cfi_offset 7, -8
 399              		.cfi_offset 14, -4
 400 0002 87B0     		sub	sp, sp, #28
 401              		.cfi_def_cfa_offset 40
 402 0004 00AF     		add	r7, sp, #0
 403              		.cfi_def_cfa_register 7
 125:Nutrients.c   ****     float fPHVoltage;
 126:Nutrients.c   ****     const TickType_t xDelayms = pdMS_TO_TICKS( 100 ); // Sets the measurement resolution.
 404              		.loc 1 126 0
 405 0006 6423     		movs	r3, #100
 406 0008 3B61     		str	r3, [r7, #16]
 127:Nutrients.c   ****     float fPHValue;
 128:Nutrients.c   ****     float fMilliPHValue;
 129:Nutrients.c   ****     uint16 iMilliPHValue;
 130:Nutrients.c   ****     _Bool bState = 0;
 407              		.loc 1 130 0
 408 000a 0023     		movs	r3, #0
 409 000c FB75     		strb	r3, [r7, #23]
 410              	.L25:
 131:Nutrients.c   ****     
 132:Nutrients.c   ****     for(;;){
 133:Nutrients.c   ****         if(bState == 0){
 411              		.loc 1 133 0
 412 000e FB7D     		ldrb	r3, [r7, #23]
 413 0010 83F00103 		eor	r3, r3, #1
 414 0014 DBB2     		uxtb	r3, r3
 415 0016 002B     		cmp	r3, #0
 416 0018 04D0     		beq	.L22
 134:Nutrients.c   ****             ADC_PH_StartConvert();
 417              		.loc 1 134 0
 418 001a FFF7FEFF 		bl	ADC_PH_StartConvert
 135:Nutrients.c   ****             bState = 1;
 419              		.loc 1 135 0
 420 001e 0123     		movs	r3, #1
 421 0020 FB75     		strb	r3, [r7, #23]
 422 0022 F4E7     		b	.L25
 423              	.L22:
 136:Nutrients.c   ****         }
 137:Nutrients.c   ****         else if( (ADC_PH_IsEndConversion(ADC_PH_RETURN_STATUS) != 0) && (bState == 1) ){
 424              		.loc 1 137 0
ARM GAS  C:\Users\krist\AppData\Local\Temp\ccLTBo06.s 			page 11


 425 0024 0120     		movs	r0, #1
 426 0026 FFF7FEFF 		bl	ADC_PH_IsEndConversion
 427 002a 0346     		mov	r3, r0
 428 002c 002B     		cmp	r3, #0
 429 002e EED0     		beq	.L25
 430              		.loc 1 137 0 is_stmt 0 discriminator 1
 431 0030 FB7D     		ldrb	r3, [r7, #23]	@ zero_extendqisi2
 432 0032 002B     		cmp	r3, #0
 433 0034 EBD0     		beq	.L25
 138:Nutrients.c   ****             fPHVoltage = ((ADC_PH_GetResult16()) / 4096.0) * 3000.0; // Calculate voltage from meas
 434              		.loc 1 138 0 is_stmt 1
 435 0036 FFF7FEFF 		bl	ADC_PH_GetResult16
 436 003a 0346     		mov	r3, r0
 437 003c 1846     		mov	r0, r3
 438 003e FFF7FEFF 		bl	__aeabi_i2d
 439 0042 4FF00002 		mov	r2, #0
 440 0046 224B     		ldr	r3, .L26+8
 441 0048 FFF7FEFF 		bl	__aeabi_ddiv
 442 004c 0346     		mov	r3, r0
 443 004e 0C46     		mov	r4, r1
 444 0050 1846     		mov	r0, r3
 445 0052 2146     		mov	r1, r4
 446 0054 1CA3     		adr	r3, .L26
 447 0056 D3E90023 		ldrd	r2, [r3]
 448 005a FFF7FEFF 		bl	__aeabi_dmul
 449 005e 0346     		mov	r3, r0
 450 0060 0C46     		mov	r4, r1
 451 0062 1846     		mov	r0, r3
 452 0064 2146     		mov	r1, r4
 453 0066 FFF7FEFF 		bl	__aeabi_d2f
 454 006a 0346     		mov	r3, r0
 455 006c FB60     		str	r3, [r7, #12]	@ float
 139:Nutrients.c   ****             fPHValue = fCalculatePHValue(fPHVoltage); // Convert the voltage to a pH value
 456              		.loc 1 139 0
 457 006e F868     		ldr	r0, [r7, #12]	@ float
 458 0070 FFF7FEFF 		bl	fCalculatePHValue
 459 0074 B860     		str	r0, [r7, #8]	@ float
 140:Nutrients.c   ****             fMilliPHValue = fPHValue * 1000; // Convert to milli pH value. This makes sure that we 
 460              		.loc 1 140 0
 461 0076 1749     		ldr	r1, .L26+12
 462 0078 B868     		ldr	r0, [r7, #8]	@ float
 463 007a FFF7FEFF 		bl	__aeabi_fmul
 464 007e 0346     		mov	r3, r0
 465 0080 7B60     		str	r3, [r7, #4]	@ float
 141:Nutrients.c   ****             iMilliPHValue = (uint16) fMilliPHValue; // Convert to a sendable message for UART (from
 466              		.loc 1 141 0
 467 0082 7868     		ldr	r0, [r7, #4]	@ float
 468 0084 FFF7FEFF 		bl	__aeabi_f2uiz
 469 0088 0346     		mov	r3, r0
 470 008a 7B80     		strh	r3, [r7, #2]	@ movhi
 142:Nutrients.c   ****             currentNutrients[iPHIndex].iPHvalue = iMilliPHValue; // Save in the currentNutrients ar
 471              		.loc 1 142 0
 472 008c 124B     		ldr	r3, .L26+16
 473 008e 1A68     		ldr	r2, [r3]
 474 0090 1249     		ldr	r1, .L26+20
 475 0092 1346     		mov	r3, r2
 476 0094 5B00     		lsls	r3, r3, #1
ARM GAS  C:\Users\krist\AppData\Local\Temp\ccLTBo06.s 			page 12


 477 0096 1344     		add	r3, r3, r2
 478 0098 5B00     		lsls	r3, r3, #1
 479 009a 0B44     		add	r3, r3, r1
 480 009c 7A88     		ldrh	r2, [r7, #2]	@ movhi
 481 009e 1A80     		strh	r2, [r3]	@ movhi
 143:Nutrients.c   ****             iPHIndex++;
 482              		.loc 1 143 0
 483 00a0 0D4B     		ldr	r3, .L26+16
 484 00a2 1B68     		ldr	r3, [r3]
 485 00a4 0133     		adds	r3, r3, #1
 486 00a6 0C4A     		ldr	r2, .L26+16
 487 00a8 1360     		str	r3, [r2]
 144:Nutrients.c   ****             if(iPHIndex == iSizeOfNutrients) {
 488              		.loc 1 144 0
 489 00aa 0B4B     		ldr	r3, .L26+16
 490 00ac 1B68     		ldr	r3, [r3]
 491 00ae 2822     		movs	r2, #40
 492 00b0 9342     		cmp	r3, r2
 493 00b2 02D1     		bne	.L24
 145:Nutrients.c   ****                 iPHIndex = 0;
 494              		.loc 1 145 0
 495 00b4 084B     		ldr	r3, .L26+16
 496 00b6 0022     		movs	r2, #0
 497 00b8 1A60     		str	r2, [r3]
 498              	.L24:
 146:Nutrients.c   ****             }
 147:Nutrients.c   ****             bState = 0;
 499              		.loc 1 147 0
 500 00ba 0023     		movs	r3, #0
 501 00bc FB75     		strb	r3, [r7, #23]
 148:Nutrients.c   ****           //  xQueueSendToBack(xQueuePHValue , &iMilliPHValue , portMAX_DELAY); // Send the value t
 149:Nutrients.c   ****             vTaskDelay(xDelayms);
 502              		.loc 1 149 0
 503 00be 3869     		ldr	r0, [r7, #16]
 504 00c0 FFF7FEFF 		bl	vTaskDelay
 150:Nutrients.c   ****         }
 151:Nutrients.c   ****     }
 505              		.loc 1 151 0
 506 00c4 A3E7     		b	.L25
 507              	.L27:
 508 00c6 00BF     		.align	3
 509              	.L26:
 510 00c8 00000000 		.word	0
 511 00cc 0070A740 		.word	1084715008
 512 00d0 0000B040 		.word	1085276160
 513 00d4 00007A44 		.word	1148846080
 514 00d8 00000000 		.word	iPHIndex
 515 00dc 00000000 		.word	currentNutrients
 516              		.cfi_endproc
 517              	.LFE70:
 518              		.size	vTaskMeasurePH, .-vTaskMeasurePH
 519              		.global	__aeabi_f2d
 520              		.global	__aeabi_dsub
 521              		.global	__aeabi_dadd
 522              		.section	.text.fCalculatePHValue,"ax",%progbits
 523              		.align	2
 524              		.global	fCalculatePHValue
ARM GAS  C:\Users\krist\AppData\Local\Temp\ccLTBo06.s 			page 13


 525              		.thumb
 526              		.thumb_func
 527              		.type	fCalculatePHValue, %function
 528              	fCalculatePHValue:
 529              	.LFB71:
 152:Nutrients.c   **** }
 153:Nutrients.c   **** 
 154:Nutrients.c   **** 
 155:Nutrients.c   **** float fCalculatePHValue(float fPHVoltage){
 530              		.loc 1 155 0
 531              		.cfi_startproc
 532              		@ args = 0, pretend = 0, frame = 16
 533              		@ frame_needed = 1, uses_anonymous_args = 0
 534 0000 B0B5     		push	{r4, r5, r7, lr}
 535              		.cfi_def_cfa_offset 16
 536              		.cfi_offset 4, -16
 537              		.cfi_offset 5, -12
 538              		.cfi_offset 7, -8
 539              		.cfi_offset 14, -4
 540 0002 84B0     		sub	sp, sp, #16
 541              		.cfi_def_cfa_offset 32
 542 0004 00AF     		add	r7, sp, #0
 543              		.cfi_def_cfa_register 7
 544 0006 7860     		str	r0, [r7, #4]	@ float
 156:Nutrients.c   ****     float fSlope = (7.0-4.0) / ( (fNeutralVoltage - 1500.0)/3.0 - (fAcidVoltage - 1500.0)/3.0); //c
 545              		.loc 1 156 0
 546 0008 534B     		ldr	r3, .L30+8
 547 000a 1846     		mov	r0, r3
 548 000c FFF7FEFF 		bl	__aeabi_f2d
 549 0010 4FA3     		adr	r3, .L30
 550 0012 D3E90023 		ldrd	r2, [r3]
 551 0016 FFF7FEFF 		bl	__aeabi_dsub
 552 001a 0346     		mov	r3, r0
 553 001c 0C46     		mov	r4, r1
 554 001e 1846     		mov	r0, r3
 555 0020 2146     		mov	r1, r4
 556 0022 4FF00002 		mov	r2, #0
 557 0026 4D4B     		ldr	r3, .L30+12
 558 0028 FFF7FEFF 		bl	__aeabi_ddiv
 559 002c 0346     		mov	r3, r0
 560 002e 0C46     		mov	r4, r1
 561 0030 2546     		mov	r5, r4
 562 0032 1C46     		mov	r4, r3
 563 0034 4A4B     		ldr	r3, .L30+16
 564 0036 1846     		mov	r0, r3
 565 0038 FFF7FEFF 		bl	__aeabi_f2d
 566 003c 44A3     		adr	r3, .L30
 567 003e D3E90023 		ldrd	r2, [r3]
 568 0042 FFF7FEFF 		bl	__aeabi_dsub
 569 0046 0246     		mov	r2, r0
 570 0048 0B46     		mov	r3, r1
 571 004a 1046     		mov	r0, r2
 572 004c 1946     		mov	r1, r3
 573 004e 4FF00002 		mov	r2, #0
 574 0052 424B     		ldr	r3, .L30+12
 575 0054 FFF7FEFF 		bl	__aeabi_ddiv
 576 0058 0246     		mov	r2, r0
ARM GAS  C:\Users\krist\AppData\Local\Temp\ccLTBo06.s 			page 14


 577 005a 0B46     		mov	r3, r1
 578 005c 2046     		mov	r0, r4
 579 005e 2946     		mov	r1, r5
 580 0060 FFF7FEFF 		bl	__aeabi_dsub
 581 0064 0346     		mov	r3, r0
 582 0066 0C46     		mov	r4, r1
 583 0068 1A46     		mov	r2, r3
 584 006a 2346     		mov	r3, r4
 585 006c 4FF00000 		mov	r0, #0
 586 0070 3A49     		ldr	r1, .L30+12
 587 0072 FFF7FEFF 		bl	__aeabi_ddiv
 588 0076 0346     		mov	r3, r0
 589 0078 0C46     		mov	r4, r1
 590 007a 1846     		mov	r0, r3
 591 007c 2146     		mov	r1, r4
 592 007e FFF7FEFF 		bl	__aeabi_d2f
 593 0082 0346     		mov	r3, r0
 594 0084 FB60     		str	r3, [r7, #12]	@ float
 157:Nutrients.c   ****     float fIntercept = 7.0 - fSlope*(fNeutralVoltage-1500.0)/3.0; //calculate b in y = ax + b
 595              		.loc 1 157 0
 596 0086 F868     		ldr	r0, [r7, #12]	@ float
 597 0088 FFF7FEFF 		bl	__aeabi_f2d
 598 008c 0446     		mov	r4, r0
 599 008e 0D46     		mov	r5, r1
 600 0090 314B     		ldr	r3, .L30+8
 601 0092 1846     		mov	r0, r3
 602 0094 FFF7FEFF 		bl	__aeabi_f2d
 603 0098 2DA3     		adr	r3, .L30
 604 009a D3E90023 		ldrd	r2, [r3]
 605 009e FFF7FEFF 		bl	__aeabi_dsub
 606 00a2 0246     		mov	r2, r0
 607 00a4 0B46     		mov	r3, r1
 608 00a6 2046     		mov	r0, r4
 609 00a8 2946     		mov	r1, r5
 610 00aa FFF7FEFF 		bl	__aeabi_dmul
 611 00ae 0346     		mov	r3, r0
 612 00b0 0C46     		mov	r4, r1
 613 00b2 1846     		mov	r0, r3
 614 00b4 2146     		mov	r1, r4
 615 00b6 4FF00002 		mov	r2, #0
 616 00ba 284B     		ldr	r3, .L30+12
 617 00bc FFF7FEFF 		bl	__aeabi_ddiv
 618 00c0 0346     		mov	r3, r0
 619 00c2 0C46     		mov	r4, r1
 620 00c4 1A46     		mov	r2, r3
 621 00c6 2346     		mov	r3, r4
 622 00c8 4FF00000 		mov	r0, #0
 623 00cc 2549     		ldr	r1, .L30+20
 624 00ce FFF7FEFF 		bl	__aeabi_dsub
 625 00d2 0346     		mov	r3, r0
 626 00d4 0C46     		mov	r4, r1
 627 00d6 1846     		mov	r0, r3
 628 00d8 2146     		mov	r1, r4
 629 00da FFF7FEFF 		bl	__aeabi_d2f
 630 00de 0346     		mov	r3, r0
 631 00e0 BB60     		str	r3, [r7, #8]	@ float
 158:Nutrients.c   ****     return fSlope*(fPHVoltage-1500.0)/3.0 + fIntercept; //return pH value
ARM GAS  C:\Users\krist\AppData\Local\Temp\ccLTBo06.s 			page 15


 632              		.loc 1 158 0
 633 00e2 F868     		ldr	r0, [r7, #12]	@ float
 634 00e4 FFF7FEFF 		bl	__aeabi_f2d
 635 00e8 0446     		mov	r4, r0
 636 00ea 0D46     		mov	r5, r1
 637 00ec 7868     		ldr	r0, [r7, #4]	@ float
 638 00ee FFF7FEFF 		bl	__aeabi_f2d
 639 00f2 17A3     		adr	r3, .L30
 640 00f4 D3E90023 		ldrd	r2, [r3]
 641 00f8 FFF7FEFF 		bl	__aeabi_dsub
 642 00fc 0246     		mov	r2, r0
 643 00fe 0B46     		mov	r3, r1
 644 0100 2046     		mov	r0, r4
 645 0102 2946     		mov	r1, r5
 646 0104 FFF7FEFF 		bl	__aeabi_dmul
 647 0108 0346     		mov	r3, r0
 648 010a 0C46     		mov	r4, r1
 649 010c 1846     		mov	r0, r3
 650 010e 2146     		mov	r1, r4
 651 0110 4FF00002 		mov	r2, #0
 652 0114 114B     		ldr	r3, .L30+12
 653 0116 FFF7FEFF 		bl	__aeabi_ddiv
 654 011a 0346     		mov	r3, r0
 655 011c 0C46     		mov	r4, r1
 656 011e 2546     		mov	r5, r4
 657 0120 1C46     		mov	r4, r3
 658 0122 B868     		ldr	r0, [r7, #8]	@ float
 659 0124 FFF7FEFF 		bl	__aeabi_f2d
 660 0128 0246     		mov	r2, r0
 661 012a 0B46     		mov	r3, r1
 662 012c 2046     		mov	r0, r4
 663 012e 2946     		mov	r1, r5
 664 0130 FFF7FEFF 		bl	__aeabi_dadd
 665 0134 0346     		mov	r3, r0
 666 0136 0C46     		mov	r4, r1
 667 0138 1846     		mov	r0, r3
 668 013a 2146     		mov	r1, r4
 669 013c FFF7FEFF 		bl	__aeabi_d2f
 670 0140 0346     		mov	r3, r0
 159:Nutrients.c   **** }
 671              		.loc 1 159 0
 672 0142 1846     		mov	r0, r3
 673 0144 1037     		adds	r7, r7, #16
 674              		.cfi_def_cfa_offset 16
 675 0146 BD46     		mov	sp, r7
 676              		.cfi_def_cfa_register 13
 677              		@ sp needed
 678 0148 B0BD     		pop	{r4, r5, r7, pc}
 679              	.L31:
 680 014a 00BFAFF3 		.align	3
 680      0080
 681              	.L30:
 682 0150 00000000 		.word	0
 683 0154 00709740 		.word	1083666432
 684 0158 0080BB44 		.word	1153138688
 685 015c 00000840 		.word	1074266112
 686 0160 140EFE44 		.word	1157500436
ARM GAS  C:\Users\krist\AppData\Local\Temp\ccLTBo06.s 			page 16


 687 0164 00001C40 		.word	1075576832
 688              		.cfi_endproc
 689              	.LFE71:
 690              		.size	fCalculatePHValue, .-fCalculatePHValue
 691              		.section	.text.vTaskWaterTemp,"ax",%progbits
 692              		.align	2
 693              		.global	vTaskWaterTemp
 694              		.thumb
 695              		.thumb_func
 696              		.type	vTaskWaterTemp, %function
 697              	vTaskWaterTemp:
 698              	.LFB72:
 160:Nutrients.c   **** 
 161:Nutrients.c   **** 
 162:Nutrients.c   **** 
 163:Nutrients.c   **** void vTaskWaterTemp(){
 699              		.loc 1 163 0
 700              		.cfi_startproc
 701              		@ args = 0, pretend = 0, frame = 16
 702              		@ frame_needed = 1, uses_anonymous_args = 0
 703 0000 80B5     		push	{r7, lr}
 704              		.cfi_def_cfa_offset 8
 705              		.cfi_offset 7, -8
 706              		.cfi_offset 14, -4
 707 0002 84B0     		sub	sp, sp, #16
 708              		.cfi_def_cfa_offset 24
 709 0004 00AF     		add	r7, sp, #0
 710              		.cfi_def_cfa_register 7
 164:Nutrients.c   ****        const TickType_t xDelayms = pdMS_TO_TICKS( 2000 ); // Sets the measurement resolution.
 711              		.loc 1 164 0
 712 0006 4FF4FA63 		mov	r3, #2000
 713 000a BB60     		str	r3, [r7, #8]
 165:Nutrients.c   ****     int16 waterTemp; 
 166:Nutrients.c   ****     _Bool flagTimer = 1;
 714              		.loc 1 166 0
 715 000c 0123     		movs	r3, #1
 716 000e FB73     		strb	r3, [r7, #15]
 717              	.L35:
 167:Nutrients.c   ****     for(;;) 
 168:Nutrients.c   ****     { 
 169:Nutrients.c   ****         if (flagTimer == 1){
 718              		.loc 1 169 0
 719 0010 FB7B     		ldrb	r3, [r7, #15]	@ zero_extendqisi2
 720 0012 002B     		cmp	r3, #0
 721 0014 03D0     		beq	.L33
 170:Nutrients.c   ****             flagTimer = 0;
 722              		.loc 1 170 0
 723 0016 0023     		movs	r3, #0
 724 0018 FB73     		strb	r3, [r7, #15]
 171:Nutrients.c   ****             DS18x8_SendTemperatureRequest(); //  Sending request to sensor, checking bus, and setti
 725              		.loc 1 171 0
 726 001a FFF7FEFF 		bl	DS18x8_SendTemperatureRequest
 727              	.L33:
 172:Nutrients.c   ****         }
 173:Nutrients.c   ****         if (DS18x8_DataReady) // DS18 completed temperature measurement - begin read data
 728              		.loc 1 173 0
 729 001e 0D4B     		ldr	r3, .L36
ARM GAS  C:\Users\krist\AppData\Local\Temp\ccLTBo06.s 			page 17


 730 0020 1B78     		ldrb	r3, [r3]
 731 0022 DBB2     		uxtb	r3, r3
 732 0024 002B     		cmp	r3, #0
 733 0026 F3D0     		beq	.L35
 174:Nutrients.c   ****         {   
 175:Nutrients.c   ****             DS18x8_ReadTemperature(); //  Reads temperature from DS scratchpad and stores in DS18x8
 734              		.loc 1 175 0
 735 0028 FFF7FEFF 		bl	DS18x8_ReadTemperature
 176:Nutrients.c   ****             waterTemp = DS18x8_GetTemperatureAsInt100 (0);  // Converts reading to int16 ex: 38.06 
 736              		.loc 1 176 0
 737 002c 0020     		movs	r0, #0
 738 002e FFF7FEFF 		bl	DS18x8_GetTemperatureAsInt100
 739 0032 0346     		mov	r3, r0
 740 0034 FB80     		strh	r3, [r7, #6]	@ movhi
 177:Nutrients.c   ****             xQueueSendToBack(xQueueWaterTemp, &waterTemp, portMAX_DELAY); // Send the value to the 
 741              		.loc 1 177 0
 742 0036 084B     		ldr	r3, .L36+4
 743 0038 1868     		ldr	r0, [r3]
 744 003a B91D     		adds	r1, r7, #6
 745 003c 0023     		movs	r3, #0
 746 003e 4FF0FF32 		mov	r2, #-1
 747 0042 FFF7FEFF 		bl	xQueueGenericSend
 178:Nutrients.c   ****             flagTimer = 1;
 748              		.loc 1 178 0
 749 0046 0123     		movs	r3, #1
 750 0048 FB73     		strb	r3, [r7, #15]
 179:Nutrients.c   ****             vTaskDelay(xDelayms);
 751              		.loc 1 179 0
 752 004a B868     		ldr	r0, [r7, #8]
 753 004c FFF7FEFF 		bl	vTaskDelay
 180:Nutrients.c   ****         }    
 181:Nutrients.c   ****     }   
 754              		.loc 1 181 0
 755 0050 DEE7     		b	.L35
 756              	.L37:
 757 0052 00BF     		.align	2
 758              	.L36:
 759 0054 00000000 		.word	DS18x8_DataReady
 760 0058 00000000 		.word	xQueueWaterTemp
 761              		.cfi_endproc
 762              	.LFE72:
 763              		.size	vTaskWaterTemp, .-vTaskWaterTemp
 764              		.section	.rodata
 765 0031 000000   		.align	2
 766              	.LC4:
 767 0034 57617465 		.ascii	"Watertemp: \000"
 767      7274656D 
 767      703A2000 
 768              		.align	2
 769              	.LC5:
 770 0040 0A00     		.ascii	"\012\000"
 771              		.section	.text.vTestTaskWaterTemp,"ax",%progbits
 772              		.align	2
 773              		.global	vTestTaskWaterTemp
 774              		.thumb
 775              		.thumb_func
 776              		.type	vTestTaskWaterTemp, %function
ARM GAS  C:\Users\krist\AppData\Local\Temp\ccLTBo06.s 			page 18


 777              	vTestTaskWaterTemp:
 778              	.LFB73:
 182:Nutrients.c   **** }
 183:Nutrients.c   **** /* --- TEST TASK --- */
 184:Nutrients.c   **** 
 185:Nutrients.c   **** /*
 186:Nutrients.c   ****     Task for testing existing implementations.
 187:Nutrients.c   **** 
 188:Nutrients.c   ****     DO NOT delete this functions/tasks, but comment them out if they arn't nexessary 
 189:Nutrients.c   ****     for your current implementation/testing
 190:Nutrients.c   ****     
 191:Nutrients.c   ****     All test task/functions, must start with (type)Test(Task/Function/Var)(Name)
 192:Nutrients.c   **** 
 193:Nutrients.c   ****     
 194:Nutrients.c   **** */
 195:Nutrients.c   **** void vTestTaskWaterTemp(){
 779              		.loc 1 195 0
 780              		.cfi_startproc
 781              		@ args = 0, pretend = 0, frame = 8
 782              		@ frame_needed = 1, uses_anonymous_args = 0
 783 0000 80B5     		push	{r7, lr}
 784              		.cfi_def_cfa_offset 8
 785              		.cfi_offset 7, -8
 786              		.cfi_offset 14, -4
 787 0002 82B0     		sub	sp, sp, #8
 788              		.cfi_def_cfa_offset 16
 789 0004 00AF     		add	r7, sp, #0
 790              		.cfi_def_cfa_register 7
 791              	.L39:
 196:Nutrients.c   ****     uint16 WaterTempTest;
 197:Nutrients.c   ****     for(;;){
 198:Nutrients.c   ****         xQueueReceive( xQueueWaterTemp, &WaterTempTest, portMAX_DELAY);
 792              		.loc 1 198 0 discriminator 1
 793 0006 094B     		ldr	r3, .L40
 794 0008 1B68     		ldr	r3, [r3]
 795 000a B91D     		adds	r1, r7, #6
 796 000c 4FF0FF32 		mov	r2, #-1
 797 0010 1846     		mov	r0, r3
 798 0012 FFF7FEFF 		bl	xQueueReceive
 199:Nutrients.c   ****         SW_UART_TEST_USB_PutString("Watertemp: ");
 799              		.loc 1 199 0 discriminator 1
 800 0016 0648     		ldr	r0, .L40+4
 801 0018 FFF7FEFF 		bl	SW_UART_TEST_USB_PutString
 200:Nutrients.c   ****         SW_UART_TEST_USB_PutHexInt(WaterTempTest);
 802              		.loc 1 200 0 discriminator 1
 803 001c FB88     		ldrh	r3, [r7, #6]
 804 001e 1846     		mov	r0, r3
 805 0020 FFF7FEFF 		bl	SW_UART_TEST_USB_PutHexInt
 201:Nutrients.c   ****         SW_UART_TEST_USB_PutString("\n");
 806              		.loc 1 201 0 discriminator 1
 807 0024 0348     		ldr	r0, .L40+8
 808 0026 FFF7FEFF 		bl	SW_UART_TEST_USB_PutString
 202:Nutrients.c   ****      }
 809              		.loc 1 202 0 discriminator 1
 810 002a ECE7     		b	.L39
 811              	.L41:
 812              		.align	2
ARM GAS  C:\Users\krist\AppData\Local\Temp\ccLTBo06.s 			page 19


 813              	.L40:
 814 002c 00000000 		.word	xQueueWaterTemp
 815 0030 34000000 		.word	.LC4
 816 0034 40000000 		.word	.LC5
 817              		.cfi_endproc
 818              	.LFE73:
 819              		.size	vTestTaskWaterTemp, .-vTestTaskWaterTemp
 820              		.section	.rodata
 821 0042 0000     		.align	2
 822              	.LC6:
 823 0044 54657374 		.ascii	"Test Pump 1\000"
 823      2050756D 
 823      70203100 
 824              		.align	2
 825              	.LC7:
 826 0050 54657374 		.ascii	"Test Water Temp\000"
 826      20576174 
 826      65722054 
 826      656D7000 
 827              		.section	.text.vTestTaskInit,"ax",%progbits
 828              		.align	2
 829              		.global	vTestTaskInit
 830              		.thumb
 831              		.thumb_func
 832              		.type	vTestTaskInit, %function
 833              	vTestTaskInit:
 834              	.LFB74:
 203:Nutrients.c   **** }
 204:Nutrients.c   **** 
 205:Nutrients.c   **** 
 206:Nutrients.c   **** void vTestTaskInit(){
 835              		.loc 1 206 0
 836              		.cfi_startproc
 837              		@ args = 0, pretend = 0, frame = 0
 838              		@ frame_needed = 1, uses_anonymous_args = 0
 839 0000 80B5     		push	{r7, lr}
 840              		.cfi_def_cfa_offset 8
 841              		.cfi_offset 7, -8
 842              		.cfi_offset 14, -4
 843 0002 82B0     		sub	sp, sp, #8
 844              		.cfi_def_cfa_offset 16
 845 0004 02AF     		add	r7, sp, #8
 846              		.cfi_def_cfa 7, 8
 207:Nutrients.c   ****     xTaskCreate(vTestTaskNutrientPump, "Test Pump 1", 100, NULL, 1, NULL); 
 847              		.loc 1 207 0
 848 0006 0023     		movs	r3, #0
 849 0008 0193     		str	r3, [sp, #4]
 850 000a 0123     		movs	r3, #1
 851 000c 0093     		str	r3, [sp]
 852 000e 0023     		movs	r3, #0
 853 0010 6422     		movs	r2, #100
 854 0012 0849     		ldr	r1, .L43
 855 0014 0848     		ldr	r0, .L43+4
 856 0016 FFF7FEFF 		bl	xTaskCreate
 208:Nutrients.c   ****    // xTaskCreate(vTestTaskUARTDataTransmit, "Test PH print", 100, NULL, 2, NULL); 
 209:Nutrients.c   ****     xTaskCreate(vTestTaskWaterTemp, "Test Water Temp", 100, NULL, 3, NULL);
 857              		.loc 1 209 0
ARM GAS  C:\Users\krist\AppData\Local\Temp\ccLTBo06.s 			page 20


 858 001a 0023     		movs	r3, #0
 859 001c 0193     		str	r3, [sp, #4]
 860 001e 0323     		movs	r3, #3
 861 0020 0093     		str	r3, [sp]
 862 0022 0023     		movs	r3, #0
 863 0024 6422     		movs	r2, #100
 864 0026 0549     		ldr	r1, .L43+8
 865 0028 0548     		ldr	r0, .L43+12
 866 002a FFF7FEFF 		bl	xTaskCreate
 210:Nutrients.c   **** }
 867              		.loc 1 210 0
 868 002e 00BF     		nop
 869 0030 BD46     		mov	sp, r7
 870              		.cfi_def_cfa_register 13
 871              		@ sp needed
 872 0032 80BD     		pop	{r7, pc}
 873              	.L44:
 874              		.align	2
 875              	.L43:
 876 0034 44000000 		.word	.LC6
 877 0038 00000000 		.word	vTestTaskNutrientPump
 878 003c 50000000 		.word	.LC7
 879 0040 00000000 		.word	vTestTaskWaterTemp
 880              		.cfi_endproc
 881              	.LFE74:
 882              		.size	vTestTaskInit, .-vTestTaskInit
 883              		.section	.rodata
 884              		.align	2
 885              	.LC8:
 886 0060 693A2000 		.ascii	"i: \000"
 887              		.align	2
 888              	.LC9:
 889 0064 20307800 		.ascii	" 0x\000"
 890              		.section	.text.vTestTaskUARTDataTransmit,"ax",%progbits
 891              		.align	2
 892              		.global	vTestTaskUARTDataTransmit
 893              		.thumb
 894              		.thumb_func
 895              		.type	vTestTaskUARTDataTransmit, %function
 896              	vTestTaskUARTDataTransmit:
 897              	.LFB75:
 211:Nutrients.c   **** 
 212:Nutrients.c   **** 
 213:Nutrients.c   **** void vTestTaskUARTDataTransmit(){
 898              		.loc 1 213 0
 899              		.cfi_startproc
 900              		@ args = 0, pretend = 0, frame = 8
 901              		@ frame_needed = 1, uses_anonymous_args = 0
 902 0000 80B5     		push	{r7, lr}
 903              		.cfi_def_cfa_offset 8
 904              		.cfi_offset 7, -8
 905              		.cfi_offset 14, -4
 906 0002 82B0     		sub	sp, sp, #8
 907              		.cfi_def_cfa_offset 16
 908 0004 00AF     		add	r7, sp, #0
 909              		.cfi_def_cfa_register 7
 910              	.L46:
ARM GAS  C:\Users\krist\AppData\Local\Temp\ccLTBo06.s 			page 21


 214:Nutrients.c   ****     uint16 iPHValueForPrint;
 215:Nutrients.c   ****     for(;;){
 216:Nutrients.c   ****         xQueueReceive( xQueuePHValue, &iPHValueForPrint, portMAX_DELAY );
 911              		.loc 1 216 0 discriminator 1
 912 0006 124B     		ldr	r3, .L47
 913 0008 1B68     		ldr	r3, [r3]
 914 000a B91D     		adds	r1, r7, #6
 915 000c 4FF0FF32 		mov	r2, #-1
 916 0010 1846     		mov	r0, r3
 917 0012 FFF7FEFF 		bl	xQueueReceive
 217:Nutrients.c   ****         SW_UART_TEST_USB_PutString("i: ");
 918              		.loc 1 217 0 discriminator 1
 919 0016 0F48     		ldr	r0, .L47+4
 920 0018 FFF7FEFF 		bl	SW_UART_TEST_USB_PutString
 218:Nutrients.c   ****         SW_UART_TEST_USB_PutHexInt(iPHIndex);
 921              		.loc 1 218 0 discriminator 1
 922 001c 0E4B     		ldr	r3, .L47+8
 923 001e 1B68     		ldr	r3, [r3]
 924 0020 9BB2     		uxth	r3, r3
 925 0022 1846     		mov	r0, r3
 926 0024 FFF7FEFF 		bl	SW_UART_TEST_USB_PutHexInt
 219:Nutrients.c   ****         SW_UART_TEST_USB_PutString(" 0x");
 927              		.loc 1 219 0 discriminator 1
 928 0028 0C48     		ldr	r0, .L47+12
 929 002a FFF7FEFF 		bl	SW_UART_TEST_USB_PutString
 220:Nutrients.c   ****         SW_UART_TEST_USB_PutHexInt(currentNutrients[iPHIndex].iPHvalue);
 930              		.loc 1 220 0 discriminator 1
 931 002e 0A4B     		ldr	r3, .L47+8
 932 0030 1A68     		ldr	r2, [r3]
 933 0032 0B49     		ldr	r1, .L47+16
 934 0034 1346     		mov	r3, r2
 935 0036 5B00     		lsls	r3, r3, #1
 936 0038 1344     		add	r3, r3, r2
 937 003a 5B00     		lsls	r3, r3, #1
 938 003c 0B44     		add	r3, r3, r1
 939 003e 1B88     		ldrh	r3, [r3]
 940 0040 1846     		mov	r0, r3
 941 0042 FFF7FEFF 		bl	SW_UART_TEST_USB_PutHexInt
 221:Nutrients.c   ****         SW_UART_TEST_USB_PutString("\n");
 942              		.loc 1 221 0 discriminator 1
 943 0046 0748     		ldr	r0, .L47+20
 944 0048 FFF7FEFF 		bl	SW_UART_TEST_USB_PutString
 222:Nutrients.c   ****     }
 945              		.loc 1 222 0 discriminator 1
 946 004c DBE7     		b	.L46
 947              	.L48:
 948 004e 00BF     		.align	2
 949              	.L47:
 950 0050 00000000 		.word	xQueuePHValue
 951 0054 60000000 		.word	.LC8
 952 0058 00000000 		.word	iPHIndex
 953 005c 64000000 		.word	.LC9
 954 0060 00000000 		.word	currentNutrients
 955 0064 40000000 		.word	.LC5
 956              		.cfi_endproc
 957              	.LFE75:
 958              		.size	vTestTaskUARTDataTransmit, .-vTestTaskUARTDataTransmit
ARM GAS  C:\Users\krist\AppData\Local\Temp\ccLTBo06.s 			page 22


 959              		.section	.text.vTestTaskNutrientPump,"ax",%progbits
 960              		.align	2
 961              		.global	vTestTaskNutrientPump
 962              		.thumb
 963              		.thumb_func
 964              		.type	vTestTaskNutrientPump, %function
 965              	vTestTaskNutrientPump:
 966              	.LFB76:
 223:Nutrients.c   **** }
 224:Nutrients.c   **** 
 225:Nutrients.c   **** 
 226:Nutrients.c   **** 
 227:Nutrients.c   **** void vTestTaskNutrientPump() {
 967              		.loc 1 227 0
 968              		.cfi_startproc
 969              		@ args = 0, pretend = 0, frame = 8
 970              		@ frame_needed = 1, uses_anonymous_args = 0
 971 0000 80B5     		push	{r7, lr}
 972              		.cfi_def_cfa_offset 8
 973              		.cfi_offset 7, -8
 974              		.cfi_offset 14, -4
 975 0002 82B0     		sub	sp, sp, #8
 976              		.cfi_def_cfa_offset 16
 977 0004 00AF     		add	r7, sp, #0
 978              		.cfi_def_cfa_register 7
 228:Nutrients.c   ****     _Bool bTestState1 = 1;
 979              		.loc 1 228 0
 980 0006 0123     		movs	r3, #1
 981 0008 FB70     		strb	r3, [r7, #3]
 229:Nutrients.c   ****     _Bool bTestState2 = 0;
 982              		.loc 1 229 0
 983 000a 0023     		movs	r3, #0
 984 000c BB70     		strb	r3, [r7, #2]
 230:Nutrients.c   ****     const TickType_t xDelayms = pdMS_TO_TICKS( 200 );
 985              		.loc 1 230 0
 986 000e C823     		movs	r3, #200
 987 0010 7B60     		str	r3, [r7, #4]
 988              	.L52:
 231:Nutrients.c   ****     
 232:Nutrients.c   ****     for(;;) {
 233:Nutrients.c   ****         if(bTestState1 == 1) {
 989              		.loc 1 233 0
 990 0012 FB78     		ldrb	r3, [r7, #3]	@ zero_extendqisi2
 991 0014 002B     		cmp	r3, #0
 992 0016 04D0     		beq	.L50
 234:Nutrients.c   ****             bTestState1 = 0;
 993              		.loc 1 234 0
 994 0018 0023     		movs	r3, #0
 995 001a FB70     		strb	r3, [r7, #3]
 235:Nutrients.c   ****             bTestState2 = 1;
 996              		.loc 1 235 0
 997 001c 0123     		movs	r3, #1
 998 001e BB70     		strb	r3, [r7, #2]
 999 0020 03E0     		b	.L51
 1000              	.L50:
 236:Nutrients.c   ****         }
 237:Nutrients.c   ****         else {
ARM GAS  C:\Users\krist\AppData\Local\Temp\ccLTBo06.s 			page 23


 238:Nutrients.c   ****             bTestState1 = 1;
 1001              		.loc 1 238 0
 1002 0022 0123     		movs	r3, #1
 1003 0024 FB70     		strb	r3, [r7, #3]
 239:Nutrients.c   ****             bTestState2 = 0;
 1004              		.loc 1 239 0
 1005 0026 0023     		movs	r3, #0
 1006 0028 BB70     		strb	r3, [r7, #2]
 1007              	.L51:
 240:Nutrients.c   ****         }
 241:Nutrients.c   ****         xQueueSendToBack(xQueueNutrientPump[0], &bTestState1, portMAX_DELAY);
 1008              		.loc 1 241 0
 1009 002a 0E4B     		ldr	r3, .L53
 1010 002c 1868     		ldr	r0, [r3]
 1011 002e F91C     		adds	r1, r7, #3
 1012 0030 0023     		movs	r3, #0
 1013 0032 4FF0FF32 		mov	r2, #-1
 1014 0036 FFF7FEFF 		bl	xQueueGenericSend
 242:Nutrients.c   ****         xQueueSendToBack(xQueueNutrientPump[1], &bTestState2, portMAX_DELAY);
 1015              		.loc 1 242 0
 1016 003a 0A4B     		ldr	r3, .L53
 1017 003c 5868     		ldr	r0, [r3, #4]
 1018 003e B91C     		adds	r1, r7, #2
 1019 0040 0023     		movs	r3, #0
 1020 0042 4FF0FF32 		mov	r2, #-1
 1021 0046 FFF7FEFF 		bl	xQueueGenericSend
 243:Nutrients.c   ****         xQueueSendToBack(xQueueNutrientPump[2], &bTestState1, portMAX_DELAY);
 1022              		.loc 1 243 0
 1023 004a 064B     		ldr	r3, .L53
 1024 004c 9868     		ldr	r0, [r3, #8]
 1025 004e F91C     		adds	r1, r7, #3
 1026 0050 0023     		movs	r3, #0
 1027 0052 4FF0FF32 		mov	r2, #-1
 1028 0056 FFF7FEFF 		bl	xQueueGenericSend
 244:Nutrients.c   ****         vTaskDelay(xDelayms);
 1029              		.loc 1 244 0
 1030 005a 7868     		ldr	r0, [r7, #4]
 1031 005c FFF7FEFF 		bl	vTaskDelay
 245:Nutrients.c   ****     }
 1032              		.loc 1 245 0
 1033 0060 D7E7     		b	.L52
 1034              	.L54:
 1035 0062 00BF     		.align	2
 1036              	.L53:
 1037 0064 00000000 		.word	xQueueNutrientPump
 1038              		.cfi_endproc
 1039              	.LFE76:
 1040              		.size	vTestTaskNutrientPump, .-vTestTaskNutrientPump
 1041              		.text
 1042              	.Letext0:
 1043              		.file 2 "c:\\program files (x86)\\cypress\\psoc creator\\4.3\\psoc creator\\import\\gnu\\arm\\5.4.
 1044              		.file 3 "c:\\program files (x86)\\cypress\\psoc creator\\4.3\\psoc creator\\import\\gnu\\arm\\5.4.
 1045              		.file 4 "Generated_Source\\PSoC5/cytypes.h"
 1046              		.file 5 "Generated_Source\\PSoC5/DS18x8.h"
 1047              		.file 6 ".\\Source\\portable\\GCC\\ARM_CM3/portmacro.h"
 1048              		.file 7 ".\\Source\\include/queue.h"
 1049              		.file 8 "Generated_Source\\PSoC5/core_cm3.h"
ARM GAS  C:\Users\krist\AppData\Local\Temp\ccLTBo06.s 			page 24


 1050              		.section	.debug_info,"",%progbits
 1051              	.Ldebug_info0:
 1052 0000 D6040000 		.4byte	0x4d6
 1053 0004 0400     		.2byte	0x4
 1054 0006 00000000 		.4byte	.Ldebug_abbrev0
 1055 000a 04       		.byte	0x4
 1056 000b 01       		.uleb128 0x1
 1057 000c 87000000 		.4byte	.LASF74
 1058 0010 0C       		.byte	0xc
 1059 0011 59030000 		.4byte	.LASF75
 1060 0015 07040000 		.4byte	.LASF76
 1061 0019 00000000 		.4byte	.Ldebug_ranges0+0
 1062 001d 00000000 		.4byte	0
 1063 0021 00000000 		.4byte	.Ldebug_line0
 1064 0025 02       		.uleb128 0x2
 1065 0026 04       		.byte	0x4
 1066 0027 05       		.byte	0x5
 1067 0028 696E7400 		.ascii	"int\000"
 1068 002c 03       		.uleb128 0x3
 1069 002d 04       		.byte	0x4
 1070 002e 07       		.byte	0x7
 1071 002f 8D020000 		.4byte	.LASF0
 1072 0033 03       		.uleb128 0x3
 1073 0034 08       		.byte	0x8
 1074 0035 05       		.byte	0x5
 1075 0036 B0010000 		.4byte	.LASF1
 1076 003a 03       		.uleb128 0x3
 1077 003b 08       		.byte	0x8
 1078 003c 04       		.byte	0x4
 1079 003d 2B020000 		.4byte	.LASF2
 1080 0041 03       		.uleb128 0x3
 1081 0042 01       		.byte	0x1
 1082 0043 06       		.byte	0x6
 1083 0044 4F020000 		.4byte	.LASF3
 1084 0048 04       		.uleb128 0x4
 1085 0049 95040000 		.4byte	.LASF7
 1086 004d 02       		.byte	0x2
 1087 004e 1D       		.byte	0x1d
 1088 004f 53000000 		.4byte	0x53
 1089 0053 03       		.uleb128 0x3
 1090 0054 01       		.byte	0x1
 1091 0055 08       		.byte	0x8
 1092 0056 41020000 		.4byte	.LASF4
 1093 005a 03       		.uleb128 0x3
 1094 005b 02       		.byte	0x2
 1095 005c 05       		.byte	0x5
 1096 005d 4D000000 		.4byte	.LASF5
 1097 0061 03       		.uleb128 0x3
 1098 0062 02       		.byte	0x2
 1099 0063 07       		.byte	0x7
 1100 0064 0D030000 		.4byte	.LASF6
 1101 0068 04       		.uleb128 0x4
 1102 0069 B4030000 		.4byte	.LASF8
 1103 006d 02       		.byte	0x2
 1104 006e 3F       		.byte	0x3f
 1105 006f 73000000 		.4byte	0x73
 1106 0073 03       		.uleb128 0x3
ARM GAS  C:\Users\krist\AppData\Local\Temp\ccLTBo06.s 			page 25


 1107 0074 04       		.byte	0x4
 1108 0075 05       		.byte	0x5
 1109 0076 D5010000 		.4byte	.LASF9
 1110 007a 04       		.uleb128 0x4
 1111 007b 8D030000 		.4byte	.LASF10
 1112 007f 02       		.byte	0x2
 1113 0080 41       		.byte	0x41
 1114 0081 85000000 		.4byte	0x85
 1115 0085 03       		.uleb128 0x3
 1116 0086 04       		.byte	0x4
 1117 0087 07       		.byte	0x7
 1118 0088 65030000 		.4byte	.LASF11
 1119 008c 03       		.uleb128 0x3
 1120 008d 08       		.byte	0x8
 1121 008e 07       		.byte	0x7
 1122 008f 5B020000 		.4byte	.LASF12
 1123 0093 04       		.uleb128 0x4
 1124 0094 73010000 		.4byte	.LASF13
 1125 0098 03       		.byte	0x3
 1126 0099 18       		.byte	0x18
 1127 009a 48000000 		.4byte	0x48
 1128 009e 04       		.uleb128 0x4
 1129 009f 05030000 		.4byte	.LASF14
 1130 00a3 03       		.byte	0x3
 1131 00a4 2C       		.byte	0x2c
 1132 00a5 68000000 		.4byte	0x68
 1133 00a9 04       		.uleb128 0x4
 1134 00aa 84020000 		.4byte	.LASF15
 1135 00ae 03       		.byte	0x3
 1136 00af 30       		.byte	0x30
 1137 00b0 7A000000 		.4byte	0x7a
 1138 00b4 05       		.uleb128 0x5
 1139 00b5 8A010000 		.4byte	.LASF16
 1140 00b9 04       		.byte	0x4
 1141 00ba E401     		.2byte	0x1e4
 1142 00bc 53000000 		.4byte	0x53
 1143 00c0 05       		.uleb128 0x5
 1144 00c1 52010000 		.4byte	.LASF17
 1145 00c5 04       		.byte	0x4
 1146 00c6 E501     		.2byte	0x1e5
 1147 00c8 61000000 		.4byte	0x61
 1148 00cc 05       		.uleb128 0x5
 1149 00cd 84010000 		.4byte	.LASF18
 1150 00d1 04       		.byte	0x4
 1151 00d2 E801     		.2byte	0x1e8
 1152 00d4 5A000000 		.4byte	0x5a
 1153 00d8 03       		.uleb128 0x3
 1154 00d9 04       		.byte	0x4
 1155 00da 04       		.byte	0x4
 1156 00db 90010000 		.4byte	.LASF19
 1157 00df 03       		.uleb128 0x3
 1158 00e0 08       		.byte	0x8
 1159 00e1 04       		.byte	0x4
 1160 00e2 77030000 		.4byte	.LASF20
 1161 00e6 03       		.uleb128 0x3
 1162 00e7 01       		.byte	0x1
 1163 00e8 08       		.byte	0x8
ARM GAS  C:\Users\krist\AppData\Local\Temp\ccLTBo06.s 			page 26


 1164 00e9 FA020000 		.4byte	.LASF21
 1165 00ed 06       		.uleb128 0x6
 1166 00ee B4000000 		.4byte	0xb4
 1167 00f2 03       		.uleb128 0x3
 1168 00f3 04       		.byte	0x4
 1169 00f4 07       		.byte	0x7
 1170 00f5 65000000 		.4byte	.LASF22
 1171 00f9 07       		.uleb128 0x7
 1172 00fa 04       		.byte	0x4
 1173 00fb 08       		.uleb128 0x8
 1174 00fc 27030000 		.4byte	.LASF28
 1175 0100 04       		.byte	0x4
 1176 0101 05       		.byte	0x5
 1177 0102 30       		.byte	0x30
 1178 0103 20010000 		.4byte	0x120
 1179 0107 09       		.uleb128 0x9
 1180 0108 EC030000 		.4byte	.LASF23
 1181 010c 05       		.byte	0x5
 1182 010d 31       		.byte	0x31
 1183 010e C0000000 		.4byte	0xc0
 1184 0112 00       		.byte	0
 1185 0113 09       		.uleb128 0x9
 1186 0114 C8030000 		.4byte	.LASF24
 1187 0118 05       		.byte	0x5
 1188 0119 32       		.byte	0x32
 1189 011a B4000000 		.4byte	0xb4
 1190 011e 02       		.byte	0x2
 1191 011f 00       		.byte	0
 1192 0120 04       		.uleb128 0x4
 1193 0121 B0020000 		.4byte	.LASF25
 1194 0125 06       		.byte	0x6
 1195 0126 38       		.byte	0x38
 1196 0127 73000000 		.4byte	0x73
 1197 012b 04       		.uleb128 0x4
 1198 012c 20020000 		.4byte	.LASF26
 1199 0130 06       		.byte	0x6
 1200 0131 3F       		.byte	0x3f
 1201 0132 A9000000 		.4byte	0xa9
 1202 0136 04       		.uleb128 0x4
 1203 0137 04020000 		.4byte	.LASF27
 1204 013b 07       		.byte	0x7
 1205 013c 30       		.byte	0x30
 1206 013d 41010000 		.4byte	0x141
 1207 0141 0A       		.uleb128 0xa
 1208 0142 04       		.byte	0x4
 1209 0143 47010000 		.4byte	0x147
 1210 0147 0B       		.uleb128 0xb
 1211 0148 CE020000 		.4byte	.LASF77
 1212 014c 08       		.uleb128 0x8
 1213 014d 37020000 		.4byte	.LASF29
 1214 0151 06       		.byte	0x6
 1215 0152 01       		.byte	0x1
 1216 0153 14       		.byte	0x14
 1217 0154 7D010000 		.4byte	0x17d
 1218 0158 09       		.uleb128 0x9
 1219 0159 BE010000 		.4byte	.LASF30
 1220 015d 01       		.byte	0x1
ARM GAS  C:\Users\krist\AppData\Local\Temp\ccLTBo06.s 			page 27


 1221 015e 15       		.byte	0x15
 1222 015f C0000000 		.4byte	0xc0
 1223 0163 00       		.byte	0
 1224 0164 09       		.uleb128 0x9
 1225 0165 DE010000 		.4byte	.LASF31
 1226 0169 01       		.byte	0x1
 1227 016a 16       		.byte	0x16
 1228 016b C0000000 		.4byte	0xc0
 1229 016f 02       		.byte	0x2
 1230 0170 09       		.uleb128 0x9
 1231 0171 4E030000 		.4byte	.LASF32
 1232 0175 01       		.byte	0x1
 1233 0176 17       		.byte	0x17
 1234 0177 C0000000 		.4byte	0xc0
 1235 017b 04       		.byte	0x4
 1236 017c 00       		.byte	0
 1237 017d 0C       		.uleb128 0xc
 1238 017e 36030000 		.4byte	.LASF51
 1239 0182 01       		.byte	0x1
 1240 0183 2D       		.byte	0x2d
 1241 0184 00000000 		.4byte	.LFB68
 1242 0188 00010000 		.4byte	.LFE68-.LFB68
 1243 018c 01       		.uleb128 0x1
 1244 018d 9C       		.byte	0x9c
 1245 018e 0D       		.uleb128 0xd
 1246 018f 72020000 		.4byte	.LASF78
 1247 0193 01       		.byte	0x1
 1248 0194 4B       		.byte	0x4b
 1249 0195 00000000 		.4byte	.LFB69
 1250 0199 C8000000 		.4byte	.LFE69-.LFB69
 1251 019d 01       		.uleb128 0x1
 1252 019e 9C       		.byte	0x9c
 1253 019f DC010000 		.4byte	0x1dc
 1254 01a3 0E       		.uleb128 0xe
 1255 01a4 DF030000 		.4byte	.LASF42
 1256 01a8 01       		.byte	0x1
 1257 01a9 4B       		.byte	0x4b
 1258 01aa F9000000 		.4byte	0xf9
 1259 01ae 02       		.uleb128 0x2
 1260 01af 91       		.byte	0x91
 1261 01b0 64       		.sleb128 -28
 1262 01b1 0F       		.uleb128 0xf
 1263 01b2 7D040000 		.4byte	.LASF33
 1264 01b6 01       		.byte	0x1
 1265 01b7 4C       		.byte	0x4c
 1266 01b8 DC010000 		.4byte	0x1dc
 1267 01bc 02       		.uleb128 0x2
 1268 01bd 91       		.byte	0x91
 1269 01be 6F       		.sleb128 -17
 1270 01bf 0F       		.uleb128 0xf
 1271 01c0 7F000000 		.4byte	.LASF34
 1272 01c4 01       		.byte	0x1
 1273 01c5 4D       		.byte	0x4d
 1274 01c6 20010000 		.4byte	0x120
 1275 01ca 02       		.uleb128 0x2
 1276 01cb 91       		.byte	0x91
 1277 01cc 70       		.sleb128 -16
ARM GAS  C:\Users\krist\AppData\Local\Temp\ccLTBo06.s 			page 28


 1278 01cd 0F       		.uleb128 0xf
 1279 01ce F8030000 		.4byte	.LASF35
 1280 01d2 01       		.byte	0x1
 1281 01d3 4E       		.byte	0x4e
 1282 01d4 E3010000 		.4byte	0x1e3
 1283 01d8 02       		.uleb128 0x2
 1284 01d9 91       		.byte	0x91
 1285 01da 74       		.sleb128 -12
 1286 01db 00       		.byte	0
 1287 01dc 03       		.uleb128 0x3
 1288 01dd 01       		.byte	0x1
 1289 01de 02       		.byte	0x2
 1290 01df FF020000 		.4byte	.LASF36
 1291 01e3 0A       		.uleb128 0xa
 1292 01e4 04       		.byte	0x4
 1293 01e5 B4000000 		.4byte	0xb4
 1294 01e9 10       		.uleb128 0x10
 1295 01ea D0030000 		.4byte	.LASF45
 1296 01ee 01       		.byte	0x1
 1297 01ef 7C       		.byte	0x7c
 1298 01f0 00000000 		.4byte	.LFB70
 1299 01f4 E0000000 		.4byte	.LFE70-.LFB70
 1300 01f8 01       		.uleb128 0x1
 1301 01f9 9C       		.byte	0x9c
 1302 01fa 53020000 		.4byte	0x253
 1303 01fe 0F       		.uleb128 0xf
 1304 01ff 96010000 		.4byte	.LASF37
 1305 0203 01       		.byte	0x1
 1306 0204 7D       		.byte	0x7d
 1307 0205 D8000000 		.4byte	0xd8
 1308 0209 02       		.uleb128 0x2
 1309 020a 91       		.byte	0x91
 1310 020b 64       		.sleb128 -28
 1311 020c 0F       		.uleb128 0xf
 1312 020d 49010000 		.4byte	.LASF38
 1313 0211 01       		.byte	0x1
 1314 0212 7E       		.byte	0x7e
 1315 0213 53020000 		.4byte	0x253
 1316 0217 02       		.uleb128 0x2
 1317 0218 91       		.byte	0x91
 1318 0219 68       		.sleb128 -24
 1319 021a 0F       		.uleb128 0xf
 1320 021b C5020000 		.4byte	.LASF39
 1321 021f 01       		.byte	0x1
 1322 0220 7F       		.byte	0x7f
 1323 0221 D8000000 		.4byte	0xd8
 1324 0225 02       		.uleb128 0x2
 1325 0226 91       		.byte	0x91
 1326 0227 60       		.sleb128 -32
 1327 0228 0F       		.uleb128 0xf
 1328 0229 21000000 		.4byte	.LASF40
 1329 022d 01       		.byte	0x1
 1330 022e 80       		.byte	0x80
 1331 022f D8000000 		.4byte	0xd8
 1332 0233 02       		.uleb128 0x2
 1333 0234 91       		.byte	0x91
 1334 0235 5C       		.sleb128 -36
ARM GAS  C:\Users\krist\AppData\Local\Temp\ccLTBo06.s 			page 29


 1335 0236 0F       		.uleb128 0xf
 1336 0237 C7010000 		.4byte	.LASF41
 1337 023b 01       		.byte	0x1
 1338 023c 81       		.byte	0x81
 1339 023d C0000000 		.4byte	0xc0
 1340 0241 02       		.uleb128 0x2
 1341 0242 91       		.byte	0x91
 1342 0243 5A       		.sleb128 -38
 1343 0244 0F       		.uleb128 0xf
 1344 0245 7D040000 		.4byte	.LASF33
 1345 0249 01       		.byte	0x1
 1346 024a 82       		.byte	0x82
 1347 024b DC010000 		.4byte	0x1dc
 1348 024f 02       		.uleb128 0x2
 1349 0250 91       		.byte	0x91
 1350 0251 6F       		.sleb128 -17
 1351 0252 00       		.byte	0
 1352 0253 11       		.uleb128 0x11
 1353 0254 2B010000 		.4byte	0x12b
 1354 0258 12       		.uleb128 0x12
 1355 0259 A2030000 		.4byte	.LASF79
 1356 025d 01       		.byte	0x1
 1357 025e 9B       		.byte	0x9b
 1358 025f D8000000 		.4byte	0xd8
 1359 0263 00000000 		.4byte	.LFB71
 1360 0267 68010000 		.4byte	.LFE71-.LFB71
 1361 026b 01       		.uleb128 0x1
 1362 026c 9C       		.byte	0x9c
 1363 026d 9C020000 		.4byte	0x29c
 1364 0271 0E       		.uleb128 0xe
 1365 0272 96010000 		.4byte	.LASF37
 1366 0276 01       		.byte	0x1
 1367 0277 9B       		.byte	0x9b
 1368 0278 D8000000 		.4byte	0xd8
 1369 027c 02       		.uleb128 0x2
 1370 027d 91       		.byte	0x91
 1371 027e 64       		.sleb128 -28
 1372 027f 0F       		.uleb128 0xf
 1373 0280 20030000 		.4byte	.LASF43
 1374 0284 01       		.byte	0x1
 1375 0285 9C       		.byte	0x9c
 1376 0286 D8000000 		.4byte	0xd8
 1377 028a 02       		.uleb128 0x2
 1378 028b 91       		.byte	0x91
 1379 028c 6C       		.sleb128 -20
 1380 028d 0F       		.uleb128 0xf
 1381 028e 28010000 		.4byte	.LASF44
 1382 0292 01       		.byte	0x1
 1383 0293 9D       		.byte	0x9d
 1384 0294 D8000000 		.4byte	0xd8
 1385 0298 02       		.uleb128 0x2
 1386 0299 91       		.byte	0x91
 1387 029a 68       		.sleb128 -24
 1388 029b 00       		.byte	0
 1389 029c 10       		.uleb128 0x10
 1390 029d A1010000 		.4byte	.LASF46
 1391 02a1 01       		.byte	0x1
ARM GAS  C:\Users\krist\AppData\Local\Temp\ccLTBo06.s 			page 30


 1392 02a2 A3       		.byte	0xa3
 1393 02a3 00000000 		.4byte	.LFB72
 1394 02a7 5C000000 		.4byte	.LFE72-.LFB72
 1395 02ab 01       		.uleb128 0x1
 1396 02ac 9C       		.byte	0x9c
 1397 02ad DC020000 		.4byte	0x2dc
 1398 02b1 0F       		.uleb128 0xf
 1399 02b2 49010000 		.4byte	.LASF38
 1400 02b6 01       		.byte	0x1
 1401 02b7 A4       		.byte	0xa4
 1402 02b8 53020000 		.4byte	0x253
 1403 02bc 02       		.uleb128 0x2
 1404 02bd 91       		.byte	0x91
 1405 02be 70       		.sleb128 -16
 1406 02bf 0F       		.uleb128 0xf
 1407 02c0 BB020000 		.4byte	.LASF47
 1408 02c4 01       		.byte	0x1
 1409 02c5 A5       		.byte	0xa5
 1410 02c6 CC000000 		.4byte	0xcc
 1411 02ca 02       		.uleb128 0x2
 1412 02cb 91       		.byte	0x91
 1413 02cc 6E       		.sleb128 -18
 1414 02cd 0F       		.uleb128 0xf
 1415 02ce 98030000 		.4byte	.LASF48
 1416 02d2 01       		.byte	0x1
 1417 02d3 A6       		.byte	0xa6
 1418 02d4 DC010000 		.4byte	0x1dc
 1419 02d8 02       		.uleb128 0x2
 1420 02d9 91       		.byte	0x91
 1421 02da 77       		.sleb128 -9
 1422 02db 00       		.byte	0
 1423 02dc 10       		.uleb128 0x10
 1424 02dd 0E000000 		.4byte	.LASF49
 1425 02e1 01       		.byte	0x1
 1426 02e2 C3       		.byte	0xc3
 1427 02e3 00000000 		.4byte	.LFB73
 1428 02e7 38000000 		.4byte	.LFE73-.LFB73
 1429 02eb 01       		.uleb128 0x1
 1430 02ec 9C       		.byte	0x9c
 1431 02ed 00030000 		.4byte	0x300
 1432 02f1 0F       		.uleb128 0xf
 1433 02f2 3F000000 		.4byte	.LASF50
 1434 02f6 01       		.byte	0x1
 1435 02f7 C4       		.byte	0xc4
 1436 02f8 C0000000 		.4byte	0xc0
 1437 02fc 02       		.uleb128 0x2
 1438 02fd 91       		.byte	0x91
 1439 02fe 76       		.sleb128 -10
 1440 02ff 00       		.byte	0
 1441 0300 0C       		.uleb128 0xc
 1442 0301 00000000 		.4byte	.LASF52
 1443 0305 01       		.byte	0x1
 1444 0306 CE       		.byte	0xce
 1445 0307 00000000 		.4byte	.LFB74
 1446 030b 44000000 		.4byte	.LFE74-.LFB74
 1447 030f 01       		.uleb128 0x1
 1448 0310 9C       		.byte	0x9c
ARM GAS  C:\Users\krist\AppData\Local\Temp\ccLTBo06.s 			page 31


 1449 0311 10       		.uleb128 0x10
 1450 0312 59010000 		.4byte	.LASF53
 1451 0316 01       		.byte	0x1
 1452 0317 D5       		.byte	0xd5
 1453 0318 00000000 		.4byte	.LFB75
 1454 031c 68000000 		.4byte	.LFE75-.LFB75
 1455 0320 01       		.uleb128 0x1
 1456 0321 9C       		.byte	0x9c
 1457 0322 35030000 		.4byte	0x335
 1458 0326 0F       		.uleb128 0xf
 1459 0327 E9020000 		.4byte	.LASF54
 1460 032b 01       		.byte	0x1
 1461 032c D6       		.byte	0xd6
 1462 032d C0000000 		.4byte	0xc0
 1463 0331 02       		.uleb128 0x2
 1464 0332 91       		.byte	0x91
 1465 0333 76       		.sleb128 -10
 1466 0334 00       		.byte	0
 1467 0335 10       		.uleb128 0x10
 1468 0336 33010000 		.4byte	.LASF55
 1469 033a 01       		.byte	0x1
 1470 033b E3       		.byte	0xe3
 1471 033c 00000000 		.4byte	.LFB76
 1472 0340 68000000 		.4byte	.LFE76-.LFB76
 1473 0344 01       		.uleb128 0x1
 1474 0345 9C       		.byte	0x9c
 1475 0346 75030000 		.4byte	0x375
 1476 034a 0F       		.uleb128 0xf
 1477 034b 9F040000 		.4byte	.LASF56
 1478 034f 01       		.byte	0x1
 1479 0350 E4       		.byte	0xe4
 1480 0351 DC010000 		.4byte	0x1dc
 1481 0355 02       		.uleb128 0x2
 1482 0356 91       		.byte	0x91
 1483 0357 73       		.sleb128 -13
 1484 0358 0F       		.uleb128 0xf
 1485 0359 AB040000 		.4byte	.LASF57
 1486 035d 01       		.byte	0x1
 1487 035e E5       		.byte	0xe5
 1488 035f DC010000 		.4byte	0x1dc
 1489 0363 02       		.uleb128 0x2
 1490 0364 91       		.byte	0x91
 1491 0365 72       		.sleb128 -14
 1492 0366 0F       		.uleb128 0xf
 1493 0367 49010000 		.4byte	.LASF38
 1494 036b 01       		.byte	0x1
 1495 036c E6       		.byte	0xe6
 1496 036d 53020000 		.4byte	0x253
 1497 0371 02       		.uleb128 0x2
 1498 0372 91       		.byte	0x91
 1499 0373 74       		.sleb128 -12
 1500 0374 00       		.byte	0
 1501 0375 13       		.uleb128 0x13
 1502 0376 85030000 		.4byte	0x385
 1503 037a 85030000 		.4byte	0x385
 1504 037e 14       		.uleb128 0x14
 1505 037f F2000000 		.4byte	0xf2
ARM GAS  C:\Users\krist\AppData\Local\Temp\ccLTBo06.s 			page 32


 1506 0383 02       		.byte	0x2
 1507 0384 00       		.byte	0
 1508 0385 11       		.uleb128 0x11
 1509 0386 B4000000 		.4byte	0xb4
 1510 038a 0F       		.uleb128 0xf
 1511 038b 9A020000 		.4byte	.LASF58
 1512 038f 01       		.byte	0x1
 1513 0390 2A       		.byte	0x2a
 1514 0391 9B030000 		.4byte	0x39b
 1515 0395 05       		.uleb128 0x5
 1516 0396 03       		.byte	0x3
 1517 0397 10000000 		.4byte	pcTextForNutrientPump
 1518 039b 11       		.uleb128 0x11
 1519 039c 75030000 		.4byte	0x375
 1520 03a0 13       		.uleb128 0x13
 1521 03a1 FB000000 		.4byte	0xfb
 1522 03a5 B0030000 		.4byte	0x3b0
 1523 03a9 14       		.uleb128 0x14
 1524 03aa F2000000 		.4byte	0xf2
 1525 03ae 07       		.byte	0x7
 1526 03af 00       		.byte	0
 1527 03b0 15       		.uleb128 0x15
 1528 03b1 57000000 		.4byte	.LASF59
 1529 03b5 05       		.byte	0x5
 1530 03b6 34       		.byte	0x34
 1531 03b7 A0030000 		.4byte	0x3a0
 1532 03bb 05       		.uleb128 0x5
 1533 03bc 03       		.byte	0x3
 1534 03bd 00000000 		.4byte	DS18x8_Sensor
 1535 03c1 15       		.uleb128 0x15
 1536 03c2 84040000 		.4byte	.LASF60
 1537 03c6 05       		.byte	0x5
 1538 03c7 39       		.byte	0x39
 1539 03c8 ED000000 		.4byte	0xed
 1540 03cc 05       		.uleb128 0x5
 1541 03cd 03       		.byte	0x3
 1542 03ce 00000000 		.4byte	DS18x8_DataReady
 1543 03d2 16       		.uleb128 0x16
 1544 03d3 5F040000 		.4byte	.LASF61
 1545 03d7 08       		.byte	0x8
 1546 03d8 1207     		.2byte	0x712
 1547 03da DE030000 		.4byte	0x3de
 1548 03de 06       		.uleb128 0x6
 1549 03df 9E000000 		.4byte	0x9e
 1550 03e3 15       		.uleb128 0x15
 1551 03e4 6E000000 		.4byte	.LASF62
 1552 03e8 01       		.byte	0x1
 1553 03e9 1A       		.byte	0x1a
 1554 03ea F4030000 		.4byte	0x3f4
 1555 03ee 05       		.uleb128 0x5
 1556 03ef 03       		.byte	0x3
 1557 03f0 00000000 		.4byte	iSizeOfNutrients
 1558 03f4 11       		.uleb128 0x11
 1559 03f5 25000000 		.4byte	0x25
 1560 03f9 13       		.uleb128 0x13
 1561 03fa 4C010000 		.4byte	0x14c
 1562 03fe 09040000 		.4byte	0x409
ARM GAS  C:\Users\krist\AppData\Local\Temp\ccLTBo06.s 			page 33


 1563 0402 14       		.uleb128 0x14
 1564 0403 F2000000 		.4byte	0xf2
 1565 0407 27       		.byte	0x27
 1566 0408 00       		.byte	0
 1567 0409 15       		.uleb128 0x15
 1568 040a 6C040000 		.4byte	.LASF63
 1569 040e 01       		.byte	0x1
 1570 040f 1B       		.byte	0x1b
 1571 0410 F9030000 		.4byte	0x3f9
 1572 0414 05       		.uleb128 0x5
 1573 0415 03       		.byte	0x3
 1574 0416 00000000 		.4byte	currentNutrients
 1575 041a 15       		.uleb128 0x15
 1576 041b 7B010000 		.4byte	.LASF64
 1577 041f 01       		.byte	0x1
 1578 0420 1C       		.byte	0x1c
 1579 0421 25000000 		.4byte	0x25
 1580 0425 05       		.uleb128 0x5
 1581 0426 03       		.byte	0x3
 1582 0427 00000000 		.4byte	iPHIndex
 1583 042b 15       		.uleb128 0x15
 1584 042c 45030000 		.4byte	.LASF65
 1585 0430 01       		.byte	0x1
 1586 0431 1D       		.byte	0x1d
 1587 0432 25000000 		.4byte	0x25
 1588 0436 05       		.uleb128 0x5
 1589 0437 03       		.byte	0x3
 1590 0438 00000000 		.4byte	iECIndex
 1591 043c 15       		.uleb128 0x15
 1592 043d 7E030000 		.4byte	.LASF66
 1593 0441 01       		.byte	0x1
 1594 0442 1E       		.byte	0x1e
 1595 0443 25000000 		.4byte	0x25
 1596 0447 05       		.uleb128 0x5
 1597 0448 03       		.byte	0x3
 1598 0449 00000000 		.4byte	iWateTempIndex
 1599 044d 15       		.uleb128 0x15
 1600 044e 2F000000 		.4byte	.LASF67
 1601 0452 01       		.byte	0x1
 1602 0453 20       		.byte	0x20
 1603 0454 5E040000 		.4byte	0x45e
 1604 0458 05       		.uleb128 0x5
 1605 0459 03       		.byte	0x3
 1606 045a 00000000 		.4byte	fNeutralVoltage
 1607 045e 11       		.uleb128 0x11
 1608 045f D8000000 		.4byte	0xd8
 1609 0463 15       		.uleb128 0x15
 1610 0464 E7010000 		.4byte	.LASF68
 1611 0468 01       		.byte	0x1
 1612 0469 21       		.byte	0x21
 1613 046a 5E040000 		.4byte	0x45e
 1614 046e 05       		.uleb128 0x5
 1615 046f 03       		.byte	0x3
 1616 0470 00000000 		.4byte	fAcidVoltage
 1617 0474 13       		.uleb128 0x13
 1618 0475 36010000 		.4byte	0x136
 1619 0479 84040000 		.4byte	0x484
ARM GAS  C:\Users\krist\AppData\Local\Temp\ccLTBo06.s 			page 34


 1620 047d 14       		.uleb128 0x14
 1621 047e F2000000 		.4byte	0xf2
 1622 0482 02       		.byte	0x2
 1623 0483 00       		.byte	0
 1624 0484 15       		.uleb128 0x15
 1625 0485 15010000 		.4byte	.LASF69
 1626 0489 01       		.byte	0x1
 1627 048a 23       		.byte	0x23
 1628 048b 74040000 		.4byte	0x474
 1629 048f 05       		.uleb128 0x5
 1630 0490 03       		.byte	0x3
 1631 0491 00000000 		.4byte	xQueueNutrientPump
 1632 0495 15       		.uleb128 0x15
 1633 0496 12020000 		.4byte	.LASF70
 1634 049a 01       		.byte	0x1
 1635 049b 24       		.byte	0x24
 1636 049c 36010000 		.4byte	0x136
 1637 04a0 05       		.uleb128 0x5
 1638 04a1 03       		.byte	0x3
 1639 04a2 00000000 		.4byte	xQueuePHValue
 1640 04a6 15       		.uleb128 0x15
 1641 04a7 F4010000 		.4byte	.LASF71
 1642 04ab 01       		.byte	0x1
 1643 04ac 25       		.byte	0x25
 1644 04ad 36010000 		.4byte	0x136
 1645 04b1 05       		.uleb128 0x5
 1646 04b2 03       		.byte	0x3
 1647 04b3 00000000 		.4byte	xQueueWaterTemp
 1648 04b7 15       		.uleb128 0x15
 1649 04b8 BE030000 		.4byte	.LASF72
 1650 04bc 01       		.byte	0x1
 1651 04bd 28       		.byte	0x28
 1652 04be 85030000 		.4byte	0x385
 1653 04c2 05       		.uleb128 0x5
 1654 04c3 03       		.byte	0x3
 1655 04c4 00000000 		.4byte	MAX_SPEED
 1656 04c8 15       		.uleb128 0x15
 1657 04c9 DE020000 		.4byte	.LASF73
 1658 04cd 01       		.byte	0x1
 1659 04ce 29       		.byte	0x29
 1660 04cf 85030000 		.4byte	0x385
 1661 04d3 05       		.uleb128 0x5
 1662 04d4 03       		.byte	0x3
 1663 04d5 00000000 		.4byte	STOP_SPEED
 1664 04d9 00       		.byte	0
 1665              		.section	.debug_abbrev,"",%progbits
 1666              	.Ldebug_abbrev0:
 1667 0000 01       		.uleb128 0x1
 1668 0001 11       		.uleb128 0x11
 1669 0002 01       		.byte	0x1
 1670 0003 25       		.uleb128 0x25
 1671 0004 0E       		.uleb128 0xe
 1672 0005 13       		.uleb128 0x13
 1673 0006 0B       		.uleb128 0xb
 1674 0007 03       		.uleb128 0x3
 1675 0008 0E       		.uleb128 0xe
 1676 0009 1B       		.uleb128 0x1b
ARM GAS  C:\Users\krist\AppData\Local\Temp\ccLTBo06.s 			page 35


 1677 000a 0E       		.uleb128 0xe
 1678 000b 55       		.uleb128 0x55
 1679 000c 17       		.uleb128 0x17
 1680 000d 11       		.uleb128 0x11
 1681 000e 01       		.uleb128 0x1
 1682 000f 10       		.uleb128 0x10
 1683 0010 17       		.uleb128 0x17
 1684 0011 00       		.byte	0
 1685 0012 00       		.byte	0
 1686 0013 02       		.uleb128 0x2
 1687 0014 24       		.uleb128 0x24
 1688 0015 00       		.byte	0
 1689 0016 0B       		.uleb128 0xb
 1690 0017 0B       		.uleb128 0xb
 1691 0018 3E       		.uleb128 0x3e
 1692 0019 0B       		.uleb128 0xb
 1693 001a 03       		.uleb128 0x3
 1694 001b 08       		.uleb128 0x8
 1695 001c 00       		.byte	0
 1696 001d 00       		.byte	0
 1697 001e 03       		.uleb128 0x3
 1698 001f 24       		.uleb128 0x24
 1699 0020 00       		.byte	0
 1700 0021 0B       		.uleb128 0xb
 1701 0022 0B       		.uleb128 0xb
 1702 0023 3E       		.uleb128 0x3e
 1703 0024 0B       		.uleb128 0xb
 1704 0025 03       		.uleb128 0x3
 1705 0026 0E       		.uleb128 0xe
 1706 0027 00       		.byte	0
 1707 0028 00       		.byte	0
 1708 0029 04       		.uleb128 0x4
 1709 002a 16       		.uleb128 0x16
 1710 002b 00       		.byte	0
 1711 002c 03       		.uleb128 0x3
 1712 002d 0E       		.uleb128 0xe
 1713 002e 3A       		.uleb128 0x3a
 1714 002f 0B       		.uleb128 0xb
 1715 0030 3B       		.uleb128 0x3b
 1716 0031 0B       		.uleb128 0xb
 1717 0032 49       		.uleb128 0x49
 1718 0033 13       		.uleb128 0x13
 1719 0034 00       		.byte	0
 1720 0035 00       		.byte	0
 1721 0036 05       		.uleb128 0x5
 1722 0037 16       		.uleb128 0x16
 1723 0038 00       		.byte	0
 1724 0039 03       		.uleb128 0x3
 1725 003a 0E       		.uleb128 0xe
 1726 003b 3A       		.uleb128 0x3a
 1727 003c 0B       		.uleb128 0xb
 1728 003d 3B       		.uleb128 0x3b
 1729 003e 05       		.uleb128 0x5
 1730 003f 49       		.uleb128 0x49
 1731 0040 13       		.uleb128 0x13
 1732 0041 00       		.byte	0
 1733 0042 00       		.byte	0
ARM GAS  C:\Users\krist\AppData\Local\Temp\ccLTBo06.s 			page 36


 1734 0043 06       		.uleb128 0x6
 1735 0044 35       		.uleb128 0x35
 1736 0045 00       		.byte	0
 1737 0046 49       		.uleb128 0x49
 1738 0047 13       		.uleb128 0x13
 1739 0048 00       		.byte	0
 1740 0049 00       		.byte	0
 1741 004a 07       		.uleb128 0x7
 1742 004b 0F       		.uleb128 0xf
 1743 004c 00       		.byte	0
 1744 004d 0B       		.uleb128 0xb
 1745 004e 0B       		.uleb128 0xb
 1746 004f 00       		.byte	0
 1747 0050 00       		.byte	0
 1748 0051 08       		.uleb128 0x8
 1749 0052 13       		.uleb128 0x13
 1750 0053 01       		.byte	0x1
 1751 0054 03       		.uleb128 0x3
 1752 0055 0E       		.uleb128 0xe
 1753 0056 0B       		.uleb128 0xb
 1754 0057 0B       		.uleb128 0xb
 1755 0058 3A       		.uleb128 0x3a
 1756 0059 0B       		.uleb128 0xb
 1757 005a 3B       		.uleb128 0x3b
 1758 005b 0B       		.uleb128 0xb
 1759 005c 01       		.uleb128 0x1
 1760 005d 13       		.uleb128 0x13
 1761 005e 00       		.byte	0
 1762 005f 00       		.byte	0
 1763 0060 09       		.uleb128 0x9
 1764 0061 0D       		.uleb128 0xd
 1765 0062 00       		.byte	0
 1766 0063 03       		.uleb128 0x3
 1767 0064 0E       		.uleb128 0xe
 1768 0065 3A       		.uleb128 0x3a
 1769 0066 0B       		.uleb128 0xb
 1770 0067 3B       		.uleb128 0x3b
 1771 0068 0B       		.uleb128 0xb
 1772 0069 49       		.uleb128 0x49
 1773 006a 13       		.uleb128 0x13
 1774 006b 38       		.uleb128 0x38
 1775 006c 0B       		.uleb128 0xb
 1776 006d 00       		.byte	0
 1777 006e 00       		.byte	0
 1778 006f 0A       		.uleb128 0xa
 1779 0070 0F       		.uleb128 0xf
 1780 0071 00       		.byte	0
 1781 0072 0B       		.uleb128 0xb
 1782 0073 0B       		.uleb128 0xb
 1783 0074 49       		.uleb128 0x49
 1784 0075 13       		.uleb128 0x13
 1785 0076 00       		.byte	0
 1786 0077 00       		.byte	0
 1787 0078 0B       		.uleb128 0xb
 1788 0079 13       		.uleb128 0x13
 1789 007a 00       		.byte	0
 1790 007b 03       		.uleb128 0x3
ARM GAS  C:\Users\krist\AppData\Local\Temp\ccLTBo06.s 			page 37


 1791 007c 0E       		.uleb128 0xe
 1792 007d 3C       		.uleb128 0x3c
 1793 007e 19       		.uleb128 0x19
 1794 007f 00       		.byte	0
 1795 0080 00       		.byte	0
 1796 0081 0C       		.uleb128 0xc
 1797 0082 2E       		.uleb128 0x2e
 1798 0083 00       		.byte	0
 1799 0084 3F       		.uleb128 0x3f
 1800 0085 19       		.uleb128 0x19
 1801 0086 03       		.uleb128 0x3
 1802 0087 0E       		.uleb128 0xe
 1803 0088 3A       		.uleb128 0x3a
 1804 0089 0B       		.uleb128 0xb
 1805 008a 3B       		.uleb128 0x3b
 1806 008b 0B       		.uleb128 0xb
 1807 008c 11       		.uleb128 0x11
 1808 008d 01       		.uleb128 0x1
 1809 008e 12       		.uleb128 0x12
 1810 008f 06       		.uleb128 0x6
 1811 0090 40       		.uleb128 0x40
 1812 0091 18       		.uleb128 0x18
 1813 0092 9642     		.uleb128 0x2116
 1814 0094 19       		.uleb128 0x19
 1815 0095 00       		.byte	0
 1816 0096 00       		.byte	0
 1817 0097 0D       		.uleb128 0xd
 1818 0098 2E       		.uleb128 0x2e
 1819 0099 01       		.byte	0x1
 1820 009a 3F       		.uleb128 0x3f
 1821 009b 19       		.uleb128 0x19
 1822 009c 03       		.uleb128 0x3
 1823 009d 0E       		.uleb128 0xe
 1824 009e 3A       		.uleb128 0x3a
 1825 009f 0B       		.uleb128 0xb
 1826 00a0 3B       		.uleb128 0x3b
 1827 00a1 0B       		.uleb128 0xb
 1828 00a2 27       		.uleb128 0x27
 1829 00a3 19       		.uleb128 0x19
 1830 00a4 11       		.uleb128 0x11
 1831 00a5 01       		.uleb128 0x1
 1832 00a6 12       		.uleb128 0x12
 1833 00a7 06       		.uleb128 0x6
 1834 00a8 40       		.uleb128 0x40
 1835 00a9 18       		.uleb128 0x18
 1836 00aa 9642     		.uleb128 0x2116
 1837 00ac 19       		.uleb128 0x19
 1838 00ad 01       		.uleb128 0x1
 1839 00ae 13       		.uleb128 0x13
 1840 00af 00       		.byte	0
 1841 00b0 00       		.byte	0
 1842 00b1 0E       		.uleb128 0xe
 1843 00b2 05       		.uleb128 0x5
 1844 00b3 00       		.byte	0
 1845 00b4 03       		.uleb128 0x3
 1846 00b5 0E       		.uleb128 0xe
 1847 00b6 3A       		.uleb128 0x3a
ARM GAS  C:\Users\krist\AppData\Local\Temp\ccLTBo06.s 			page 38


 1848 00b7 0B       		.uleb128 0xb
 1849 00b8 3B       		.uleb128 0x3b
 1850 00b9 0B       		.uleb128 0xb
 1851 00ba 49       		.uleb128 0x49
 1852 00bb 13       		.uleb128 0x13
 1853 00bc 02       		.uleb128 0x2
 1854 00bd 18       		.uleb128 0x18
 1855 00be 00       		.byte	0
 1856 00bf 00       		.byte	0
 1857 00c0 0F       		.uleb128 0xf
 1858 00c1 34       		.uleb128 0x34
 1859 00c2 00       		.byte	0
 1860 00c3 03       		.uleb128 0x3
 1861 00c4 0E       		.uleb128 0xe
 1862 00c5 3A       		.uleb128 0x3a
 1863 00c6 0B       		.uleb128 0xb
 1864 00c7 3B       		.uleb128 0x3b
 1865 00c8 0B       		.uleb128 0xb
 1866 00c9 49       		.uleb128 0x49
 1867 00ca 13       		.uleb128 0x13
 1868 00cb 02       		.uleb128 0x2
 1869 00cc 18       		.uleb128 0x18
 1870 00cd 00       		.byte	0
 1871 00ce 00       		.byte	0
 1872 00cf 10       		.uleb128 0x10
 1873 00d0 2E       		.uleb128 0x2e
 1874 00d1 01       		.byte	0x1
 1875 00d2 3F       		.uleb128 0x3f
 1876 00d3 19       		.uleb128 0x19
 1877 00d4 03       		.uleb128 0x3
 1878 00d5 0E       		.uleb128 0xe
 1879 00d6 3A       		.uleb128 0x3a
 1880 00d7 0B       		.uleb128 0xb
 1881 00d8 3B       		.uleb128 0x3b
 1882 00d9 0B       		.uleb128 0xb
 1883 00da 11       		.uleb128 0x11
 1884 00db 01       		.uleb128 0x1
 1885 00dc 12       		.uleb128 0x12
 1886 00dd 06       		.uleb128 0x6
 1887 00de 40       		.uleb128 0x40
 1888 00df 18       		.uleb128 0x18
 1889 00e0 9642     		.uleb128 0x2116
 1890 00e2 19       		.uleb128 0x19
 1891 00e3 01       		.uleb128 0x1
 1892 00e4 13       		.uleb128 0x13
 1893 00e5 00       		.byte	0
 1894 00e6 00       		.byte	0
 1895 00e7 11       		.uleb128 0x11
 1896 00e8 26       		.uleb128 0x26
 1897 00e9 00       		.byte	0
 1898 00ea 49       		.uleb128 0x49
 1899 00eb 13       		.uleb128 0x13
 1900 00ec 00       		.byte	0
 1901 00ed 00       		.byte	0
 1902 00ee 12       		.uleb128 0x12
 1903 00ef 2E       		.uleb128 0x2e
 1904 00f0 01       		.byte	0x1
ARM GAS  C:\Users\krist\AppData\Local\Temp\ccLTBo06.s 			page 39


 1905 00f1 3F       		.uleb128 0x3f
 1906 00f2 19       		.uleb128 0x19
 1907 00f3 03       		.uleb128 0x3
 1908 00f4 0E       		.uleb128 0xe
 1909 00f5 3A       		.uleb128 0x3a
 1910 00f6 0B       		.uleb128 0xb
 1911 00f7 3B       		.uleb128 0x3b
 1912 00f8 0B       		.uleb128 0xb
 1913 00f9 27       		.uleb128 0x27
 1914 00fa 19       		.uleb128 0x19
 1915 00fb 49       		.uleb128 0x49
 1916 00fc 13       		.uleb128 0x13
 1917 00fd 11       		.uleb128 0x11
 1918 00fe 01       		.uleb128 0x1
 1919 00ff 12       		.uleb128 0x12
 1920 0100 06       		.uleb128 0x6
 1921 0101 40       		.uleb128 0x40
 1922 0102 18       		.uleb128 0x18
 1923 0103 9642     		.uleb128 0x2116
 1924 0105 19       		.uleb128 0x19
 1925 0106 01       		.uleb128 0x1
 1926 0107 13       		.uleb128 0x13
 1927 0108 00       		.byte	0
 1928 0109 00       		.byte	0
 1929 010a 13       		.uleb128 0x13
 1930 010b 01       		.uleb128 0x1
 1931 010c 01       		.byte	0x1
 1932 010d 49       		.uleb128 0x49
 1933 010e 13       		.uleb128 0x13
 1934 010f 01       		.uleb128 0x1
 1935 0110 13       		.uleb128 0x13
 1936 0111 00       		.byte	0
 1937 0112 00       		.byte	0
 1938 0113 14       		.uleb128 0x14
 1939 0114 21       		.uleb128 0x21
 1940 0115 00       		.byte	0
 1941 0116 49       		.uleb128 0x49
 1942 0117 13       		.uleb128 0x13
 1943 0118 2F       		.uleb128 0x2f
 1944 0119 0B       		.uleb128 0xb
 1945 011a 00       		.byte	0
 1946 011b 00       		.byte	0
 1947 011c 15       		.uleb128 0x15
 1948 011d 34       		.uleb128 0x34
 1949 011e 00       		.byte	0
 1950 011f 03       		.uleb128 0x3
 1951 0120 0E       		.uleb128 0xe
 1952 0121 3A       		.uleb128 0x3a
 1953 0122 0B       		.uleb128 0xb
 1954 0123 3B       		.uleb128 0x3b
 1955 0124 0B       		.uleb128 0xb
 1956 0125 49       		.uleb128 0x49
 1957 0126 13       		.uleb128 0x13
 1958 0127 3F       		.uleb128 0x3f
 1959 0128 19       		.uleb128 0x19
 1960 0129 02       		.uleb128 0x2
 1961 012a 18       		.uleb128 0x18
ARM GAS  C:\Users\krist\AppData\Local\Temp\ccLTBo06.s 			page 40


 1962 012b 00       		.byte	0
 1963 012c 00       		.byte	0
 1964 012d 16       		.uleb128 0x16
 1965 012e 34       		.uleb128 0x34
 1966 012f 00       		.byte	0
 1967 0130 03       		.uleb128 0x3
 1968 0131 0E       		.uleb128 0xe
 1969 0132 3A       		.uleb128 0x3a
 1970 0133 0B       		.uleb128 0xb
 1971 0134 3B       		.uleb128 0x3b
 1972 0135 05       		.uleb128 0x5
 1973 0136 49       		.uleb128 0x49
 1974 0137 13       		.uleb128 0x13
 1975 0138 3F       		.uleb128 0x3f
 1976 0139 19       		.uleb128 0x19
 1977 013a 3C       		.uleb128 0x3c
 1978 013b 19       		.uleb128 0x19
 1979 013c 00       		.byte	0
 1980 013d 00       		.byte	0
 1981 013e 00       		.byte	0
 1982              		.section	.debug_aranges,"",%progbits
 1983 0000 5C000000 		.4byte	0x5c
 1984 0004 0200     		.2byte	0x2
 1985 0006 00000000 		.4byte	.Ldebug_info0
 1986 000a 04       		.byte	0x4
 1987 000b 00       		.byte	0
 1988 000c 0000     		.2byte	0
 1989 000e 0000     		.2byte	0
 1990 0010 00000000 		.4byte	.LFB68
 1991 0014 00010000 		.4byte	.LFE68-.LFB68
 1992 0018 00000000 		.4byte	.LFB69
 1993 001c C8000000 		.4byte	.LFE69-.LFB69
 1994 0020 00000000 		.4byte	.LFB70
 1995 0024 E0000000 		.4byte	.LFE70-.LFB70
 1996 0028 00000000 		.4byte	.LFB71
 1997 002c 68010000 		.4byte	.LFE71-.LFB71
 1998 0030 00000000 		.4byte	.LFB72
 1999 0034 5C000000 		.4byte	.LFE72-.LFB72
 2000 0038 00000000 		.4byte	.LFB73
 2001 003c 38000000 		.4byte	.LFE73-.LFB73
 2002 0040 00000000 		.4byte	.LFB74
 2003 0044 44000000 		.4byte	.LFE74-.LFB74
 2004 0048 00000000 		.4byte	.LFB75
 2005 004c 68000000 		.4byte	.LFE75-.LFB75
 2006 0050 00000000 		.4byte	.LFB76
 2007 0054 68000000 		.4byte	.LFE76-.LFB76
 2008 0058 00000000 		.4byte	0
 2009 005c 00000000 		.4byte	0
 2010              		.section	.debug_ranges,"",%progbits
 2011              	.Ldebug_ranges0:
 2012 0000 00000000 		.4byte	.LFB68
 2013 0004 00010000 		.4byte	.LFE68
 2014 0008 00000000 		.4byte	.LFB69
 2015 000c C8000000 		.4byte	.LFE69
 2016 0010 00000000 		.4byte	.LFB70
 2017 0014 E0000000 		.4byte	.LFE70
 2018 0018 00000000 		.4byte	.LFB71
ARM GAS  C:\Users\krist\AppData\Local\Temp\ccLTBo06.s 			page 41


 2019 001c 68010000 		.4byte	.LFE71
 2020 0020 00000000 		.4byte	.LFB72
 2021 0024 5C000000 		.4byte	.LFE72
 2022 0028 00000000 		.4byte	.LFB73
 2023 002c 38000000 		.4byte	.LFE73
 2024 0030 00000000 		.4byte	.LFB74
 2025 0034 44000000 		.4byte	.LFE74
 2026 0038 00000000 		.4byte	.LFB75
 2027 003c 68000000 		.4byte	.LFE75
 2028 0040 00000000 		.4byte	.LFB76
 2029 0044 68000000 		.4byte	.LFE76
 2030 0048 00000000 		.4byte	0
 2031 004c 00000000 		.4byte	0
 2032              		.section	.debug_line,"",%progbits
 2033              	.Ldebug_line0:
 2034 0000 E7020000 		.section	.debug_str,"MS",%progbits,1
 2034      0200A601 
 2034      00000201 
 2034      FB0E0D00 
 2034      01010101 
 2035              	.LASF52:
 2036 0000 76546573 		.ascii	"vTestTaskInit\000"
 2036      74546173 
 2036      6B496E69 
 2036      7400
 2037              	.LASF49:
 2038 000e 76546573 		.ascii	"vTestTaskWaterTemp\000"
 2038      74546173 
 2038      6B576174 
 2038      65725465 
 2038      6D7000
 2039              	.LASF40:
 2040 0021 664D696C 		.ascii	"fMilliPHValue\000"
 2040      6C695048 
 2040      56616C75 
 2040      6500
 2041              	.LASF67:
 2042 002f 664E6575 		.ascii	"fNeutralVoltage\000"
 2042      7472616C 
 2042      566F6C74 
 2042      61676500 
 2043              	.LASF50:
 2044 003f 57617465 		.ascii	"WaterTempTest\000"
 2044      7254656D 
 2044      70546573 
 2044      7400
 2045              	.LASF5:
 2046 004d 73686F72 		.ascii	"short int\000"
 2046      7420696E 
 2046      7400
 2047              	.LASF59:
 2048 0057 44533138 		.ascii	"DS18x8_Sensor\000"
 2048      78385F53 
 2048      656E736F 
 2048      7200
 2049              	.LASF22:
 2050 0065 73697A65 		.ascii	"sizetype\000"
ARM GAS  C:\Users\krist\AppData\Local\Temp\ccLTBo06.s 			page 42


 2050      74797065 
 2050      00
 2051              	.LASF62:
 2052 006e 6953697A 		.ascii	"iSizeOfNutrients\000"
 2052      654F664E 
 2052      75747269 
 2052      656E7473 
 2052      00
 2053              	.LASF34:
 2054 007f 78537461 		.ascii	"xStatus\000"
 2054      74757300 
 2055              	.LASF74:
 2056 0087 474E5520 		.ascii	"GNU C11 5.4.1 20160609 (release) [ARM/embedded-5-br"
 2056      43313120 
 2056      352E342E 
 2056      31203230 
 2056      31363036 
 2057 00ba 616E6368 		.ascii	"anch revision 237715] -mcpu=cortex-m3 -mthumb -g -O"
 2057      20726576 
 2057      6973696F 
 2057      6E203233 
 2057      37373135 
 2058 00ed 30202D66 		.ascii	"0 -ffunction-sections -ffat-lto-objects\000"
 2058      66756E63 
 2058      74696F6E 
 2058      2D736563 
 2058      74696F6E 
 2059              	.LASF69:
 2060 0115 78517565 		.ascii	"xQueueNutrientPump\000"
 2060      75654E75 
 2060      74726965 
 2060      6E745075 
 2060      6D7000
 2061              	.LASF44:
 2062 0128 66496E74 		.ascii	"fIntercept\000"
 2062      65726365 
 2062      707400
 2063              	.LASF55:
 2064 0133 76546573 		.ascii	"vTestTaskNutrientPump\000"
 2064      74546173 
 2064      6B4E7574 
 2064      7269656E 
 2064      7450756D 
 2065              	.LASF38:
 2066 0149 7844656C 		.ascii	"xDelayms\000"
 2066      61796D73 
 2066      00
 2067              	.LASF17:
 2068 0152 75696E74 		.ascii	"uint16\000"
 2068      313600
 2069              	.LASF53:
 2070 0159 76546573 		.ascii	"vTestTaskUARTDataTransmit\000"
 2070      74546173 
 2070      6B554152 
 2070      54446174 
 2070      61547261 
 2071              	.LASF13:
ARM GAS  C:\Users\krist\AppData\Local\Temp\ccLTBo06.s 			page 43


 2072 0173 75696E74 		.ascii	"uint8_t\000"
 2072      385F7400 
 2073              	.LASF64:
 2074 017b 69504849 		.ascii	"iPHIndex\000"
 2074      6E646578 
 2074      00
 2075              	.LASF18:
 2076 0184 696E7431 		.ascii	"int16\000"
 2076      3600
 2077              	.LASF16:
 2078 018a 75696E74 		.ascii	"uint8\000"
 2078      3800
 2079              	.LASF19:
 2080 0190 666C6F61 		.ascii	"float\000"
 2080      7400
 2081              	.LASF37:
 2082 0196 66504856 		.ascii	"fPHVoltage\000"
 2082      6F6C7461 
 2082      676500
 2083              	.LASF46:
 2084 01a1 76546173 		.ascii	"vTaskWaterTemp\000"
 2084      6B576174 
 2084      65725465 
 2084      6D7000
 2085              	.LASF1:
 2086 01b0 6C6F6E67 		.ascii	"long long int\000"
 2086      206C6F6E 
 2086      6720696E 
 2086      7400
 2087              	.LASF30:
 2088 01be 69504876 		.ascii	"iPHvalue\000"
 2088      616C7565 
 2088      00
 2089              	.LASF41:
 2090 01c7 694D696C 		.ascii	"iMilliPHValue\000"
 2090      6C695048 
 2090      56616C75 
 2090      6500
 2091              	.LASF9:
 2092 01d5 6C6F6E67 		.ascii	"long int\000"
 2092      20696E74 
 2092      00
 2093              	.LASF31:
 2094 01de 69454376 		.ascii	"iECvalue\000"
 2094      616C7565 
 2094      00
 2095              	.LASF68:
 2096 01e7 66416369 		.ascii	"fAcidVoltage\000"
 2096      64566F6C 
 2096      74616765 
 2096      00
 2097              	.LASF71:
 2098 01f4 78517565 		.ascii	"xQueueWaterTemp\000"
 2098      75655761 
 2098      74657254 
 2098      656D7000 
 2099              	.LASF27:
ARM GAS  C:\Users\krist\AppData\Local\Temp\ccLTBo06.s 			page 44


 2100 0204 51756575 		.ascii	"QueueHandle_t\000"
 2100      6548616E 
 2100      646C655F 
 2100      7400
 2101              	.LASF70:
 2102 0212 78517565 		.ascii	"xQueuePHValue\000"
 2102      75655048 
 2102      56616C75 
 2102      6500
 2103              	.LASF26:
 2104 0220 5469636B 		.ascii	"TickType_t\000"
 2104      54797065 
 2104      5F7400
 2105              	.LASF2:
 2106 022b 6C6F6E67 		.ascii	"long double\000"
 2106      20646F75 
 2106      626C6500 
 2107              	.LASF29:
 2108 0237 4E757472 		.ascii	"Nutrients\000"
 2108      69656E74 
 2108      7300
 2109              	.LASF4:
 2110 0241 756E7369 		.ascii	"unsigned char\000"
 2110      676E6564 
 2110      20636861 
 2110      7200
 2111              	.LASF3:
 2112 024f 7369676E 		.ascii	"signed char\000"
 2112      65642063 
 2112      68617200 
 2113              	.LASF12:
 2114 025b 6C6F6E67 		.ascii	"long long unsigned int\000"
 2114      206C6F6E 
 2114      6720756E 
 2114      7369676E 
 2114      65642069 
 2115              	.LASF78:
 2116 0272 76546173 		.ascii	"vTaskNutrientPump\000"
 2116      6B4E7574 
 2116      7269656E 
 2116      7450756D 
 2116      7000
 2117              	.LASF15:
 2118 0284 75696E74 		.ascii	"uint32_t\000"
 2118      33325F74 
 2118      00
 2119              	.LASF0:
 2120 028d 756E7369 		.ascii	"unsigned int\000"
 2120      676E6564 
 2120      20696E74 
 2120      00
 2121              	.LASF58:
 2122 029a 70635465 		.ascii	"pcTextForNutrientPump\000"
 2122      7874466F 
 2122      724E7574 
 2122      7269656E 
 2122      7450756D 
ARM GAS  C:\Users\krist\AppData\Local\Temp\ccLTBo06.s 			page 45


 2123              	.LASF25:
 2124 02b0 42617365 		.ascii	"BaseType_t\000"
 2124      54797065 
 2124      5F7400
 2125              	.LASF47:
 2126 02bb 77617465 		.ascii	"waterTemp\000"
 2126      7254656D 
 2126      7000
 2127              	.LASF39:
 2128 02c5 66504856 		.ascii	"fPHValue\000"
 2128      616C7565 
 2128      00
 2129              	.LASF77:
 2130 02ce 51756575 		.ascii	"QueueDefinition\000"
 2130      65446566 
 2130      696E6974 
 2130      696F6E00 
 2131              	.LASF73:
 2132 02de 53544F50 		.ascii	"STOP_SPEED\000"
 2132      5F535045 
 2132      454400
 2133              	.LASF54:
 2134 02e9 69504856 		.ascii	"iPHValueForPrint\000"
 2134      616C7565 
 2134      466F7250 
 2134      72696E74 
 2134      00
 2135              	.LASF21:
 2136 02fa 63686172 		.ascii	"char\000"
 2136      00
 2137              	.LASF36:
 2138 02ff 5F426F6F 		.ascii	"_Bool\000"
 2138      6C00
 2139              	.LASF14:
 2140 0305 696E7433 		.ascii	"int32_t\000"
 2140      325F7400 
 2141              	.LASF6:
 2142 030d 73686F72 		.ascii	"short unsigned int\000"
 2142      7420756E 
 2142      7369676E 
 2142      65642069 
 2142      6E7400
 2143              	.LASF43:
 2144 0320 66536C6F 		.ascii	"fSlope\000"
 2144      706500
 2145              	.LASF28:
 2146 0327 44533138 		.ascii	"DS18x8_TSensor\000"
 2146      78385F54 
 2146      53656E73 
 2146      6F7200
 2147              	.LASF51:
 2148 0336 764E7574 		.ascii	"vNutrientsInit\000"
 2148      7269656E 
 2148      7473496E 
 2148      697400
 2149              	.LASF65:
 2150 0345 69454349 		.ascii	"iECIndex\000"
ARM GAS  C:\Users\krist\AppData\Local\Temp\ccLTBo06.s 			page 46


 2150      6E646578 
 2150      00
 2151              	.LASF32:
 2152 034e 69576174 		.ascii	"iWaterTemp\000"
 2152      65725465 
 2152      6D7000
 2153              	.LASF75:
 2154 0359 4E757472 		.ascii	"Nutrients.c\000"
 2154      69656E74 
 2154      732E6300 
 2155              	.LASF11:
 2156 0365 6C6F6E67 		.ascii	"long unsigned int\000"
 2156      20756E73 
 2156      69676E65 
 2156      6420696E 
 2156      7400
 2157              	.LASF20:
 2158 0377 646F7562 		.ascii	"double\000"
 2158      6C6500
 2159              	.LASF66:
 2160 037e 69576174 		.ascii	"iWateTempIndex\000"
 2160      6554656D 
 2160      70496E64 
 2160      657800
 2161              	.LASF10:
 2162 038d 5F5F7569 		.ascii	"__uint32_t\000"
 2162      6E743332 
 2162      5F7400
 2163              	.LASF48:
 2164 0398 666C6167 		.ascii	"flagTimer\000"
 2164      54696D65 
 2164      7200
 2165              	.LASF79:
 2166 03a2 6643616C 		.ascii	"fCalculatePHValue\000"
 2166      63756C61 
 2166      74655048 
 2166      56616C75 
 2166      6500
 2167              	.LASF8:
 2168 03b4 5F5F696E 		.ascii	"__int32_t\000"
 2168      7433325F 
 2168      7400
 2169              	.LASF72:
 2170 03be 4D41585F 		.ascii	"MAX_SPEED\000"
 2170      53504545 
 2170      4400
 2171              	.LASF24:
 2172 03c8 70726573 		.ascii	"present\000"
 2172      656E7400 
 2173              	.LASF45:
 2174 03d0 76546173 		.ascii	"vTaskMeasurePH\000"
 2174      6B4D6561 
 2174      73757265 
 2174      504800
 2175              	.LASF42:
 2176 03df 70765061 		.ascii	"pvParameters\000"
 2176      72616D65 
ARM GAS  C:\Users\krist\AppData\Local\Temp\ccLTBo06.s 			page 47


 2176      74657273 
 2176      00
 2177              	.LASF23:
 2178 03ec 54656D70 		.ascii	"Temperature\000"
 2178      65726174 
 2178      75726500 
 2179              	.LASF35:
 2180 03f8 70694E75 		.ascii	"piNutrientPump\000"
 2180      74726965 
 2180      6E745075 
 2180      6D7000
 2181              	.LASF76:
 2182 0407 433A5C55 		.ascii	"C:\\Users\\krist\\Documents\\GitHub\\P4_Vertical_fa"
 2182      73657273 
 2182      5C6B7269 
 2182      73745C44 
 2182      6F63756D 
 2183 0435 726D5C52 		.ascii	"rm\\RTOS_TEMPLATE-master\\PlanteModul.cydsn\000"
 2183      544F535F 
 2183      54454D50 
 2183      4C415445 
 2183      2D6D6173 
 2184              	.LASF61:
 2185 045f 49544D5F 		.ascii	"ITM_RxBuffer\000"
 2185      52784275 
 2185      66666572 
 2185      00
 2186              	.LASF63:
 2187 046c 63757272 		.ascii	"currentNutrients\000"
 2187      656E744E 
 2187      75747269 
 2187      656E7473 
 2187      00
 2188              	.LASF33:
 2189 047d 62537461 		.ascii	"bState\000"
 2189      746500
 2190              	.LASF60:
 2191 0484 44533138 		.ascii	"DS18x8_DataReady\000"
 2191      78385F44 
 2191      61746152 
 2191      65616479 
 2191      00
 2192              	.LASF7:
 2193 0495 5F5F7569 		.ascii	"__uint8_t\000"
 2193      6E74385F 
 2193      7400
 2194              	.LASF56:
 2195 049f 62546573 		.ascii	"bTestState1\000"
 2195      74537461 
 2195      74653100 
 2196              	.LASF57:
 2197 04ab 62546573 		.ascii	"bTestState2\000"
 2197      74537461 
 2197      74653200 
 2198              		.ident	"GCC: (GNU Tools for ARM Embedded Processors) 5.4.1 20160609 (release) [ARM/embedded-5-bran
