ARM GAS  C:\Users\Emil\AppData\Local\Temp\ccJO7VeH.s 			page 1


   1              		.syntax unified
   2              		.cpu cortex-m3
   3              		.fpu softvfp
   4              		.eabi_attribute 20, 1
   5              		.eabi_attribute 21, 1
   6              		.eabi_attribute 23, 3
   7              		.eabi_attribute 24, 1
   8              		.eabi_attribute 25, 1
   9              		.eabi_attribute 26, 1
  10              		.eabi_attribute 30, 6
  11              		.eabi_attribute 34, 1
  12              		.eabi_attribute 18, 4
  13              		.thumb
  14              		.syntax unified
  15              		.file	"Nutrients.c"
  16              		.text
  17              	.Ltext0:
  18              		.cfi_sections	.debug_frame
  19              		.global	iSizeOfNutrients
  20              		.section	.rodata
  21              		.align	2
  22              		.type	iSizeOfNutrients, %object
  23              		.size	iSizeOfNutrients, 4
  24              	iSizeOfNutrients:
  25 0000 28000000 		.word	40
  26              		.comm	currentNutrients,240,4
  27              		.global	iPHIndex
  28              		.bss
  29              		.align	2
  30              		.type	iPHIndex, %object
  31              		.size	iPHIndex, 4
  32              	iPHIndex:
  33 0000 00000000 		.space	4
  34              		.global	iECIndex
  35              		.align	2
  36              		.type	iECIndex, %object
  37              		.size	iECIndex, 4
  38              	iECIndex:
  39 0004 00000000 		.space	4
  40              		.global	iWateTempIndex
  41              		.align	2
  42              		.type	iWateTempIndex, %object
  43              		.size	iWateTempIndex, 4
  44              	iWateTempIndex:
  45 0008 00000000 		.space	4
  46              		.global	fNeutralVoltage
  47              		.section	.rodata
  48              		.align	2
  49              		.type	fNeutralVoltage, %object
  50              		.size	fNeutralVoltage, 4
  51              	fNeutralVoltage:
  52 0004 0080BB44 		.word	1153138688
  53              		.global	fAcidVoltage
  54              		.align	2
  55              		.type	fAcidVoltage, %object
  56              		.size	fAcidVoltage, 4
  57              	fAcidVoltage:
ARM GAS  C:\Users\Emil\AppData\Local\Temp\ccJO7VeH.s 			page 2


  58 0008 140EFE44 		.word	1157500436
  59              		.comm	xQueueNutrientPump,12,4
  60              		.comm	xQueuePHValue,4,4
  61              		.comm	xQueueECValue,4,4
  62              		.global	MAX_SPEED
  63              		.type	MAX_SPEED, %object
  64              		.size	MAX_SPEED, 1
  65              	MAX_SPEED:
  66 000c 06       		.byte	6
  67              		.global	STOP_SPEED
  68              		.type	STOP_SPEED, %object
  69              		.size	STOP_SPEED, 1
  70              	STOP_SPEED:
  71 000d 13       		.byte	19
  72 000e 0000     		.align	2
  73              		.type	pcTextForNutrientPump, %object
  74              		.size	pcTextForNutrientPump, 3
  75              	pcTextForNutrientPump:
  76 0010 00       		.byte	0
  77 0011 01       		.byte	1
  78 0012 02       		.byte	2
  79 0013 00       		.align	2
  80              	.LC0:
  81 0014 50756D70 		.ascii	"Pump 1\000"
  81      203100
  82 001b 00       		.align	2
  83              	.LC1:
  84 001c 50756D70 		.ascii	"Pump 2\000"
  84      203200
  85 0023 00       		.align	2
  86              	.LC2:
  87 0024 504800   		.ascii	"PH\000"
  88 0027 00       		.align	2
  89              	.LC3:
  90 0028 47657420 		.ascii	"Get EC value\000"
  90      45432076 
  90      616C7565 
  90      00
  91              		.section	.text.vNutrientsInit,"ax",%progbits
  92              		.align	2
  93              		.global	vNutrientsInit
  94              		.thumb
  95              		.thumb_func
  96              		.type	vNutrientsInit, %function
  97              	vNutrientsInit:
  98              	.LFB69:
  99              		.file 1 "Nutrients.c"
   1:Nutrients.c   **** /* ========================================
   2:Nutrients.c   ****  *
   3:Nutrients.c   ****  * Copyright YOUR COMPANY, THE YEAR
   4:Nutrients.c   ****  * All Rights Reserved
   5:Nutrients.c   ****  * UNPUBLISHED, LICENSED SOFTWARE.
   6:Nutrients.c   ****  *
   7:Nutrients.c   ****  * CONFIDENTIAL AND PROPRIETARY INFORMATION
   8:Nutrients.c   ****  * WHICH IS THE PROPERTY OF your company.
   9:Nutrients.c   ****  *
  10:Nutrients.c   ****  * ========================================
ARM GAS  C:\Users\Emil\AppData\Local\Temp\ccJO7VeH.s 			page 3


  11:Nutrients.c   **** */
  12:Nutrients.c   **** 
  13:Nutrients.c   **** /* [] END OF FILE */
  14:Nutrients.c   **** 
  15:Nutrients.c   **** #include "FreeRTOS.h"
  16:Nutrients.c   **** #include "Nutrients.h"
  17:Nutrients.c   **** #include "task.h"
  18:Nutrients.c   **** #include "queue.h"
  19:Nutrients.c   **** #include <stdio.h>
  20:Nutrients.c   **** #include <stdlib.h>
  21:Nutrients.c   **** 
  22:Nutrients.c   **** struct Nutrients{ // Struct contains nutrients values measured
  23:Nutrients.c   ****     uint16  iPHvalue;
  24:Nutrients.c   ****     uint16  iECvalue;
  25:Nutrients.c   ****     uint16  iWaterTemp;
  26:Nutrients.c   **** };
  27:Nutrients.c   **** 
  28:Nutrients.c   **** const int iSizeOfNutrients = 40; // Should be the same as the value of the array below
  29:Nutrients.c   **** struct Nutrients currentNutrients[40]; // Create struct array with space for 40 measurements
  30:Nutrients.c   **** int iPHIndex = 0; // Use this index to save pH measurements into the struct array
  31:Nutrients.c   **** int iECIndex = 0; // Use this index to save EC measurements into the struct array
  32:Nutrients.c   **** int iWateTempIndex = 0; // Use this index to save water temperature measurements into the struct ar
  33:Nutrients.c   **** 
  34:Nutrients.c   **** const float fNeutralVoltage = 1500; //Voltage at pH 7, should be calibrated
  35:Nutrients.c   **** const float fAcidVoltage = 2032.44; //Voltage at pH 4, should be calibrated
  36:Nutrients.c   **** 
  37:Nutrients.c   **** QueueHandle_t xQueueNutrientPump[3]; // Create a queue for 3 nutrient pumps
  38:Nutrients.c   **** QueueHandle_t xQueuePHValue;        // Create a queue for sending pH values through UART
  39:Nutrients.c   **** QueueHandle_t xQueueECValue;        //Create a queue for sending EC values to the test task.
  40:Nutrients.c   **** 
  41:Nutrients.c   **** 
  42:Nutrients.c   **** const uint8 MAX_SPEED = 6; // Max speed constant for the nutrient pumps
  43:Nutrients.c   **** const uint8 STOP_SPEED = 19; // Stop speed for the nutrient pumps
  44:Nutrients.c   **** static const uint8 pcTextForNutrientPump[3] = {0, 1, 2};
  45:Nutrients.c   **** 
  46:Nutrients.c   **** 
  47:Nutrients.c   **** void vNutrientsInit() {
 100              		.loc 1 47 0
 101              		.cfi_startproc
 102              		@ args = 0, pretend = 0, frame = 0
 103              		@ frame_needed = 1, uses_anonymous_args = 0
 104 0000 80B5     		push	{r7, lr}
 105              		.cfi_def_cfa_offset 8
 106              		.cfi_offset 7, -8
 107              		.cfi_offset 14, -4
 108 0002 82B0     		sub	sp, sp, #8
 109              		.cfi_def_cfa_offset 16
 110 0004 02AF     		add	r7, sp, #8
 111              		.cfi_def_cfa 7, 8
  48:Nutrients.c   ****     /*  The queue is created to hold a maximum of 1 value, each of which is
  49:Nutrients.c   ****         large enough to hold a variable at the size of Bool. */
  50:Nutrients.c   ****     xQueueNutrientPump[0] = xQueueCreate( 1, sizeof( _Bool ) );
 112              		.loc 1 50 0
 113 0006 0022     		movs	r2, #0
 114 0008 0121     		movs	r1, #1
 115 000a 0120     		movs	r0, #1
 116 000c FFF7FEFF 		bl	xQueueGenericCreate
ARM GAS  C:\Users\Emil\AppData\Local\Temp\ccJO7VeH.s 			page 4


 117 0010 0246     		mov	r2, r0
 118 0012 2E4B     		ldr	r3, .L2
 119 0014 1A60     		str	r2, [r3]
  51:Nutrients.c   ****     xQueueNutrientPump[1] = xQueueCreate( 1, sizeof( _Bool ) );
 120              		.loc 1 51 0
 121 0016 0022     		movs	r2, #0
 122 0018 0121     		movs	r1, #1
 123 001a 0120     		movs	r0, #1
 124 001c FFF7FEFF 		bl	xQueueGenericCreate
 125 0020 0246     		mov	r2, r0
 126 0022 2A4B     		ldr	r3, .L2
 127 0024 5A60     		str	r2, [r3, #4]
  52:Nutrients.c   ****     xQueueNutrientPump[2] = xQueueCreate( 1, sizeof( _Bool ) );
 128              		.loc 1 52 0
 129 0026 0022     		movs	r2, #0
 130 0028 0121     		movs	r1, #1
 131 002a 0120     		movs	r0, #1
 132 002c FFF7FEFF 		bl	xQueueGenericCreate
 133 0030 0246     		mov	r2, r0
 134 0032 264B     		ldr	r3, .L2
 135 0034 9A60     		str	r2, [r3, #8]
  53:Nutrients.c   ****     
  54:Nutrients.c   ****     xQueuePHValue = xQueueCreate(1 , sizeof(uint16));
 136              		.loc 1 54 0
 137 0036 0022     		movs	r2, #0
 138 0038 0221     		movs	r1, #2
 139 003a 0120     		movs	r0, #1
 140 003c FFF7FEFF 		bl	xQueueGenericCreate
 141 0040 0246     		mov	r2, r0
 142 0042 234B     		ldr	r3, .L2+4
 143 0044 1A60     		str	r2, [r3]
  55:Nutrients.c   ****     xQueueECValue = xQueueCreate(1, sizeof(uint16));
 144              		.loc 1 55 0
 145 0046 0022     		movs	r2, #0
 146 0048 0221     		movs	r1, #2
 147 004a 0120     		movs	r0, #1
 148 004c FFF7FEFF 		bl	xQueueGenericCreate
 149 0050 0246     		mov	r2, r0
 150 0052 204B     		ldr	r3, .L2+8
 151 0054 1A60     		str	r2, [r3]
  56:Nutrients.c   ****     
  57:Nutrients.c   ****     
  58:Nutrients.c   ****     /*  Create the task that will control one nutrient pump. The task is created with
  59:Nutrients.c   ****         priority 1. */
  60:Nutrients.c   ****     xTaskCreate(vTaskNutrientPump, "Pump 1", 100, (void*)pcTextForNutrientPump, 2, NULL);
 152              		.loc 1 60 0
 153 0056 0023     		movs	r3, #0
 154 0058 0193     		str	r3, [sp, #4]
 155 005a 0223     		movs	r3, #2
 156 005c 0093     		str	r3, [sp]
 157 005e 1E4B     		ldr	r3, .L2+12
 158 0060 6422     		movs	r2, #100
 159 0062 1E49     		ldr	r1, .L2+16
 160 0064 1E48     		ldr	r0, .L2+20
 161 0066 FFF7FEFF 		bl	xTaskCreate
  61:Nutrients.c   ****     xTaskCreate(vTaskNutrientPump, "Pump 2", 100, (void*)pcTextForNutrientPump + 1, 2, NULL);
 162              		.loc 1 61 0
ARM GAS  C:\Users\Emil\AppData\Local\Temp\ccJO7VeH.s 			page 5


 163 006a 1E4A     		ldr	r2, .L2+24
 164 006c 0023     		movs	r3, #0
 165 006e 0193     		str	r3, [sp, #4]
 166 0070 0223     		movs	r3, #2
 167 0072 0093     		str	r3, [sp]
 168 0074 1346     		mov	r3, r2
 169 0076 6422     		movs	r2, #100
 170 0078 1B49     		ldr	r1, .L2+28
 171 007a 1948     		ldr	r0, .L2+20
 172 007c FFF7FEFF 		bl	xTaskCreate
  62:Nutrients.c   ****     xTaskCreate(vTaskNutrientPump, "Pump 2", 100, (void*)pcTextForNutrientPump + 2, 2, NULL);
 173              		.loc 1 62 0
 174 0080 1A4A     		ldr	r2, .L2+32
 175 0082 0023     		movs	r3, #0
 176 0084 0193     		str	r3, [sp, #4]
 177 0086 0223     		movs	r3, #2
 178 0088 0093     		str	r3, [sp]
 179 008a 1346     		mov	r3, r2
 180 008c 6422     		movs	r2, #100
 181 008e 1649     		ldr	r1, .L2+28
 182 0090 1348     		ldr	r0, .L2+20
 183 0092 FFF7FEFF 		bl	xTaskCreate
  63:Nutrients.c   ****     
  64:Nutrients.c   ****     xTaskCreate(vTaskMeasurePH, "PH", 1000 , NULL , 2 , NULL);
 184              		.loc 1 64 0
 185 0096 0023     		movs	r3, #0
 186 0098 0193     		str	r3, [sp, #4]
 187 009a 0223     		movs	r3, #2
 188 009c 0093     		str	r3, [sp]
 189 009e 0023     		movs	r3, #0
 190 00a0 4FF47A72 		mov	r2, #1000
 191 00a4 1249     		ldr	r1, .L2+36
 192 00a6 1348     		ldr	r0, .L2+40
 193 00a8 FFF7FEFF 		bl	xTaskCreate
  65:Nutrients.c   ****     
  66:Nutrients.c   ****     xTaskCreate(vTaskMeasureEC, "Get EC value", 100, NULL, 2, NULL);
 194              		.loc 1 66 0
 195 00ac 0023     		movs	r3, #0
 196 00ae 0193     		str	r3, [sp, #4]
 197 00b0 0223     		movs	r3, #2
 198 00b2 0093     		str	r3, [sp]
 199 00b4 0023     		movs	r3, #0
 200 00b6 6422     		movs	r2, #100
 201 00b8 0F49     		ldr	r1, .L2+44
 202 00ba 1048     		ldr	r0, .L2+48
 203 00bc FFF7FEFF 		bl	xTaskCreate
  67:Nutrients.c   ****     
  68:Nutrients.c   ****     /*Initialize test tasks*/
  69:Nutrients.c   ****     #if NUTRIENTSTEST == 1
  70:Nutrients.c   ****         vTestTaskInit();
 204              		.loc 1 70 0
 205 00c0 FFF7FEFF 		bl	vTestTaskInit
  71:Nutrients.c   ****     #endif
  72:Nutrients.c   ****     
  73:Nutrients.c   ****     
  74:Nutrients.c   **** }
 206              		.loc 1 74 0
ARM GAS  C:\Users\Emil\AppData\Local\Temp\ccJO7VeH.s 			page 6


 207 00c4 00BF     		nop
 208 00c6 BD46     		mov	sp, r7
 209              		.cfi_def_cfa_register 13
 210              		@ sp needed
 211 00c8 80BD     		pop	{r7, pc}
 212              	.L3:
 213 00ca 00BF     		.align	2
 214              	.L2:
 215 00cc 00000000 		.word	xQueueNutrientPump
 216 00d0 00000000 		.word	xQueuePHValue
 217 00d4 00000000 		.word	xQueueECValue
 218 00d8 10000000 		.word	pcTextForNutrientPump
 219 00dc 14000000 		.word	.LC0
 220 00e0 00000000 		.word	vTaskNutrientPump
 221 00e4 11000000 		.word	pcTextForNutrientPump+1
 222 00e8 1C000000 		.word	.LC1
 223 00ec 12000000 		.word	pcTextForNutrientPump+2
 224 00f0 24000000 		.word	.LC2
 225 00f4 00000000 		.word	vTaskMeasurePH
 226 00f8 28000000 		.word	.LC3
 227 00fc 00000000 		.word	vTaskMeasureEC
 228              		.cfi_endproc
 229              	.LFE69:
 230              		.size	vNutrientsInit, .-vNutrientsInit
 231              		.section	.text.vTaskNutrientPump,"ax",%progbits
 232              		.align	2
 233              		.global	vTaskNutrientPump
 234              		.thumb
 235              		.thumb_func
 236              		.type	vTaskNutrientPump, %function
 237              	vTaskNutrientPump:
 238              	.LFB70:
  75:Nutrients.c   **** 
  76:Nutrients.c   **** 
  77:Nutrients.c   **** void vTaskNutrientPump( void *pvParameters ) {
 239              		.loc 1 77 0
 240              		.cfi_startproc
 241              		@ args = 0, pretend = 0, frame = 24
 242              		@ frame_needed = 1, uses_anonymous_args = 0
 243 0000 80B5     		push	{r7, lr}
 244              		.cfi_def_cfa_offset 8
 245              		.cfi_offset 7, -8
 246              		.cfi_offset 14, -4
 247 0002 86B0     		sub	sp, sp, #24
 248              		.cfi_def_cfa_offset 32
 249 0004 00AF     		add	r7, sp, #0
 250              		.cfi_def_cfa_register 7
 251 0006 7860     		str	r0, [r7, #4]
  78:Nutrients.c   ****     _Bool bState;
  79:Nutrients.c   ****     BaseType_t xStatus;
  80:Nutrients.c   ****     uint8 *piNutrientPump;
  81:Nutrients.c   ****     
  82:Nutrients.c   ****     piNutrientPump = ( uint8 * ) pvParameters;
 252              		.loc 1 82 0
 253 0008 7B68     		ldr	r3, [r7, #4]
 254 000a 7B61     		str	r3, [r7, #20]
 255              	.L15:
ARM GAS  C:\Users\Emil\AppData\Local\Temp\ccJO7VeH.s 			page 7


  83:Nutrients.c   ****     
  84:Nutrients.c   ****     for(;;) {
  85:Nutrients.c   ****         /* Switch case for controlling the nutrient pumps */
  86:Nutrients.c   ****         switch (*piNutrientPump) {
 256              		.loc 1 86 0
 257 000c 7B69     		ldr	r3, [r7, #20]
 258 000e 1B78     		ldrb	r3, [r3]	@ zero_extendqisi2
 259 0010 012B     		cmp	r3, #1
 260 0012 1DD0     		beq	.L6
 261 0014 022B     		cmp	r3, #2
 262 0016 35D0     		beq	.L7
 263 0018 002B     		cmp	r3, #0
 264 001a 52D1     		bne	.L5
  87:Nutrients.c   ****             case 0:
  88:Nutrients.c   ****                 xStatus = xQueueReceive( xQueueNutrientPump[0], &bState, portMAX_DELAY ); // Checks
 265              		.loc 1 88 0
 266 001c 294B     		ldr	r3, .L19
 267 001e 1B68     		ldr	r3, [r3]
 268 0020 07F10F01 		add	r1, r7, #15
 269 0024 4FF0FF32 		mov	r2, #-1
 270 0028 1846     		mov	r0, r3
 271 002a FFF7FEFF 		bl	xQueueReceive
 272 002e 3861     		str	r0, [r7, #16]
  89:Nutrients.c   ****         
  90:Nutrients.c   ****                 if (xStatus == pdPASS) {
 273              		.loc 1 90 0
 274 0030 3B69     		ldr	r3, [r7, #16]
 275 0032 012B     		cmp	r3, #1
 276 0034 40D1     		bne	.L16
  91:Nutrients.c   ****                     if (bState) {
 277              		.loc 1 91 0
 278 0036 FB7B     		ldrb	r3, [r7, #15]	@ zero_extendqisi2
 279 0038 002B     		cmp	r3, #0
 280 003a 04D0     		beq	.L10
  92:Nutrients.c   ****                         PWM_PERISTALTISK_1_WriteCompare1(MAX_SPEED); // Start running the pump.
 281              		.loc 1 92 0
 282 003c 0623     		movs	r3, #6
 283 003e 1846     		mov	r0, r3
 284 0040 FFF7FEFF 		bl	PWM_PERISTALTISK_1_WriteCompare1
  93:Nutrients.c   ****                     } else {
  94:Nutrients.c   ****                         PWM_PERISTALTISK_1_WriteCompare1(STOP_SPEED); // Stop running the pump.
  95:Nutrients.c   ****                     }
  96:Nutrients.c   ****                 }
  97:Nutrients.c   ****                 break;
 285              		.loc 1 97 0
 286 0044 38E0     		b	.L16
 287              	.L10:
  94:Nutrients.c   ****                     }
 288              		.loc 1 94 0
 289 0046 1323     		movs	r3, #19
 290 0048 1846     		mov	r0, r3
 291 004a FFF7FEFF 		bl	PWM_PERISTALTISK_1_WriteCompare1
 292              		.loc 1 97 0
 293 004e 33E0     		b	.L16
 294              	.L6:
  98:Nutrients.c   ****             
  99:Nutrients.c   ****             case 1:
ARM GAS  C:\Users\Emil\AppData\Local\Temp\ccJO7VeH.s 			page 8


 100:Nutrients.c   ****                 xStatus = xQueueReceive( xQueueNutrientPump[1], &bState, portMAX_DELAY ); // Checks
 295              		.loc 1 100 0
 296 0050 1C4B     		ldr	r3, .L19
 297 0052 5B68     		ldr	r3, [r3, #4]
 298 0054 07F10F01 		add	r1, r7, #15
 299 0058 4FF0FF32 		mov	r2, #-1
 300 005c 1846     		mov	r0, r3
 301 005e FFF7FEFF 		bl	xQueueReceive
 302 0062 3861     		str	r0, [r7, #16]
 101:Nutrients.c   ****         
 102:Nutrients.c   ****                 if (xStatus == pdPASS) {
 303              		.loc 1 102 0
 304 0064 3B69     		ldr	r3, [r7, #16]
 305 0066 012B     		cmp	r3, #1
 306 0068 28D1     		bne	.L17
 103:Nutrients.c   ****                     if (bState) {
 307              		.loc 1 103 0
 308 006a FB7B     		ldrb	r3, [r7, #15]	@ zero_extendqisi2
 309 006c 002B     		cmp	r3, #0
 310 006e 04D0     		beq	.L12
 104:Nutrients.c   ****                         PWM_PERISTALTISK_1_WriteCompare2(MAX_SPEED);
 311              		.loc 1 104 0
 312 0070 0623     		movs	r3, #6
 313 0072 1846     		mov	r0, r3
 314 0074 FFF7FEFF 		bl	PWM_PERISTALTISK_1_WriteCompare2
 105:Nutrients.c   ****                     } else {
 106:Nutrients.c   ****                         PWM_PERISTALTISK_1_WriteCompare2(STOP_SPEED);
 107:Nutrients.c   ****                     }
 108:Nutrients.c   ****                 }
 109:Nutrients.c   ****                 break;
 315              		.loc 1 109 0
 316 0078 20E0     		b	.L17
 317              	.L12:
 106:Nutrients.c   ****                     }
 318              		.loc 1 106 0
 319 007a 1323     		movs	r3, #19
 320 007c 1846     		mov	r0, r3
 321 007e FFF7FEFF 		bl	PWM_PERISTALTISK_1_WriteCompare2
 322              		.loc 1 109 0
 323 0082 1BE0     		b	.L17
 324              	.L7:
 110:Nutrients.c   ****                 
 111:Nutrients.c   ****             case 2:
 112:Nutrients.c   ****                 xStatus = xQueueReceive( xQueueNutrientPump[2], &bState, portMAX_DELAY ); // Checks
 325              		.loc 1 112 0
 326 0084 0F4B     		ldr	r3, .L19
 327 0086 9B68     		ldr	r3, [r3, #8]
 328 0088 07F10F01 		add	r1, r7, #15
 329 008c 4FF0FF32 		mov	r2, #-1
 330 0090 1846     		mov	r0, r3
 331 0092 FFF7FEFF 		bl	xQueueReceive
 332 0096 3861     		str	r0, [r7, #16]
 113:Nutrients.c   ****         
 114:Nutrients.c   ****                 if (xStatus == pdPASS) {
 333              		.loc 1 114 0
 334 0098 3B69     		ldr	r3, [r7, #16]
 335 009a 012B     		cmp	r3, #1
ARM GAS  C:\Users\Emil\AppData\Local\Temp\ccJO7VeH.s 			page 9


 336 009c 10D1     		bne	.L18
 115:Nutrients.c   ****                     if (bState) {
 337              		.loc 1 115 0
 338 009e FB7B     		ldrb	r3, [r7, #15]	@ zero_extendqisi2
 339 00a0 002B     		cmp	r3, #0
 340 00a2 04D0     		beq	.L14
 116:Nutrients.c   ****                         PWM_PERISTALTISK_2_WriteCompare(MAX_SPEED);
 341              		.loc 1 116 0
 342 00a4 0623     		movs	r3, #6
 343 00a6 1846     		mov	r0, r3
 344 00a8 FFF7FEFF 		bl	PWM_PERISTALTISK_2_WriteCompare
 117:Nutrients.c   ****                     } else {
 118:Nutrients.c   ****                         PWM_PERISTALTISK_2_WriteCompare(STOP_SPEED);
 119:Nutrients.c   ****                     }
 120:Nutrients.c   ****                 }
 121:Nutrients.c   ****                 break;
 345              		.loc 1 121 0
 346 00ac 08E0     		b	.L18
 347              	.L14:
 118:Nutrients.c   ****                     }
 348              		.loc 1 118 0
 349 00ae 1323     		movs	r3, #19
 350 00b0 1846     		mov	r0, r3
 351 00b2 FFF7FEFF 		bl	PWM_PERISTALTISK_2_WriteCompare
 352              		.loc 1 121 0
 353 00b6 03E0     		b	.L18
 354              	.L16:
  97:Nutrients.c   ****             
 355              		.loc 1 97 0
 356 00b8 00BF     		nop
 357 00ba A7E7     		b	.L15
 358              	.L17:
 109:Nutrients.c   ****                 
 359              		.loc 1 109 0
 360 00bc 00BF     		nop
 361 00be A5E7     		b	.L15
 362              	.L18:
 363              		.loc 1 121 0
 364 00c0 00BF     		nop
 365              	.L5:
 122:Nutrients.c   ****         }
 123:Nutrients.c   ****     }
 366              		.loc 1 123 0 discriminator 1
 367 00c2 A3E7     		b	.L15
 368              	.L20:
 369              		.align	2
 370              	.L19:
 371 00c4 00000000 		.word	xQueueNutrientPump
 372              		.cfi_endproc
 373              	.LFE70:
 374              		.size	vTaskNutrientPump, .-vTaskNutrientPump
 375              		.global	__aeabi_i2d
 376              		.global	__aeabi_ddiv
 377              		.global	__aeabi_dmul
 378              		.global	__aeabi_d2f
 379              		.global	__aeabi_fmul
 380              		.global	__aeabi_f2uiz
ARM GAS  C:\Users\Emil\AppData\Local\Temp\ccJO7VeH.s 			page 10


 381              		.section	.text.vTaskMeasurePH,"ax",%progbits
 382              		.align	2
 383              		.global	vTaskMeasurePH
 384              		.thumb
 385              		.thumb_func
 386              		.type	vTaskMeasurePH, %function
 387              	vTaskMeasurePH:
 388              	.LFB71:
 124:Nutrients.c   **** }
 125:Nutrients.c   **** 
 126:Nutrients.c   **** void vTaskMeasurePH(){
 389              		.loc 1 126 0
 390              		.cfi_startproc
 391              		@ args = 0, pretend = 0, frame = 24
 392              		@ frame_needed = 1, uses_anonymous_args = 0
 393 0000 90B5     		push	{r4, r7, lr}
 394              		.cfi_def_cfa_offset 12
 395              		.cfi_offset 4, -12
 396              		.cfi_offset 7, -8
 397              		.cfi_offset 14, -4
 398 0002 87B0     		sub	sp, sp, #28
 399              		.cfi_def_cfa_offset 40
 400 0004 00AF     		add	r7, sp, #0
 401              		.cfi_def_cfa_register 7
 127:Nutrients.c   ****     float fPHVoltage;
 128:Nutrients.c   ****     const TickType_t xDelayms = pdMS_TO_TICKS( 100 ); // Sets the measurement resolution.
 402              		.loc 1 128 0
 403 0006 6423     		movs	r3, #100
 404 0008 3B61     		str	r3, [r7, #16]
 129:Nutrients.c   ****     float fPHValue;
 130:Nutrients.c   ****     float fMilliPHValue;
 131:Nutrients.c   ****     uint16 iMilliPHValue;
 132:Nutrients.c   ****     _Bool bState = 0;
 405              		.loc 1 132 0
 406 000a 0023     		movs	r3, #0
 407 000c FB75     		strb	r3, [r7, #23]
 408              	.L25:
 133:Nutrients.c   ****     
 134:Nutrients.c   ****     for(;;){
 135:Nutrients.c   ****         if(bState == 0){
 409              		.loc 1 135 0
 410 000e FB7D     		ldrb	r3, [r7, #23]
 411 0010 83F00103 		eor	r3, r3, #1
 412 0014 DBB2     		uxtb	r3, r3
 413 0016 002B     		cmp	r3, #0
 414 0018 04D0     		beq	.L22
 136:Nutrients.c   ****             ADC_PH_StartConvert();
 415              		.loc 1 136 0
 416 001a FFF7FEFF 		bl	ADC_PH_StartConvert
 137:Nutrients.c   ****             bState = 1;
 417              		.loc 1 137 0
 418 001e 0123     		movs	r3, #1
 419 0020 FB75     		strb	r3, [r7, #23]
 420 0022 F4E7     		b	.L25
 421              	.L22:
 138:Nutrients.c   ****         }
 139:Nutrients.c   ****         else if( (ADC_PH_IsEndConversion(ADC_PH_RETURN_STATUS) != 0) && (bState == 1) ){
ARM GAS  C:\Users\Emil\AppData\Local\Temp\ccJO7VeH.s 			page 11


 422              		.loc 1 139 0
 423 0024 0120     		movs	r0, #1
 424 0026 FFF7FEFF 		bl	ADC_PH_IsEndConversion
 425 002a 0346     		mov	r3, r0
 426 002c 002B     		cmp	r3, #0
 427 002e EED0     		beq	.L25
 428              		.loc 1 139 0 is_stmt 0 discriminator 1
 429 0030 FB7D     		ldrb	r3, [r7, #23]	@ zero_extendqisi2
 430 0032 002B     		cmp	r3, #0
 431 0034 EBD0     		beq	.L25
 140:Nutrients.c   ****             fPHVoltage = ((ADC_PH_GetResult16()) / 4096.0) * 3000.0; // Calculate voltage from meas
 432              		.loc 1 140 0 is_stmt 1
 433 0036 FFF7FEFF 		bl	ADC_PH_GetResult16
 434 003a 0346     		mov	r3, r0
 435 003c 1846     		mov	r0, r3
 436 003e FFF7FEFF 		bl	__aeabi_i2d
 437 0042 4FF00002 		mov	r2, #0
 438 0046 224B     		ldr	r3, .L26+8
 439 0048 FFF7FEFF 		bl	__aeabi_ddiv
 440 004c 0346     		mov	r3, r0
 441 004e 0C46     		mov	r4, r1
 442 0050 1846     		mov	r0, r3
 443 0052 2146     		mov	r1, r4
 444 0054 1CA3     		adr	r3, .L26
 445 0056 D3E90023 		ldrd	r2, [r3]
 446 005a FFF7FEFF 		bl	__aeabi_dmul
 447 005e 0346     		mov	r3, r0
 448 0060 0C46     		mov	r4, r1
 449 0062 1846     		mov	r0, r3
 450 0064 2146     		mov	r1, r4
 451 0066 FFF7FEFF 		bl	__aeabi_d2f
 452 006a 0346     		mov	r3, r0
 453 006c FB60     		str	r3, [r7, #12]	@ float
 141:Nutrients.c   ****             fPHValue = fCalculatePHValue(fPHVoltage); // Convert the voltage to a pH value
 454              		.loc 1 141 0
 455 006e F868     		ldr	r0, [r7, #12]	@ float
 456 0070 FFF7FEFF 		bl	fCalculatePHValue
 457 0074 B860     		str	r0, [r7, #8]	@ float
 142:Nutrients.c   ****             fMilliPHValue = fPHValue * 1000; // Convert to milli pH value. This makes sure that we 
 458              		.loc 1 142 0
 459 0076 1749     		ldr	r1, .L26+12
 460 0078 B868     		ldr	r0, [r7, #8]	@ float
 461 007a FFF7FEFF 		bl	__aeabi_fmul
 462 007e 0346     		mov	r3, r0
 463 0080 7B60     		str	r3, [r7, #4]	@ float
 143:Nutrients.c   ****             iMilliPHValue = (uint16) fMilliPHValue; // Convert to a sendable message for UART (from
 464              		.loc 1 143 0
 465 0082 7868     		ldr	r0, [r7, #4]	@ float
 466 0084 FFF7FEFF 		bl	__aeabi_f2uiz
 467 0088 0346     		mov	r3, r0
 468 008a 7B80     		strh	r3, [r7, #2]	@ movhi
 144:Nutrients.c   ****             currentNutrients[iPHIndex].iPHvalue = iMilliPHValue; // Save in the currentNutrients ar
 469              		.loc 1 144 0
 470 008c 124B     		ldr	r3, .L26+16
 471 008e 1A68     		ldr	r2, [r3]
 472 0090 1249     		ldr	r1, .L26+20
 473 0092 1346     		mov	r3, r2
ARM GAS  C:\Users\Emil\AppData\Local\Temp\ccJO7VeH.s 			page 12


 474 0094 5B00     		lsls	r3, r3, #1
 475 0096 1344     		add	r3, r3, r2
 476 0098 5B00     		lsls	r3, r3, #1
 477 009a 0B44     		add	r3, r3, r1
 478 009c 7A88     		ldrh	r2, [r7, #2]	@ movhi
 479 009e 1A80     		strh	r2, [r3]	@ movhi
 145:Nutrients.c   ****             iPHIndex++;
 480              		.loc 1 145 0
 481 00a0 0D4B     		ldr	r3, .L26+16
 482 00a2 1B68     		ldr	r3, [r3]
 483 00a4 0133     		adds	r3, r3, #1
 484 00a6 0C4A     		ldr	r2, .L26+16
 485 00a8 1360     		str	r3, [r2]
 146:Nutrients.c   ****             if(iPHIndex == iSizeOfNutrients) {
 486              		.loc 1 146 0
 487 00aa 0B4B     		ldr	r3, .L26+16
 488 00ac 1B68     		ldr	r3, [r3]
 489 00ae 2822     		movs	r2, #40
 490 00b0 9342     		cmp	r3, r2
 491 00b2 02D1     		bne	.L24
 147:Nutrients.c   ****                 iPHIndex = 0;
 492              		.loc 1 147 0
 493 00b4 084B     		ldr	r3, .L26+16
 494 00b6 0022     		movs	r2, #0
 495 00b8 1A60     		str	r2, [r3]
 496              	.L24:
 148:Nutrients.c   ****             }
 149:Nutrients.c   ****             bState = 0;
 497              		.loc 1 149 0
 498 00ba 0023     		movs	r3, #0
 499 00bc FB75     		strb	r3, [r7, #23]
 150:Nutrients.c   ****             //xQueueSendToBack(xQueuePHValue , &iMilliPHValue , portMAX_DELAY); // Send the value t
 151:Nutrients.c   ****             vTaskDelay(xDelayms);
 500              		.loc 1 151 0
 501 00be 3869     		ldr	r0, [r7, #16]
 502 00c0 FFF7FEFF 		bl	vTaskDelay
 152:Nutrients.c   ****         }
 153:Nutrients.c   ****     }
 503              		.loc 1 153 0
 504 00c4 A3E7     		b	.L25
 505              	.L27:
 506 00c6 00BF     		.align	3
 507              	.L26:
 508 00c8 00000000 		.word	0
 509 00cc 0070A740 		.word	1084715008
 510 00d0 0000B040 		.word	1085276160
 511 00d4 00007A44 		.word	1148846080
 512 00d8 00000000 		.word	iPHIndex
 513 00dc 00000000 		.word	currentNutrients
 514              		.cfi_endproc
 515              	.LFE71:
 516              		.size	vTaskMeasurePH, .-vTaskMeasurePH
 517              		.global	__aeabi_f2d
 518              		.global	__aeabi_dsub
 519              		.global	__aeabi_dadd
 520              		.section	.text.fCalculatePHValue,"ax",%progbits
 521              		.align	2
ARM GAS  C:\Users\Emil\AppData\Local\Temp\ccJO7VeH.s 			page 13


 522              		.global	fCalculatePHValue
 523              		.thumb
 524              		.thumb_func
 525              		.type	fCalculatePHValue, %function
 526              	fCalculatePHValue:
 527              	.LFB72:
 154:Nutrients.c   **** }
 155:Nutrients.c   **** 
 156:Nutrients.c   **** 
 157:Nutrients.c   **** float fCalculatePHValue(float fPHVoltage){
 528              		.loc 1 157 0
 529              		.cfi_startproc
 530              		@ args = 0, pretend = 0, frame = 16
 531              		@ frame_needed = 1, uses_anonymous_args = 0
 532 0000 B0B5     		push	{r4, r5, r7, lr}
 533              		.cfi_def_cfa_offset 16
 534              		.cfi_offset 4, -16
 535              		.cfi_offset 5, -12
 536              		.cfi_offset 7, -8
 537              		.cfi_offset 14, -4
 538 0002 84B0     		sub	sp, sp, #16
 539              		.cfi_def_cfa_offset 32
 540 0004 00AF     		add	r7, sp, #0
 541              		.cfi_def_cfa_register 7
 542 0006 7860     		str	r0, [r7, #4]	@ float
 158:Nutrients.c   ****     float fSlope = (7.0-4.0) / ( (fNeutralVoltage - 1500.0)/3.0 - (fAcidVoltage - 1500.0)/3.0); //c
 543              		.loc 1 158 0
 544 0008 534B     		ldr	r3, .L30+8
 545 000a 1846     		mov	r0, r3
 546 000c FFF7FEFF 		bl	__aeabi_f2d
 547 0010 4FA3     		adr	r3, .L30
 548 0012 D3E90023 		ldrd	r2, [r3]
 549 0016 FFF7FEFF 		bl	__aeabi_dsub
 550 001a 0346     		mov	r3, r0
 551 001c 0C46     		mov	r4, r1
 552 001e 1846     		mov	r0, r3
 553 0020 2146     		mov	r1, r4
 554 0022 4FF00002 		mov	r2, #0
 555 0026 4D4B     		ldr	r3, .L30+12
 556 0028 FFF7FEFF 		bl	__aeabi_ddiv
 557 002c 0346     		mov	r3, r0
 558 002e 0C46     		mov	r4, r1
 559 0030 2546     		mov	r5, r4
 560 0032 1C46     		mov	r4, r3
 561 0034 4A4B     		ldr	r3, .L30+16
 562 0036 1846     		mov	r0, r3
 563 0038 FFF7FEFF 		bl	__aeabi_f2d
 564 003c 44A3     		adr	r3, .L30
 565 003e D3E90023 		ldrd	r2, [r3]
 566 0042 FFF7FEFF 		bl	__aeabi_dsub
 567 0046 0246     		mov	r2, r0
 568 0048 0B46     		mov	r3, r1
 569 004a 1046     		mov	r0, r2
 570 004c 1946     		mov	r1, r3
 571 004e 4FF00002 		mov	r2, #0
 572 0052 424B     		ldr	r3, .L30+12
 573 0054 FFF7FEFF 		bl	__aeabi_ddiv
ARM GAS  C:\Users\Emil\AppData\Local\Temp\ccJO7VeH.s 			page 14


 574 0058 0246     		mov	r2, r0
 575 005a 0B46     		mov	r3, r1
 576 005c 2046     		mov	r0, r4
 577 005e 2946     		mov	r1, r5
 578 0060 FFF7FEFF 		bl	__aeabi_dsub
 579 0064 0346     		mov	r3, r0
 580 0066 0C46     		mov	r4, r1
 581 0068 1A46     		mov	r2, r3
 582 006a 2346     		mov	r3, r4
 583 006c 4FF00000 		mov	r0, #0
 584 0070 3A49     		ldr	r1, .L30+12
 585 0072 FFF7FEFF 		bl	__aeabi_ddiv
 586 0076 0346     		mov	r3, r0
 587 0078 0C46     		mov	r4, r1
 588 007a 1846     		mov	r0, r3
 589 007c 2146     		mov	r1, r4
 590 007e FFF7FEFF 		bl	__aeabi_d2f
 591 0082 0346     		mov	r3, r0
 592 0084 FB60     		str	r3, [r7, #12]	@ float
 159:Nutrients.c   ****     float fIntercept = 7.0 - fSlope*(fNeutralVoltage-1500.0)/3.0; //calculate b in y = ax + b
 593              		.loc 1 159 0
 594 0086 F868     		ldr	r0, [r7, #12]	@ float
 595 0088 FFF7FEFF 		bl	__aeabi_f2d
 596 008c 0446     		mov	r4, r0
 597 008e 0D46     		mov	r5, r1
 598 0090 314B     		ldr	r3, .L30+8
 599 0092 1846     		mov	r0, r3
 600 0094 FFF7FEFF 		bl	__aeabi_f2d
 601 0098 2DA3     		adr	r3, .L30
 602 009a D3E90023 		ldrd	r2, [r3]
 603 009e FFF7FEFF 		bl	__aeabi_dsub
 604 00a2 0246     		mov	r2, r0
 605 00a4 0B46     		mov	r3, r1
 606 00a6 2046     		mov	r0, r4
 607 00a8 2946     		mov	r1, r5
 608 00aa FFF7FEFF 		bl	__aeabi_dmul
 609 00ae 0346     		mov	r3, r0
 610 00b0 0C46     		mov	r4, r1
 611 00b2 1846     		mov	r0, r3
 612 00b4 2146     		mov	r1, r4
 613 00b6 4FF00002 		mov	r2, #0
 614 00ba 284B     		ldr	r3, .L30+12
 615 00bc FFF7FEFF 		bl	__aeabi_ddiv
 616 00c0 0346     		mov	r3, r0
 617 00c2 0C46     		mov	r4, r1
 618 00c4 1A46     		mov	r2, r3
 619 00c6 2346     		mov	r3, r4
 620 00c8 4FF00000 		mov	r0, #0
 621 00cc 2549     		ldr	r1, .L30+20
 622 00ce FFF7FEFF 		bl	__aeabi_dsub
 623 00d2 0346     		mov	r3, r0
 624 00d4 0C46     		mov	r4, r1
 625 00d6 1846     		mov	r0, r3
 626 00d8 2146     		mov	r1, r4
 627 00da FFF7FEFF 		bl	__aeabi_d2f
 628 00de 0346     		mov	r3, r0
 629 00e0 BB60     		str	r3, [r7, #8]	@ float
ARM GAS  C:\Users\Emil\AppData\Local\Temp\ccJO7VeH.s 			page 15


 160:Nutrients.c   ****     return fSlope*(fPHVoltage-1500.0)/3.0 + fIntercept; //return pH value
 630              		.loc 1 160 0
 631 00e2 F868     		ldr	r0, [r7, #12]	@ float
 632 00e4 FFF7FEFF 		bl	__aeabi_f2d
 633 00e8 0446     		mov	r4, r0
 634 00ea 0D46     		mov	r5, r1
 635 00ec 7868     		ldr	r0, [r7, #4]	@ float
 636 00ee FFF7FEFF 		bl	__aeabi_f2d
 637 00f2 17A3     		adr	r3, .L30
 638 00f4 D3E90023 		ldrd	r2, [r3]
 639 00f8 FFF7FEFF 		bl	__aeabi_dsub
 640 00fc 0246     		mov	r2, r0
 641 00fe 0B46     		mov	r3, r1
 642 0100 2046     		mov	r0, r4
 643 0102 2946     		mov	r1, r5
 644 0104 FFF7FEFF 		bl	__aeabi_dmul
 645 0108 0346     		mov	r3, r0
 646 010a 0C46     		mov	r4, r1
 647 010c 1846     		mov	r0, r3
 648 010e 2146     		mov	r1, r4
 649 0110 4FF00002 		mov	r2, #0
 650 0114 114B     		ldr	r3, .L30+12
 651 0116 FFF7FEFF 		bl	__aeabi_ddiv
 652 011a 0346     		mov	r3, r0
 653 011c 0C46     		mov	r4, r1
 654 011e 2546     		mov	r5, r4
 655 0120 1C46     		mov	r4, r3
 656 0122 B868     		ldr	r0, [r7, #8]	@ float
 657 0124 FFF7FEFF 		bl	__aeabi_f2d
 658 0128 0246     		mov	r2, r0
 659 012a 0B46     		mov	r3, r1
 660 012c 2046     		mov	r0, r4
 661 012e 2946     		mov	r1, r5
 662 0130 FFF7FEFF 		bl	__aeabi_dadd
 663 0134 0346     		mov	r3, r0
 664 0136 0C46     		mov	r4, r1
 665 0138 1846     		mov	r0, r3
 666 013a 2146     		mov	r1, r4
 667 013c FFF7FEFF 		bl	__aeabi_d2f
 668 0140 0346     		mov	r3, r0
 161:Nutrients.c   **** }
 669              		.loc 1 161 0
 670 0142 1846     		mov	r0, r3
 671 0144 1037     		adds	r7, r7, #16
 672              		.cfi_def_cfa_offset 16
 673 0146 BD46     		mov	sp, r7
 674              		.cfi_def_cfa_register 13
 675              		@ sp needed
 676 0148 B0BD     		pop	{r4, r5, r7, pc}
 677              	.L31:
 678 014a 00BFAFF3 		.align	3
 678      0080
 679              	.L30:
 680 0150 00000000 		.word	0
 681 0154 00709740 		.word	1083666432
 682 0158 0080BB44 		.word	1153138688
 683 015c 00000840 		.word	1074266112
ARM GAS  C:\Users\Emil\AppData\Local\Temp\ccJO7VeH.s 			page 16


 684 0160 140EFE44 		.word	1157500436
 685 0164 00001C40 		.word	1075576832
 686              		.cfi_endproc
 687              	.LFE72:
 688              		.size	fCalculatePHValue, .-fCalculatePHValue
 689              		.section	.text.vTaskMeasureEC,"ax",%progbits
 690              		.align	2
 691              		.global	vTaskMeasureEC
 692              		.thumb
 693              		.thumb_func
 694              		.type	vTaskMeasureEC, %function
 695              	vTaskMeasureEC:
 696              	.LFB73:
 162:Nutrients.c   **** 
 163:Nutrients.c   **** /*This function writes 'R' to the EC sensor, then delays(300) before requesting data transfer from 
 164:Nutrients.c   **** This is in accordance with instructions given on the EC sensor datasheet. */
 165:Nutrients.c   **** void vTaskMeasureEC()
 166:Nutrients.c   **** {
 697              		.loc 1 166 0
 698              		.cfi_startproc
 699              		@ args = 0, pretend = 0, frame = 32
 700              		@ frame_needed = 1, uses_anonymous_args = 0
 701 0000 2DE9F043 		push	{r4, r5, r6, r7, r8, r9, lr}
 702              		.cfi_def_cfa_offset 28
 703              		.cfi_offset 4, -28
 704              		.cfi_offset 5, -24
 705              		.cfi_offset 6, -20
 706              		.cfi_offset 7, -16
 707              		.cfi_offset 8, -12
 708              		.cfi_offset 9, -8
 709              		.cfi_offset 14, -4
 710 0004 89B0     		sub	sp, sp, #36
 711              		.cfi_def_cfa_offset 64
 712 0006 00AF     		add	r7, sp, #0
 713              		.cfi_def_cfa_register 7
 167:Nutrients.c   ****     float fmicroECValue;
 168:Nutrients.c   ****     //float fnanoECValue;
 169:Nutrients.c   ****     uint16 imicroECValue;
 170:Nutrients.c   ****     const TickType_t xDelaymsBeforeRead = pdMS_TO_TICKS( 300 ); // Sets the measurement resolution.
 714              		.loc 1 170 0
 715 0008 4FF49673 		mov	r3, #300
 716 000c BB61     		str	r3, [r7, #24]
 171:Nutrients.c   ****     const TickType_t xDelaymsTimerEvent = pdMS_TO_TICKS( 100 ); // Sets the measurement resolution.
 717              		.loc 1 171 0
 718 000e 6423     		movs	r3, #100
 719 0010 7B61     		str	r3, [r7, #20]
 720              	.L38:
 721              	.LBB2:
 172:Nutrients.c   ****     for (;;){
 173:Nutrients.c   **** 
 174:Nutrients.c   ****         /* Defines the message to be sent, as an array of characters */
 175:Nutrients.c   ****         unsigned char  ucMessage[]= "R";
 722              		.loc 1 175 0
 723 0012 5223     		movs	r3, #82
 724 0014 3B80     		strh	r3, [r7]	@ movhi
 176:Nutrients.c   ****      
 177:Nutrients.c   ****         /* Initialize buffer with packet  , slave address is 9*/
ARM GAS  C:\Users\Emil\AppData\Local\Temp\ccJO7VeH.s 			page 17


 178:Nutrients.c   ****         (void) I2C_MasterWriteBuf(0x009 , ucMessage, 1 , I2C_MODE_COMPLETE_XFER);
 725              		.loc 1 178 0
 726 0016 3946     		mov	r1, r7
 727 0018 0023     		movs	r3, #0
 728 001a 0122     		movs	r2, #1
 729 001c 0920     		movs	r0, #9
 730 001e FFF7FEFF 		bl	I2C_MasterWriteBuf
 179:Nutrients.c   **** 
 180:Nutrients.c   ****         //Waits until master completes write transfer 
 181:Nutrients.c   ****         while (0u == (I2C_MasterStatus() & I2C_MSTAT_WR_CMPLT))
 731              		.loc 1 181 0
 732 0022 00BF     		nop
 733              	.L33:
 734              		.loc 1 181 0 is_stmt 0 discriminator 1
 735 0024 FFF7FEFF 		bl	I2C_MasterStatus
 736 0028 0346     		mov	r3, r0
 737 002a 03F00203 		and	r3, r3, #2
 738 002e 002B     		cmp	r3, #0
 739 0030 F8D0     		beq	.L33
 182:Nutrients.c   ****         {
 183:Nutrients.c   ****         } 
 184:Nutrients.c   **** 
 185:Nutrients.c   ****         
 186:Nutrients.c   ****         vTaskDelay(xDelaymsBeforeRead);
 740              		.loc 1 186 0 is_stmt 1
 741 0032 B869     		ldr	r0, [r7, #24]
 742 0034 FFF7FEFF 		bl	vTaskDelay
 187:Nutrients.c   ****         int iResponselen = 10;
 743              		.loc 1 187 0
 744 0038 0A23     		movs	r3, #10
 745 003a 3B61     		str	r3, [r7, #16]
 188:Nutrients.c   ****         char cResponse[iResponselen];
 746              		.loc 1 188 0
 747 003c 3969     		ldr	r1, [r7, #16]
 748 003e 6B46     		mov	r3, sp
 749 0040 1E46     		mov	r6, r3
 750 0042 4B1E     		subs	r3, r1, #1
 751 0044 FB60     		str	r3, [r7, #12]
 752 0046 0B46     		mov	r3, r1
 753 0048 1A46     		mov	r2, r3
 754 004a 4FF00003 		mov	r3, #0
 755 004e DD00     		lsls	r5, r3, #3
 756 0050 45EA5275 		orr	r5, r5, r2, lsr #29
 757 0054 D400     		lsls	r4, r2, #3
 758 0056 0B46     		mov	r3, r1
 759 0058 1A46     		mov	r2, r3
 760 005a 4FF00003 		mov	r3, #0
 761 005e 4FEAC309 		lsl	r9, r3, #3
 762 0062 49EA5279 		orr	r9, r9, r2, lsr #29
 763 0066 4FEAC208 		lsl	r8, r2, #3
 764 006a 0B46     		mov	r3, r1
 765 006c 0733     		adds	r3, r3, #7
 766 006e DB08     		lsrs	r3, r3, #3
 767 0070 DB00     		lsls	r3, r3, #3
 768 0072 ADEB030D 		sub	sp, sp, r3
 769 0076 6B46     		mov	r3, sp
 770 0078 0033     		adds	r3, r3, #0
ARM GAS  C:\Users\Emil\AppData\Local\Temp\ccJO7VeH.s 			page 18


 771 007a BB60     		str	r3, [r7, #8]
 189:Nutrients.c   ****         (void) I2C_MasterReadBuf(0x009, (uint8 *) cResponse, iResponselen, I2C_MODE_COMPLETE_XFER);
 772              		.loc 1 189 0
 773 007c B968     		ldr	r1, [r7, #8]
 774 007e 3B69     		ldr	r3, [r7, #16]
 775 0080 DAB2     		uxtb	r2, r3
 776 0082 0023     		movs	r3, #0
 777 0084 0920     		movs	r0, #9
 778 0086 FFF7FEFF 		bl	I2C_MasterReadBuf
 190:Nutrients.c   ****         
 191:Nutrients.c   ****         //Waits until master completes write transfer     
 192:Nutrients.c   ****         while (0u == (I2C_MasterStatus() & I2C_MSTAT_RD_CMPLT))
 779              		.loc 1 192 0
 780 008a 00BF     		nop
 781              	.L34:
 782              		.loc 1 192 0 is_stmt 0 discriminator 1
 783 008c FFF7FEFF 		bl	I2C_MasterStatus
 784 0090 0346     		mov	r3, r0
 785 0092 03F00103 		and	r3, r3, #1
 786 0096 002B     		cmp	r3, #0
 787 0098 F8D0     		beq	.L34
 193:Nutrients.c   ****         {
 194:Nutrients.c   ****         }
 195:Nutrients.c   ****             
 196:Nutrients.c   ****         if (cResponse[0] == '1'){
 788              		.loc 1 196 0 is_stmt 1
 789 009a BB68     		ldr	r3, [r7, #8]
 790 009c 1B78     		ldrb	r3, [r3]	@ zero_extendqisi2
 791 009e 312B     		cmp	r3, #49
 792 00a0 3AD1     		bne	.L35
 197:Nutrients.c   ****             
 198:Nutrients.c   ****             cResponse[0] = 0;                   //removes the initial '1' from the string, before c
 793              		.loc 1 198 0
 794 00a2 BB68     		ldr	r3, [r7, #8]
 795 00a4 0022     		movs	r2, #0
 796 00a6 1A70     		strb	r2, [r3]
 797              	.LBB3:
 199:Nutrients.c   ****             for(int i=0; i<iResponselen; i++){
 798              		.loc 1 199 0
 799 00a8 0023     		movs	r3, #0
 800 00aa FB61     		str	r3, [r7, #28]
 801 00ac 0BE0     		b	.L36
 802              	.L37:
 200:Nutrients.c   ****                 cResponse[i]=cResponse[i+1];
 803              		.loc 1 200 0 discriminator 3
 804 00ae FB69     		ldr	r3, [r7, #28]
 805 00b0 0133     		adds	r3, r3, #1
 806 00b2 BA68     		ldr	r2, [r7, #8]
 807 00b4 D15C     		ldrb	r1, [r2, r3]	@ zero_extendqisi2
 808 00b6 BA68     		ldr	r2, [r7, #8]
 809 00b8 FB69     		ldr	r3, [r7, #28]
 810 00ba 1344     		add	r3, r3, r2
 811 00bc 0A46     		mov	r2, r1
 812 00be 1A70     		strb	r2, [r3]
 199:Nutrients.c   ****             for(int i=0; i<iResponselen; i++){
 813              		.loc 1 199 0 discriminator 3
 814 00c0 FB69     		ldr	r3, [r7, #28]
ARM GAS  C:\Users\Emil\AppData\Local\Temp\ccJO7VeH.s 			page 19


 815 00c2 0133     		adds	r3, r3, #1
 816 00c4 FB61     		str	r3, [r7, #28]
 817              	.L36:
 199:Nutrients.c   ****             for(int i=0; i<iResponselen; i++){
 818              		.loc 1 199 0 is_stmt 0 discriminator 1
 819 00c6 FA69     		ldr	r2, [r7, #28]
 820 00c8 3B69     		ldr	r3, [r7, #16]
 821 00ca 9A42     		cmp	r2, r3
 822 00cc EFDB     		blt	.L37
 823              	.LBE3:
 201:Nutrients.c   ****             }
 202:Nutrients.c   ****             
 203:Nutrients.c   ****             fmicroECValue = strtof(cResponse, NULL); //converts to float.
 824              		.loc 1 203 0 is_stmt 1
 825 00ce BB68     		ldr	r3, [r7, #8]
 826 00d0 0021     		movs	r1, #0
 827 00d2 1846     		mov	r0, r3
 828 00d4 FFF7FEFF 		bl	strtof
 829 00d8 7860     		str	r0, [r7, #4]	@ float
 204:Nutrients.c   ****                                                      //fnanoECValue = fmicroECValue * 1000; // Conv
 205:Nutrients.c   ****             imicroECValue = (uint16) fmicroECValue; // Convert to a sendable message for UART (from
 830              		.loc 1 205 0
 831 00da 7868     		ldr	r0, [r7, #4]	@ float
 832 00dc FFF7FEFF 		bl	__aeabi_f2uiz
 833 00e0 0346     		mov	r3, r0
 834 00e2 9BB2     		uxth	r3, r3
 835 00e4 7B80     		strh	r3, [r7, #2]	@ movhi
 206:Nutrients.c   ****             currentNutrients[iECIndex].iECvalue = imicroECValue; // Save in the currentNutrients ar
 836              		.loc 1 206 0
 837 00e6 134B     		ldr	r3, .L39
 838 00e8 1A68     		ldr	r2, [r3]
 839 00ea 7888     		ldrh	r0, [r7, #2]
 840 00ec 1249     		ldr	r1, .L39+4
 841 00ee 1346     		mov	r3, r2
 842 00f0 5B00     		lsls	r3, r3, #1
 843 00f2 1344     		add	r3, r3, r2
 844 00f4 5B00     		lsls	r3, r3, #1
 845 00f6 0B44     		add	r3, r3, r1
 846 00f8 0233     		adds	r3, r3, #2
 847 00fa 0246     		mov	r2, r0	@ movhi
 848 00fc 1A80     		strh	r2, [r3]	@ movhi
 207:Nutrients.c   ****             iECIndex++;
 849              		.loc 1 207 0
 850 00fe 0D4B     		ldr	r3, .L39
 851 0100 1B68     		ldr	r3, [r3]
 852 0102 0133     		adds	r3, r3, #1
 853 0104 0B4A     		ldr	r2, .L39
 854 0106 1360     		str	r3, [r2]
 208:Nutrients.c   ****             if(iECIndex == iSizeOfNutrients) {
 855              		.loc 1 208 0
 856 0108 0A4B     		ldr	r3, .L39
 857 010a 1B68     		ldr	r3, [r3]
 858 010c 2822     		movs	r2, #40
 859 010e 9342     		cmp	r3, r2
 860 0110 02D1     		bne	.L35
 209:Nutrients.c   ****                 iECIndex = 0;
 861              		.loc 1 209 0
ARM GAS  C:\Users\Emil\AppData\Local\Temp\ccJO7VeH.s 			page 20


 862 0112 084B     		ldr	r3, .L39
 863 0114 0022     		movs	r2, #0
 864 0116 1A60     		str	r2, [r3]
 865              	.L35:
 210:Nutrients.c   ****             }        
 211:Nutrients.c   ****         }
 212:Nutrients.c   **** 
 213:Nutrients.c   **** 
 214:Nutrients.c   ****         xQueueSendToBack(xQueueECValue, &imicroECValue, portMAX_DELAY);
 866              		.loc 1 214 0
 867 0118 084B     		ldr	r3, .L39+8
 868 011a 1868     		ldr	r0, [r3]
 869 011c B91C     		adds	r1, r7, #2
 870 011e 0023     		movs	r3, #0
 871 0120 4FF0FF32 		mov	r2, #-1
 872 0124 FFF7FEFF 		bl	xQueueGenericSend
 215:Nutrients.c   ****         vTaskDelay(xDelaymsTimerEvent);
 873              		.loc 1 215 0
 874 0128 7869     		ldr	r0, [r7, #20]
 875 012a FFF7FEFF 		bl	vTaskDelay
 876 012e B546     		mov	sp, r6
 877              	.LBE2:
 216:Nutrients.c   ****     }
 878              		.loc 1 216 0
 879 0130 6FE7     		b	.L38
 880              	.L40:
 881 0132 00BF     		.align	2
 882              	.L39:
 883 0134 00000000 		.word	iECIndex
 884 0138 00000000 		.word	currentNutrients
 885 013c 00000000 		.word	xQueueECValue
 886              		.cfi_endproc
 887              	.LFE73:
 888              		.size	vTaskMeasureEC, .-vTaskMeasureEC
 889              		.section	.rodata
 890 0035 000000   		.align	2
 891              	.LC4:
 892 0038 54657374 		.ascii	"Test Pump 1\000"
 892      2050756D 
 892      70203100 
 893              		.align	2
 894              	.LC5:
 895 0044 54657374 		.ascii	"Test EC print\000"
 895      20454320 
 895      7072696E 
 895      7400
 896              		.section	.text.vTestTaskInit,"ax",%progbits
 897              		.align	2
 898              		.global	vTestTaskInit
 899              		.thumb
 900              		.thumb_func
 901              		.type	vTestTaskInit, %function
 902              	vTestTaskInit:
 903              	.LFB74:
 217:Nutrients.c   **** }
 218:Nutrients.c   **** 
 219:Nutrients.c   **** /* --- TEST TASK --- */
ARM GAS  C:\Users\Emil\AppData\Local\Temp\ccJO7VeH.s 			page 21


 220:Nutrients.c   **** 
 221:Nutrients.c   **** /*
 222:Nutrients.c   ****     Task for testing existing implementations.
 223:Nutrients.c   **** 
 224:Nutrients.c   ****     DO NOT delete this functions/tasks, but comment them out if they aren't nesessary 
 225:Nutrients.c   ****     for your current implementation/testing
 226:Nutrients.c   ****     
 227:Nutrients.c   ****     All test task/functions, must start with (type)Test(Task/Function/Var)(Name)
 228:Nutrients.c   **** 
 229:Nutrients.c   ****     
 230:Nutrients.c   **** */
 231:Nutrients.c   **** 
 232:Nutrients.c   **** void vTestTaskInit(){
 904              		.loc 1 232 0
 905              		.cfi_startproc
 906              		@ args = 0, pretend = 0, frame = 0
 907              		@ frame_needed = 1, uses_anonymous_args = 0
 908 0000 80B5     		push	{r7, lr}
 909              		.cfi_def_cfa_offset 8
 910              		.cfi_offset 7, -8
 911              		.cfi_offset 14, -4
 912 0002 82B0     		sub	sp, sp, #8
 913              		.cfi_def_cfa_offset 16
 914 0004 02AF     		add	r7, sp, #8
 915              		.cfi_def_cfa 7, 8
 233:Nutrients.c   ****     xTaskCreate(vTestTaskNutrientPump, "Test Pump 1", 100, NULL, 1, NULL); 
 916              		.loc 1 233 0
 917 0006 0023     		movs	r3, #0
 918 0008 0193     		str	r3, [sp, #4]
 919 000a 0123     		movs	r3, #1
 920 000c 0093     		str	r3, [sp]
 921 000e 0023     		movs	r3, #0
 922 0010 6422     		movs	r2, #100
 923 0012 0849     		ldr	r1, .L42
 924 0014 0848     		ldr	r0, .L42+4
 925 0016 FFF7FEFF 		bl	xTaskCreate
 234:Nutrients.c   ****    // xTaskCreate(vTestTaskUARTDataTransmit, "Test PH print", 100, NULL, 2, NULL); 
 235:Nutrients.c   ****     xTaskCreate(vTestTaskMeasureEC, "Test EC print", 100, NULL, 2, NULL); 
 926              		.loc 1 235 0
 927 001a 0023     		movs	r3, #0
 928 001c 0193     		str	r3, [sp, #4]
 929 001e 0223     		movs	r3, #2
 930 0020 0093     		str	r3, [sp]
 931 0022 0023     		movs	r3, #0
 932 0024 6422     		movs	r2, #100
 933 0026 0549     		ldr	r1, .L42+8
 934 0028 0548     		ldr	r0, .L42+12
 935 002a FFF7FEFF 		bl	xTaskCreate
 236:Nutrients.c   **** }
 936              		.loc 1 236 0
 937 002e 00BF     		nop
 938 0030 BD46     		mov	sp, r7
 939              		.cfi_def_cfa_register 13
 940              		@ sp needed
 941 0032 80BD     		pop	{r7, pc}
 942              	.L43:
 943              		.align	2
ARM GAS  C:\Users\Emil\AppData\Local\Temp\ccJO7VeH.s 			page 22


 944              	.L42:
 945 0034 38000000 		.word	.LC4
 946 0038 00000000 		.word	vTestTaskNutrientPump
 947 003c 44000000 		.word	.LC5
 948 0040 00000000 		.word	vTestTaskMeasureEC
 949              		.cfi_endproc
 950              	.LFE74:
 951              		.size	vTestTaskInit, .-vTestTaskInit
 952              		.section	.rodata
 953 0052 0000     		.align	2
 954              	.LC6:
 955 0054 693A2000 		.ascii	"i: \000"
 956              		.align	2
 957              	.LC7:
 958 0058 20307800 		.ascii	" 0x\000"
 959              		.align	2
 960              	.LC8:
 961 005c 0A00     		.ascii	"\012\000"
 962              		.section	.text.vTestTaskUARTDataTransmit,"ax",%progbits
 963              		.align	2
 964              		.global	vTestTaskUARTDataTransmit
 965              		.thumb
 966              		.thumb_func
 967              		.type	vTestTaskUARTDataTransmit, %function
 968              	vTestTaskUARTDataTransmit:
 969              	.LFB75:
 237:Nutrients.c   **** 
 238:Nutrients.c   **** 
 239:Nutrients.c   **** void vTestTaskUARTDataTransmit(){
 970              		.loc 1 239 0
 971              		.cfi_startproc
 972              		@ args = 0, pretend = 0, frame = 8
 973              		@ frame_needed = 1, uses_anonymous_args = 0
 974 0000 80B5     		push	{r7, lr}
 975              		.cfi_def_cfa_offset 8
 976              		.cfi_offset 7, -8
 977              		.cfi_offset 14, -4
 978 0002 82B0     		sub	sp, sp, #8
 979              		.cfi_def_cfa_offset 16
 980 0004 00AF     		add	r7, sp, #0
 981              		.cfi_def_cfa_register 7
 982              	.L45:
 240:Nutrients.c   ****     uint16 iPHValueForPrint;
 241:Nutrients.c   ****     for(;;){
 242:Nutrients.c   ****         xQueueReceive( xQueuePHValue, &iPHValueForPrint, portMAX_DELAY );
 983              		.loc 1 242 0 discriminator 1
 984 0006 124B     		ldr	r3, .L46
 985 0008 1B68     		ldr	r3, [r3]
 986 000a B91D     		adds	r1, r7, #6
 987 000c 4FF0FF32 		mov	r2, #-1
 988 0010 1846     		mov	r0, r3
 989 0012 FFF7FEFF 		bl	xQueueReceive
 243:Nutrients.c   ****         SW_UART_TEST_USB_PutString("i: ");
 990              		.loc 1 243 0 discriminator 1
 991 0016 0F48     		ldr	r0, .L46+4
 992 0018 FFF7FEFF 		bl	SW_UART_TEST_USB_PutString
 244:Nutrients.c   ****         SW_UART_TEST_USB_PutHexInt(iPHIndex);
ARM GAS  C:\Users\Emil\AppData\Local\Temp\ccJO7VeH.s 			page 23


 993              		.loc 1 244 0 discriminator 1
 994 001c 0E4B     		ldr	r3, .L46+8
 995 001e 1B68     		ldr	r3, [r3]
 996 0020 9BB2     		uxth	r3, r3
 997 0022 1846     		mov	r0, r3
 998 0024 FFF7FEFF 		bl	SW_UART_TEST_USB_PutHexInt
 245:Nutrients.c   ****         SW_UART_TEST_USB_PutString(" 0x");
 999              		.loc 1 245 0 discriminator 1
 1000 0028 0C48     		ldr	r0, .L46+12
 1001 002a FFF7FEFF 		bl	SW_UART_TEST_USB_PutString
 246:Nutrients.c   ****         SW_UART_TEST_USB_PutHexInt(currentNutrients[iPHIndex].iPHvalue);
 1002              		.loc 1 246 0 discriminator 1
 1003 002e 0A4B     		ldr	r3, .L46+8
 1004 0030 1A68     		ldr	r2, [r3]
 1005 0032 0B49     		ldr	r1, .L46+16
 1006 0034 1346     		mov	r3, r2
 1007 0036 5B00     		lsls	r3, r3, #1
 1008 0038 1344     		add	r3, r3, r2
 1009 003a 5B00     		lsls	r3, r3, #1
 1010 003c 0B44     		add	r3, r3, r1
 1011 003e 1B88     		ldrh	r3, [r3]
 1012 0040 1846     		mov	r0, r3
 1013 0042 FFF7FEFF 		bl	SW_UART_TEST_USB_PutHexInt
 247:Nutrients.c   ****         SW_UART_TEST_USB_PutString("\n");
 1014              		.loc 1 247 0 discriminator 1
 1015 0046 0748     		ldr	r0, .L46+20
 1016 0048 FFF7FEFF 		bl	SW_UART_TEST_USB_PutString
 248:Nutrients.c   ****     }
 1017              		.loc 1 248 0 discriminator 1
 1018 004c DBE7     		b	.L45
 1019              	.L47:
 1020 004e 00BF     		.align	2
 1021              	.L46:
 1022 0050 00000000 		.word	xQueuePHValue
 1023 0054 54000000 		.word	.LC6
 1024 0058 00000000 		.word	iPHIndex
 1025 005c 58000000 		.word	.LC7
 1026 0060 00000000 		.word	currentNutrients
 1027 0064 5C000000 		.word	.LC8
 1028              		.cfi_endproc
 1029              	.LFE75:
 1030              		.size	vTestTaskUARTDataTransmit, .-vTestTaskUARTDataTransmit
 1031              		.section	.text.vTestTaskNutrientPump,"ax",%progbits
 1032              		.align	2
 1033              		.global	vTestTaskNutrientPump
 1034              		.thumb
 1035              		.thumb_func
 1036              		.type	vTestTaskNutrientPump, %function
 1037              	vTestTaskNutrientPump:
 1038              	.LFB76:
 249:Nutrients.c   **** }
 250:Nutrients.c   **** 
 251:Nutrients.c   **** 
 252:Nutrients.c   **** 
 253:Nutrients.c   **** void vTestTaskNutrientPump() {
 1039              		.loc 1 253 0
 1040              		.cfi_startproc
ARM GAS  C:\Users\Emil\AppData\Local\Temp\ccJO7VeH.s 			page 24


 1041              		@ args = 0, pretend = 0, frame = 8
 1042              		@ frame_needed = 1, uses_anonymous_args = 0
 1043 0000 80B5     		push	{r7, lr}
 1044              		.cfi_def_cfa_offset 8
 1045              		.cfi_offset 7, -8
 1046              		.cfi_offset 14, -4
 1047 0002 82B0     		sub	sp, sp, #8
 1048              		.cfi_def_cfa_offset 16
 1049 0004 00AF     		add	r7, sp, #0
 1050              		.cfi_def_cfa_register 7
 254:Nutrients.c   ****     _Bool bTestState1 = 1;
 1051              		.loc 1 254 0
 1052 0006 0123     		movs	r3, #1
 1053 0008 FB70     		strb	r3, [r7, #3]
 255:Nutrients.c   ****     _Bool bTestState2 = 0;
 1054              		.loc 1 255 0
 1055 000a 0023     		movs	r3, #0
 1056 000c BB70     		strb	r3, [r7, #2]
 256:Nutrients.c   ****     const TickType_t xDelayms = pdMS_TO_TICKS( 200 );
 1057              		.loc 1 256 0
 1058 000e C823     		movs	r3, #200
 1059 0010 7B60     		str	r3, [r7, #4]
 1060              	.L51:
 257:Nutrients.c   ****     
 258:Nutrients.c   ****     for(;;) {
 259:Nutrients.c   ****         if(bTestState1 == 1) {
 1061              		.loc 1 259 0
 1062 0012 FB78     		ldrb	r3, [r7, #3]	@ zero_extendqisi2
 1063 0014 002B     		cmp	r3, #0
 1064 0016 04D0     		beq	.L49
 260:Nutrients.c   ****             bTestState1 = 0;
 1065              		.loc 1 260 0
 1066 0018 0023     		movs	r3, #0
 1067 001a FB70     		strb	r3, [r7, #3]
 261:Nutrients.c   ****             bTestState2 = 1;
 1068              		.loc 1 261 0
 1069 001c 0123     		movs	r3, #1
 1070 001e BB70     		strb	r3, [r7, #2]
 1071 0020 03E0     		b	.L50
 1072              	.L49:
 262:Nutrients.c   ****         }
 263:Nutrients.c   ****         else {
 264:Nutrients.c   ****             bTestState1 = 1;
 1073              		.loc 1 264 0
 1074 0022 0123     		movs	r3, #1
 1075 0024 FB70     		strb	r3, [r7, #3]
 265:Nutrients.c   ****             bTestState2 = 0;
 1076              		.loc 1 265 0
 1077 0026 0023     		movs	r3, #0
 1078 0028 BB70     		strb	r3, [r7, #2]
 1079              	.L50:
 266:Nutrients.c   ****         }
 267:Nutrients.c   ****         xQueueSendToBack(xQueueNutrientPump[0], &bTestState1, portMAX_DELAY);
 1080              		.loc 1 267 0
 1081 002a 0E4B     		ldr	r3, .L52
 1082 002c 1868     		ldr	r0, [r3]
 1083 002e F91C     		adds	r1, r7, #3
ARM GAS  C:\Users\Emil\AppData\Local\Temp\ccJO7VeH.s 			page 25


 1084 0030 0023     		movs	r3, #0
 1085 0032 4FF0FF32 		mov	r2, #-1
 1086 0036 FFF7FEFF 		bl	xQueueGenericSend
 268:Nutrients.c   ****         xQueueSendToBack(xQueueNutrientPump[1], &bTestState2, portMAX_DELAY);
 1087              		.loc 1 268 0
 1088 003a 0A4B     		ldr	r3, .L52
 1089 003c 5868     		ldr	r0, [r3, #4]
 1090 003e B91C     		adds	r1, r7, #2
 1091 0040 0023     		movs	r3, #0
 1092 0042 4FF0FF32 		mov	r2, #-1
 1093 0046 FFF7FEFF 		bl	xQueueGenericSend
 269:Nutrients.c   ****         xQueueSendToBack(xQueueNutrientPump[2], &bTestState1, portMAX_DELAY);
 1094              		.loc 1 269 0
 1095 004a 064B     		ldr	r3, .L52
 1096 004c 9868     		ldr	r0, [r3, #8]
 1097 004e F91C     		adds	r1, r7, #3
 1098 0050 0023     		movs	r3, #0
 1099 0052 4FF0FF32 		mov	r2, #-1
 1100 0056 FFF7FEFF 		bl	xQueueGenericSend
 270:Nutrients.c   ****         vTaskDelay(xDelayms);
 1101              		.loc 1 270 0
 1102 005a 7868     		ldr	r0, [r7, #4]
 1103 005c FFF7FEFF 		bl	vTaskDelay
 271:Nutrients.c   ****     }
 1104              		.loc 1 271 0
 1105 0060 D7E7     		b	.L51
 1106              	.L53:
 1107 0062 00BF     		.align	2
 1108              	.L52:
 1109 0064 00000000 		.word	xQueueNutrientPump
 1110              		.cfi_endproc
 1111              	.LFE76:
 1112              		.size	vTestTaskNutrientPump, .-vTestTaskNutrientPump
 1113              		.section	.rodata
 1114 005e 0000     		.align	2
 1115              	.LC9:
 1116 0060 45435661 		.ascii	"ECValue\000"
 1116      6C756500 
 1117              		.align	2
 1118              	.LC10:
 1119 0068 0A2000   		.ascii	"\012 \000"
 1120              		.section	.text.vTestTaskMeasureEC,"ax",%progbits
 1121              		.align	2
 1122              		.global	vTestTaskMeasureEC
 1123              		.thumb
 1124              		.thumb_func
 1125              		.type	vTestTaskMeasureEC, %function
 1126              	vTestTaskMeasureEC:
 1127              	.LFB77:
 272:Nutrients.c   **** }
 273:Nutrients.c   **** 
 274:Nutrients.c   **** void vTestTaskMeasureEC (){
 1128              		.loc 1 274 0
 1129              		.cfi_startproc
 1130              		@ args = 0, pretend = 0, frame = 8
 1131              		@ frame_needed = 1, uses_anonymous_args = 0
 1132 0000 80B5     		push	{r7, lr}
ARM GAS  C:\Users\Emil\AppData\Local\Temp\ccJO7VeH.s 			page 26


 1133              		.cfi_def_cfa_offset 8
 1134              		.cfi_offset 7, -8
 1135              		.cfi_offset 14, -4
 1136 0002 82B0     		sub	sp, sp, #8
 1137              		.cfi_def_cfa_offset 16
 1138 0004 00AF     		add	r7, sp, #0
 1139              		.cfi_def_cfa_register 7
 1140              	.L55:
 275:Nutrients.c   ****     uint16 testValueEC;
 276:Nutrients.c   ****     for(;;){
 277:Nutrients.c   ****         xQueueReceive(xQueueECValue, &testValueEC, portMAX_DELAY);
 1141              		.loc 1 277 0 discriminator 1
 1142 0006 094B     		ldr	r3, .L56
 1143 0008 1B68     		ldr	r3, [r3]
 1144 000a B91D     		adds	r1, r7, #6
 1145 000c 4FF0FF32 		mov	r2, #-1
 1146 0010 1846     		mov	r0, r3
 1147 0012 FFF7FEFF 		bl	xQueueReceive
 278:Nutrients.c   ****         SW_UART_TEST_USB_PutString("ECValue");
 1148              		.loc 1 278 0 discriminator 1
 1149 0016 0648     		ldr	r0, .L56+4
 1150 0018 FFF7FEFF 		bl	SW_UART_TEST_USB_PutString
 279:Nutrients.c   ****         SW_UART_TEST_USB_PutHexInt(testValueEC);
 1151              		.loc 1 279 0 discriminator 1
 1152 001c FB88     		ldrh	r3, [r7, #6]
 1153 001e 1846     		mov	r0, r3
 1154 0020 FFF7FEFF 		bl	SW_UART_TEST_USB_PutHexInt
 280:Nutrients.c   ****         SW_UART_TEST_USB_PutString("\n ");
 1155              		.loc 1 280 0 discriminator 1
 1156 0024 0348     		ldr	r0, .L56+8
 1157 0026 FFF7FEFF 		bl	SW_UART_TEST_USB_PutString
 281:Nutrients.c   ****     }
 1158              		.loc 1 281 0 discriminator 1
 1159 002a ECE7     		b	.L55
 1160              	.L57:
 1161              		.align	2
 1162              	.L56:
 1163 002c 00000000 		.word	xQueueECValue
 1164 0030 60000000 		.word	.LC9
 1165 0034 68000000 		.word	.LC10
 1166              		.cfi_endproc
 1167              	.LFE77:
 1168              		.size	vTestTaskMeasureEC, .-vTestTaskMeasureEC
 1169              		.text
 1170              	.Letext0:
 1171              		.file 2 "c:\\program files (x86)\\cypress\\psoc creator\\4.3\\psoc creator\\import\\gnu\\arm\\5.4.
 1172              		.file 3 "c:\\program files (x86)\\cypress\\psoc creator\\4.3\\psoc creator\\import\\gnu\\arm\\5.4.
 1173              		.file 4 "Generated_Source\\PSoC5/cytypes.h"
 1174              		.file 5 ".\\Source\\portable\\GCC\\ARM_CM3/portmacro.h"
 1175              		.file 6 ".\\Source\\include/queue.h"
 1176              		.file 7 "Generated_Source\\PSoC5/core_cm3.h"
 1177              		.section	.debug_info,"",%progbits
 1178              	.Ldebug_info0:
 1179 0000 ED040000 		.4byte	0x4ed
 1180 0004 0400     		.2byte	0x4
 1181 0006 00000000 		.4byte	.Ldebug_abbrev0
 1182 000a 04       		.byte	0x4
ARM GAS  C:\Users\Emil\AppData\Local\Temp\ccJO7VeH.s 			page 27


 1183 000b 01       		.uleb128 0x1
 1184 000c 87000000 		.4byte	.LASF72
 1185 0010 0C       		.byte	0xc
 1186 0011 6C030000 		.4byte	.LASF73
 1187 0015 BE030000 		.4byte	.LASF74
 1188 0019 00000000 		.4byte	.Ldebug_ranges0+0
 1189 001d 00000000 		.4byte	0
 1190 0021 00000000 		.4byte	.Ldebug_line0
 1191 0025 02       		.uleb128 0x2
 1192 0026 04       		.byte	0x4
 1193 0027 05       		.byte	0x5
 1194 0028 696E7400 		.ascii	"int\000"
 1195 002c 03       		.uleb128 0x3
 1196 002d 04       		.byte	0x4
 1197 002e 07       		.byte	0x7
 1198 002f 9A020000 		.4byte	.LASF0
 1199 0033 03       		.uleb128 0x3
 1200 0034 08       		.byte	0x8
 1201 0035 05       		.byte	0x5
 1202 0036 B6010000 		.4byte	.LASF1
 1203 003a 03       		.uleb128 0x3
 1204 003b 08       		.byte	0x8
 1205 003c 04       		.byte	0x4
 1206 003d 2B020000 		.4byte	.LASF2
 1207 0041 03       		.uleb128 0x3
 1208 0042 01       		.byte	0x1
 1209 0043 06       		.byte	0x6
 1210 0044 5C020000 		.4byte	.LASF3
 1211 0048 04       		.uleb128 0x4
 1212 0049 FA010000 		.4byte	.LASF7
 1213 004d 02       		.byte	0x2
 1214 004e 1D       		.byte	0x1d
 1215 004f 53000000 		.4byte	0x53
 1216 0053 03       		.uleb128 0x3
 1217 0054 01       		.byte	0x1
 1218 0055 08       		.byte	0x8
 1219 0056 41020000 		.4byte	.LASF4
 1220 005a 03       		.uleb128 0x3
 1221 005b 02       		.byte	0x2
 1222 005c 05       		.byte	0x5
 1223 005d 5B000000 		.4byte	.LASF5
 1224 0061 03       		.uleb128 0x3
 1225 0062 02       		.byte	0x2
 1226 0063 07       		.byte	0x7
 1227 0064 1D030000 		.4byte	.LASF6
 1228 0068 04       		.uleb128 0x4
 1229 0069 27040000 		.4byte	.LASF8
 1230 006d 02       		.byte	0x2
 1231 006e 3F       		.byte	0x3f
 1232 006f 73000000 		.4byte	0x73
 1233 0073 03       		.uleb128 0x3
 1234 0074 04       		.byte	0x4
 1235 0075 05       		.byte	0x5
 1236 0076 DB010000 		.4byte	.LASF9
 1237 007a 04       		.uleb128 0x4
 1238 007b B3030000 		.4byte	.LASF10
 1239 007f 02       		.byte	0x2
ARM GAS  C:\Users\Emil\AppData\Local\Temp\ccJO7VeH.s 			page 28


 1240 0080 41       		.byte	0x41
 1241 0081 85000000 		.4byte	0x85
 1242 0085 03       		.uleb128 0x3
 1243 0086 04       		.byte	0x4
 1244 0087 07       		.byte	0x7
 1245 0088 78030000 		.4byte	.LASF11
 1246 008c 03       		.uleb128 0x3
 1247 008d 08       		.byte	0x8
 1248 008e 07       		.byte	0x7
 1249 008f 68020000 		.4byte	.LASF12
 1250 0093 04       		.uleb128 0x4
 1251 0094 75010000 		.4byte	.LASF13
 1252 0098 03       		.byte	0x3
 1253 0099 18       		.byte	0x18
 1254 009a 48000000 		.4byte	0x48
 1255 009e 04       		.uleb128 0x4
 1256 009f 15030000 		.4byte	.LASF14
 1257 00a3 03       		.byte	0x3
 1258 00a4 2C       		.byte	0x2c
 1259 00a5 68000000 		.4byte	0x68
 1260 00a9 04       		.uleb128 0x4
 1261 00aa 91020000 		.4byte	.LASF15
 1262 00ae 03       		.byte	0x3
 1263 00af 30       		.byte	0x30
 1264 00b0 7A000000 		.4byte	0x7a
 1265 00b4 05       		.uleb128 0x5
 1266 00b5 86010000 		.4byte	.LASF16
 1267 00b9 04       		.byte	0x4
 1268 00ba E401     		.2byte	0x1e4
 1269 00bc 53000000 		.4byte	0x53
 1270 00c0 05       		.uleb128 0x5
 1271 00c1 4A010000 		.4byte	.LASF17
 1272 00c5 04       		.byte	0x4
 1273 00c6 E501     		.2byte	0x1e5
 1274 00c8 61000000 		.4byte	0x61
 1275 00cc 03       		.uleb128 0x3
 1276 00cd 04       		.byte	0x4
 1277 00ce 04       		.byte	0x4
 1278 00cf 96010000 		.4byte	.LASF18
 1279 00d3 03       		.uleb128 0x3
 1280 00d4 08       		.byte	0x8
 1281 00d5 04       		.byte	0x4
 1282 00d6 8A030000 		.4byte	.LASF19
 1283 00da 03       		.uleb128 0x3
 1284 00db 01       		.byte	0x1
 1285 00dc 08       		.byte	0x8
 1286 00dd 10030000 		.4byte	.LASF20
 1287 00e1 03       		.uleb128 0x3
 1288 00e2 04       		.byte	0x4
 1289 00e3 07       		.byte	0x7
 1290 00e4 65000000 		.4byte	.LASF21
 1291 00e8 06       		.uleb128 0x6
 1292 00e9 04       		.byte	0x4
 1293 00ea 04       		.uleb128 0x4
 1294 00eb BD020000 		.4byte	.LASF22
 1295 00ef 05       		.byte	0x5
 1296 00f0 38       		.byte	0x38
ARM GAS  C:\Users\Emil\AppData\Local\Temp\ccJO7VeH.s 			page 29


 1297 00f1 73000000 		.4byte	0x73
 1298 00f5 04       		.uleb128 0x4
 1299 00f6 20020000 		.4byte	.LASF23
 1300 00fa 05       		.byte	0x5
 1301 00fb 3F       		.byte	0x3f
 1302 00fc A9000000 		.4byte	0xa9
 1303 0100 04       		.uleb128 0x4
 1304 0101 04020000 		.4byte	.LASF24
 1305 0105 06       		.byte	0x6
 1306 0106 30       		.byte	0x30
 1307 0107 0B010000 		.4byte	0x10b
 1308 010b 07       		.uleb128 0x7
 1309 010c 04       		.byte	0x4
 1310 010d 11010000 		.4byte	0x111
 1311 0111 08       		.uleb128 0x8
 1312 0112 E4020000 		.4byte	.LASF75
 1313 0116 09       		.uleb128 0x9
 1314 0117 37020000 		.4byte	.LASF76
 1315 011b 06       		.byte	0x6
 1316 011c 01       		.byte	0x1
 1317 011d 16       		.byte	0x16
 1318 011e 47010000 		.4byte	0x147
 1319 0122 0A       		.uleb128 0xa
 1320 0123 C4010000 		.4byte	.LASF25
 1321 0127 01       		.byte	0x1
 1322 0128 17       		.byte	0x17
 1323 0129 C0000000 		.4byte	0xc0
 1324 012d 00       		.byte	0
 1325 012e 0A       		.uleb128 0xa
 1326 012f E4010000 		.4byte	.LASF26
 1327 0133 01       		.byte	0x1
 1328 0134 18       		.byte	0x18
 1329 0135 C0000000 		.4byte	0xc0
 1330 0139 02       		.byte	0x2
 1331 013a 0A       		.uleb128 0xa
 1332 013b 61030000 		.4byte	.LASF27
 1333 013f 01       		.byte	0x1
 1334 0140 19       		.byte	0x19
 1335 0141 C0000000 		.4byte	0xc0
 1336 0145 04       		.byte	0x4
 1337 0146 00       		.byte	0
 1338 0147 0B       		.uleb128 0xb
 1339 0148 3D030000 		.4byte	.LASF49
 1340 014c 01       		.byte	0x1
 1341 014d 2F       		.byte	0x2f
 1342 014e 00000000 		.4byte	.LFB69
 1343 0152 00010000 		.4byte	.LFE69-.LFB69
 1344 0156 01       		.uleb128 0x1
 1345 0157 9C       		.byte	0x9c
 1346 0158 0C       		.uleb128 0xc
 1347 0159 7F020000 		.4byte	.LASF77
 1348 015d 01       		.byte	0x1
 1349 015e 4D       		.byte	0x4d
 1350 015f 00000000 		.4byte	.LFB70
 1351 0163 C8000000 		.4byte	.LFE70-.LFB70
 1352 0167 01       		.uleb128 0x1
 1353 0168 9C       		.byte	0x9c
ARM GAS  C:\Users\Emil\AppData\Local\Temp\ccJO7VeH.s 			page 30


 1354 0169 A6010000 		.4byte	0x1a6
 1355 016d 0D       		.uleb128 0xd
 1356 016e 4A040000 		.4byte	.LASF37
 1357 0172 01       		.byte	0x1
 1358 0173 4D       		.byte	0x4d
 1359 0174 E8000000 		.4byte	0xe8
 1360 0178 02       		.uleb128 0x2
 1361 0179 91       		.byte	0x91
 1362 017a 64       		.sleb128 -28
 1363 017b 0E       		.uleb128 0xe
 1364 017c 84040000 		.4byte	.LASF28
 1365 0180 01       		.byte	0x1
 1366 0181 4E       		.byte	0x4e
 1367 0182 A6010000 		.4byte	0x1a6
 1368 0186 02       		.uleb128 0x2
 1369 0187 91       		.byte	0x91
 1370 0188 6F       		.sleb128 -17
 1371 0189 0E       		.uleb128 0xe
 1372 018a 7F000000 		.4byte	.LASF29
 1373 018e 01       		.byte	0x1
 1374 018f 4F       		.byte	0x4f
 1375 0190 EA000000 		.4byte	0xea
 1376 0194 02       		.uleb128 0x2
 1377 0195 91       		.byte	0x91
 1378 0196 70       		.sleb128 -16
 1379 0197 0E       		.uleb128 0xe
 1380 0198 57040000 		.4byte	.LASF30
 1381 019c 01       		.byte	0x1
 1382 019d 50       		.byte	0x50
 1383 019e AD010000 		.4byte	0x1ad
 1384 01a2 02       		.uleb128 0x2
 1385 01a3 91       		.byte	0x91
 1386 01a4 74       		.sleb128 -12
 1387 01a5 00       		.byte	0
 1388 01a6 03       		.uleb128 0x3
 1389 01a7 01       		.byte	0x1
 1390 01a8 02       		.byte	0x2
 1391 01a9 37030000 		.4byte	.LASF31
 1392 01ad 07       		.uleb128 0x7
 1393 01ae 04       		.byte	0x4
 1394 01af B4000000 		.4byte	0xb4
 1395 01b3 0F       		.uleb128 0xf
 1396 01b4 3B040000 		.4byte	.LASF40
 1397 01b8 01       		.byte	0x1
 1398 01b9 7E       		.byte	0x7e
 1399 01ba 00000000 		.4byte	.LFB71
 1400 01be E0000000 		.4byte	.LFE71-.LFB71
 1401 01c2 01       		.uleb128 0x1
 1402 01c3 9C       		.byte	0x9c
 1403 01c4 1D020000 		.4byte	0x21d
 1404 01c8 0E       		.uleb128 0xe
 1405 01c9 9C010000 		.4byte	.LASF32
 1406 01cd 01       		.byte	0x1
 1407 01ce 7F       		.byte	0x7f
 1408 01cf CC000000 		.4byte	0xcc
 1409 01d3 02       		.uleb128 0x2
 1410 01d4 91       		.byte	0x91
ARM GAS  C:\Users\Emil\AppData\Local\Temp\ccJO7VeH.s 			page 31


 1411 01d5 64       		.sleb128 -28
 1412 01d6 0E       		.uleb128 0xe
 1413 01d7 41010000 		.4byte	.LASF33
 1414 01db 01       		.byte	0x1
 1415 01dc 80       		.byte	0x80
 1416 01dd 1D020000 		.4byte	0x21d
 1417 01e1 02       		.uleb128 0x2
 1418 01e2 91       		.byte	0x91
 1419 01e3 68       		.sleb128 -24
 1420 01e4 0E       		.uleb128 0xe
 1421 01e5 C8020000 		.4byte	.LASF34
 1422 01e9 01       		.byte	0x1
 1423 01ea 81       		.byte	0x81
 1424 01eb CC000000 		.4byte	0xcc
 1425 01ef 02       		.uleb128 0x2
 1426 01f0 91       		.byte	0x91
 1427 01f1 60       		.sleb128 -32
 1428 01f2 0E       		.uleb128 0xe
 1429 01f3 1C000000 		.4byte	.LASF35
 1430 01f7 01       		.byte	0x1
 1431 01f8 82       		.byte	0x82
 1432 01f9 CC000000 		.4byte	0xcc
 1433 01fd 02       		.uleb128 0x2
 1434 01fe 91       		.byte	0x91
 1435 01ff 5C       		.sleb128 -36
 1436 0200 0E       		.uleb128 0xe
 1437 0201 CD010000 		.4byte	.LASF36
 1438 0205 01       		.byte	0x1
 1439 0206 83       		.byte	0x83
 1440 0207 C0000000 		.4byte	0xc0
 1441 020b 02       		.uleb128 0x2
 1442 020c 91       		.byte	0x91
 1443 020d 5A       		.sleb128 -38
 1444 020e 0E       		.uleb128 0xe
 1445 020f 84040000 		.4byte	.LASF28
 1446 0213 01       		.byte	0x1
 1447 0214 84       		.byte	0x84
 1448 0215 A6010000 		.4byte	0x1a6
 1449 0219 02       		.uleb128 0x2
 1450 021a 91       		.byte	0x91
 1451 021b 6F       		.sleb128 -17
 1452 021c 00       		.byte	0
 1453 021d 10       		.uleb128 0x10
 1454 021e F5000000 		.4byte	0xf5
 1455 0222 11       		.uleb128 0x11
 1456 0223 15040000 		.4byte	.LASF78
 1457 0227 01       		.byte	0x1
 1458 0228 9D       		.byte	0x9d
 1459 0229 CC000000 		.4byte	0xcc
 1460 022d 00000000 		.4byte	.LFB72
 1461 0231 68010000 		.4byte	.LFE72-.LFB72
 1462 0235 01       		.uleb128 0x1
 1463 0236 9C       		.byte	0x9c
 1464 0237 66020000 		.4byte	0x266
 1465 023b 0D       		.uleb128 0xd
 1466 023c 9C010000 		.4byte	.LASF32
 1467 0240 01       		.byte	0x1
ARM GAS  C:\Users\Emil\AppData\Local\Temp\ccJO7VeH.s 			page 32


 1468 0241 9D       		.byte	0x9d
 1469 0242 CC000000 		.4byte	0xcc
 1470 0246 02       		.uleb128 0x2
 1471 0247 91       		.byte	0x91
 1472 0248 64       		.sleb128 -28
 1473 0249 0E       		.uleb128 0xe
 1474 024a 30030000 		.4byte	.LASF38
 1475 024e 01       		.byte	0x1
 1476 024f 9E       		.byte	0x9e
 1477 0250 CC000000 		.4byte	0xcc
 1478 0254 02       		.uleb128 0x2
 1479 0255 91       		.byte	0x91
 1480 0256 6C       		.sleb128 -20
 1481 0257 0E       		.uleb128 0xe
 1482 0258 36010000 		.4byte	.LASF39
 1483 025c 01       		.byte	0x1
 1484 025d 9F       		.byte	0x9f
 1485 025e CC000000 		.4byte	0xcc
 1486 0262 02       		.uleb128 0x2
 1487 0263 91       		.byte	0x91
 1488 0264 68       		.sleb128 -24
 1489 0265 00       		.byte	0
 1490 0266 0F       		.uleb128 0xf
 1491 0267 A7010000 		.4byte	.LASF41
 1492 026b 01       		.byte	0x1
 1493 026c A5       		.byte	0xa5
 1494 026d 00000000 		.4byte	.LFB73
 1495 0271 40010000 		.4byte	.LFE73-.LFB73
 1496 0275 01       		.uleb128 0x1
 1497 0276 9C       		.byte	0x9c
 1498 0277 FF020000 		.4byte	0x2ff
 1499 027b 0E       		.uleb128 0xe
 1500 027c 4D000000 		.4byte	.LASF42
 1501 0280 01       		.byte	0x1
 1502 0281 A7       		.byte	0xa7
 1503 0282 CC000000 		.4byte	0xcc
 1504 0286 02       		.uleb128 0x2
 1505 0287 91       		.byte	0x91
 1506 0288 44       		.sleb128 -60
 1507 0289 0E       		.uleb128 0xe
 1508 028a 28010000 		.4byte	.LASF43
 1509 028e 01       		.byte	0x1
 1510 028f A9       		.byte	0xa9
 1511 0290 C0000000 		.4byte	0xc0
 1512 0294 02       		.uleb128 0x2
 1513 0295 91       		.byte	0x91
 1514 0296 42       		.sleb128 -62
 1515 0297 0E       		.uleb128 0xe
 1516 0298 3A000000 		.4byte	.LASF44
 1517 029c 01       		.byte	0x1
 1518 029d AA       		.byte	0xaa
 1519 029e 1D020000 		.4byte	0x21d
 1520 02a2 02       		.uleb128 0x2
 1521 02a3 91       		.byte	0x91
 1522 02a4 58       		.sleb128 -40
 1523 02a5 0E       		.uleb128 0xe
 1524 02a6 A0030000 		.4byte	.LASF45
ARM GAS  C:\Users\Emil\AppData\Local\Temp\ccJO7VeH.s 			page 33


 1525 02aa 01       		.byte	0x1
 1526 02ab AB       		.byte	0xab
 1527 02ac 1D020000 		.4byte	0x21d
 1528 02b0 02       		.uleb128 0x2
 1529 02b1 91       		.byte	0x91
 1530 02b2 54       		.sleb128 -44
 1531 02b3 12       		.uleb128 0x12
 1532 02b4 12000000 		.4byte	.LBB2
 1533 02b8 1E010000 		.4byte	.LBE2-.LBB2
 1534 02bc 0E       		.uleb128 0xe
 1535 02bd 6B010000 		.4byte	.LASF46
 1536 02c1 01       		.byte	0x1
 1537 02c2 AF       		.byte	0xaf
 1538 02c3 FF020000 		.4byte	0x2ff
 1539 02c7 02       		.uleb128 0x2
 1540 02c8 91       		.byte	0x91
 1541 02c9 40       		.sleb128 -64
 1542 02ca 0E       		.uleb128 0xe
 1543 02cb 4F020000 		.4byte	.LASF47
 1544 02cf 01       		.byte	0x1
 1545 02d0 BB       		.byte	0xbb
 1546 02d1 25000000 		.4byte	0x25
 1547 02d5 02       		.uleb128 0x2
 1548 02d6 91       		.byte	0x91
 1549 02d7 50       		.sleb128 -48
 1550 02d8 0E       		.uleb128 0xe
 1551 02d9 8C010000 		.4byte	.LASF48
 1552 02dd 01       		.byte	0x1
 1553 02de BC       		.byte	0xbc
 1554 02df 0F030000 		.4byte	0x30f
 1555 02e3 03       		.uleb128 0x3
 1556 02e4 91       		.byte	0x91
 1557 02e5 48       		.sleb128 -56
 1558 02e6 06       		.byte	0x6
 1559 02e7 12       		.uleb128 0x12
 1560 02e8 A8000000 		.4byte	.LBB3
 1561 02ec 26000000 		.4byte	.LBE3-.LBB3
 1562 02f0 13       		.uleb128 0x13
 1563 02f1 6900     		.ascii	"i\000"
 1564 02f3 01       		.byte	0x1
 1565 02f4 C7       		.byte	0xc7
 1566 02f5 25000000 		.4byte	0x25
 1567 02f9 02       		.uleb128 0x2
 1568 02fa 91       		.byte	0x91
 1569 02fb 5C       		.sleb128 -36
 1570 02fc 00       		.byte	0
 1571 02fd 00       		.byte	0
 1572 02fe 00       		.byte	0
 1573 02ff 14       		.uleb128 0x14
 1574 0300 53000000 		.4byte	0x53
 1575 0304 0F030000 		.4byte	0x30f
 1576 0308 15       		.uleb128 0x15
 1577 0309 E1000000 		.4byte	0xe1
 1578 030d 01       		.byte	0x1
 1579 030e 00       		.byte	0
 1580 030f 14       		.uleb128 0x14
 1581 0310 DA000000 		.4byte	0xda
ARM GAS  C:\Users\Emil\AppData\Local\Temp\ccJO7VeH.s 			page 34


 1582 0314 22030000 		.4byte	0x322
 1583 0318 16       		.uleb128 0x16
 1584 0319 E1000000 		.4byte	0xe1
 1585 031d 03       		.uleb128 0x3
 1586 031e 91       		.byte	0x91
 1587 031f 4C       		.sleb128 -52
 1588 0320 06       		.byte	0x6
 1589 0321 00       		.byte	0
 1590 0322 0B       		.uleb128 0xb
 1591 0323 00000000 		.4byte	.LASF50
 1592 0327 01       		.byte	0x1
 1593 0328 E8       		.byte	0xe8
 1594 0329 00000000 		.4byte	.LFB74
 1595 032d 44000000 		.4byte	.LFE74-.LFB74
 1596 0331 01       		.uleb128 0x1
 1597 0332 9C       		.byte	0x9c
 1598 0333 0F       		.uleb128 0xf
 1599 0334 51010000 		.4byte	.LASF51
 1600 0338 01       		.byte	0x1
 1601 0339 EF       		.byte	0xef
 1602 033a 00000000 		.4byte	.LFB75
 1603 033e 68000000 		.4byte	.LFE75-.LFB75
 1604 0342 01       		.uleb128 0x1
 1605 0343 9C       		.byte	0x9c
 1606 0344 57030000 		.4byte	0x357
 1607 0348 0E       		.uleb128 0xe
 1608 0349 FF020000 		.4byte	.LASF52
 1609 034d 01       		.byte	0x1
 1610 034e F0       		.byte	0xf0
 1611 034f C0000000 		.4byte	0xc0
 1612 0353 02       		.uleb128 0x2
 1613 0354 91       		.byte	0x91
 1614 0355 76       		.sleb128 -10
 1615 0356 00       		.byte	0
 1616 0357 0F       		.uleb128 0xf
 1617 0358 8B040000 		.4byte	.LASF53
 1618 035c 01       		.byte	0x1
 1619 035d FD       		.byte	0xfd
 1620 035e 00000000 		.4byte	.LFB76
 1621 0362 68000000 		.4byte	.LFE76-.LFB76
 1622 0366 01       		.uleb128 0x1
 1623 0367 9C       		.byte	0x9c
 1624 0368 98030000 		.4byte	0x398
 1625 036c 0E       		.uleb128 0xe
 1626 036d A1040000 		.4byte	.LASF54
 1627 0371 01       		.byte	0x1
 1628 0372 FE       		.byte	0xfe
 1629 0373 A6010000 		.4byte	0x1a6
 1630 0377 02       		.uleb128 0x2
 1631 0378 91       		.byte	0x91
 1632 0379 73       		.sleb128 -13
 1633 037a 0E       		.uleb128 0xe
 1634 037b AD040000 		.4byte	.LASF55
 1635 037f 01       		.byte	0x1
 1636 0380 FF       		.byte	0xff
 1637 0381 A6010000 		.4byte	0x1a6
 1638 0385 02       		.uleb128 0x2
ARM GAS  C:\Users\Emil\AppData\Local\Temp\ccJO7VeH.s 			page 35


 1639 0386 91       		.byte	0x91
 1640 0387 72       		.sleb128 -14
 1641 0388 17       		.uleb128 0x17
 1642 0389 41010000 		.4byte	.LASF33
 1643 038d 01       		.byte	0x1
 1644 038e 0001     		.2byte	0x100
 1645 0390 1D020000 		.4byte	0x21d
 1646 0394 02       		.uleb128 0x2
 1647 0395 91       		.byte	0x91
 1648 0396 74       		.sleb128 -12
 1649 0397 00       		.byte	0
 1650 0398 18       		.uleb128 0x18
 1651 0399 D1020000 		.4byte	.LASF56
 1652 039d 01       		.byte	0x1
 1653 039e 1201     		.2byte	0x112
 1654 03a0 00000000 		.4byte	.LFB77
 1655 03a4 38000000 		.4byte	.LFE77-.LFB77
 1656 03a8 01       		.uleb128 0x1
 1657 03a9 9C       		.byte	0x9c
 1658 03aa BE030000 		.4byte	0x3be
 1659 03ae 17       		.uleb128 0x17
 1660 03af 4C030000 		.4byte	.LASF57
 1661 03b3 01       		.byte	0x1
 1662 03b4 1301     		.2byte	0x113
 1663 03b6 C0000000 		.4byte	0xc0
 1664 03ba 02       		.uleb128 0x2
 1665 03bb 91       		.byte	0x91
 1666 03bc 76       		.sleb128 -10
 1667 03bd 00       		.byte	0
 1668 03be 14       		.uleb128 0x14
 1669 03bf CE030000 		.4byte	0x3ce
 1670 03c3 CE030000 		.4byte	0x3ce
 1671 03c7 15       		.uleb128 0x15
 1672 03c8 E1000000 		.4byte	0xe1
 1673 03cc 02       		.byte	0x2
 1674 03cd 00       		.byte	0
 1675 03ce 10       		.uleb128 0x10
 1676 03cf B4000000 		.4byte	0xb4
 1677 03d3 0E       		.uleb128 0xe
 1678 03d4 A7020000 		.4byte	.LASF58
 1679 03d8 01       		.byte	0x1
 1680 03d9 2C       		.byte	0x2c
 1681 03da E4030000 		.4byte	0x3e4
 1682 03de 05       		.uleb128 0x5
 1683 03df 03       		.byte	0x3
 1684 03e0 10000000 		.4byte	pcTextForNutrientPump
 1685 03e4 10       		.uleb128 0x10
 1686 03e5 BE030000 		.4byte	0x3be
 1687 03e9 19       		.uleb128 0x19
 1688 03ea 66040000 		.4byte	.LASF59
 1689 03ee 07       		.byte	0x7
 1690 03ef 1207     		.2byte	0x712
 1691 03f1 F5030000 		.4byte	0x3f5
 1692 03f5 1A       		.uleb128 0x1a
 1693 03f6 9E000000 		.4byte	0x9e
 1694 03fa 1B       		.uleb128 0x1b
 1695 03fb 6E000000 		.4byte	.LASF60
ARM GAS  C:\Users\Emil\AppData\Local\Temp\ccJO7VeH.s 			page 36


 1696 03ff 01       		.byte	0x1
 1697 0400 1C       		.byte	0x1c
 1698 0401 0B040000 		.4byte	0x40b
 1699 0405 05       		.uleb128 0x5
 1700 0406 03       		.byte	0x3
 1701 0407 00000000 		.4byte	iSizeOfNutrients
 1702 040b 10       		.uleb128 0x10
 1703 040c 25000000 		.4byte	0x25
 1704 0410 14       		.uleb128 0x14
 1705 0411 16010000 		.4byte	0x116
 1706 0415 20040000 		.4byte	0x420
 1707 0419 15       		.uleb128 0x15
 1708 041a E1000000 		.4byte	0xe1
 1709 041e 27       		.byte	0x27
 1710 041f 00       		.byte	0
 1711 0420 1B       		.uleb128 0x1b
 1712 0421 73040000 		.4byte	.LASF61
 1713 0425 01       		.byte	0x1
 1714 0426 1D       		.byte	0x1d
 1715 0427 10040000 		.4byte	0x410
 1716 042b 05       		.uleb128 0x5
 1717 042c 03       		.byte	0x3
 1718 042d 00000000 		.4byte	currentNutrients
 1719 0431 1B       		.uleb128 0x1b
 1720 0432 7D010000 		.4byte	.LASF62
 1721 0436 01       		.byte	0x1
 1722 0437 1E       		.byte	0x1e
 1723 0438 25000000 		.4byte	0x25
 1724 043c 05       		.uleb128 0x5
 1725 043d 03       		.byte	0x3
 1726 043e 00000000 		.4byte	iPHIndex
 1727 0442 1B       		.uleb128 0x1b
 1728 0443 58030000 		.4byte	.LASF63
 1729 0447 01       		.byte	0x1
 1730 0448 1F       		.byte	0x1f
 1731 0449 25000000 		.4byte	0x25
 1732 044d 05       		.uleb128 0x5
 1733 044e 03       		.byte	0x3
 1734 044f 00000000 		.4byte	iECIndex
 1735 0453 1B       		.uleb128 0x1b
 1736 0454 91030000 		.4byte	.LASF64
 1737 0458 01       		.byte	0x1
 1738 0459 20       		.byte	0x20
 1739 045a 25000000 		.4byte	0x25
 1740 045e 05       		.uleb128 0x5
 1741 045f 03       		.byte	0x3
 1742 0460 00000000 		.4byte	iWateTempIndex
 1743 0464 1B       		.uleb128 0x1b
 1744 0465 2A000000 		.4byte	.LASF65
 1745 0469 01       		.byte	0x1
 1746 046a 22       		.byte	0x22
 1747 046b 75040000 		.4byte	0x475
 1748 046f 05       		.uleb128 0x5
 1749 0470 03       		.byte	0x3
 1750 0471 00000000 		.4byte	fNeutralVoltage
 1751 0475 10       		.uleb128 0x10
 1752 0476 CC000000 		.4byte	0xcc
ARM GAS  C:\Users\Emil\AppData\Local\Temp\ccJO7VeH.s 			page 37


 1753 047a 1B       		.uleb128 0x1b
 1754 047b ED010000 		.4byte	.LASF66
 1755 047f 01       		.byte	0x1
 1756 0480 23       		.byte	0x23
 1757 0481 75040000 		.4byte	0x475
 1758 0485 05       		.uleb128 0x5
 1759 0486 03       		.byte	0x3
 1760 0487 00000000 		.4byte	fAcidVoltage
 1761 048b 14       		.uleb128 0x14
 1762 048c 00010000 		.4byte	0x100
 1763 0490 9B040000 		.4byte	0x49b
 1764 0494 15       		.uleb128 0x15
 1765 0495 E1000000 		.4byte	0xe1
 1766 0499 02       		.byte	0x2
 1767 049a 00       		.byte	0
 1768 049b 1B       		.uleb128 0x1b
 1769 049c 15010000 		.4byte	.LASF67
 1770 04a0 01       		.byte	0x1
 1771 04a1 25       		.byte	0x25
 1772 04a2 8B040000 		.4byte	0x48b
 1773 04a6 05       		.uleb128 0x5
 1774 04a7 03       		.byte	0x3
 1775 04a8 00000000 		.4byte	xQueueNutrientPump
 1776 04ac 1B       		.uleb128 0x1b
 1777 04ad 12020000 		.4byte	.LASF68
 1778 04b1 01       		.byte	0x1
 1779 04b2 26       		.byte	0x26
 1780 04b3 00010000 		.4byte	0x100
 1781 04b7 05       		.uleb128 0x5
 1782 04b8 03       		.byte	0x3
 1783 04b9 00000000 		.4byte	xQueuePHValue
 1784 04bd 1B       		.uleb128 0x1b
 1785 04be 0E000000 		.4byte	.LASF69
 1786 04c2 01       		.byte	0x1
 1787 04c3 27       		.byte	0x27
 1788 04c4 00010000 		.4byte	0x100
 1789 04c8 05       		.uleb128 0x5
 1790 04c9 03       		.byte	0x3
 1791 04ca 00000000 		.4byte	xQueueECValue
 1792 04ce 1B       		.uleb128 0x1b
 1793 04cf 31040000 		.4byte	.LASF70
 1794 04d3 01       		.byte	0x1
 1795 04d4 2A       		.byte	0x2a
 1796 04d5 CE030000 		.4byte	0x3ce
 1797 04d9 05       		.uleb128 0x5
 1798 04da 03       		.byte	0x3
 1799 04db 00000000 		.4byte	MAX_SPEED
 1800 04df 1B       		.uleb128 0x1b
 1801 04e0 F4020000 		.4byte	.LASF71
 1802 04e4 01       		.byte	0x1
 1803 04e5 2B       		.byte	0x2b
 1804 04e6 CE030000 		.4byte	0x3ce
 1805 04ea 05       		.uleb128 0x5
 1806 04eb 03       		.byte	0x3
 1807 04ec 00000000 		.4byte	STOP_SPEED
 1808 04f0 00       		.byte	0
 1809              		.section	.debug_abbrev,"",%progbits
ARM GAS  C:\Users\Emil\AppData\Local\Temp\ccJO7VeH.s 			page 38


 1810              	.Ldebug_abbrev0:
 1811 0000 01       		.uleb128 0x1
 1812 0001 11       		.uleb128 0x11
 1813 0002 01       		.byte	0x1
 1814 0003 25       		.uleb128 0x25
 1815 0004 0E       		.uleb128 0xe
 1816 0005 13       		.uleb128 0x13
 1817 0006 0B       		.uleb128 0xb
 1818 0007 03       		.uleb128 0x3
 1819 0008 0E       		.uleb128 0xe
 1820 0009 1B       		.uleb128 0x1b
 1821 000a 0E       		.uleb128 0xe
 1822 000b 55       		.uleb128 0x55
 1823 000c 17       		.uleb128 0x17
 1824 000d 11       		.uleb128 0x11
 1825 000e 01       		.uleb128 0x1
 1826 000f 10       		.uleb128 0x10
 1827 0010 17       		.uleb128 0x17
 1828 0011 00       		.byte	0
 1829 0012 00       		.byte	0
 1830 0013 02       		.uleb128 0x2
 1831 0014 24       		.uleb128 0x24
 1832 0015 00       		.byte	0
 1833 0016 0B       		.uleb128 0xb
 1834 0017 0B       		.uleb128 0xb
 1835 0018 3E       		.uleb128 0x3e
 1836 0019 0B       		.uleb128 0xb
 1837 001a 03       		.uleb128 0x3
 1838 001b 08       		.uleb128 0x8
 1839 001c 00       		.byte	0
 1840 001d 00       		.byte	0
 1841 001e 03       		.uleb128 0x3
 1842 001f 24       		.uleb128 0x24
 1843 0020 00       		.byte	0
 1844 0021 0B       		.uleb128 0xb
 1845 0022 0B       		.uleb128 0xb
 1846 0023 3E       		.uleb128 0x3e
 1847 0024 0B       		.uleb128 0xb
 1848 0025 03       		.uleb128 0x3
 1849 0026 0E       		.uleb128 0xe
 1850 0027 00       		.byte	0
 1851 0028 00       		.byte	0
 1852 0029 04       		.uleb128 0x4
 1853 002a 16       		.uleb128 0x16
 1854 002b 00       		.byte	0
 1855 002c 03       		.uleb128 0x3
 1856 002d 0E       		.uleb128 0xe
 1857 002e 3A       		.uleb128 0x3a
 1858 002f 0B       		.uleb128 0xb
 1859 0030 3B       		.uleb128 0x3b
 1860 0031 0B       		.uleb128 0xb
 1861 0032 49       		.uleb128 0x49
 1862 0033 13       		.uleb128 0x13
 1863 0034 00       		.byte	0
 1864 0035 00       		.byte	0
 1865 0036 05       		.uleb128 0x5
 1866 0037 16       		.uleb128 0x16
ARM GAS  C:\Users\Emil\AppData\Local\Temp\ccJO7VeH.s 			page 39


 1867 0038 00       		.byte	0
 1868 0039 03       		.uleb128 0x3
 1869 003a 0E       		.uleb128 0xe
 1870 003b 3A       		.uleb128 0x3a
 1871 003c 0B       		.uleb128 0xb
 1872 003d 3B       		.uleb128 0x3b
 1873 003e 05       		.uleb128 0x5
 1874 003f 49       		.uleb128 0x49
 1875 0040 13       		.uleb128 0x13
 1876 0041 00       		.byte	0
 1877 0042 00       		.byte	0
 1878 0043 06       		.uleb128 0x6
 1879 0044 0F       		.uleb128 0xf
 1880 0045 00       		.byte	0
 1881 0046 0B       		.uleb128 0xb
 1882 0047 0B       		.uleb128 0xb
 1883 0048 00       		.byte	0
 1884 0049 00       		.byte	0
 1885 004a 07       		.uleb128 0x7
 1886 004b 0F       		.uleb128 0xf
 1887 004c 00       		.byte	0
 1888 004d 0B       		.uleb128 0xb
 1889 004e 0B       		.uleb128 0xb
 1890 004f 49       		.uleb128 0x49
 1891 0050 13       		.uleb128 0x13
 1892 0051 00       		.byte	0
 1893 0052 00       		.byte	0
 1894 0053 08       		.uleb128 0x8
 1895 0054 13       		.uleb128 0x13
 1896 0055 00       		.byte	0
 1897 0056 03       		.uleb128 0x3
 1898 0057 0E       		.uleb128 0xe
 1899 0058 3C       		.uleb128 0x3c
 1900 0059 19       		.uleb128 0x19
 1901 005a 00       		.byte	0
 1902 005b 00       		.byte	0
 1903 005c 09       		.uleb128 0x9
 1904 005d 13       		.uleb128 0x13
 1905 005e 01       		.byte	0x1
 1906 005f 03       		.uleb128 0x3
 1907 0060 0E       		.uleb128 0xe
 1908 0061 0B       		.uleb128 0xb
 1909 0062 0B       		.uleb128 0xb
 1910 0063 3A       		.uleb128 0x3a
 1911 0064 0B       		.uleb128 0xb
 1912 0065 3B       		.uleb128 0x3b
 1913 0066 0B       		.uleb128 0xb
 1914 0067 01       		.uleb128 0x1
 1915 0068 13       		.uleb128 0x13
 1916 0069 00       		.byte	0
 1917 006a 00       		.byte	0
 1918 006b 0A       		.uleb128 0xa
 1919 006c 0D       		.uleb128 0xd
 1920 006d 00       		.byte	0
 1921 006e 03       		.uleb128 0x3
 1922 006f 0E       		.uleb128 0xe
 1923 0070 3A       		.uleb128 0x3a
ARM GAS  C:\Users\Emil\AppData\Local\Temp\ccJO7VeH.s 			page 40


 1924 0071 0B       		.uleb128 0xb
 1925 0072 3B       		.uleb128 0x3b
 1926 0073 0B       		.uleb128 0xb
 1927 0074 49       		.uleb128 0x49
 1928 0075 13       		.uleb128 0x13
 1929 0076 38       		.uleb128 0x38
 1930 0077 0B       		.uleb128 0xb
 1931 0078 00       		.byte	0
 1932 0079 00       		.byte	0
 1933 007a 0B       		.uleb128 0xb
 1934 007b 2E       		.uleb128 0x2e
 1935 007c 00       		.byte	0
 1936 007d 3F       		.uleb128 0x3f
 1937 007e 19       		.uleb128 0x19
 1938 007f 03       		.uleb128 0x3
 1939 0080 0E       		.uleb128 0xe
 1940 0081 3A       		.uleb128 0x3a
 1941 0082 0B       		.uleb128 0xb
 1942 0083 3B       		.uleb128 0x3b
 1943 0084 0B       		.uleb128 0xb
 1944 0085 11       		.uleb128 0x11
 1945 0086 01       		.uleb128 0x1
 1946 0087 12       		.uleb128 0x12
 1947 0088 06       		.uleb128 0x6
 1948 0089 40       		.uleb128 0x40
 1949 008a 18       		.uleb128 0x18
 1950 008b 9642     		.uleb128 0x2116
 1951 008d 19       		.uleb128 0x19
 1952 008e 00       		.byte	0
 1953 008f 00       		.byte	0
 1954 0090 0C       		.uleb128 0xc
 1955 0091 2E       		.uleb128 0x2e
 1956 0092 01       		.byte	0x1
 1957 0093 3F       		.uleb128 0x3f
 1958 0094 19       		.uleb128 0x19
 1959 0095 03       		.uleb128 0x3
 1960 0096 0E       		.uleb128 0xe
 1961 0097 3A       		.uleb128 0x3a
 1962 0098 0B       		.uleb128 0xb
 1963 0099 3B       		.uleb128 0x3b
 1964 009a 0B       		.uleb128 0xb
 1965 009b 27       		.uleb128 0x27
 1966 009c 19       		.uleb128 0x19
 1967 009d 11       		.uleb128 0x11
 1968 009e 01       		.uleb128 0x1
 1969 009f 12       		.uleb128 0x12
 1970 00a0 06       		.uleb128 0x6
 1971 00a1 40       		.uleb128 0x40
 1972 00a2 18       		.uleb128 0x18
 1973 00a3 9642     		.uleb128 0x2116
 1974 00a5 19       		.uleb128 0x19
 1975 00a6 01       		.uleb128 0x1
 1976 00a7 13       		.uleb128 0x13
 1977 00a8 00       		.byte	0
 1978 00a9 00       		.byte	0
 1979 00aa 0D       		.uleb128 0xd
 1980 00ab 05       		.uleb128 0x5
ARM GAS  C:\Users\Emil\AppData\Local\Temp\ccJO7VeH.s 			page 41


 1981 00ac 00       		.byte	0
 1982 00ad 03       		.uleb128 0x3
 1983 00ae 0E       		.uleb128 0xe
 1984 00af 3A       		.uleb128 0x3a
 1985 00b0 0B       		.uleb128 0xb
 1986 00b1 3B       		.uleb128 0x3b
 1987 00b2 0B       		.uleb128 0xb
 1988 00b3 49       		.uleb128 0x49
 1989 00b4 13       		.uleb128 0x13
 1990 00b5 02       		.uleb128 0x2
 1991 00b6 18       		.uleb128 0x18
 1992 00b7 00       		.byte	0
 1993 00b8 00       		.byte	0
 1994 00b9 0E       		.uleb128 0xe
 1995 00ba 34       		.uleb128 0x34
 1996 00bb 00       		.byte	0
 1997 00bc 03       		.uleb128 0x3
 1998 00bd 0E       		.uleb128 0xe
 1999 00be 3A       		.uleb128 0x3a
 2000 00bf 0B       		.uleb128 0xb
 2001 00c0 3B       		.uleb128 0x3b
 2002 00c1 0B       		.uleb128 0xb
 2003 00c2 49       		.uleb128 0x49
 2004 00c3 13       		.uleb128 0x13
 2005 00c4 02       		.uleb128 0x2
 2006 00c5 18       		.uleb128 0x18
 2007 00c6 00       		.byte	0
 2008 00c7 00       		.byte	0
 2009 00c8 0F       		.uleb128 0xf
 2010 00c9 2E       		.uleb128 0x2e
 2011 00ca 01       		.byte	0x1
 2012 00cb 3F       		.uleb128 0x3f
 2013 00cc 19       		.uleb128 0x19
 2014 00cd 03       		.uleb128 0x3
 2015 00ce 0E       		.uleb128 0xe
 2016 00cf 3A       		.uleb128 0x3a
 2017 00d0 0B       		.uleb128 0xb
 2018 00d1 3B       		.uleb128 0x3b
 2019 00d2 0B       		.uleb128 0xb
 2020 00d3 11       		.uleb128 0x11
 2021 00d4 01       		.uleb128 0x1
 2022 00d5 12       		.uleb128 0x12
 2023 00d6 06       		.uleb128 0x6
 2024 00d7 40       		.uleb128 0x40
 2025 00d8 18       		.uleb128 0x18
 2026 00d9 9642     		.uleb128 0x2116
 2027 00db 19       		.uleb128 0x19
 2028 00dc 01       		.uleb128 0x1
 2029 00dd 13       		.uleb128 0x13
 2030 00de 00       		.byte	0
 2031 00df 00       		.byte	0
 2032 00e0 10       		.uleb128 0x10
 2033 00e1 26       		.uleb128 0x26
 2034 00e2 00       		.byte	0
 2035 00e3 49       		.uleb128 0x49
 2036 00e4 13       		.uleb128 0x13
 2037 00e5 00       		.byte	0
ARM GAS  C:\Users\Emil\AppData\Local\Temp\ccJO7VeH.s 			page 42


 2038 00e6 00       		.byte	0
 2039 00e7 11       		.uleb128 0x11
 2040 00e8 2E       		.uleb128 0x2e
 2041 00e9 01       		.byte	0x1
 2042 00ea 3F       		.uleb128 0x3f
 2043 00eb 19       		.uleb128 0x19
 2044 00ec 03       		.uleb128 0x3
 2045 00ed 0E       		.uleb128 0xe
 2046 00ee 3A       		.uleb128 0x3a
 2047 00ef 0B       		.uleb128 0xb
 2048 00f0 3B       		.uleb128 0x3b
 2049 00f1 0B       		.uleb128 0xb
 2050 00f2 27       		.uleb128 0x27
 2051 00f3 19       		.uleb128 0x19
 2052 00f4 49       		.uleb128 0x49
 2053 00f5 13       		.uleb128 0x13
 2054 00f6 11       		.uleb128 0x11
 2055 00f7 01       		.uleb128 0x1
 2056 00f8 12       		.uleb128 0x12
 2057 00f9 06       		.uleb128 0x6
 2058 00fa 40       		.uleb128 0x40
 2059 00fb 18       		.uleb128 0x18
 2060 00fc 9642     		.uleb128 0x2116
 2061 00fe 19       		.uleb128 0x19
 2062 00ff 01       		.uleb128 0x1
 2063 0100 13       		.uleb128 0x13
 2064 0101 00       		.byte	0
 2065 0102 00       		.byte	0
 2066 0103 12       		.uleb128 0x12
 2067 0104 0B       		.uleb128 0xb
 2068 0105 01       		.byte	0x1
 2069 0106 11       		.uleb128 0x11
 2070 0107 01       		.uleb128 0x1
 2071 0108 12       		.uleb128 0x12
 2072 0109 06       		.uleb128 0x6
 2073 010a 00       		.byte	0
 2074 010b 00       		.byte	0
 2075 010c 13       		.uleb128 0x13
 2076 010d 34       		.uleb128 0x34
 2077 010e 00       		.byte	0
 2078 010f 03       		.uleb128 0x3
 2079 0110 08       		.uleb128 0x8
 2080 0111 3A       		.uleb128 0x3a
 2081 0112 0B       		.uleb128 0xb
 2082 0113 3B       		.uleb128 0x3b
 2083 0114 0B       		.uleb128 0xb
 2084 0115 49       		.uleb128 0x49
 2085 0116 13       		.uleb128 0x13
 2086 0117 02       		.uleb128 0x2
 2087 0118 18       		.uleb128 0x18
 2088 0119 00       		.byte	0
 2089 011a 00       		.byte	0
 2090 011b 14       		.uleb128 0x14
 2091 011c 01       		.uleb128 0x1
 2092 011d 01       		.byte	0x1
 2093 011e 49       		.uleb128 0x49
 2094 011f 13       		.uleb128 0x13
ARM GAS  C:\Users\Emil\AppData\Local\Temp\ccJO7VeH.s 			page 43


 2095 0120 01       		.uleb128 0x1
 2096 0121 13       		.uleb128 0x13
 2097 0122 00       		.byte	0
 2098 0123 00       		.byte	0
 2099 0124 15       		.uleb128 0x15
 2100 0125 21       		.uleb128 0x21
 2101 0126 00       		.byte	0
 2102 0127 49       		.uleb128 0x49
 2103 0128 13       		.uleb128 0x13
 2104 0129 2F       		.uleb128 0x2f
 2105 012a 0B       		.uleb128 0xb
 2106 012b 00       		.byte	0
 2107 012c 00       		.byte	0
 2108 012d 16       		.uleb128 0x16
 2109 012e 21       		.uleb128 0x21
 2110 012f 00       		.byte	0
 2111 0130 49       		.uleb128 0x49
 2112 0131 13       		.uleb128 0x13
 2113 0132 2F       		.uleb128 0x2f
 2114 0133 18       		.uleb128 0x18
 2115 0134 00       		.byte	0
 2116 0135 00       		.byte	0
 2117 0136 17       		.uleb128 0x17
 2118 0137 34       		.uleb128 0x34
 2119 0138 00       		.byte	0
 2120 0139 03       		.uleb128 0x3
 2121 013a 0E       		.uleb128 0xe
 2122 013b 3A       		.uleb128 0x3a
 2123 013c 0B       		.uleb128 0xb
 2124 013d 3B       		.uleb128 0x3b
 2125 013e 05       		.uleb128 0x5
 2126 013f 49       		.uleb128 0x49
 2127 0140 13       		.uleb128 0x13
 2128 0141 02       		.uleb128 0x2
 2129 0142 18       		.uleb128 0x18
 2130 0143 00       		.byte	0
 2131 0144 00       		.byte	0
 2132 0145 18       		.uleb128 0x18
 2133 0146 2E       		.uleb128 0x2e
 2134 0147 01       		.byte	0x1
 2135 0148 3F       		.uleb128 0x3f
 2136 0149 19       		.uleb128 0x19
 2137 014a 03       		.uleb128 0x3
 2138 014b 0E       		.uleb128 0xe
 2139 014c 3A       		.uleb128 0x3a
 2140 014d 0B       		.uleb128 0xb
 2141 014e 3B       		.uleb128 0x3b
 2142 014f 05       		.uleb128 0x5
 2143 0150 11       		.uleb128 0x11
 2144 0151 01       		.uleb128 0x1
 2145 0152 12       		.uleb128 0x12
 2146 0153 06       		.uleb128 0x6
 2147 0154 40       		.uleb128 0x40
 2148 0155 18       		.uleb128 0x18
 2149 0156 9642     		.uleb128 0x2116
 2150 0158 19       		.uleb128 0x19
 2151 0159 01       		.uleb128 0x1
ARM GAS  C:\Users\Emil\AppData\Local\Temp\ccJO7VeH.s 			page 44


 2152 015a 13       		.uleb128 0x13
 2153 015b 00       		.byte	0
 2154 015c 00       		.byte	0
 2155 015d 19       		.uleb128 0x19
 2156 015e 34       		.uleb128 0x34
 2157 015f 00       		.byte	0
 2158 0160 03       		.uleb128 0x3
 2159 0161 0E       		.uleb128 0xe
 2160 0162 3A       		.uleb128 0x3a
 2161 0163 0B       		.uleb128 0xb
 2162 0164 3B       		.uleb128 0x3b
 2163 0165 05       		.uleb128 0x5
 2164 0166 49       		.uleb128 0x49
 2165 0167 13       		.uleb128 0x13
 2166 0168 3F       		.uleb128 0x3f
 2167 0169 19       		.uleb128 0x19
 2168 016a 3C       		.uleb128 0x3c
 2169 016b 19       		.uleb128 0x19
 2170 016c 00       		.byte	0
 2171 016d 00       		.byte	0
 2172 016e 1A       		.uleb128 0x1a
 2173 016f 35       		.uleb128 0x35
 2174 0170 00       		.byte	0
 2175 0171 49       		.uleb128 0x49
 2176 0172 13       		.uleb128 0x13
 2177 0173 00       		.byte	0
 2178 0174 00       		.byte	0
 2179 0175 1B       		.uleb128 0x1b
 2180 0176 34       		.uleb128 0x34
 2181 0177 00       		.byte	0
 2182 0178 03       		.uleb128 0x3
 2183 0179 0E       		.uleb128 0xe
 2184 017a 3A       		.uleb128 0x3a
 2185 017b 0B       		.uleb128 0xb
 2186 017c 3B       		.uleb128 0x3b
 2187 017d 0B       		.uleb128 0xb
 2188 017e 49       		.uleb128 0x49
 2189 017f 13       		.uleb128 0x13
 2190 0180 3F       		.uleb128 0x3f
 2191 0181 19       		.uleb128 0x19
 2192 0182 02       		.uleb128 0x2
 2193 0183 18       		.uleb128 0x18
 2194 0184 00       		.byte	0
 2195 0185 00       		.byte	0
 2196 0186 00       		.byte	0
 2197              		.section	.debug_aranges,"",%progbits
 2198 0000 5C000000 		.4byte	0x5c
 2199 0004 0200     		.2byte	0x2
 2200 0006 00000000 		.4byte	.Ldebug_info0
 2201 000a 04       		.byte	0x4
 2202 000b 00       		.byte	0
 2203 000c 0000     		.2byte	0
 2204 000e 0000     		.2byte	0
 2205 0010 00000000 		.4byte	.LFB69
 2206 0014 00010000 		.4byte	.LFE69-.LFB69
 2207 0018 00000000 		.4byte	.LFB70
 2208 001c C8000000 		.4byte	.LFE70-.LFB70
ARM GAS  C:\Users\Emil\AppData\Local\Temp\ccJO7VeH.s 			page 45


 2209 0020 00000000 		.4byte	.LFB71
 2210 0024 E0000000 		.4byte	.LFE71-.LFB71
 2211 0028 00000000 		.4byte	.LFB72
 2212 002c 68010000 		.4byte	.LFE72-.LFB72
 2213 0030 00000000 		.4byte	.LFB73
 2214 0034 40010000 		.4byte	.LFE73-.LFB73
 2215 0038 00000000 		.4byte	.LFB74
 2216 003c 44000000 		.4byte	.LFE74-.LFB74
 2217 0040 00000000 		.4byte	.LFB75
 2218 0044 68000000 		.4byte	.LFE75-.LFB75
 2219 0048 00000000 		.4byte	.LFB76
 2220 004c 68000000 		.4byte	.LFE76-.LFB76
 2221 0050 00000000 		.4byte	.LFB77
 2222 0054 38000000 		.4byte	.LFE77-.LFB77
 2223 0058 00000000 		.4byte	0
 2224 005c 00000000 		.4byte	0
 2225              		.section	.debug_ranges,"",%progbits
 2226              	.Ldebug_ranges0:
 2227 0000 00000000 		.4byte	.LFB69
 2228 0004 00010000 		.4byte	.LFE69
 2229 0008 00000000 		.4byte	.LFB70
 2230 000c C8000000 		.4byte	.LFE70
 2231 0010 00000000 		.4byte	.LFB71
 2232 0014 E0000000 		.4byte	.LFE71
 2233 0018 00000000 		.4byte	.LFB72
 2234 001c 68010000 		.4byte	.LFE72
 2235 0020 00000000 		.4byte	.LFB73
 2236 0024 40010000 		.4byte	.LFE73
 2237 0028 00000000 		.4byte	.LFB74
 2238 002c 44000000 		.4byte	.LFE74
 2239 0030 00000000 		.4byte	.LFB75
 2240 0034 68000000 		.4byte	.LFE75
 2241 0038 00000000 		.4byte	.LFB76
 2242 003c 68000000 		.4byte	.LFE76
 2243 0040 00000000 		.4byte	.LFB77
 2244 0044 38000000 		.4byte	.LFE77
 2245 0048 00000000 		.4byte	0
 2246 004c 00000000 		.4byte	0
 2247              		.section	.debug_line,"",%progbits
 2248              	.Ldebug_line0:
 2249 0000 05030000 		.section	.debug_str,"MS",%progbits,1
 2249      02009A01 
 2249      00000201 
 2249      FB0E0D00 
 2249      01010101 
 2250              	.LASF50:
 2251 0000 76546573 		.ascii	"vTestTaskInit\000"
 2251      74546173 
 2251      6B496E69 
 2251      7400
 2252              	.LASF69:
 2253 000e 78517565 		.ascii	"xQueueECValue\000"
 2253      75654543 
 2253      56616C75 
 2253      6500
 2254              	.LASF35:
 2255 001c 664D696C 		.ascii	"fMilliPHValue\000"
ARM GAS  C:\Users\Emil\AppData\Local\Temp\ccJO7VeH.s 			page 46


 2255      6C695048 
 2255      56616C75 
 2255      6500
 2256              	.LASF65:
 2257 002a 664E6575 		.ascii	"fNeutralVoltage\000"
 2257      7472616C 
 2257      566F6C74 
 2257      61676500 
 2258              	.LASF44:
 2259 003a 7844656C 		.ascii	"xDelaymsBeforeRead\000"
 2259      61796D73 
 2259      4265666F 
 2259      72655265 
 2259      616400
 2260              	.LASF42:
 2261 004d 666D6963 		.ascii	"fmicroECValue\000"
 2261      726F4543 
 2261      56616C75 
 2261      6500
 2262              	.LASF5:
 2263 005b 73686F72 		.ascii	"short int\000"
 2263      7420696E 
 2263      7400
 2264              	.LASF21:
 2265 0065 73697A65 		.ascii	"sizetype\000"
 2265      74797065 
 2265      00
 2266              	.LASF60:
 2267 006e 6953697A 		.ascii	"iSizeOfNutrients\000"
 2267      654F664E 
 2267      75747269 
 2267      656E7473 
 2267      00
 2268              	.LASF29:
 2269 007f 78537461 		.ascii	"xStatus\000"
 2269      74757300 
 2270              	.LASF72:
 2271 0087 474E5520 		.ascii	"GNU C11 5.4.1 20160609 (release) [ARM/embedded-5-br"
 2271      43313120 
 2271      352E342E 
 2271      31203230 
 2271      31363036 
 2272 00ba 616E6368 		.ascii	"anch revision 237715] -mcpu=cortex-m3 -mthumb -g -O"
 2272      20726576 
 2272      6973696F 
 2272      6E203233 
 2272      37373135 
 2273 00ed 30202D66 		.ascii	"0 -ffunction-sections -ffat-lto-objects\000"
 2273      66756E63 
 2273      74696F6E 
 2273      2D736563 
 2273      74696F6E 
 2274              	.LASF67:
 2275 0115 78517565 		.ascii	"xQueueNutrientPump\000"
 2275      75654E75 
 2275      74726965 
 2275      6E745075 
ARM GAS  C:\Users\Emil\AppData\Local\Temp\ccJO7VeH.s 			page 47


 2275      6D7000
 2276              	.LASF43:
 2277 0128 696D6963 		.ascii	"imicroECValue\000"
 2277      726F4543 
 2277      56616C75 
 2277      6500
 2278              	.LASF39:
 2279 0136 66496E74 		.ascii	"fIntercept\000"
 2279      65726365 
 2279      707400
 2280              	.LASF33:
 2281 0141 7844656C 		.ascii	"xDelayms\000"
 2281      61796D73 
 2281      00
 2282              	.LASF17:
 2283 014a 75696E74 		.ascii	"uint16\000"
 2283      313600
 2284              	.LASF51:
 2285 0151 76546573 		.ascii	"vTestTaskUARTDataTransmit\000"
 2285      74546173 
 2285      6B554152 
 2285      54446174 
 2285      61547261 
 2286              	.LASF46:
 2287 016b 75634D65 		.ascii	"ucMessage\000"
 2287      73736167 
 2287      6500
 2288              	.LASF13:
 2289 0175 75696E74 		.ascii	"uint8_t\000"
 2289      385F7400 
 2290              	.LASF62:
 2291 017d 69504849 		.ascii	"iPHIndex\000"
 2291      6E646578 
 2291      00
 2292              	.LASF16:
 2293 0186 75696E74 		.ascii	"uint8\000"
 2293      3800
 2294              	.LASF48:
 2295 018c 63526573 		.ascii	"cResponse\000"
 2295      706F6E73 
 2295      6500
 2296              	.LASF18:
 2297 0196 666C6F61 		.ascii	"float\000"
 2297      7400
 2298              	.LASF32:
 2299 019c 66504856 		.ascii	"fPHVoltage\000"
 2299      6F6C7461 
 2299      676500
 2300              	.LASF41:
 2301 01a7 76546173 		.ascii	"vTaskMeasureEC\000"
 2301      6B4D6561 
 2301      73757265 
 2301      454300
 2302              	.LASF1:
 2303 01b6 6C6F6E67 		.ascii	"long long int\000"
 2303      206C6F6E 
 2303      6720696E 
ARM GAS  C:\Users\Emil\AppData\Local\Temp\ccJO7VeH.s 			page 48


 2303      7400
 2304              	.LASF25:
 2305 01c4 69504876 		.ascii	"iPHvalue\000"
 2305      616C7565 
 2305      00
 2306              	.LASF36:
 2307 01cd 694D696C 		.ascii	"iMilliPHValue\000"
 2307      6C695048 
 2307      56616C75 
 2307      6500
 2308              	.LASF9:
 2309 01db 6C6F6E67 		.ascii	"long int\000"
 2309      20696E74 
 2309      00
 2310              	.LASF26:
 2311 01e4 69454376 		.ascii	"iECvalue\000"
 2311      616C7565 
 2311      00
 2312              	.LASF66:
 2313 01ed 66416369 		.ascii	"fAcidVoltage\000"
 2313      64566F6C 
 2313      74616765 
 2313      00
 2314              	.LASF7:
 2315 01fa 5F5F7569 		.ascii	"__uint8_t\000"
 2315      6E74385F 
 2315      7400
 2316              	.LASF24:
 2317 0204 51756575 		.ascii	"QueueHandle_t\000"
 2317      6548616E 
 2317      646C655F 
 2317      7400
 2318              	.LASF68:
 2319 0212 78517565 		.ascii	"xQueuePHValue\000"
 2319      75655048 
 2319      56616C75 
 2319      6500
 2320              	.LASF23:
 2321 0220 5469636B 		.ascii	"TickType_t\000"
 2321      54797065 
 2321      5F7400
 2322              	.LASF2:
 2323 022b 6C6F6E67 		.ascii	"long double\000"
 2323      20646F75 
 2323      626C6500 
 2324              	.LASF76:
 2325 0237 4E757472 		.ascii	"Nutrients\000"
 2325      69656E74 
 2325      7300
 2326              	.LASF4:
 2327 0241 756E7369 		.ascii	"unsigned char\000"
 2327      676E6564 
 2327      20636861 
 2327      7200
 2328              	.LASF47:
 2329 024f 69526573 		.ascii	"iResponselen\000"
 2329      706F6E73 
ARM GAS  C:\Users\Emil\AppData\Local\Temp\ccJO7VeH.s 			page 49


 2329      656C656E 
 2329      00
 2330              	.LASF3:
 2331 025c 7369676E 		.ascii	"signed char\000"
 2331      65642063 
 2331      68617200 
 2332              	.LASF12:
 2333 0268 6C6F6E67 		.ascii	"long long unsigned int\000"
 2333      206C6F6E 
 2333      6720756E 
 2333      7369676E 
 2333      65642069 
 2334              	.LASF77:
 2335 027f 76546173 		.ascii	"vTaskNutrientPump\000"
 2335      6B4E7574 
 2335      7269656E 
 2335      7450756D 
 2335      7000
 2336              	.LASF15:
 2337 0291 75696E74 		.ascii	"uint32_t\000"
 2337      33325F74 
 2337      00
 2338              	.LASF0:
 2339 029a 756E7369 		.ascii	"unsigned int\000"
 2339      676E6564 
 2339      20696E74 
 2339      00
 2340              	.LASF58:
 2341 02a7 70635465 		.ascii	"pcTextForNutrientPump\000"
 2341      7874466F 
 2341      724E7574 
 2341      7269656E 
 2341      7450756D 
 2342              	.LASF22:
 2343 02bd 42617365 		.ascii	"BaseType_t\000"
 2343      54797065 
 2343      5F7400
 2344              	.LASF34:
 2345 02c8 66504856 		.ascii	"fPHValue\000"
 2345      616C7565 
 2345      00
 2346              	.LASF56:
 2347 02d1 76546573 		.ascii	"vTestTaskMeasureEC\000"
 2347      74546173 
 2347      6B4D6561 
 2347      73757265 
 2347      454300
 2348              	.LASF75:
 2349 02e4 51756575 		.ascii	"QueueDefinition\000"
 2349      65446566 
 2349      696E6974 
 2349      696F6E00 
 2350              	.LASF71:
 2351 02f4 53544F50 		.ascii	"STOP_SPEED\000"
 2351      5F535045 
 2351      454400
 2352              	.LASF52:
ARM GAS  C:\Users\Emil\AppData\Local\Temp\ccJO7VeH.s 			page 50


 2353 02ff 69504856 		.ascii	"iPHValueForPrint\000"
 2353      616C7565 
 2353      466F7250 
 2353      72696E74 
 2353      00
 2354              	.LASF20:
 2355 0310 63686172 		.ascii	"char\000"
 2355      00
 2356              	.LASF14:
 2357 0315 696E7433 		.ascii	"int32_t\000"
 2357      325F7400 
 2358              	.LASF6:
 2359 031d 73686F72 		.ascii	"short unsigned int\000"
 2359      7420756E 
 2359      7369676E 
 2359      65642069 
 2359      6E7400
 2360              	.LASF38:
 2361 0330 66536C6F 		.ascii	"fSlope\000"
 2361      706500
 2362              	.LASF31:
 2363 0337 5F426F6F 		.ascii	"_Bool\000"
 2363      6C00
 2364              	.LASF49:
 2365 033d 764E7574 		.ascii	"vNutrientsInit\000"
 2365      7269656E 
 2365      7473496E 
 2365      697400
 2366              	.LASF57:
 2367 034c 74657374 		.ascii	"testValueEC\000"
 2367      56616C75 
 2367      65454300 
 2368              	.LASF63:
 2369 0358 69454349 		.ascii	"iECIndex\000"
 2369      6E646578 
 2369      00
 2370              	.LASF27:
 2371 0361 69576174 		.ascii	"iWaterTemp\000"
 2371      65725465 
 2371      6D7000
 2372              	.LASF73:
 2373 036c 4E757472 		.ascii	"Nutrients.c\000"
 2373      69656E74 
 2373      732E6300 
 2374              	.LASF11:
 2375 0378 6C6F6E67 		.ascii	"long unsigned int\000"
 2375      20756E73 
 2375      69676E65 
 2375      6420696E 
 2375      7400
 2376              	.LASF19:
 2377 038a 646F7562 		.ascii	"double\000"
 2377      6C6500
 2378              	.LASF64:
 2379 0391 69576174 		.ascii	"iWateTempIndex\000"
 2379      6554656D 
 2379      70496E64 
ARM GAS  C:\Users\Emil\AppData\Local\Temp\ccJO7VeH.s 			page 51


 2379      657800
 2380              	.LASF45:
 2381 03a0 7844656C 		.ascii	"xDelaymsTimerEvent\000"
 2381      61796D73 
 2381      54696D65 
 2381      72457665 
 2381      6E7400
 2382              	.LASF10:
 2383 03b3 5F5F7569 		.ascii	"__uint32_t\000"
 2383      6E743332 
 2383      5F7400
 2384              	.LASF74:
 2385 03be 433A5C55 		.ascii	"C:\\Users\\Emil\\Documents\\GitHub\\P4_Vertical_far"
 2385      73657273 
 2385      5C456D69 
 2385      6C5C446F 
 2385      63756D65 
 2386 03ec 6D5C5254 		.ascii	"m\\RTOS_TEMPLATE-master\\PlanteModul.cydsn\000"
 2386      4F535F54 
 2386      454D504C 
 2386      4154452D 
 2386      6D617374 
 2387              	.LASF78:
 2388 0415 6643616C 		.ascii	"fCalculatePHValue\000"
 2388      63756C61 
 2388      74655048 
 2388      56616C75 
 2388      6500
 2389              	.LASF8:
 2390 0427 5F5F696E 		.ascii	"__int32_t\000"
 2390      7433325F 
 2390      7400
 2391              	.LASF70:
 2392 0431 4D41585F 		.ascii	"MAX_SPEED\000"
 2392      53504545 
 2392      4400
 2393              	.LASF40:
 2394 043b 76546173 		.ascii	"vTaskMeasurePH\000"
 2394      6B4D6561 
 2394      73757265 
 2394      504800
 2395              	.LASF37:
 2396 044a 70765061 		.ascii	"pvParameters\000"
 2396      72616D65 
 2396      74657273 
 2396      00
 2397              	.LASF30:
 2398 0457 70694E75 		.ascii	"piNutrientPump\000"
 2398      74726965 
 2398      6E745075 
 2398      6D7000
 2399              	.LASF59:
 2400 0466 49544D5F 		.ascii	"ITM_RxBuffer\000"
 2400      52784275 
 2400      66666572 
 2400      00
 2401              	.LASF61:
ARM GAS  C:\Users\Emil\AppData\Local\Temp\ccJO7VeH.s 			page 52


 2402 0473 63757272 		.ascii	"currentNutrients\000"
 2402      656E744E 
 2402      75747269 
 2402      656E7473 
 2402      00
 2403              	.LASF28:
 2404 0484 62537461 		.ascii	"bState\000"
 2404      746500
 2405              	.LASF53:
 2406 048b 76546573 		.ascii	"vTestTaskNutrientPump\000"
 2406      74546173 
 2406      6B4E7574 
 2406      7269656E 
 2406      7450756D 
 2407              	.LASF54:
 2408 04a1 62546573 		.ascii	"bTestState1\000"
 2408      74537461 
 2408      74653100 
 2409              	.LASF55:
 2410 04ad 62546573 		.ascii	"bTestState2\000"
 2410      74537461 
 2410      74653200 
 2411              		.ident	"GCC: (GNU Tools for ARM Embedded Processors) 5.4.1 20160609 (release) [ARM/embedded-5-bran
