ARM GAS  C:\Users\mikke\AppData\Local\Temp\ccKVUC3O.s 			page 1


   1              		.syntax unified
   2              		.cpu cortex-m3
   3              		.fpu softvfp
   4              		.eabi_attribute 20, 1
   5              		.eabi_attribute 21, 1
   6              		.eabi_attribute 23, 3
   7              		.eabi_attribute 24, 1
   8              		.eabi_attribute 25, 1
   9              		.eabi_attribute 26, 1
  10              		.eabi_attribute 30, 6
  11              		.eabi_attribute 34, 1
  12              		.eabi_attribute 18, 4
  13              		.thumb
  14              		.syntax unified
  15              		.file	"port.c"
  16              		.text
  17              	.Ltext0:
  18              		.cfi_sections	.debug_frame
  19              		.data
  20              		.align	2
  21              		.type	uxCriticalNesting, %object
  22              		.size	uxCriticalNesting, 4
  23              	uxCriticalNesting:
  24 0000 AAAAAAAA 		.word	-1431655766
  25              		.section	.text.pxPortInitialiseStack,"ax",%progbits
  26              		.align	2
  27              		.global	pxPortInitialiseStack
  28              		.thumb
  29              		.thumb_func
  30              		.type	pxPortInitialiseStack, %function
  31              	pxPortInitialiseStack:
  32              	.LFB68:
  33              		.file 1 "Source\\portable\\GCC\\ARM_CM3\\port.c"
   1:Source\portable\GCC\ARM_CM3/port.c **** /*
   2:Source\portable\GCC\ARM_CM3/port.c ****  * FreeRTOS Kernel V10.3.1
   3:Source\portable\GCC\ARM_CM3/port.c ****  * Copyright (C) 2020 Amazon.com, Inc. or its affiliates.  All Rights Reserved.
   4:Source\portable\GCC\ARM_CM3/port.c ****  *
   5:Source\portable\GCC\ARM_CM3/port.c ****  * Permission is hereby granted, free of charge, to any person obtaining a copy of
   6:Source\portable\GCC\ARM_CM3/port.c ****  * this software and associated documentation files (the "Software"), to deal in
   7:Source\portable\GCC\ARM_CM3/port.c ****  * the Software without restriction, including without limitation the rights to
   8:Source\portable\GCC\ARM_CM3/port.c ****  * use, copy, modify, merge, publish, distribute, sublicense, and/or sell copies of
   9:Source\portable\GCC\ARM_CM3/port.c ****  * the Software, and to permit persons to whom the Software is furnished to do so,
  10:Source\portable\GCC\ARM_CM3/port.c ****  * subject to the following conditions:
  11:Source\portable\GCC\ARM_CM3/port.c ****  *
  12:Source\portable\GCC\ARM_CM3/port.c ****  * The above copyright notice and this permission notice shall be included in all
  13:Source\portable\GCC\ARM_CM3/port.c ****  * copies or substantial portions of the Software.
  14:Source\portable\GCC\ARM_CM3/port.c ****  *
  15:Source\portable\GCC\ARM_CM3/port.c ****  * THE SOFTWARE IS PROVIDED "AS IS", WITHOUT WARRANTY OF ANY KIND, EXPRESS OR
  16:Source\portable\GCC\ARM_CM3/port.c ****  * IMPLIED, INCLUDING BUT NOT LIMITED TO THE WARRANTIES OF MERCHANTABILITY, FITNESS
  17:Source\portable\GCC\ARM_CM3/port.c ****  * FOR A PARTICULAR PURPOSE AND NONINFRINGEMENT. IN NO EVENT SHALL THE AUTHORS OR
  18:Source\portable\GCC\ARM_CM3/port.c ****  * COPYRIGHT HOLDERS BE LIABLE FOR ANY CLAIM, DAMAGES OR OTHER LIABILITY, WHETHER
  19:Source\portable\GCC\ARM_CM3/port.c ****  * IN AN ACTION OF CONTRACT, TORT OR OTHERWISE, ARISING FROM, OUT OF OR IN
  20:Source\portable\GCC\ARM_CM3/port.c ****  * CONNECTION WITH THE SOFTWARE OR THE USE OR OTHER DEALINGS IN THE SOFTWARE.
  21:Source\portable\GCC\ARM_CM3/port.c ****  *
  22:Source\portable\GCC\ARM_CM3/port.c ****  * http://www.FreeRTOS.org
  23:Source\portable\GCC\ARM_CM3/port.c ****  * http://aws.amazon.com/freertos
  24:Source\portable\GCC\ARM_CM3/port.c ****  *
ARM GAS  C:\Users\mikke\AppData\Local\Temp\ccKVUC3O.s 			page 2


  25:Source\portable\GCC\ARM_CM3/port.c ****  * 1 tab == 4 spaces!
  26:Source\portable\GCC\ARM_CM3/port.c ****  */
  27:Source\portable\GCC\ARM_CM3/port.c **** 
  28:Source\portable\GCC\ARM_CM3/port.c **** /*-----------------------------------------------------------
  29:Source\portable\GCC\ARM_CM3/port.c ****  * Implementation of functions defined in portable.h for the ARM CM3 port.
  30:Source\portable\GCC\ARM_CM3/port.c ****  *----------------------------------------------------------*/
  31:Source\portable\GCC\ARM_CM3/port.c **** 
  32:Source\portable\GCC\ARM_CM3/port.c **** /* Scheduler includes. */
  33:Source\portable\GCC\ARM_CM3/port.c **** #include "FreeRTOS.h"
  34:Source\portable\GCC\ARM_CM3/port.c **** #include "task.h"
  35:Source\portable\GCC\ARM_CM3/port.c **** 
  36:Source\portable\GCC\ARM_CM3/port.c **** /* For backward compatibility, ensure configKERNEL_INTERRUPT_PRIORITY is
  37:Source\portable\GCC\ARM_CM3/port.c **** defined.  The value should also ensure backward compatibility.
  38:Source\portable\GCC\ARM_CM3/port.c **** FreeRTOS.org versions prior to V4.4.0 did not include this definition. */
  39:Source\portable\GCC\ARM_CM3/port.c **** #ifndef configKERNEL_INTERRUPT_PRIORITY
  40:Source\portable\GCC\ARM_CM3/port.c **** 	#define configKERNEL_INTERRUPT_PRIORITY 255
  41:Source\portable\GCC\ARM_CM3/port.c **** #endif
  42:Source\portable\GCC\ARM_CM3/port.c **** 
  43:Source\portable\GCC\ARM_CM3/port.c **** #ifndef configSYSTICK_CLOCK_HZ
  44:Source\portable\GCC\ARM_CM3/port.c **** 	#define configSYSTICK_CLOCK_HZ configCPU_CLOCK_HZ
  45:Source\portable\GCC\ARM_CM3/port.c **** 	/* Ensure the SysTick is clocked at the same frequency as the core. */
  46:Source\portable\GCC\ARM_CM3/port.c **** 	#define portNVIC_SYSTICK_CLK_BIT	( 1UL << 2UL )
  47:Source\portable\GCC\ARM_CM3/port.c **** #else
  48:Source\portable\GCC\ARM_CM3/port.c **** 	/* The way the SysTick is clocked is not modified in case it is not the same
  49:Source\portable\GCC\ARM_CM3/port.c **** 	as the core. */
  50:Source\portable\GCC\ARM_CM3/port.c **** 	#define portNVIC_SYSTICK_CLK_BIT	( 0 )
  51:Source\portable\GCC\ARM_CM3/port.c **** #endif
  52:Source\portable\GCC\ARM_CM3/port.c **** 
  53:Source\portable\GCC\ARM_CM3/port.c **** /* Constants required to manipulate the core.  Registers first... */
  54:Source\portable\GCC\ARM_CM3/port.c **** #define portNVIC_SYSTICK_CTRL_REG			( * ( ( volatile uint32_t * ) 0xe000e010 ) )
  55:Source\portable\GCC\ARM_CM3/port.c **** #define portNVIC_SYSTICK_LOAD_REG			( * ( ( volatile uint32_t * ) 0xe000e014 ) )
  56:Source\portable\GCC\ARM_CM3/port.c **** #define portNVIC_SYSTICK_CURRENT_VALUE_REG	( * ( ( volatile uint32_t * ) 0xe000e018 ) )
  57:Source\portable\GCC\ARM_CM3/port.c **** #define portNVIC_SYSPRI2_REG				( * ( ( volatile uint32_t * ) 0xe000ed20 ) )
  58:Source\portable\GCC\ARM_CM3/port.c **** /* ...then bits in the registers. */
  59:Source\portable\GCC\ARM_CM3/port.c **** #define portNVIC_SYSTICK_INT_BIT			( 1UL << 1UL )
  60:Source\portable\GCC\ARM_CM3/port.c **** #define portNVIC_SYSTICK_ENABLE_BIT			( 1UL << 0UL )
  61:Source\portable\GCC\ARM_CM3/port.c **** #define portNVIC_SYSTICK_COUNT_FLAG_BIT		( 1UL << 16UL )
  62:Source\portable\GCC\ARM_CM3/port.c **** #define portNVIC_PENDSVCLEAR_BIT 			( 1UL << 27UL )
  63:Source\portable\GCC\ARM_CM3/port.c **** #define portNVIC_PEND_SYSTICK_CLEAR_BIT		( 1UL << 25UL )
  64:Source\portable\GCC\ARM_CM3/port.c **** 
  65:Source\portable\GCC\ARM_CM3/port.c **** #define portNVIC_PENDSV_PRI					( ( ( uint32_t ) configKERNEL_INTERRUPT_PRIORITY ) << 16UL )
  66:Source\portable\GCC\ARM_CM3/port.c **** #define portNVIC_SYSTICK_PRI				( ( ( uint32_t ) configKERNEL_INTERRUPT_PRIORITY ) << 24UL )
  67:Source\portable\GCC\ARM_CM3/port.c **** 
  68:Source\portable\GCC\ARM_CM3/port.c **** /* Constants required to check the validity of an interrupt priority. */
  69:Source\portable\GCC\ARM_CM3/port.c **** #define portFIRST_USER_INTERRUPT_NUMBER		( 16 )
  70:Source\portable\GCC\ARM_CM3/port.c **** #define portNVIC_IP_REGISTERS_OFFSET_16 	( 0xE000E3F0 )
  71:Source\portable\GCC\ARM_CM3/port.c **** #define portAIRCR_REG						( * ( ( volatile uint32_t * ) 0xE000ED0C ) )
  72:Source\portable\GCC\ARM_CM3/port.c **** #define portMAX_8_BIT_VALUE					( ( uint8_t ) 0xff )
  73:Source\portable\GCC\ARM_CM3/port.c **** #define portTOP_BIT_OF_BYTE					( ( uint8_t ) 0x80 )
  74:Source\portable\GCC\ARM_CM3/port.c **** #define portMAX_PRIGROUP_BITS				( ( uint8_t ) 7 )
  75:Source\portable\GCC\ARM_CM3/port.c **** #define portPRIORITY_GROUP_MASK				( 0x07UL << 8UL )
  76:Source\portable\GCC\ARM_CM3/port.c **** #define portPRIGROUP_SHIFT					( 8UL )
  77:Source\portable\GCC\ARM_CM3/port.c **** 
  78:Source\portable\GCC\ARM_CM3/port.c **** /* Masks off all bits but the VECTACTIVE bits in the ICSR register. */
  79:Source\portable\GCC\ARM_CM3/port.c **** #define portVECTACTIVE_MASK					( 0xFFUL )
  80:Source\portable\GCC\ARM_CM3/port.c **** 
  81:Source\portable\GCC\ARM_CM3/port.c **** /* Constants required to set up the initial stack. */
ARM GAS  C:\Users\mikke\AppData\Local\Temp\ccKVUC3O.s 			page 3


  82:Source\portable\GCC\ARM_CM3/port.c **** #define portINITIAL_XPSR					( 0x01000000UL )
  83:Source\portable\GCC\ARM_CM3/port.c **** 
  84:Source\portable\GCC\ARM_CM3/port.c **** /* The systick is a 24-bit counter. */
  85:Source\portable\GCC\ARM_CM3/port.c **** #define portMAX_24_BIT_NUMBER				( 0xffffffUL )
  86:Source\portable\GCC\ARM_CM3/port.c **** 
  87:Source\portable\GCC\ARM_CM3/port.c **** /* A fiddle factor to estimate the number of SysTick counts that would have
  88:Source\portable\GCC\ARM_CM3/port.c **** occurred while the SysTick counter is stopped during tickless idle
  89:Source\portable\GCC\ARM_CM3/port.c **** calculations. */
  90:Source\portable\GCC\ARM_CM3/port.c **** #define portMISSED_COUNTS_FACTOR			( 45UL )
  91:Source\portable\GCC\ARM_CM3/port.c **** 
  92:Source\portable\GCC\ARM_CM3/port.c **** /* For strict compliance with the Cortex-M spec the task start address should
  93:Source\portable\GCC\ARM_CM3/port.c **** have bit-0 clear, as it is loaded into the PC on exit from an ISR. */
  94:Source\portable\GCC\ARM_CM3/port.c **** #define portSTART_ADDRESS_MASK				( ( StackType_t ) 0xfffffffeUL )
  95:Source\portable\GCC\ARM_CM3/port.c **** 
  96:Source\portable\GCC\ARM_CM3/port.c **** /* Let the user override the pre-loading of the initial LR with the address of
  97:Source\portable\GCC\ARM_CM3/port.c **** prvTaskExitError() in case it messes up unwinding of the stack in the
  98:Source\portable\GCC\ARM_CM3/port.c **** debugger. */
  99:Source\portable\GCC\ARM_CM3/port.c **** #ifdef configTASK_RETURN_ADDRESS
 100:Source\portable\GCC\ARM_CM3/port.c **** 	#define portTASK_RETURN_ADDRESS	configTASK_RETURN_ADDRESS
 101:Source\portable\GCC\ARM_CM3/port.c **** #else
 102:Source\portable\GCC\ARM_CM3/port.c **** 	#define portTASK_RETURN_ADDRESS	prvTaskExitError
 103:Source\portable\GCC\ARM_CM3/port.c **** #endif
 104:Source\portable\GCC\ARM_CM3/port.c **** 
 105:Source\portable\GCC\ARM_CM3/port.c **** /*
 106:Source\portable\GCC\ARM_CM3/port.c ****  * Setup the timer to generate the tick interrupts.  The implementation in this
 107:Source\portable\GCC\ARM_CM3/port.c ****  * file is weak to allow application writers to change the timer used to
 108:Source\portable\GCC\ARM_CM3/port.c ****  * generate the tick interrupt.
 109:Source\portable\GCC\ARM_CM3/port.c ****  */
 110:Source\portable\GCC\ARM_CM3/port.c **** void vPortSetupTimerInterrupt( void );
 111:Source\portable\GCC\ARM_CM3/port.c **** 
 112:Source\portable\GCC\ARM_CM3/port.c **** /*
 113:Source\portable\GCC\ARM_CM3/port.c ****  * Exception handlers.
 114:Source\portable\GCC\ARM_CM3/port.c ****  */
 115:Source\portable\GCC\ARM_CM3/port.c **** void xPortPendSVHandler( void ) __attribute__ (( naked ));
 116:Source\portable\GCC\ARM_CM3/port.c **** void xPortSysTickHandler( void );
 117:Source\portable\GCC\ARM_CM3/port.c **** void vPortSVCHandler( void ) __attribute__ (( naked ));
 118:Source\portable\GCC\ARM_CM3/port.c **** 
 119:Source\portable\GCC\ARM_CM3/port.c **** /*
 120:Source\portable\GCC\ARM_CM3/port.c ****  * Start first task is a separate function so it can be tested in isolation.
 121:Source\portable\GCC\ARM_CM3/port.c ****  */
 122:Source\portable\GCC\ARM_CM3/port.c **** static void prvPortStartFirstTask( void ) __attribute__ (( naked ));
 123:Source\portable\GCC\ARM_CM3/port.c **** 
 124:Source\portable\GCC\ARM_CM3/port.c **** /*
 125:Source\portable\GCC\ARM_CM3/port.c ****  * Used to catch tasks that attempt to return from their implementing function.
 126:Source\portable\GCC\ARM_CM3/port.c ****  */
 127:Source\portable\GCC\ARM_CM3/port.c **** static void prvTaskExitError( void );
 128:Source\portable\GCC\ARM_CM3/port.c **** 
 129:Source\portable\GCC\ARM_CM3/port.c **** /*-----------------------------------------------------------*/
 130:Source\portable\GCC\ARM_CM3/port.c **** 
 131:Source\portable\GCC\ARM_CM3/port.c **** /* Each task maintains its own interrupt status in the critical nesting
 132:Source\portable\GCC\ARM_CM3/port.c **** variable. */
 133:Source\portable\GCC\ARM_CM3/port.c **** static UBaseType_t uxCriticalNesting = 0xaaaaaaaa;
 134:Source\portable\GCC\ARM_CM3/port.c **** 
 135:Source\portable\GCC\ARM_CM3/port.c **** /*
 136:Source\portable\GCC\ARM_CM3/port.c ****  * The number of SysTick increments that make up one tick period.
 137:Source\portable\GCC\ARM_CM3/port.c ****  */
 138:Source\portable\GCC\ARM_CM3/port.c **** #if( configUSE_TICKLESS_IDLE == 1 )
ARM GAS  C:\Users\mikke\AppData\Local\Temp\ccKVUC3O.s 			page 4


 139:Source\portable\GCC\ARM_CM3/port.c **** 	static uint32_t ulTimerCountsForOneTick = 0;
 140:Source\portable\GCC\ARM_CM3/port.c **** #endif /* configUSE_TICKLESS_IDLE */
 141:Source\portable\GCC\ARM_CM3/port.c **** 
 142:Source\portable\GCC\ARM_CM3/port.c **** /*
 143:Source\portable\GCC\ARM_CM3/port.c ****  * The maximum number of tick periods that can be suppressed is limited by the
 144:Source\portable\GCC\ARM_CM3/port.c ****  * 24 bit resolution of the SysTick timer.
 145:Source\portable\GCC\ARM_CM3/port.c ****  */
 146:Source\portable\GCC\ARM_CM3/port.c **** #if( configUSE_TICKLESS_IDLE == 1 )
 147:Source\portable\GCC\ARM_CM3/port.c **** 	static uint32_t xMaximumPossibleSuppressedTicks = 0;
 148:Source\portable\GCC\ARM_CM3/port.c **** #endif /* configUSE_TICKLESS_IDLE */
 149:Source\portable\GCC\ARM_CM3/port.c **** 
 150:Source\portable\GCC\ARM_CM3/port.c **** /*
 151:Source\portable\GCC\ARM_CM3/port.c ****  * Compensate for the CPU cycles that pass while the SysTick is stopped (low
 152:Source\portable\GCC\ARM_CM3/port.c ****  * power functionality only.
 153:Source\portable\GCC\ARM_CM3/port.c ****  */
 154:Source\portable\GCC\ARM_CM3/port.c **** #if( configUSE_TICKLESS_IDLE == 1 )
 155:Source\portable\GCC\ARM_CM3/port.c **** 	static uint32_t ulStoppedTimerCompensation = 0;
 156:Source\portable\GCC\ARM_CM3/port.c **** #endif /* configUSE_TICKLESS_IDLE */
 157:Source\portable\GCC\ARM_CM3/port.c **** 
 158:Source\portable\GCC\ARM_CM3/port.c **** /*
 159:Source\portable\GCC\ARM_CM3/port.c ****  * Used by the portASSERT_IF_INTERRUPT_PRIORITY_INVALID() macro to ensure
 160:Source\portable\GCC\ARM_CM3/port.c ****  * FreeRTOS API functions are not called from interrupts that have been assigned
 161:Source\portable\GCC\ARM_CM3/port.c ****  * a priority above configMAX_SYSCALL_INTERRUPT_PRIORITY.
 162:Source\portable\GCC\ARM_CM3/port.c ****  */
 163:Source\portable\GCC\ARM_CM3/port.c **** #if( configASSERT_DEFINED == 1 )
 164:Source\portable\GCC\ARM_CM3/port.c **** 	 static uint8_t ucMaxSysCallPriority = 0;
 165:Source\portable\GCC\ARM_CM3/port.c **** 	 static uint32_t ulMaxPRIGROUPValue = 0;
 166:Source\portable\GCC\ARM_CM3/port.c **** 	 static const volatile uint8_t * const pcInterruptPriorityRegisters = ( const volatile uint8_t * c
 167:Source\portable\GCC\ARM_CM3/port.c **** #endif /* configASSERT_DEFINED */
 168:Source\portable\GCC\ARM_CM3/port.c **** 
 169:Source\portable\GCC\ARM_CM3/port.c **** /*-----------------------------------------------------------*/
 170:Source\portable\GCC\ARM_CM3/port.c **** 
 171:Source\portable\GCC\ARM_CM3/port.c **** /*
 172:Source\portable\GCC\ARM_CM3/port.c ****  * See header file for description.
 173:Source\portable\GCC\ARM_CM3/port.c ****  */
 174:Source\portable\GCC\ARM_CM3/port.c **** StackType_t *pxPortInitialiseStack( StackType_t *pxTopOfStack, TaskFunction_t pxCode, void *pvParam
 175:Source\portable\GCC\ARM_CM3/port.c **** {
  34              		.loc 1 175 0
  35              		.cfi_startproc
  36              		@ args = 0, pretend = 0, frame = 16
  37              		@ frame_needed = 1, uses_anonymous_args = 0
  38              		@ link register save eliminated.
  39 0000 80B4     		push	{r7}
  40              		.cfi_def_cfa_offset 4
  41              		.cfi_offset 7, -4
  42 0002 85B0     		sub	sp, sp, #20
  43              		.cfi_def_cfa_offset 24
  44 0004 00AF     		add	r7, sp, #0
  45              		.cfi_def_cfa_register 7
  46 0006 F860     		str	r0, [r7, #12]
  47 0008 B960     		str	r1, [r7, #8]
  48 000a 7A60     		str	r2, [r7, #4]
 176:Source\portable\GCC\ARM_CM3/port.c **** 	/* Simulate the stack frame as it would be created by a context switch
 177:Source\portable\GCC\ARM_CM3/port.c **** 	interrupt. */
 178:Source\portable\GCC\ARM_CM3/port.c **** 	pxTopOfStack--; /* Offset added to account for the way the MCU uses the stack on entry/exit of int
  49              		.loc 1 178 0
  50 000c FB68     		ldr	r3, [r7, #12]
ARM GAS  C:\Users\mikke\AppData\Local\Temp\ccKVUC3O.s 			page 5


  51 000e 043B     		subs	r3, r3, #4
  52 0010 FB60     		str	r3, [r7, #12]
 179:Source\portable\GCC\ARM_CM3/port.c **** 	*pxTopOfStack = portINITIAL_XPSR;	/* xPSR */
  53              		.loc 1 179 0
  54 0012 FB68     		ldr	r3, [r7, #12]
  55 0014 4FF08072 		mov	r2, #16777216
  56 0018 1A60     		str	r2, [r3]
 180:Source\portable\GCC\ARM_CM3/port.c **** 	pxTopOfStack--;
  57              		.loc 1 180 0
  58 001a FB68     		ldr	r3, [r7, #12]
  59 001c 043B     		subs	r3, r3, #4
  60 001e FB60     		str	r3, [r7, #12]
 181:Source\portable\GCC\ARM_CM3/port.c **** 	*pxTopOfStack = ( ( StackType_t ) pxCode ) & portSTART_ADDRESS_MASK;	/* PC */
  61              		.loc 1 181 0
  62 0020 BB68     		ldr	r3, [r7, #8]
  63 0022 23F00102 		bic	r2, r3, #1
  64 0026 FB68     		ldr	r3, [r7, #12]
  65 0028 1A60     		str	r2, [r3]
 182:Source\portable\GCC\ARM_CM3/port.c **** 	pxTopOfStack--;
  66              		.loc 1 182 0
  67 002a FB68     		ldr	r3, [r7, #12]
  68 002c 043B     		subs	r3, r3, #4
  69 002e FB60     		str	r3, [r7, #12]
 183:Source\portable\GCC\ARM_CM3/port.c **** 	*pxTopOfStack = ( StackType_t ) portTASK_RETURN_ADDRESS;	/* LR */
  70              		.loc 1 183 0
  71 0030 084A     		ldr	r2, .L3
  72 0032 FB68     		ldr	r3, [r7, #12]
  73 0034 1A60     		str	r2, [r3]
 184:Source\portable\GCC\ARM_CM3/port.c **** 	pxTopOfStack -= 5;	/* R12, R3, R2 and R1. */
  74              		.loc 1 184 0
  75 0036 FB68     		ldr	r3, [r7, #12]
  76 0038 143B     		subs	r3, r3, #20
  77 003a FB60     		str	r3, [r7, #12]
 185:Source\portable\GCC\ARM_CM3/port.c **** 	*pxTopOfStack = ( StackType_t ) pvParameters;	/* R0 */
  78              		.loc 1 185 0
  79 003c 7A68     		ldr	r2, [r7, #4]
  80 003e FB68     		ldr	r3, [r7, #12]
  81 0040 1A60     		str	r2, [r3]
 186:Source\portable\GCC\ARM_CM3/port.c **** 	pxTopOfStack -= 8;	/* R11, R10, R9, R8, R7, R6, R5 and R4. */
  82              		.loc 1 186 0
  83 0042 FB68     		ldr	r3, [r7, #12]
  84 0044 203B     		subs	r3, r3, #32
  85 0046 FB60     		str	r3, [r7, #12]
 187:Source\portable\GCC\ARM_CM3/port.c **** 
 188:Source\portable\GCC\ARM_CM3/port.c **** 	return pxTopOfStack;
  86              		.loc 1 188 0
  87 0048 FB68     		ldr	r3, [r7, #12]
 189:Source\portable\GCC\ARM_CM3/port.c **** }
  88              		.loc 1 189 0
  89 004a 1846     		mov	r0, r3
  90 004c 1437     		adds	r7, r7, #20
  91              		.cfi_def_cfa_offset 4
  92 004e BD46     		mov	sp, r7
  93              		.cfi_def_cfa_register 13
  94              		@ sp needed
  95 0050 80BC     		pop	{r7}
  96              		.cfi_restore 7
ARM GAS  C:\Users\mikke\AppData\Local\Temp\ccKVUC3O.s 			page 6


  97              		.cfi_def_cfa_offset 0
  98 0052 7047     		bx	lr
  99              	.L4:
 100              		.align	2
 101              	.L3:
 102 0054 00000000 		.word	prvTaskExitError
 103              		.cfi_endproc
 104              	.LFE68:
 105              		.size	pxPortInitialiseStack, .-pxPortInitialiseStack
 106              		.section	.text.prvTaskExitError,"ax",%progbits
 107              		.align	2
 108              		.thumb
 109              		.thumb_func
 110              		.type	prvTaskExitError, %function
 111              	prvTaskExitError:
 112              	.LFB69:
 190:Source\portable\GCC\ARM_CM3/port.c **** /*-----------------------------------------------------------*/
 191:Source\portable\GCC\ARM_CM3/port.c **** 
 192:Source\portable\GCC\ARM_CM3/port.c **** static void prvTaskExitError( void )
 193:Source\portable\GCC\ARM_CM3/port.c **** {
 113              		.loc 1 193 0
 114              		.cfi_startproc
 115              		@ args = 0, pretend = 0, frame = 8
 116              		@ frame_needed = 1, uses_anonymous_args = 0
 117              		@ link register save eliminated.
 118 0000 80B4     		push	{r7}
 119              		.cfi_def_cfa_offset 4
 120              		.cfi_offset 7, -4
 121 0002 83B0     		sub	sp, sp, #12
 122              		.cfi_def_cfa_offset 16
 123 0004 00AF     		add	r7, sp, #0
 124              		.cfi_def_cfa_register 7
 194:Source\portable\GCC\ARM_CM3/port.c **** volatile uint32_t ulDummy = 0UL;
 125              		.loc 1 194 0
 126 0006 0023     		movs	r3, #0
 127 0008 3B60     		str	r3, [r7]
 128              	.LBB12:
 129              	.LBB13:
 130              		.file 2 ".\\Source\\portable\\GCC\\ARM_CM3/portmacro.h"
   1:.\Source\portable\GCC\ARM_CM3/portmacro.h **** /*
   2:.\Source\portable\GCC\ARM_CM3/portmacro.h ****  * FreeRTOS Kernel V10.3.1
   3:.\Source\portable\GCC\ARM_CM3/portmacro.h ****  * Copyright (C) 2020 Amazon.com, Inc. or its affiliates.  All Rights Reserved.
   4:.\Source\portable\GCC\ARM_CM3/portmacro.h ****  *
   5:.\Source\portable\GCC\ARM_CM3/portmacro.h ****  * Permission is hereby granted, free of charge, to any person obtaining a copy of
   6:.\Source\portable\GCC\ARM_CM3/portmacro.h ****  * this software and associated documentation files (the "Software"), to deal in
   7:.\Source\portable\GCC\ARM_CM3/portmacro.h ****  * the Software without restriction, including without limitation the rights to
   8:.\Source\portable\GCC\ARM_CM3/portmacro.h ****  * use, copy, modify, merge, publish, distribute, sublicense, and/or sell copies of
   9:.\Source\portable\GCC\ARM_CM3/portmacro.h ****  * the Software, and to permit persons to whom the Software is furnished to do so,
  10:.\Source\portable\GCC\ARM_CM3/portmacro.h ****  * subject to the following conditions:
  11:.\Source\portable\GCC\ARM_CM3/portmacro.h ****  *
  12:.\Source\portable\GCC\ARM_CM3/portmacro.h ****  * The above copyright notice and this permission notice shall be included in all
  13:.\Source\portable\GCC\ARM_CM3/portmacro.h ****  * copies or substantial portions of the Software.
  14:.\Source\portable\GCC\ARM_CM3/portmacro.h ****  *
  15:.\Source\portable\GCC\ARM_CM3/portmacro.h ****  * THE SOFTWARE IS PROVIDED "AS IS", WITHOUT WARRANTY OF ANY KIND, EXPRESS OR
  16:.\Source\portable\GCC\ARM_CM3/portmacro.h ****  * IMPLIED, INCLUDING BUT NOT LIMITED TO THE WARRANTIES OF MERCHANTABILITY, FITNESS
  17:.\Source\portable\GCC\ARM_CM3/portmacro.h ****  * FOR A PARTICULAR PURPOSE AND NONINFRINGEMENT. IN NO EVENT SHALL THE AUTHORS OR
  18:.\Source\portable\GCC\ARM_CM3/portmacro.h ****  * COPYRIGHT HOLDERS BE LIABLE FOR ANY CLAIM, DAMAGES OR OTHER LIABILITY, WHETHER
ARM GAS  C:\Users\mikke\AppData\Local\Temp\ccKVUC3O.s 			page 7


  19:.\Source\portable\GCC\ARM_CM3/portmacro.h ****  * IN AN ACTION OF CONTRACT, TORT OR OTHERWISE, ARISING FROM, OUT OF OR IN
  20:.\Source\portable\GCC\ARM_CM3/portmacro.h ****  * CONNECTION WITH THE SOFTWARE OR THE USE OR OTHER DEALINGS IN THE SOFTWARE.
  21:.\Source\portable\GCC\ARM_CM3/portmacro.h ****  *
  22:.\Source\portable\GCC\ARM_CM3/portmacro.h ****  * http://www.FreeRTOS.org
  23:.\Source\portable\GCC\ARM_CM3/portmacro.h ****  * http://aws.amazon.com/freertos
  24:.\Source\portable\GCC\ARM_CM3/portmacro.h ****  *
  25:.\Source\portable\GCC\ARM_CM3/portmacro.h ****  * 1 tab == 4 spaces!
  26:.\Source\portable\GCC\ARM_CM3/portmacro.h ****  */
  27:.\Source\portable\GCC\ARM_CM3/portmacro.h **** 
  28:.\Source\portable\GCC\ARM_CM3/portmacro.h **** 
  29:.\Source\portable\GCC\ARM_CM3/portmacro.h **** #ifndef PORTMACRO_H
  30:.\Source\portable\GCC\ARM_CM3/portmacro.h **** #define PORTMACRO_H
  31:.\Source\portable\GCC\ARM_CM3/portmacro.h **** 
  32:.\Source\portable\GCC\ARM_CM3/portmacro.h **** #ifdef __cplusplus
  33:.\Source\portable\GCC\ARM_CM3/portmacro.h **** extern "C" {
  34:.\Source\portable\GCC\ARM_CM3/portmacro.h **** #endif
  35:.\Source\portable\GCC\ARM_CM3/portmacro.h **** 
  36:.\Source\portable\GCC\ARM_CM3/portmacro.h **** /*-----------------------------------------------------------
  37:.\Source\portable\GCC\ARM_CM3/portmacro.h ****  * Port specific definitions.
  38:.\Source\portable\GCC\ARM_CM3/portmacro.h ****  *
  39:.\Source\portable\GCC\ARM_CM3/portmacro.h ****  * The settings in this file configure FreeRTOS correctly for the
  40:.\Source\portable\GCC\ARM_CM3/portmacro.h ****  * given hardware and compiler.
  41:.\Source\portable\GCC\ARM_CM3/portmacro.h ****  *
  42:.\Source\portable\GCC\ARM_CM3/portmacro.h ****  * These settings should not be altered.
  43:.\Source\portable\GCC\ARM_CM3/portmacro.h ****  *-----------------------------------------------------------
  44:.\Source\portable\GCC\ARM_CM3/portmacro.h ****  */
  45:.\Source\portable\GCC\ARM_CM3/portmacro.h **** 
  46:.\Source\portable\GCC\ARM_CM3/portmacro.h **** /* Type definitions. */
  47:.\Source\portable\GCC\ARM_CM3/portmacro.h **** #define portCHAR		char
  48:.\Source\portable\GCC\ARM_CM3/portmacro.h **** #define portFLOAT		float
  49:.\Source\portable\GCC\ARM_CM3/portmacro.h **** #define portDOUBLE		double
  50:.\Source\portable\GCC\ARM_CM3/portmacro.h **** #define portLONG		long
  51:.\Source\portable\GCC\ARM_CM3/portmacro.h **** #define portSHORT		short
  52:.\Source\portable\GCC\ARM_CM3/portmacro.h **** #define portSTACK_TYPE	uint32_t
  53:.\Source\portable\GCC\ARM_CM3/portmacro.h **** #define portBASE_TYPE	long
  54:.\Source\portable\GCC\ARM_CM3/portmacro.h **** 
  55:.\Source\portable\GCC\ARM_CM3/portmacro.h **** typedef portSTACK_TYPE StackType_t;
  56:.\Source\portable\GCC\ARM_CM3/portmacro.h **** typedef long BaseType_t;
  57:.\Source\portable\GCC\ARM_CM3/portmacro.h **** typedef unsigned long UBaseType_t;
  58:.\Source\portable\GCC\ARM_CM3/portmacro.h **** 
  59:.\Source\portable\GCC\ARM_CM3/portmacro.h **** #if( configUSE_16_BIT_TICKS == 1 )
  60:.\Source\portable\GCC\ARM_CM3/portmacro.h **** 	typedef uint16_t TickType_t;
  61:.\Source\portable\GCC\ARM_CM3/portmacro.h **** 	#define portMAX_DELAY ( TickType_t ) 0xffff
  62:.\Source\portable\GCC\ARM_CM3/portmacro.h **** #else
  63:.\Source\portable\GCC\ARM_CM3/portmacro.h **** 	typedef uint32_t TickType_t;
  64:.\Source\portable\GCC\ARM_CM3/portmacro.h **** 	#define portMAX_DELAY ( TickType_t ) 0xffffffffUL
  65:.\Source\portable\GCC\ARM_CM3/portmacro.h **** 
  66:.\Source\portable\GCC\ARM_CM3/portmacro.h **** 	/* 32-bit tick type on a 32-bit architecture, so reads of the tick count do
  67:.\Source\portable\GCC\ARM_CM3/portmacro.h **** 	not need to be guarded with a critical section. */
  68:.\Source\portable\GCC\ARM_CM3/portmacro.h **** 	#define portTICK_TYPE_IS_ATOMIC 1
  69:.\Source\portable\GCC\ARM_CM3/portmacro.h **** #endif
  70:.\Source\portable\GCC\ARM_CM3/portmacro.h **** /*-----------------------------------------------------------*/
  71:.\Source\portable\GCC\ARM_CM3/portmacro.h **** 
  72:.\Source\portable\GCC\ARM_CM3/portmacro.h **** /* Architecture specifics. */
  73:.\Source\portable\GCC\ARM_CM3/portmacro.h **** #define portSTACK_GROWTH			( -1 )
  74:.\Source\portable\GCC\ARM_CM3/portmacro.h **** #define portTICK_PERIOD_MS			( ( TickType_t ) 1000 / configTICK_RATE_HZ )
  75:.\Source\portable\GCC\ARM_CM3/portmacro.h **** #define portBYTE_ALIGNMENT			8
ARM GAS  C:\Users\mikke\AppData\Local\Temp\ccKVUC3O.s 			page 8


  76:.\Source\portable\GCC\ARM_CM3/portmacro.h **** /*-----------------------------------------------------------*/
  77:.\Source\portable\GCC\ARM_CM3/portmacro.h **** 
  78:.\Source\portable\GCC\ARM_CM3/portmacro.h **** /* Scheduler utilities. */
  79:.\Source\portable\GCC\ARM_CM3/portmacro.h **** #define portYIELD() 															\
  80:.\Source\portable\GCC\ARM_CM3/portmacro.h **** {																				\
  81:.\Source\portable\GCC\ARM_CM3/portmacro.h **** 	/* Set a PendSV to request a context switch. */								\
  82:.\Source\portable\GCC\ARM_CM3/portmacro.h **** 	portNVIC_INT_CTRL_REG = portNVIC_PENDSVSET_BIT;								\
  83:.\Source\portable\GCC\ARM_CM3/portmacro.h **** 																				\
  84:.\Source\portable\GCC\ARM_CM3/portmacro.h **** 	/* Barriers are normally not required but do ensure the code is completely	\
  85:.\Source\portable\GCC\ARM_CM3/portmacro.h **** 	within the specified behaviour for the architecture. */						\
  86:.\Source\portable\GCC\ARM_CM3/portmacro.h **** 	__asm volatile( "dsb" ::: "memory" );										\
  87:.\Source\portable\GCC\ARM_CM3/portmacro.h **** 	__asm volatile( "isb" );													\
  88:.\Source\portable\GCC\ARM_CM3/portmacro.h **** }
  89:.\Source\portable\GCC\ARM_CM3/portmacro.h **** 
  90:.\Source\portable\GCC\ARM_CM3/portmacro.h **** #define portNVIC_INT_CTRL_REG		( * ( ( volatile uint32_t * ) 0xe000ed04 ) )
  91:.\Source\portable\GCC\ARM_CM3/portmacro.h **** #define portNVIC_PENDSVSET_BIT		( 1UL << 28UL )
  92:.\Source\portable\GCC\ARM_CM3/portmacro.h **** #define portEND_SWITCHING_ISR( xSwitchRequired ) if( xSwitchRequired != pdFALSE ) portYIELD()
  93:.\Source\portable\GCC\ARM_CM3/portmacro.h **** #define portYIELD_FROM_ISR( x ) portEND_SWITCHING_ISR( x )
  94:.\Source\portable\GCC\ARM_CM3/portmacro.h **** /*-----------------------------------------------------------*/
  95:.\Source\portable\GCC\ARM_CM3/portmacro.h **** 
  96:.\Source\portable\GCC\ARM_CM3/portmacro.h **** /* Critical section management. */
  97:.\Source\portable\GCC\ARM_CM3/portmacro.h **** extern void vPortEnterCritical( void );
  98:.\Source\portable\GCC\ARM_CM3/portmacro.h **** extern void vPortExitCritical( void );
  99:.\Source\portable\GCC\ARM_CM3/portmacro.h **** #define portSET_INTERRUPT_MASK_FROM_ISR()		ulPortRaiseBASEPRI()
 100:.\Source\portable\GCC\ARM_CM3/portmacro.h **** #define portCLEAR_INTERRUPT_MASK_FROM_ISR(x)	vPortSetBASEPRI(x)
 101:.\Source\portable\GCC\ARM_CM3/portmacro.h **** #define portDISABLE_INTERRUPTS()				vPortRaiseBASEPRI()
 102:.\Source\portable\GCC\ARM_CM3/portmacro.h **** #define portENABLE_INTERRUPTS()					vPortSetBASEPRI(0)
 103:.\Source\portable\GCC\ARM_CM3/portmacro.h **** #define portENTER_CRITICAL()					vPortEnterCritical()
 104:.\Source\portable\GCC\ARM_CM3/portmacro.h **** #define portEXIT_CRITICAL()						vPortExitCritical()
 105:.\Source\portable\GCC\ARM_CM3/portmacro.h **** 
 106:.\Source\portable\GCC\ARM_CM3/portmacro.h **** /*-----------------------------------------------------------*/
 107:.\Source\portable\GCC\ARM_CM3/portmacro.h **** 
 108:.\Source\portable\GCC\ARM_CM3/portmacro.h **** /* Task function macros as described on the FreeRTOS.org WEB site.  These are
 109:.\Source\portable\GCC\ARM_CM3/portmacro.h **** not necessary for to use this port.  They are defined so the common demo files
 110:.\Source\portable\GCC\ARM_CM3/portmacro.h **** (which build with all the ports) will build. */
 111:.\Source\portable\GCC\ARM_CM3/portmacro.h **** #define portTASK_FUNCTION_PROTO( vFunction, pvParameters ) void vFunction( void *pvParameters )
 112:.\Source\portable\GCC\ARM_CM3/portmacro.h **** #define portTASK_FUNCTION( vFunction, pvParameters ) void vFunction( void *pvParameters )
 113:.\Source\portable\GCC\ARM_CM3/portmacro.h **** /*-----------------------------------------------------------*/
 114:.\Source\portable\GCC\ARM_CM3/portmacro.h **** 
 115:.\Source\portable\GCC\ARM_CM3/portmacro.h **** /* Tickless idle/low power functionality. */
 116:.\Source\portable\GCC\ARM_CM3/portmacro.h **** #ifndef portSUPPRESS_TICKS_AND_SLEEP
 117:.\Source\portable\GCC\ARM_CM3/portmacro.h **** 	extern void vPortSuppressTicksAndSleep( TickType_t xExpectedIdleTime );
 118:.\Source\portable\GCC\ARM_CM3/portmacro.h **** 	#define portSUPPRESS_TICKS_AND_SLEEP( xExpectedIdleTime ) vPortSuppressTicksAndSleep( xExpectedIdl
 119:.\Source\portable\GCC\ARM_CM3/portmacro.h **** #endif
 120:.\Source\portable\GCC\ARM_CM3/portmacro.h **** /*-----------------------------------------------------------*/
 121:.\Source\portable\GCC\ARM_CM3/portmacro.h **** 
 122:.\Source\portable\GCC\ARM_CM3/portmacro.h **** /* Architecture specific optimisations. */
 123:.\Source\portable\GCC\ARM_CM3/portmacro.h **** #ifndef configUSE_PORT_OPTIMISED_TASK_SELECTION
 124:.\Source\portable\GCC\ARM_CM3/portmacro.h **** 	#define configUSE_PORT_OPTIMISED_TASK_SELECTION 1
 125:.\Source\portable\GCC\ARM_CM3/portmacro.h **** #endif
 126:.\Source\portable\GCC\ARM_CM3/portmacro.h **** 
 127:.\Source\portable\GCC\ARM_CM3/portmacro.h **** #if configUSE_PORT_OPTIMISED_TASK_SELECTION == 1
 128:.\Source\portable\GCC\ARM_CM3/portmacro.h **** 
 129:.\Source\portable\GCC\ARM_CM3/portmacro.h **** 	/* Generic helper function. */
 130:.\Source\portable\GCC\ARM_CM3/portmacro.h **** 	__attribute__( ( always_inline ) ) static inline uint8_t ucPortCountLeadingZeros( uint32_t ulBitma
 131:.\Source\portable\GCC\ARM_CM3/portmacro.h **** 	{
 132:.\Source\portable\GCC\ARM_CM3/portmacro.h **** 	uint8_t ucReturn;
ARM GAS  C:\Users\mikke\AppData\Local\Temp\ccKVUC3O.s 			page 9


 133:.\Source\portable\GCC\ARM_CM3/portmacro.h **** 
 134:.\Source\portable\GCC\ARM_CM3/portmacro.h **** 		__asm volatile ( "clz %0, %1" : "=r" ( ucReturn ) : "r" ( ulBitmap ) : "memory" );
 135:.\Source\portable\GCC\ARM_CM3/portmacro.h **** 		return ucReturn;
 136:.\Source\portable\GCC\ARM_CM3/portmacro.h **** 	}
 137:.\Source\portable\GCC\ARM_CM3/portmacro.h **** 
 138:.\Source\portable\GCC\ARM_CM3/portmacro.h **** 	/* Check the configuration. */
 139:.\Source\portable\GCC\ARM_CM3/portmacro.h **** 	#if( configMAX_PRIORITIES > 32 )
 140:.\Source\portable\GCC\ARM_CM3/portmacro.h **** 		#error configUSE_PORT_OPTIMISED_TASK_SELECTION can only be set to 1 when configMAX_PRIORITIES is 
 141:.\Source\portable\GCC\ARM_CM3/portmacro.h **** 	#endif
 142:.\Source\portable\GCC\ARM_CM3/portmacro.h **** 
 143:.\Source\portable\GCC\ARM_CM3/portmacro.h **** 	/* Store/clear the ready priorities in a bit map. */
 144:.\Source\portable\GCC\ARM_CM3/portmacro.h **** 	#define portRECORD_READY_PRIORITY( uxPriority, uxReadyPriorities ) ( uxReadyPriorities ) |= ( 1UL 
 145:.\Source\portable\GCC\ARM_CM3/portmacro.h **** 	#define portRESET_READY_PRIORITY( uxPriority, uxReadyPriorities ) ( uxReadyPriorities ) &= ~( 1UL 
 146:.\Source\portable\GCC\ARM_CM3/portmacro.h **** 
 147:.\Source\portable\GCC\ARM_CM3/portmacro.h **** 	/*-----------------------------------------------------------*/
 148:.\Source\portable\GCC\ARM_CM3/portmacro.h **** 
 149:.\Source\portable\GCC\ARM_CM3/portmacro.h **** 	#define portGET_HIGHEST_PRIORITY( uxTopPriority, uxReadyPriorities ) uxTopPriority = ( 31UL - ( ui
 150:.\Source\portable\GCC\ARM_CM3/portmacro.h **** 
 151:.\Source\portable\GCC\ARM_CM3/portmacro.h **** #endif /* configUSE_PORT_OPTIMISED_TASK_SELECTION */
 152:.\Source\portable\GCC\ARM_CM3/portmacro.h **** 
 153:.\Source\portable\GCC\ARM_CM3/portmacro.h **** /*-----------------------------------------------------------*/
 154:.\Source\portable\GCC\ARM_CM3/portmacro.h **** 
 155:.\Source\portable\GCC\ARM_CM3/portmacro.h **** #ifdef configASSERT
 156:.\Source\portable\GCC\ARM_CM3/portmacro.h **** 	void vPortValidateInterruptPriority( void );
 157:.\Source\portable\GCC\ARM_CM3/portmacro.h **** 	#define portASSERT_IF_INTERRUPT_PRIORITY_INVALID() 	vPortValidateInterruptPriority()
 158:.\Source\portable\GCC\ARM_CM3/portmacro.h **** #endif
 159:.\Source\portable\GCC\ARM_CM3/portmacro.h **** 
 160:.\Source\portable\GCC\ARM_CM3/portmacro.h **** /* portNOP() is not required by this port. */
 161:.\Source\portable\GCC\ARM_CM3/portmacro.h **** #define portNOP()
 162:.\Source\portable\GCC\ARM_CM3/portmacro.h **** 
 163:.\Source\portable\GCC\ARM_CM3/portmacro.h **** #define portINLINE	__inline
 164:.\Source\portable\GCC\ARM_CM3/portmacro.h **** 
 165:.\Source\portable\GCC\ARM_CM3/portmacro.h **** #ifndef portFORCE_INLINE
 166:.\Source\portable\GCC\ARM_CM3/portmacro.h **** 	#define portFORCE_INLINE inline __attribute__(( always_inline))
 167:.\Source\portable\GCC\ARM_CM3/portmacro.h **** #endif
 168:.\Source\portable\GCC\ARM_CM3/portmacro.h **** 
 169:.\Source\portable\GCC\ARM_CM3/portmacro.h **** /*-----------------------------------------------------------*/
 170:.\Source\portable\GCC\ARM_CM3/portmacro.h **** 
 171:.\Source\portable\GCC\ARM_CM3/portmacro.h **** portFORCE_INLINE static BaseType_t xPortIsInsideInterrupt( void )
 172:.\Source\portable\GCC\ARM_CM3/portmacro.h **** {
 173:.\Source\portable\GCC\ARM_CM3/portmacro.h **** uint32_t ulCurrentInterrupt;
 174:.\Source\portable\GCC\ARM_CM3/portmacro.h **** BaseType_t xReturn;
 175:.\Source\portable\GCC\ARM_CM3/portmacro.h **** 
 176:.\Source\portable\GCC\ARM_CM3/portmacro.h **** 	/* Obtain the number of the currently executing interrupt. */
 177:.\Source\portable\GCC\ARM_CM3/portmacro.h **** 	__asm volatile( "mrs %0, ipsr" : "=r"( ulCurrentInterrupt ) :: "memory" );
 178:.\Source\portable\GCC\ARM_CM3/portmacro.h **** 
 179:.\Source\portable\GCC\ARM_CM3/portmacro.h **** 	if( ulCurrentInterrupt == 0 )
 180:.\Source\portable\GCC\ARM_CM3/portmacro.h **** 	{
 181:.\Source\portable\GCC\ARM_CM3/portmacro.h **** 		xReturn = pdFALSE;
 182:.\Source\portable\GCC\ARM_CM3/portmacro.h **** 	}
 183:.\Source\portable\GCC\ARM_CM3/portmacro.h **** 	else
 184:.\Source\portable\GCC\ARM_CM3/portmacro.h **** 	{
 185:.\Source\portable\GCC\ARM_CM3/portmacro.h **** 		xReturn = pdTRUE;
 186:.\Source\portable\GCC\ARM_CM3/portmacro.h **** 	}
 187:.\Source\portable\GCC\ARM_CM3/portmacro.h **** 
 188:.\Source\portable\GCC\ARM_CM3/portmacro.h **** 	return xReturn;
 189:.\Source\portable\GCC\ARM_CM3/portmacro.h **** }
ARM GAS  C:\Users\mikke\AppData\Local\Temp\ccKVUC3O.s 			page 10


 190:.\Source\portable\GCC\ARM_CM3/portmacro.h **** 
 191:.\Source\portable\GCC\ARM_CM3/portmacro.h **** /*-----------------------------------------------------------*/
 192:.\Source\portable\GCC\ARM_CM3/portmacro.h **** 
 193:.\Source\portable\GCC\ARM_CM3/portmacro.h **** portFORCE_INLINE static void vPortRaiseBASEPRI( void )
 194:.\Source\portable\GCC\ARM_CM3/portmacro.h **** {
 195:.\Source\portable\GCC\ARM_CM3/portmacro.h **** uint32_t ulNewBASEPRI;
 196:.\Source\portable\GCC\ARM_CM3/portmacro.h **** 
 197:.\Source\portable\GCC\ARM_CM3/portmacro.h **** 	__asm volatile
 131              		.loc 2 197 0
 132              		.syntax unified
 133              	@ 197 ".\Source\portable\GCC\ARM_CM3/portmacro.h" 1
 134 000a 4FF0A003 			mov r3, #160												
 135 000e 83F31188 		msr basepri, r3											
 136 0012 BFF36F8F 		isb														
 137 0016 BFF34F8F 		dsb														
 138              	
 139              	@ 0 "" 2
 140              		.thumb
 141              		.syntax unified
 142 001a 7B60     		str	r3, [r7, #4]
 143              	.LBE13:
 144              	.LBE12:
 195:Source\portable\GCC\ARM_CM3/port.c **** 
 196:Source\portable\GCC\ARM_CM3/port.c **** 	/* A function that implements a task must not exit or attempt to return to
 197:Source\portable\GCC\ARM_CM3/port.c **** 	its caller as there is nothing to return to.  If a task wants to exit it
 198:Source\portable\GCC\ARM_CM3/port.c **** 	should instead call vTaskDelete( NULL ).
 199:Source\portable\GCC\ARM_CM3/port.c **** 
 200:Source\portable\GCC\ARM_CM3/port.c **** 	Artificially force an assert() to be triggered if configASSERT() is
 201:Source\portable\GCC\ARM_CM3/port.c **** 	defined, then stop here so application writers can catch the error. */
 202:Source\portable\GCC\ARM_CM3/port.c **** 	configASSERT( uxCriticalNesting == ~0UL );
 203:Source\portable\GCC\ARM_CM3/port.c **** 	portDISABLE_INTERRUPTS();
 204:Source\portable\GCC\ARM_CM3/port.c **** 	while( ulDummy == 0 )
 145              		.loc 1 204 0
 146 001c 00BF     		nop
 147              	.L6:
 148              		.loc 1 204 0 is_stmt 0 discriminator 1
 149 001e 3B68     		ldr	r3, [r7]
 150 0020 002B     		cmp	r3, #0
 151 0022 FCD0     		beq	.L6
 205:Source\portable\GCC\ARM_CM3/port.c **** 	{
 206:Source\portable\GCC\ARM_CM3/port.c **** 		/* This file calls prvTaskExitError() after the scheduler has been
 207:Source\portable\GCC\ARM_CM3/port.c **** 		started to remove a compiler warning about the function being defined
 208:Source\portable\GCC\ARM_CM3/port.c **** 		but never called.  ulDummy is used purely to quieten other warnings
 209:Source\portable\GCC\ARM_CM3/port.c **** 		about code appearing after this function is called - making ulDummy
 210:Source\portable\GCC\ARM_CM3/port.c **** 		volatile makes the compiler think the function could return and
 211:Source\portable\GCC\ARM_CM3/port.c **** 		therefore not output an 'unreachable code' warning for code that appears
 212:Source\portable\GCC\ARM_CM3/port.c **** 		after it. */
 213:Source\portable\GCC\ARM_CM3/port.c **** 	}
 214:Source\portable\GCC\ARM_CM3/port.c **** }
 152              		.loc 1 214 0 is_stmt 1
 153 0024 00BF     		nop
 154 0026 0C37     		adds	r7, r7, #12
 155              		.cfi_def_cfa_offset 4
 156 0028 BD46     		mov	sp, r7
 157              		.cfi_def_cfa_register 13
 158              		@ sp needed
 159 002a 80BC     		pop	{r7}
ARM GAS  C:\Users\mikke\AppData\Local\Temp\ccKVUC3O.s 			page 11


 160              		.cfi_restore 7
 161              		.cfi_def_cfa_offset 0
 162 002c 7047     		bx	lr
 163              		.cfi_endproc
 164              	.LFE69:
 165              		.size	prvTaskExitError, .-prvTaskExitError
 166 002e 00BF     		.section	.text.vPortSVCHandler,"ax",%progbits
 167              		.align	2
 168              		.global	vPortSVCHandler
 169              		.thumb
 170              		.thumb_func
 171              		.type	vPortSVCHandler, %function
 172              	vPortSVCHandler:
 173              	.LFB70:
 215:Source\portable\GCC\ARM_CM3/port.c **** /*-----------------------------------------------------------*/
 216:Source\portable\GCC\ARM_CM3/port.c **** 
 217:Source\portable\GCC\ARM_CM3/port.c **** void vPortSVCHandler( void )
 218:Source\portable\GCC\ARM_CM3/port.c **** {
 174              		.loc 1 218 0
 175              		.cfi_startproc
 176              		@ Naked Function: prologue and epilogue provided by programmer.
 177              		@ args = 0, pretend = 0, frame = 0
 178              		@ frame_needed = 1, uses_anonymous_args = 0
 219:Source\portable\GCC\ARM_CM3/port.c **** 	__asm volatile (
 179              		.loc 1 219 0
 180              		.syntax unified
 181              	@ 219 "Source\portable\GCC\ARM_CM3\port.c" 1
 182 0000 074B     			ldr	r3, pxCurrentTCBConst2		
 183 0002 1968     		ldr r1, [r3]					
 184 0004 0868     		ldr r0, [r1]					
 185 0006 B0E8F00F 		ldmia r0!, {r4-r11}				
 186 000a 80F30988 		msr psp, r0						
 187 000e BFF36F8F 		isb								
 188 0012 4FF00000 		mov r0, #0 						
 189 0016 80F31188 		msr	basepri, r0					
 190 001a 4EF00D0E 		orr r14, #0xd					
 191 001e 7047     		bx r14							
 192              										
 193              		.align 4						
 194 0020 00000000 	pxCurrentTCBConst2: .word pxCurrentTCB				
 195              	
 196              	@ 0 "" 2
 220:Source\portable\GCC\ARM_CM3/port.c **** 					"	ldr	r3, pxCurrentTCBConst2		\n" /* Restore the context. */
 221:Source\portable\GCC\ARM_CM3/port.c **** 					"	ldr r1, [r3]					\n" /* Use pxCurrentTCBConst to get the pxCurrentTCB address. */
 222:Source\portable\GCC\ARM_CM3/port.c **** 					"	ldr r0, [r1]					\n" /* The first item in pxCurrentTCB is the task top of stack. */
 223:Source\portable\GCC\ARM_CM3/port.c **** 					"	ldmia r0!, {r4-r11}				\n" /* Pop the registers that are not automatically saved on exceptio
 224:Source\portable\GCC\ARM_CM3/port.c **** 					"	msr psp, r0						\n" /* Restore the task stack pointer. */
 225:Source\portable\GCC\ARM_CM3/port.c **** 					"	isb								\n"
 226:Source\portable\GCC\ARM_CM3/port.c **** 					"	mov r0, #0 						\n"
 227:Source\portable\GCC\ARM_CM3/port.c **** 					"	msr	basepri, r0					\n"
 228:Source\portable\GCC\ARM_CM3/port.c **** 					"	orr r14, #0xd					\n"
 229:Source\portable\GCC\ARM_CM3/port.c **** 					"	bx r14							\n"
 230:Source\portable\GCC\ARM_CM3/port.c **** 					"									\n"
 231:Source\portable\GCC\ARM_CM3/port.c **** 					"	.align 4						\n"
 232:Source\portable\GCC\ARM_CM3/port.c **** 					"pxCurrentTCBConst2: .word pxCurrentTCB				\n"
 233:Source\portable\GCC\ARM_CM3/port.c **** 				);
 234:Source\portable\GCC\ARM_CM3/port.c **** }
ARM GAS  C:\Users\mikke\AppData\Local\Temp\ccKVUC3O.s 			page 12


 197              		.loc 1 234 0
 198              		.thumb
 199              		.syntax unified
 200 0024 00BF     		nop
 201              		.cfi_endproc
 202              	.LFE70:
 203              		.size	vPortSVCHandler, .-vPortSVCHandler
 204 0026 00BF     		.section	.text.prvPortStartFirstTask,"ax",%progbits
 205              		.align	2
 206              		.thumb
 207              		.thumb_func
 208              		.type	prvPortStartFirstTask, %function
 209              	prvPortStartFirstTask:
 210              	.LFB71:
 235:Source\portable\GCC\ARM_CM3/port.c **** /*-----------------------------------------------------------*/
 236:Source\portable\GCC\ARM_CM3/port.c **** 
 237:Source\portable\GCC\ARM_CM3/port.c **** static void prvPortStartFirstTask( void )
 238:Source\portable\GCC\ARM_CM3/port.c **** {
 211              		.loc 1 238 0
 212              		.cfi_startproc
 213              		@ Naked Function: prologue and epilogue provided by programmer.
 214              		@ args = 0, pretend = 0, frame = 0
 215              		@ frame_needed = 1, uses_anonymous_args = 0
 239:Source\portable\GCC\ARM_CM3/port.c **** 	__asm volatile(
 216              		.loc 1 239 0
 217              		.syntax unified
 218              	@ 239 "Source\portable\GCC\ARM_CM3\port.c" 1
 219 0000 0648     		 ldr r0, =0xE000ED08 	
 220 0002 0068     	 ldr r0, [r0] 			
 221 0004 0068     	 ldr r0, [r0] 			
 222 0006 80F30888 	 msr msp, r0			
 223 000a 62B6     	 cpsie i				
 224 000c 61B6     	 cpsie f				
 225 000e BFF34F8F 	 dsb					
 226 0012 BFF36F8F 	 isb					
 227 0016 00DF     	 svc 0					
 228 0018 00BF     	 nop					
 229              	
 230              	@ 0 "" 2
 240:Source\portable\GCC\ARM_CM3/port.c **** 					" ldr r0, =0xE000ED08 	\n" /* Use the NVIC offset register to locate the stack. */
 241:Source\portable\GCC\ARM_CM3/port.c **** 					" ldr r0, [r0] 			\n"
 242:Source\portable\GCC\ARM_CM3/port.c **** 					" ldr r0, [r0] 			\n"
 243:Source\portable\GCC\ARM_CM3/port.c **** 					" msr msp, r0			\n" /* Set the msp back to the start of the stack. */
 244:Source\portable\GCC\ARM_CM3/port.c **** 					" cpsie i				\n" /* Globally enable interrupts. */
 245:Source\portable\GCC\ARM_CM3/port.c **** 					" cpsie f				\n"
 246:Source\portable\GCC\ARM_CM3/port.c **** 					" dsb					\n"
 247:Source\portable\GCC\ARM_CM3/port.c **** 					" isb					\n"
 248:Source\portable\GCC\ARM_CM3/port.c **** 					" svc 0					\n" /* System call to start first task. */
 249:Source\portable\GCC\ARM_CM3/port.c **** 					" nop					\n"
 250:Source\portable\GCC\ARM_CM3/port.c **** 				);
 251:Source\portable\GCC\ARM_CM3/port.c **** }
 231              		.loc 1 251 0
 232              		.thumb
 233              		.syntax unified
 234 001a 00BF     		nop
 235              		.cfi_endproc
 236              	.LFE71:
ARM GAS  C:\Users\mikke\AppData\Local\Temp\ccKVUC3O.s 			page 13


 237              		.size	prvPortStartFirstTask, .-prvPortStartFirstTask
 238              		.section	.text.xPortStartScheduler,"ax",%progbits
 239              		.align	2
 240              		.global	xPortStartScheduler
 241              		.thumb
 242              		.thumb_func
 243              		.type	xPortStartScheduler, %function
 244              	xPortStartScheduler:
 245              	.LFB72:
 252:Source\portable\GCC\ARM_CM3/port.c **** /*-----------------------------------------------------------*/
 253:Source\portable\GCC\ARM_CM3/port.c **** 
 254:Source\portable\GCC\ARM_CM3/port.c **** /*
 255:Source\portable\GCC\ARM_CM3/port.c ****  * See header file for description.
 256:Source\portable\GCC\ARM_CM3/port.c ****  */
 257:Source\portable\GCC\ARM_CM3/port.c **** BaseType_t xPortStartScheduler( void )
 258:Source\portable\GCC\ARM_CM3/port.c **** {
 246              		.loc 1 258 0
 247              		.cfi_startproc
 248              		@ args = 0, pretend = 0, frame = 0
 249              		@ frame_needed = 1, uses_anonymous_args = 0
 250 0000 80B5     		push	{r7, lr}
 251              		.cfi_def_cfa_offset 8
 252              		.cfi_offset 7, -8
 253              		.cfi_offset 14, -4
 254 0002 00AF     		add	r7, sp, #0
 255              		.cfi_def_cfa_register 7
 259:Source\portable\GCC\ARM_CM3/port.c **** 	/* configMAX_SYSCALL_INTERRUPT_PRIORITY must not be set to 0.
 260:Source\portable\GCC\ARM_CM3/port.c **** 	See http://www.FreeRTOS.org/RTOS-Cortex-M3-M4.html */
 261:Source\portable\GCC\ARM_CM3/port.c **** 	configASSERT( configMAX_SYSCALL_INTERRUPT_PRIORITY );
 262:Source\portable\GCC\ARM_CM3/port.c **** 
 263:Source\portable\GCC\ARM_CM3/port.c **** 	#if( configASSERT_DEFINED == 1 )
 264:Source\portable\GCC\ARM_CM3/port.c **** 	{
 265:Source\portable\GCC\ARM_CM3/port.c **** 		volatile uint32_t ulOriginalPriority;
 266:Source\portable\GCC\ARM_CM3/port.c **** 		volatile uint8_t * const pucFirstUserPriorityRegister = ( volatile uint8_t * const ) ( portNVIC_I
 267:Source\portable\GCC\ARM_CM3/port.c **** 		volatile uint8_t ucMaxPriorityValue;
 268:Source\portable\GCC\ARM_CM3/port.c **** 
 269:Source\portable\GCC\ARM_CM3/port.c **** 		/* Determine the maximum priority from which ISR safe FreeRTOS API
 270:Source\portable\GCC\ARM_CM3/port.c **** 		functions can be called.  ISR safe functions are those that end in
 271:Source\portable\GCC\ARM_CM3/port.c **** 		"FromISR".  FreeRTOS maintains separate thread and ISR API functions to
 272:Source\portable\GCC\ARM_CM3/port.c **** 		ensure interrupt entry is as fast and simple as possible.
 273:Source\portable\GCC\ARM_CM3/port.c **** 
 274:Source\portable\GCC\ARM_CM3/port.c **** 		Save the interrupt priority value that is about to be clobbered. */
 275:Source\portable\GCC\ARM_CM3/port.c **** 		ulOriginalPriority = *pucFirstUserPriorityRegister;
 276:Source\portable\GCC\ARM_CM3/port.c **** 
 277:Source\portable\GCC\ARM_CM3/port.c **** 		/* Determine the number of priority bits available.  First write to all
 278:Source\portable\GCC\ARM_CM3/port.c **** 		possible bits. */
 279:Source\portable\GCC\ARM_CM3/port.c **** 		*pucFirstUserPriorityRegister = portMAX_8_BIT_VALUE;
 280:Source\portable\GCC\ARM_CM3/port.c **** 
 281:Source\portable\GCC\ARM_CM3/port.c **** 		/* Read the value back to see how many bits stuck. */
 282:Source\portable\GCC\ARM_CM3/port.c **** 		ucMaxPriorityValue = *pucFirstUserPriorityRegister;
 283:Source\portable\GCC\ARM_CM3/port.c **** 
 284:Source\portable\GCC\ARM_CM3/port.c **** 		/* Use the same mask on the maximum system call priority. */
 285:Source\portable\GCC\ARM_CM3/port.c **** 		ucMaxSysCallPriority = configMAX_SYSCALL_INTERRUPT_PRIORITY & ucMaxPriorityValue;
 286:Source\portable\GCC\ARM_CM3/port.c **** 
 287:Source\portable\GCC\ARM_CM3/port.c **** 		/* Calculate the maximum acceptable priority group value for the number
 288:Source\portable\GCC\ARM_CM3/port.c **** 		of bits read back. */
 289:Source\portable\GCC\ARM_CM3/port.c **** 		ulMaxPRIGROUPValue = portMAX_PRIGROUP_BITS;
ARM GAS  C:\Users\mikke\AppData\Local\Temp\ccKVUC3O.s 			page 14


 290:Source\portable\GCC\ARM_CM3/port.c **** 		while( ( ucMaxPriorityValue & portTOP_BIT_OF_BYTE ) == portTOP_BIT_OF_BYTE )
 291:Source\portable\GCC\ARM_CM3/port.c **** 		{
 292:Source\portable\GCC\ARM_CM3/port.c **** 			ulMaxPRIGROUPValue--;
 293:Source\portable\GCC\ARM_CM3/port.c **** 			ucMaxPriorityValue <<= ( uint8_t ) 0x01;
 294:Source\portable\GCC\ARM_CM3/port.c **** 		}
 295:Source\portable\GCC\ARM_CM3/port.c **** 
 296:Source\portable\GCC\ARM_CM3/port.c **** 		#ifdef __NVIC_PRIO_BITS
 297:Source\portable\GCC\ARM_CM3/port.c **** 		{
 298:Source\portable\GCC\ARM_CM3/port.c **** 			/* Check the CMSIS configuration that defines the number of
 299:Source\portable\GCC\ARM_CM3/port.c **** 			priority bits matches the number of priority bits actually queried
 300:Source\portable\GCC\ARM_CM3/port.c **** 			from the hardware. */
 301:Source\portable\GCC\ARM_CM3/port.c **** 			configASSERT( ( portMAX_PRIGROUP_BITS - ulMaxPRIGROUPValue ) == __NVIC_PRIO_BITS );
 302:Source\portable\GCC\ARM_CM3/port.c **** 		}
 303:Source\portable\GCC\ARM_CM3/port.c **** 		#endif
 304:Source\portable\GCC\ARM_CM3/port.c **** 
 305:Source\portable\GCC\ARM_CM3/port.c **** 		#ifdef configPRIO_BITS
 306:Source\portable\GCC\ARM_CM3/port.c **** 		{
 307:Source\portable\GCC\ARM_CM3/port.c **** 			/* Check the FreeRTOS configuration that defines the number of
 308:Source\portable\GCC\ARM_CM3/port.c **** 			priority bits matches the number of priority bits actually queried
 309:Source\portable\GCC\ARM_CM3/port.c **** 			from the hardware. */
 310:Source\portable\GCC\ARM_CM3/port.c **** 			configASSERT( ( portMAX_PRIGROUP_BITS - ulMaxPRIGROUPValue ) == configPRIO_BITS );
 311:Source\portable\GCC\ARM_CM3/port.c **** 		}
 312:Source\portable\GCC\ARM_CM3/port.c **** 		#endif
 313:Source\portable\GCC\ARM_CM3/port.c **** 
 314:Source\portable\GCC\ARM_CM3/port.c **** 		/* Shift the priority group value back to its position within the AIRCR
 315:Source\portable\GCC\ARM_CM3/port.c **** 		register. */
 316:Source\portable\GCC\ARM_CM3/port.c **** 		ulMaxPRIGROUPValue <<= portPRIGROUP_SHIFT;
 317:Source\portable\GCC\ARM_CM3/port.c **** 		ulMaxPRIGROUPValue &= portPRIORITY_GROUP_MASK;
 318:Source\portable\GCC\ARM_CM3/port.c **** 
 319:Source\portable\GCC\ARM_CM3/port.c **** 		/* Restore the clobbered interrupt priority register to its original
 320:Source\portable\GCC\ARM_CM3/port.c **** 		value. */
 321:Source\portable\GCC\ARM_CM3/port.c **** 		*pucFirstUserPriorityRegister = ulOriginalPriority;
 322:Source\portable\GCC\ARM_CM3/port.c **** 	}
 323:Source\portable\GCC\ARM_CM3/port.c **** 	#endif /* conifgASSERT_DEFINED */
 324:Source\portable\GCC\ARM_CM3/port.c **** 
 325:Source\portable\GCC\ARM_CM3/port.c **** 	/* Make PendSV and SysTick the lowest priority interrupts. */
 326:Source\portable\GCC\ARM_CM3/port.c **** 	portNVIC_SYSPRI2_REG |= portNVIC_PENDSV_PRI;
 256              		.loc 1 326 0
 257 0004 0C4A     		ldr	r2, .L11
 258 0006 0C4B     		ldr	r3, .L11
 259 0008 1B68     		ldr	r3, [r3]
 260 000a 43F46003 		orr	r3, r3, #14680064
 261 000e 1360     		str	r3, [r2]
 327:Source\portable\GCC\ARM_CM3/port.c **** 	portNVIC_SYSPRI2_REG |= portNVIC_SYSTICK_PRI;
 262              		.loc 1 327 0
 263 0010 094A     		ldr	r2, .L11
 264 0012 094B     		ldr	r3, .L11
 265 0014 1B68     		ldr	r3, [r3]
 266 0016 43F06043 		orr	r3, r3, #-536870912
 267 001a 1360     		str	r3, [r2]
 328:Source\portable\GCC\ARM_CM3/port.c **** 
 329:Source\portable\GCC\ARM_CM3/port.c **** 	/* Start the timer that generates the tick ISR.  Interrupts are disabled
 330:Source\portable\GCC\ARM_CM3/port.c **** 	here already. */
 331:Source\portable\GCC\ARM_CM3/port.c **** 	vPortSetupTimerInterrupt();
 268              		.loc 1 331 0
 269 001c FFF7FEFF 		bl	vPortSetupTimerInterrupt
 332:Source\portable\GCC\ARM_CM3/port.c **** 
ARM GAS  C:\Users\mikke\AppData\Local\Temp\ccKVUC3O.s 			page 15


 333:Source\portable\GCC\ARM_CM3/port.c **** 	/* Initialise the critical nesting count ready for the first task. */
 334:Source\portable\GCC\ARM_CM3/port.c **** 	uxCriticalNesting = 0;
 270              		.loc 1 334 0
 271 0020 064B     		ldr	r3, .L11+4
 272 0022 0022     		movs	r2, #0
 273 0024 1A60     		str	r2, [r3]
 335:Source\portable\GCC\ARM_CM3/port.c **** 
 336:Source\portable\GCC\ARM_CM3/port.c **** 	/* Start the first task. */
 337:Source\portable\GCC\ARM_CM3/port.c **** 	prvPortStartFirstTask();
 274              		.loc 1 337 0
 275 0026 FFF7FEFF 		bl	prvPortStartFirstTask
 338:Source\portable\GCC\ARM_CM3/port.c **** 
 339:Source\portable\GCC\ARM_CM3/port.c **** 	/* Should never get here as the tasks will now be executing!  Call the task
 340:Source\portable\GCC\ARM_CM3/port.c **** 	exit error function to prevent compiler warnings about a static function
 341:Source\portable\GCC\ARM_CM3/port.c **** 	not being called in the case that the application writer overrides this
 342:Source\portable\GCC\ARM_CM3/port.c **** 	functionality by defining configTASK_RETURN_ADDRESS.  Call
 343:Source\portable\GCC\ARM_CM3/port.c **** 	vTaskSwitchContext() so link time optimisation does not remove the
 344:Source\portable\GCC\ARM_CM3/port.c **** 	symbol. */
 345:Source\portable\GCC\ARM_CM3/port.c **** 	vTaskSwitchContext();
 276              		.loc 1 345 0
 277 002a FFF7FEFF 		bl	vTaskSwitchContext
 346:Source\portable\GCC\ARM_CM3/port.c **** 	prvTaskExitError();
 278              		.loc 1 346 0
 279 002e FFF7FEFF 		bl	prvTaskExitError
 347:Source\portable\GCC\ARM_CM3/port.c **** 
 348:Source\portable\GCC\ARM_CM3/port.c **** 	/* Should not get here! */
 349:Source\portable\GCC\ARM_CM3/port.c **** 	return 0;
 280              		.loc 1 349 0
 281 0032 0023     		movs	r3, #0
 350:Source\portable\GCC\ARM_CM3/port.c **** }
 282              		.loc 1 350 0
 283 0034 1846     		mov	r0, r3
 284 0036 80BD     		pop	{r7, pc}
 285              	.L12:
 286              		.align	2
 287              	.L11:
 288 0038 20ED00E0 		.word	-536810208
 289 003c 00000000 		.word	uxCriticalNesting
 290              		.cfi_endproc
 291              	.LFE72:
 292              		.size	xPortStartScheduler, .-xPortStartScheduler
 293              		.section	.text.vPortEndScheduler,"ax",%progbits
 294              		.align	2
 295              		.global	vPortEndScheduler
 296              		.thumb
 297              		.thumb_func
 298              		.type	vPortEndScheduler, %function
 299              	vPortEndScheduler:
 300              	.LFB73:
 351:Source\portable\GCC\ARM_CM3/port.c **** /*-----------------------------------------------------------*/
 352:Source\portable\GCC\ARM_CM3/port.c **** 
 353:Source\portable\GCC\ARM_CM3/port.c **** void vPortEndScheduler( void )
 354:Source\portable\GCC\ARM_CM3/port.c **** {
 301              		.loc 1 354 0
 302              		.cfi_startproc
 303              		@ args = 0, pretend = 0, frame = 0
 304              		@ frame_needed = 1, uses_anonymous_args = 0
ARM GAS  C:\Users\mikke\AppData\Local\Temp\ccKVUC3O.s 			page 16


 305              		@ link register save eliminated.
 306 0000 80B4     		push	{r7}
 307              		.cfi_def_cfa_offset 4
 308              		.cfi_offset 7, -4
 309 0002 00AF     		add	r7, sp, #0
 310              		.cfi_def_cfa_register 7
 355:Source\portable\GCC\ARM_CM3/port.c **** 	/* Not implemented in ports where there is nothing to return to.
 356:Source\portable\GCC\ARM_CM3/port.c **** 	Artificially force an assert. */
 357:Source\portable\GCC\ARM_CM3/port.c **** 	configASSERT( uxCriticalNesting == 1000UL );
 358:Source\portable\GCC\ARM_CM3/port.c **** }
 311              		.loc 1 358 0
 312 0004 00BF     		nop
 313 0006 BD46     		mov	sp, r7
 314              		.cfi_def_cfa_register 13
 315              		@ sp needed
 316 0008 80BC     		pop	{r7}
 317              		.cfi_restore 7
 318              		.cfi_def_cfa_offset 0
 319 000a 7047     		bx	lr
 320              		.cfi_endproc
 321              	.LFE73:
 322              		.size	vPortEndScheduler, .-vPortEndScheduler
 323              		.section	.text.vPortEnterCritical,"ax",%progbits
 324              		.align	2
 325              		.global	vPortEnterCritical
 326              		.thumb
 327              		.thumb_func
 328              		.type	vPortEnterCritical, %function
 329              	vPortEnterCritical:
 330              	.LFB74:
 359:Source\portable\GCC\ARM_CM3/port.c **** /*-----------------------------------------------------------*/
 360:Source\portable\GCC\ARM_CM3/port.c **** 
 361:Source\portable\GCC\ARM_CM3/port.c **** void vPortEnterCritical( void )
 362:Source\portable\GCC\ARM_CM3/port.c **** {
 331              		.loc 1 362 0
 332              		.cfi_startproc
 333              		@ args = 0, pretend = 0, frame = 8
 334              		@ frame_needed = 1, uses_anonymous_args = 0
 335              		@ link register save eliminated.
 336 0000 80B4     		push	{r7}
 337              		.cfi_def_cfa_offset 4
 338              		.cfi_offset 7, -4
 339 0002 83B0     		sub	sp, sp, #12
 340              		.cfi_def_cfa_offset 16
 341 0004 00AF     		add	r7, sp, #0
 342              		.cfi_def_cfa_register 7
 343              	.LBB14:
 344              	.LBB15:
 345              		.loc 2 197 0
 346              		.syntax unified
 347              	@ 197 ".\Source\portable\GCC\ARM_CM3/portmacro.h" 1
 348 0006 4FF0A003 			mov r3, #160												
 349 000a 83F31188 		msr basepri, r3											
 350 000e BFF36F8F 		isb														
 351 0012 BFF34F8F 		dsb														
 352              	
 353              	@ 0 "" 2
ARM GAS  C:\Users\mikke\AppData\Local\Temp\ccKVUC3O.s 			page 17


 354              		.thumb
 355              		.syntax unified
 356 0016 7B60     		str	r3, [r7, #4]
 357              	.LBE15:
 358              	.LBE14:
 363:Source\portable\GCC\ARM_CM3/port.c **** 	portDISABLE_INTERRUPTS();
 364:Source\portable\GCC\ARM_CM3/port.c **** 	uxCriticalNesting++;
 359              		.loc 1 364 0
 360 0018 044B     		ldr	r3, .L15
 361 001a 1B68     		ldr	r3, [r3]
 362 001c 0133     		adds	r3, r3, #1
 363 001e 034A     		ldr	r2, .L15
 364 0020 1360     		str	r3, [r2]
 365:Source\portable\GCC\ARM_CM3/port.c **** 
 366:Source\portable\GCC\ARM_CM3/port.c **** 	/* This is not the interrupt safe version of the enter critical function so
 367:Source\portable\GCC\ARM_CM3/port.c **** 	assert() if it is being called from an interrupt context.  Only API
 368:Source\portable\GCC\ARM_CM3/port.c **** 	functions that end in "FromISR" can be used in an interrupt.  Only assert if
 369:Source\portable\GCC\ARM_CM3/port.c **** 	the critical nesting count is 1 to protect against recursive calls if the
 370:Source\portable\GCC\ARM_CM3/port.c **** 	assert function also uses a critical section. */
 371:Source\portable\GCC\ARM_CM3/port.c **** 	if( uxCriticalNesting == 1 )
 372:Source\portable\GCC\ARM_CM3/port.c **** 	{
 373:Source\portable\GCC\ARM_CM3/port.c **** 		configASSERT( ( portNVIC_INT_CTRL_REG & portVECTACTIVE_MASK ) == 0 );
 374:Source\portable\GCC\ARM_CM3/port.c **** 	}
 375:Source\portable\GCC\ARM_CM3/port.c **** }
 365              		.loc 1 375 0
 366 0022 00BF     		nop
 367 0024 0C37     		adds	r7, r7, #12
 368              		.cfi_def_cfa_offset 4
 369 0026 BD46     		mov	sp, r7
 370              		.cfi_def_cfa_register 13
 371              		@ sp needed
 372 0028 80BC     		pop	{r7}
 373              		.cfi_restore 7
 374              		.cfi_def_cfa_offset 0
 375 002a 7047     		bx	lr
 376              	.L16:
 377              		.align	2
 378              	.L15:
 379 002c 00000000 		.word	uxCriticalNesting
 380              		.cfi_endproc
 381              	.LFE74:
 382              		.size	vPortEnterCritical, .-vPortEnterCritical
 383              		.section	.text.vPortExitCritical,"ax",%progbits
 384              		.align	2
 385              		.global	vPortExitCritical
 386              		.thumb
 387              		.thumb_func
 388              		.type	vPortExitCritical, %function
 389              	vPortExitCritical:
 390              	.LFB75:
 376:Source\portable\GCC\ARM_CM3/port.c **** /*-----------------------------------------------------------*/
 377:Source\portable\GCC\ARM_CM3/port.c **** 
 378:Source\portable\GCC\ARM_CM3/port.c **** void vPortExitCritical( void )
 379:Source\portable\GCC\ARM_CM3/port.c **** {
 391              		.loc 1 379 0
 392              		.cfi_startproc
 393              		@ args = 0, pretend = 0, frame = 8
ARM GAS  C:\Users\mikke\AppData\Local\Temp\ccKVUC3O.s 			page 18


 394              		@ frame_needed = 1, uses_anonymous_args = 0
 395              		@ link register save eliminated.
 396 0000 80B4     		push	{r7}
 397              		.cfi_def_cfa_offset 4
 398              		.cfi_offset 7, -4
 399 0002 83B0     		sub	sp, sp, #12
 400              		.cfi_def_cfa_offset 16
 401 0004 00AF     		add	r7, sp, #0
 402              		.cfi_def_cfa_register 7
 380:Source\portable\GCC\ARM_CM3/port.c **** 	configASSERT( uxCriticalNesting );
 381:Source\portable\GCC\ARM_CM3/port.c **** 	uxCriticalNesting--;
 403              		.loc 1 381 0
 404 0006 094B     		ldr	r3, .L20
 405 0008 1B68     		ldr	r3, [r3]
 406 000a 013B     		subs	r3, r3, #1
 407 000c 074A     		ldr	r2, .L20
 408 000e 1360     		str	r3, [r2]
 382:Source\portable\GCC\ARM_CM3/port.c **** 	if( uxCriticalNesting == 0 )
 409              		.loc 1 382 0
 410 0010 064B     		ldr	r3, .L20
 411 0012 1B68     		ldr	r3, [r3]
 412 0014 002B     		cmp	r3, #0
 413 0016 04D1     		bne	.L19
 414 0018 0023     		movs	r3, #0
 415 001a 7B60     		str	r3, [r7, #4]
 416              	.LBB16:
 417              	.LBB17:
 198:.\Source\portable\GCC\ARM_CM3/portmacro.h **** 	(
 199:.\Source\portable\GCC\ARM_CM3/portmacro.h **** 		"	mov %0, %1												\n" \
 200:.\Source\portable\GCC\ARM_CM3/portmacro.h **** 		"	msr basepri, %0											\n" \
 201:.\Source\portable\GCC\ARM_CM3/portmacro.h **** 		"	isb														\n" \
 202:.\Source\portable\GCC\ARM_CM3/portmacro.h **** 		"	dsb														\n" \
 203:.\Source\portable\GCC\ARM_CM3/portmacro.h **** 		:"=r" (ulNewBASEPRI) : "i" ( configMAX_SYSCALL_INTERRUPT_PRIORITY ) : "memory"
 204:.\Source\portable\GCC\ARM_CM3/portmacro.h **** 	);
 205:.\Source\portable\GCC\ARM_CM3/portmacro.h **** }
 206:.\Source\portable\GCC\ARM_CM3/portmacro.h **** 
 207:.\Source\portable\GCC\ARM_CM3/portmacro.h **** /*-----------------------------------------------------------*/
 208:.\Source\portable\GCC\ARM_CM3/portmacro.h **** 
 209:.\Source\portable\GCC\ARM_CM3/portmacro.h **** portFORCE_INLINE static uint32_t ulPortRaiseBASEPRI( void )
 210:.\Source\portable\GCC\ARM_CM3/portmacro.h **** {
 211:.\Source\portable\GCC\ARM_CM3/portmacro.h **** uint32_t ulOriginalBASEPRI, ulNewBASEPRI;
 212:.\Source\portable\GCC\ARM_CM3/portmacro.h **** 
 213:.\Source\portable\GCC\ARM_CM3/portmacro.h **** 	__asm volatile
 214:.\Source\portable\GCC\ARM_CM3/portmacro.h **** 	(
 215:.\Source\portable\GCC\ARM_CM3/portmacro.h **** 		"	mrs %0, basepri											\n" \
 216:.\Source\portable\GCC\ARM_CM3/portmacro.h **** 		"	mov %1, %2												\n" \
 217:.\Source\portable\GCC\ARM_CM3/portmacro.h **** 		"	msr basepri, %1											\n" \
 218:.\Source\portable\GCC\ARM_CM3/portmacro.h **** 		"	isb														\n" \
 219:.\Source\portable\GCC\ARM_CM3/portmacro.h **** 		"	dsb														\n" \
 220:.\Source\portable\GCC\ARM_CM3/portmacro.h **** 		:"=r" (ulOriginalBASEPRI), "=r" (ulNewBASEPRI) : "i" ( configMAX_SYSCALL_INTERRUPT_PRIORITY ) : "
 221:.\Source\portable\GCC\ARM_CM3/portmacro.h **** 	);
 222:.\Source\portable\GCC\ARM_CM3/portmacro.h **** 
 223:.\Source\portable\GCC\ARM_CM3/portmacro.h **** 	/* This return will not be reached but is necessary to prevent compiler
 224:.\Source\portable\GCC\ARM_CM3/portmacro.h **** 	warnings. */
 225:.\Source\portable\GCC\ARM_CM3/portmacro.h **** 	return ulOriginalBASEPRI;
 226:.\Source\portable\GCC\ARM_CM3/portmacro.h **** }
 227:.\Source\portable\GCC\ARM_CM3/portmacro.h **** /*-----------------------------------------------------------*/
ARM GAS  C:\Users\mikke\AppData\Local\Temp\ccKVUC3O.s 			page 19


 228:.\Source\portable\GCC\ARM_CM3/portmacro.h **** 
 229:.\Source\portable\GCC\ARM_CM3/portmacro.h **** portFORCE_INLINE static void vPortSetBASEPRI( uint32_t ulNewMaskValue )
 230:.\Source\portable\GCC\ARM_CM3/portmacro.h **** {
 231:.\Source\portable\GCC\ARM_CM3/portmacro.h **** 	__asm volatile
 418              		.loc 2 231 0
 419 001c 7B68     		ldr	r3, [r7, #4]
 420              		.syntax unified
 421              	@ 231 ".\Source\portable\GCC\ARM_CM3/portmacro.h" 1
 422 001e 83F31188 			msr basepri, r3	
 423              	@ 0 "" 2
 424              		.thumb
 425              		.syntax unified
 426              	.L19:
 427              	.LBE17:
 428              	.LBE16:
 383:Source\portable\GCC\ARM_CM3/port.c **** 	{
 384:Source\portable\GCC\ARM_CM3/port.c **** 		portENABLE_INTERRUPTS();
 385:Source\portable\GCC\ARM_CM3/port.c **** 	}
 386:Source\portable\GCC\ARM_CM3/port.c **** }
 429              		.loc 1 386 0
 430 0022 00BF     		nop
 431 0024 0C37     		adds	r7, r7, #12
 432              		.cfi_def_cfa_offset 4
 433 0026 BD46     		mov	sp, r7
 434              		.cfi_def_cfa_register 13
 435              		@ sp needed
 436 0028 80BC     		pop	{r7}
 437              		.cfi_restore 7
 438              		.cfi_def_cfa_offset 0
 439 002a 7047     		bx	lr
 440              	.L21:
 441              		.align	2
 442              	.L20:
 443 002c 00000000 		.word	uxCriticalNesting
 444              		.cfi_endproc
 445              	.LFE75:
 446              		.size	vPortExitCritical, .-vPortExitCritical
 447              		.section	.text.xPortPendSVHandler,"ax",%progbits
 448              		.align	2
 449              		.global	xPortPendSVHandler
 450              		.thumb
 451              		.thumb_func
 452              		.type	xPortPendSVHandler, %function
 453              	xPortPendSVHandler:
 454              	.LFB76:
 387:Source\portable\GCC\ARM_CM3/port.c **** /*-----------------------------------------------------------*/
 388:Source\portable\GCC\ARM_CM3/port.c **** 
 389:Source\portable\GCC\ARM_CM3/port.c **** void xPortPendSVHandler( void )
 390:Source\portable\GCC\ARM_CM3/port.c **** {
 455              		.loc 1 390 0
 456              		.cfi_startproc
 457              		@ Naked Function: prologue and epilogue provided by programmer.
 458              		@ args = 0, pretend = 0, frame = 0
 459              		@ frame_needed = 1, uses_anonymous_args = 0
 391:Source\portable\GCC\ARM_CM3/port.c **** 	/* This is a naked function. */
 392:Source\portable\GCC\ARM_CM3/port.c **** 
 393:Source\portable\GCC\ARM_CM3/port.c **** 	__asm volatile
ARM GAS  C:\Users\mikke\AppData\Local\Temp\ccKVUC3O.s 			page 20


 460              		.loc 1 393 0
 461              		.syntax unified
 462              	@ 393 "Source\portable\GCC\ARM_CM3\port.c" 1
 463 0000 EFF30980 			mrs r0, psp							
 464 0004 BFF36F8F 		isb									
 465              											
 466 0008 0D4B     		ldr	r3, pxCurrentTCBConst			
 467 000a 1A68     		ldr	r2, [r3]						
 468              											
 469 000c 20E9F00F 		stmdb r0!, {r4-r11}					
 470 0010 1060     		str r0, [r2]						
 471              											
 472 0012 2DE90840 		stmdb sp!, {r3, r14}				
 473 0016 4FF0A000 		mov r0, #160							
 474 001a 80F31188 		msr basepri, r0						
 475 001e FFF7FEFF 		bl vTaskSwitchContext				
 476 0022 4FF00000 		mov r0, #0							
 477 0026 80F31188 		msr basepri, r0						
 478 002a BDE80840 		ldmia sp!, {r3, r14}				
 479              											
 480 002e 1968     		ldr r1, [r3]						
 481 0030 0868     		ldr r0, [r1]						
 482 0032 B0E8F00F 		ldmia r0!, {r4-r11}					
 483 0036 80F30988 		msr psp, r0							
 484 003a BFF36F8F 		isb									
 485 003e 7047     		bx r14								
 486              											
 487              		.align 4							
 488 0040 00000000 	pxCurrentTCBConst: .word pxCurrentTCB	
 489              	
 490              	@ 0 "" 2
 394:Source\portable\GCC\ARM_CM3/port.c **** 	(
 395:Source\portable\GCC\ARM_CM3/port.c **** 	"	mrs r0, psp							\n"
 396:Source\portable\GCC\ARM_CM3/port.c **** 	"	isb									\n"
 397:Source\portable\GCC\ARM_CM3/port.c **** 	"										\n"
 398:Source\portable\GCC\ARM_CM3/port.c **** 	"	ldr	r3, pxCurrentTCBConst			\n" /* Get the location of the current TCB. */
 399:Source\portable\GCC\ARM_CM3/port.c **** 	"	ldr	r2, [r3]						\n"
 400:Source\portable\GCC\ARM_CM3/port.c **** 	"										\n"
 401:Source\portable\GCC\ARM_CM3/port.c **** 	"	stmdb r0!, {r4-r11}					\n" /* Save the remaining registers. */
 402:Source\portable\GCC\ARM_CM3/port.c **** 	"	str r0, [r2]						\n" /* Save the new top of stack into the first member of the TCB. */
 403:Source\portable\GCC\ARM_CM3/port.c **** 	"										\n"
 404:Source\portable\GCC\ARM_CM3/port.c **** 	"	stmdb sp!, {r3, r14}				\n"
 405:Source\portable\GCC\ARM_CM3/port.c **** 	"	mov r0, %0							\n"
 406:Source\portable\GCC\ARM_CM3/port.c **** 	"	msr basepri, r0						\n"
 407:Source\portable\GCC\ARM_CM3/port.c **** 	"	bl vTaskSwitchContext				\n"
 408:Source\portable\GCC\ARM_CM3/port.c **** 	"	mov r0, #0							\n"
 409:Source\portable\GCC\ARM_CM3/port.c **** 	"	msr basepri, r0						\n"
 410:Source\portable\GCC\ARM_CM3/port.c **** 	"	ldmia sp!, {r3, r14}				\n"
 411:Source\portable\GCC\ARM_CM3/port.c **** 	"										\n" /* Restore the context, including the critical nesting count. */
 412:Source\portable\GCC\ARM_CM3/port.c **** 	"	ldr r1, [r3]						\n"
 413:Source\portable\GCC\ARM_CM3/port.c **** 	"	ldr r0, [r1]						\n" /* The first item in pxCurrentTCB is the task top of stack. */
 414:Source\portable\GCC\ARM_CM3/port.c **** 	"	ldmia r0!, {r4-r11}					\n" /* Pop the registers. */
 415:Source\portable\GCC\ARM_CM3/port.c **** 	"	msr psp, r0							\n"
 416:Source\portable\GCC\ARM_CM3/port.c **** 	"	isb									\n"
 417:Source\portable\GCC\ARM_CM3/port.c **** 	"	bx r14								\n"
 418:Source\portable\GCC\ARM_CM3/port.c **** 	"										\n"
 419:Source\portable\GCC\ARM_CM3/port.c **** 	"	.align 4							\n"
ARM GAS  C:\Users\mikke\AppData\Local\Temp\ccKVUC3O.s 			page 21


 420:Source\portable\GCC\ARM_CM3/port.c **** 	"pxCurrentTCBConst: .word pxCurrentTCB	\n"
 421:Source\portable\GCC\ARM_CM3/port.c **** 	::"i"(configMAX_SYSCALL_INTERRUPT_PRIORITY)
 422:Source\portable\GCC\ARM_CM3/port.c **** 	);
 423:Source\portable\GCC\ARM_CM3/port.c **** }
 491              		.loc 1 423 0
 492              		.thumb
 493              		.syntax unified
 494 0044 00BF     		nop
 495              		.cfi_endproc
 496              	.LFE76:
 497              		.size	xPortPendSVHandler, .-xPortPendSVHandler
 498 0046 00BF     		.section	.text.xPortSysTickHandler,"ax",%progbits
 499              		.align	2
 500              		.global	xPortSysTickHandler
 501              		.thumb
 502              		.thumb_func
 503              		.type	xPortSysTickHandler, %function
 504              	xPortSysTickHandler:
 505              	.LFB77:
 424:Source\portable\GCC\ARM_CM3/port.c **** /*-----------------------------------------------------------*/
 425:Source\portable\GCC\ARM_CM3/port.c **** 
 426:Source\portable\GCC\ARM_CM3/port.c **** void xPortSysTickHandler( void )
 427:Source\portable\GCC\ARM_CM3/port.c **** {
 506              		.loc 1 427 0
 507              		.cfi_startproc
 508              		@ args = 0, pretend = 0, frame = 8
 509              		@ frame_needed = 1, uses_anonymous_args = 0
 510 0000 80B5     		push	{r7, lr}
 511              		.cfi_def_cfa_offset 8
 512              		.cfi_offset 7, -8
 513              		.cfi_offset 14, -4
 514 0002 82B0     		sub	sp, sp, #8
 515              		.cfi_def_cfa_offset 16
 516 0004 00AF     		add	r7, sp, #0
 517              		.cfi_def_cfa_register 7
 518              	.LBB18:
 519              	.LBB19:
 197:.\Source\portable\GCC\ARM_CM3/portmacro.h **** 	(
 520              		.loc 2 197 0
 521              		.syntax unified
 522              	@ 197 ".\Source\portable\GCC\ARM_CM3/portmacro.h" 1
 523 0006 4FF0A003 			mov r3, #160												
 524 000a 83F31188 		msr basepri, r3											
 525 000e BFF36F8F 		isb														
 526 0012 BFF34F8F 		dsb														
 527              	
 528              	@ 0 "" 2
 529              		.thumb
 530              		.syntax unified
 531 0016 3B60     		str	r3, [r7]
 532              	.LBE19:
 533              	.LBE18:
 428:Source\portable\GCC\ARM_CM3/port.c **** 	/* The SysTick runs at the lowest interrupt priority, so when this interrupt
 429:Source\portable\GCC\ARM_CM3/port.c **** 	executes all interrupts must be unmasked.  There is therefore no need to
 430:Source\portable\GCC\ARM_CM3/port.c **** 	save and then restore the interrupt mask value as its value is already
 431:Source\portable\GCC\ARM_CM3/port.c **** 	known. */
 432:Source\portable\GCC\ARM_CM3/port.c **** 	portDISABLE_INTERRUPTS();
ARM GAS  C:\Users\mikke\AppData\Local\Temp\ccKVUC3O.s 			page 22


 433:Source\portable\GCC\ARM_CM3/port.c **** 	{
 434:Source\portable\GCC\ARM_CM3/port.c **** 		/* Increment the RTOS tick. */
 435:Source\portable\GCC\ARM_CM3/port.c **** 		if( xTaskIncrementTick() != pdFALSE )
 534              		.loc 1 435 0
 535 0018 FFF7FEFF 		bl	xTaskIncrementTick
 536 001c 0346     		mov	r3, r0
 537 001e 002B     		cmp	r3, #0
 538 0020 03D0     		beq	.L24
 436:Source\portable\GCC\ARM_CM3/port.c **** 		{
 437:Source\portable\GCC\ARM_CM3/port.c **** 			/* A context switch is required.  Context switching is performed in
 438:Source\portable\GCC\ARM_CM3/port.c **** 			the PendSV interrupt.  Pend the PendSV interrupt. */
 439:Source\portable\GCC\ARM_CM3/port.c **** 			portNVIC_INT_CTRL_REG = portNVIC_PENDSVSET_BIT;
 539              		.loc 1 439 0
 540 0022 064B     		ldr	r3, .L25
 541 0024 4FF08052 		mov	r2, #268435456
 542 0028 1A60     		str	r2, [r3]
 543              	.L24:
 544 002a 0023     		movs	r3, #0
 545 002c 7B60     		str	r3, [r7, #4]
 546              	.LBB20:
 547              	.LBB21:
 548              		.loc 2 231 0
 549 002e 7B68     		ldr	r3, [r7, #4]
 550              		.syntax unified
 551              	@ 231 ".\Source\portable\GCC\ARM_CM3/portmacro.h" 1
 552 0030 83F31188 			msr basepri, r3	
 553              	@ 0 "" 2
 554              		.thumb
 555              		.syntax unified
 556              	.LBE21:
 557              	.LBE20:
 440:Source\portable\GCC\ARM_CM3/port.c **** 		}
 441:Source\portable\GCC\ARM_CM3/port.c **** 	}
 442:Source\portable\GCC\ARM_CM3/port.c **** 	portENABLE_INTERRUPTS();
 443:Source\portable\GCC\ARM_CM3/port.c **** }
 558              		.loc 1 443 0
 559 0034 00BF     		nop
 560 0036 0837     		adds	r7, r7, #8
 561              		.cfi_def_cfa_offset 8
 562 0038 BD46     		mov	sp, r7
 563              		.cfi_def_cfa_register 13
 564              		@ sp needed
 565 003a 80BD     		pop	{r7, pc}
 566              	.L26:
 567              		.align	2
 568              	.L25:
 569 003c 04ED00E0 		.word	-536810236
 570              		.cfi_endproc
 571              	.LFE77:
 572              		.size	xPortSysTickHandler, .-xPortSysTickHandler
 573              		.section	.text.vPortSetupTimerInterrupt,"ax",%progbits
 574              		.align	2
 575              		.weak	vPortSetupTimerInterrupt
 576              		.thumb
 577              		.thumb_func
 578              		.type	vPortSetupTimerInterrupt, %function
 579              	vPortSetupTimerInterrupt:
ARM GAS  C:\Users\mikke\AppData\Local\Temp\ccKVUC3O.s 			page 23


 580              	.LFB78:
 444:Source\portable\GCC\ARM_CM3/port.c **** /*-----------------------------------------------------------*/
 445:Source\portable\GCC\ARM_CM3/port.c **** 
 446:Source\portable\GCC\ARM_CM3/port.c **** #if( configUSE_TICKLESS_IDLE == 1 )
 447:Source\portable\GCC\ARM_CM3/port.c **** 
 448:Source\portable\GCC\ARM_CM3/port.c **** 	__attribute__((weak)) void vPortSuppressTicksAndSleep( TickType_t xExpectedIdleTime )
 449:Source\portable\GCC\ARM_CM3/port.c **** 	{
 450:Source\portable\GCC\ARM_CM3/port.c **** 	uint32_t ulReloadValue, ulCompleteTickPeriods, ulCompletedSysTickDecrements;
 451:Source\portable\GCC\ARM_CM3/port.c **** 	TickType_t xModifiableIdleTime;
 452:Source\portable\GCC\ARM_CM3/port.c **** 
 453:Source\portable\GCC\ARM_CM3/port.c **** 		/* Make sure the SysTick reload value does not overflow the counter. */
 454:Source\portable\GCC\ARM_CM3/port.c **** 		if( xExpectedIdleTime > xMaximumPossibleSuppressedTicks )
 455:Source\portable\GCC\ARM_CM3/port.c **** 		{
 456:Source\portable\GCC\ARM_CM3/port.c **** 			xExpectedIdleTime = xMaximumPossibleSuppressedTicks;
 457:Source\portable\GCC\ARM_CM3/port.c **** 		}
 458:Source\portable\GCC\ARM_CM3/port.c **** 
 459:Source\portable\GCC\ARM_CM3/port.c **** 		/* Stop the SysTick momentarily.  The time the SysTick is stopped for
 460:Source\portable\GCC\ARM_CM3/port.c **** 		is accounted for as best it can be, but using the tickless mode will
 461:Source\portable\GCC\ARM_CM3/port.c **** 		inevitably result in some tiny drift of the time maintained by the
 462:Source\portable\GCC\ARM_CM3/port.c **** 		kernel with respect to calendar time. */
 463:Source\portable\GCC\ARM_CM3/port.c **** 		portNVIC_SYSTICK_CTRL_REG &= ~portNVIC_SYSTICK_ENABLE_BIT;
 464:Source\portable\GCC\ARM_CM3/port.c **** 
 465:Source\portable\GCC\ARM_CM3/port.c **** 		/* Calculate the reload value required to wait xExpectedIdleTime
 466:Source\portable\GCC\ARM_CM3/port.c **** 		tick periods.  -1 is used because this code will execute part way
 467:Source\portable\GCC\ARM_CM3/port.c **** 		through one of the tick periods. */
 468:Source\portable\GCC\ARM_CM3/port.c **** 		ulReloadValue = portNVIC_SYSTICK_CURRENT_VALUE_REG + ( ulTimerCountsForOneTick * ( xExpectedIdleT
 469:Source\portable\GCC\ARM_CM3/port.c **** 		if( ulReloadValue > ulStoppedTimerCompensation )
 470:Source\portable\GCC\ARM_CM3/port.c **** 		{
 471:Source\portable\GCC\ARM_CM3/port.c **** 			ulReloadValue -= ulStoppedTimerCompensation;
 472:Source\portable\GCC\ARM_CM3/port.c **** 		}
 473:Source\portable\GCC\ARM_CM3/port.c **** 
 474:Source\portable\GCC\ARM_CM3/port.c **** 		/* Enter a critical section but don't use the taskENTER_CRITICAL()
 475:Source\portable\GCC\ARM_CM3/port.c **** 		method as that will mask interrupts that should exit sleep mode. */
 476:Source\portable\GCC\ARM_CM3/port.c **** 		__asm volatile( "cpsid i" ::: "memory" );
 477:Source\portable\GCC\ARM_CM3/port.c **** 		__asm volatile( "dsb" );
 478:Source\portable\GCC\ARM_CM3/port.c **** 		__asm volatile( "isb" );
 479:Source\portable\GCC\ARM_CM3/port.c **** 
 480:Source\portable\GCC\ARM_CM3/port.c **** 		/* If a context switch is pending or a task is waiting for the scheduler
 481:Source\portable\GCC\ARM_CM3/port.c **** 		to be unsuspended then abandon the low power entry. */
 482:Source\portable\GCC\ARM_CM3/port.c **** 		if( eTaskConfirmSleepModeStatus() == eAbortSleep )
 483:Source\portable\GCC\ARM_CM3/port.c **** 		{
 484:Source\portable\GCC\ARM_CM3/port.c **** 			/* Restart from whatever is left in the count register to complete
 485:Source\portable\GCC\ARM_CM3/port.c **** 			this tick period. */
 486:Source\portable\GCC\ARM_CM3/port.c **** 			portNVIC_SYSTICK_LOAD_REG = portNVIC_SYSTICK_CURRENT_VALUE_REG;
 487:Source\portable\GCC\ARM_CM3/port.c **** 
 488:Source\portable\GCC\ARM_CM3/port.c **** 			/* Restart SysTick. */
 489:Source\portable\GCC\ARM_CM3/port.c **** 			portNVIC_SYSTICK_CTRL_REG |= portNVIC_SYSTICK_ENABLE_BIT;
 490:Source\portable\GCC\ARM_CM3/port.c **** 
 491:Source\portable\GCC\ARM_CM3/port.c **** 			/* Reset the reload register to the value required for normal tick
 492:Source\portable\GCC\ARM_CM3/port.c **** 			periods. */
 493:Source\portable\GCC\ARM_CM3/port.c **** 			portNVIC_SYSTICK_LOAD_REG = ulTimerCountsForOneTick - 1UL;
 494:Source\portable\GCC\ARM_CM3/port.c **** 
 495:Source\portable\GCC\ARM_CM3/port.c **** 			/* Re-enable interrupts - see comments above the cpsid instruction()
 496:Source\portable\GCC\ARM_CM3/port.c **** 			above. */
 497:Source\portable\GCC\ARM_CM3/port.c **** 			__asm volatile( "cpsie i" ::: "memory" );
 498:Source\portable\GCC\ARM_CM3/port.c **** 		}
 499:Source\portable\GCC\ARM_CM3/port.c **** 		else
ARM GAS  C:\Users\mikke\AppData\Local\Temp\ccKVUC3O.s 			page 24


 500:Source\portable\GCC\ARM_CM3/port.c **** 		{
 501:Source\portable\GCC\ARM_CM3/port.c **** 			/* Set the new reload value. */
 502:Source\portable\GCC\ARM_CM3/port.c **** 			portNVIC_SYSTICK_LOAD_REG = ulReloadValue;
 503:Source\portable\GCC\ARM_CM3/port.c **** 
 504:Source\portable\GCC\ARM_CM3/port.c **** 			/* Clear the SysTick count flag and set the count value back to
 505:Source\portable\GCC\ARM_CM3/port.c **** 			zero. */
 506:Source\portable\GCC\ARM_CM3/port.c **** 			portNVIC_SYSTICK_CURRENT_VALUE_REG = 0UL;
 507:Source\portable\GCC\ARM_CM3/port.c **** 
 508:Source\portable\GCC\ARM_CM3/port.c **** 			/* Restart SysTick. */
 509:Source\portable\GCC\ARM_CM3/port.c **** 			portNVIC_SYSTICK_CTRL_REG |= portNVIC_SYSTICK_ENABLE_BIT;
 510:Source\portable\GCC\ARM_CM3/port.c **** 
 511:Source\portable\GCC\ARM_CM3/port.c **** 			/* Sleep until something happens.  configPRE_SLEEP_PROCESSING() can
 512:Source\portable\GCC\ARM_CM3/port.c **** 			set its parameter to 0 to indicate that its implementation contains
 513:Source\portable\GCC\ARM_CM3/port.c **** 			its own wait for interrupt or wait for event instruction, and so wfi
 514:Source\portable\GCC\ARM_CM3/port.c **** 			should not be executed again.  However, the original expected idle
 515:Source\portable\GCC\ARM_CM3/port.c **** 			time variable must remain unmodified, so a copy is taken. */
 516:Source\portable\GCC\ARM_CM3/port.c **** 			xModifiableIdleTime = xExpectedIdleTime;
 517:Source\portable\GCC\ARM_CM3/port.c **** 			configPRE_SLEEP_PROCESSING( xModifiableIdleTime );
 518:Source\portable\GCC\ARM_CM3/port.c **** 			if( xModifiableIdleTime > 0 )
 519:Source\portable\GCC\ARM_CM3/port.c **** 			{
 520:Source\portable\GCC\ARM_CM3/port.c **** 				__asm volatile( "dsb" ::: "memory" );
 521:Source\portable\GCC\ARM_CM3/port.c **** 				__asm volatile( "wfi" );
 522:Source\portable\GCC\ARM_CM3/port.c **** 				__asm volatile( "isb" );
 523:Source\portable\GCC\ARM_CM3/port.c **** 			}
 524:Source\portable\GCC\ARM_CM3/port.c **** 			configPOST_SLEEP_PROCESSING( xExpectedIdleTime );
 525:Source\portable\GCC\ARM_CM3/port.c **** 
 526:Source\portable\GCC\ARM_CM3/port.c **** 			/* Re-enable interrupts to allow the interrupt that brought the MCU
 527:Source\portable\GCC\ARM_CM3/port.c **** 			out of sleep mode to execute immediately.  see comments above
 528:Source\portable\GCC\ARM_CM3/port.c **** 			__disable_interrupt() call above. */
 529:Source\portable\GCC\ARM_CM3/port.c **** 			__asm volatile( "cpsie i" ::: "memory" );
 530:Source\portable\GCC\ARM_CM3/port.c **** 			__asm volatile( "dsb" );
 531:Source\portable\GCC\ARM_CM3/port.c **** 			__asm volatile( "isb" );
 532:Source\portable\GCC\ARM_CM3/port.c **** 
 533:Source\portable\GCC\ARM_CM3/port.c **** 			/* Disable interrupts again because the clock is about to be stopped
 534:Source\portable\GCC\ARM_CM3/port.c **** 			and interrupts that execute while the clock is stopped will increase
 535:Source\portable\GCC\ARM_CM3/port.c **** 			any slippage between the time maintained by the RTOS and calendar
 536:Source\portable\GCC\ARM_CM3/port.c **** 			time. */
 537:Source\portable\GCC\ARM_CM3/port.c **** 			__asm volatile( "cpsid i" ::: "memory" );
 538:Source\portable\GCC\ARM_CM3/port.c **** 			__asm volatile( "dsb" );
 539:Source\portable\GCC\ARM_CM3/port.c **** 			__asm volatile( "isb" );
 540:Source\portable\GCC\ARM_CM3/port.c **** 
 541:Source\portable\GCC\ARM_CM3/port.c **** 			/* Disable the SysTick clock without reading the
 542:Source\portable\GCC\ARM_CM3/port.c **** 			portNVIC_SYSTICK_CTRL_REG register to ensure the
 543:Source\portable\GCC\ARM_CM3/port.c **** 			portNVIC_SYSTICK_COUNT_FLAG_BIT is not cleared if it is set.  Again,
 544:Source\portable\GCC\ARM_CM3/port.c **** 			the time the SysTick is stopped for is accounted for as best it can
 545:Source\portable\GCC\ARM_CM3/port.c **** 			be, but using the tickless mode will inevitably result in some tiny
 546:Source\portable\GCC\ARM_CM3/port.c **** 			drift of the time maintained by the kernel with respect to calendar
 547:Source\portable\GCC\ARM_CM3/port.c **** 			time*/
 548:Source\portable\GCC\ARM_CM3/port.c **** 			portNVIC_SYSTICK_CTRL_REG = ( portNVIC_SYSTICK_CLK_BIT | portNVIC_SYSTICK_INT_BIT );
 549:Source\portable\GCC\ARM_CM3/port.c **** 
 550:Source\portable\GCC\ARM_CM3/port.c **** 			/* Determine if the SysTick clock has already counted to zero and
 551:Source\portable\GCC\ARM_CM3/port.c **** 			been set back to the current reload value (the reload back being
 552:Source\portable\GCC\ARM_CM3/port.c **** 			correct for the entire expected idle time) or if the SysTick is yet
 553:Source\portable\GCC\ARM_CM3/port.c **** 			to count to zero (in which case an interrupt other than the SysTick
 554:Source\portable\GCC\ARM_CM3/port.c **** 			must have brought the system out of sleep mode). */
 555:Source\portable\GCC\ARM_CM3/port.c **** 			if( ( portNVIC_SYSTICK_CTRL_REG & portNVIC_SYSTICK_COUNT_FLAG_BIT ) != 0 )
 556:Source\portable\GCC\ARM_CM3/port.c **** 			{
ARM GAS  C:\Users\mikke\AppData\Local\Temp\ccKVUC3O.s 			page 25


 557:Source\portable\GCC\ARM_CM3/port.c **** 				uint32_t ulCalculatedLoadValue;
 558:Source\portable\GCC\ARM_CM3/port.c **** 
 559:Source\portable\GCC\ARM_CM3/port.c **** 				/* The tick interrupt is already pending, and the SysTick count
 560:Source\portable\GCC\ARM_CM3/port.c **** 				reloaded with ulReloadValue.  Reset the
 561:Source\portable\GCC\ARM_CM3/port.c **** 				portNVIC_SYSTICK_LOAD_REG with whatever remains of this tick
 562:Source\portable\GCC\ARM_CM3/port.c **** 				period. */
 563:Source\portable\GCC\ARM_CM3/port.c **** 				ulCalculatedLoadValue = ( ulTimerCountsForOneTick - 1UL ) - ( ulReloadValue - portNVIC_SYSTICK_
 564:Source\portable\GCC\ARM_CM3/port.c **** 
 565:Source\portable\GCC\ARM_CM3/port.c **** 				/* Don't allow a tiny value, or values that have somehow
 566:Source\portable\GCC\ARM_CM3/port.c **** 				underflowed because the post sleep hook did something
 567:Source\portable\GCC\ARM_CM3/port.c **** 				that took too long. */
 568:Source\portable\GCC\ARM_CM3/port.c **** 				if( ( ulCalculatedLoadValue < ulStoppedTimerCompensation ) || ( ulCalculatedLoadValue > ulTimer
 569:Source\portable\GCC\ARM_CM3/port.c **** 				{
 570:Source\portable\GCC\ARM_CM3/port.c **** 					ulCalculatedLoadValue = ( ulTimerCountsForOneTick - 1UL );
 571:Source\portable\GCC\ARM_CM3/port.c **** 				}
 572:Source\portable\GCC\ARM_CM3/port.c **** 
 573:Source\portable\GCC\ARM_CM3/port.c **** 				portNVIC_SYSTICK_LOAD_REG = ulCalculatedLoadValue;
 574:Source\portable\GCC\ARM_CM3/port.c **** 
 575:Source\portable\GCC\ARM_CM3/port.c **** 				/* As the pending tick will be processed as soon as this
 576:Source\portable\GCC\ARM_CM3/port.c **** 				function exits, the tick value maintained by the tick is stepped
 577:Source\portable\GCC\ARM_CM3/port.c **** 				forward by one less than the time spent waiting. */
 578:Source\portable\GCC\ARM_CM3/port.c **** 				ulCompleteTickPeriods = xExpectedIdleTime - 1UL;
 579:Source\portable\GCC\ARM_CM3/port.c **** 			}
 580:Source\portable\GCC\ARM_CM3/port.c **** 			else
 581:Source\portable\GCC\ARM_CM3/port.c **** 			{
 582:Source\portable\GCC\ARM_CM3/port.c **** 				/* Something other than the tick interrupt ended the sleep.
 583:Source\portable\GCC\ARM_CM3/port.c **** 				Work out how long the sleep lasted rounded to complete tick
 584:Source\portable\GCC\ARM_CM3/port.c **** 				periods (not the ulReload value which accounted for part
 585:Source\portable\GCC\ARM_CM3/port.c **** 				ticks). */
 586:Source\portable\GCC\ARM_CM3/port.c **** 				ulCompletedSysTickDecrements = ( xExpectedIdleTime * ulTimerCountsForOneTick ) - portNVIC_SYSTI
 587:Source\portable\GCC\ARM_CM3/port.c **** 
 588:Source\portable\GCC\ARM_CM3/port.c **** 				/* How many complete tick periods passed while the processor
 589:Source\portable\GCC\ARM_CM3/port.c **** 				was waiting? */
 590:Source\portable\GCC\ARM_CM3/port.c **** 				ulCompleteTickPeriods = ulCompletedSysTickDecrements / ulTimerCountsForOneTick;
 591:Source\portable\GCC\ARM_CM3/port.c **** 
 592:Source\portable\GCC\ARM_CM3/port.c **** 				/* The reload value is set to whatever fraction of a single tick
 593:Source\portable\GCC\ARM_CM3/port.c **** 				period remains. */
 594:Source\portable\GCC\ARM_CM3/port.c **** 				portNVIC_SYSTICK_LOAD_REG = ( ( ulCompleteTickPeriods + 1UL ) * ulTimerCountsForOneTick ) - ulC
 595:Source\portable\GCC\ARM_CM3/port.c **** 			}
 596:Source\portable\GCC\ARM_CM3/port.c **** 
 597:Source\portable\GCC\ARM_CM3/port.c **** 			/* Restart SysTick so it runs from portNVIC_SYSTICK_LOAD_REG
 598:Source\portable\GCC\ARM_CM3/port.c **** 			again, then set portNVIC_SYSTICK_LOAD_REG back to its standard
 599:Source\portable\GCC\ARM_CM3/port.c **** 			value. */
 600:Source\portable\GCC\ARM_CM3/port.c **** 			portNVIC_SYSTICK_CURRENT_VALUE_REG = 0UL;
 601:Source\portable\GCC\ARM_CM3/port.c **** 			portNVIC_SYSTICK_CTRL_REG |= portNVIC_SYSTICK_ENABLE_BIT;
 602:Source\portable\GCC\ARM_CM3/port.c **** 			vTaskStepTick( ulCompleteTickPeriods );
 603:Source\portable\GCC\ARM_CM3/port.c **** 			portNVIC_SYSTICK_LOAD_REG = ulTimerCountsForOneTick - 1UL;
 604:Source\portable\GCC\ARM_CM3/port.c **** 
 605:Source\portable\GCC\ARM_CM3/port.c **** 			/* Exit with interrupts enabled. */
 606:Source\portable\GCC\ARM_CM3/port.c **** 			__asm volatile( "cpsie i" ::: "memory" );
 607:Source\portable\GCC\ARM_CM3/port.c **** 		}
 608:Source\portable\GCC\ARM_CM3/port.c **** 	}
 609:Source\portable\GCC\ARM_CM3/port.c **** 
 610:Source\portable\GCC\ARM_CM3/port.c **** #endif /* configUSE_TICKLESS_IDLE */
 611:Source\portable\GCC\ARM_CM3/port.c **** /*-----------------------------------------------------------*/
 612:Source\portable\GCC\ARM_CM3/port.c **** 
 613:Source\portable\GCC\ARM_CM3/port.c **** /*
ARM GAS  C:\Users\mikke\AppData\Local\Temp\ccKVUC3O.s 			page 26


 614:Source\portable\GCC\ARM_CM3/port.c ****  * Setup the systick timer to generate the tick interrupts at the required
 615:Source\portable\GCC\ARM_CM3/port.c ****  * frequency.
 616:Source\portable\GCC\ARM_CM3/port.c ****  */
 617:Source\portable\GCC\ARM_CM3/port.c **** __attribute__(( weak )) void vPortSetupTimerInterrupt( void )
 618:Source\portable\GCC\ARM_CM3/port.c **** {
 581              		.loc 1 618 0
 582              		.cfi_startproc
 583              		@ args = 0, pretend = 0, frame = 0
 584              		@ frame_needed = 1, uses_anonymous_args = 0
 585              		@ link register save eliminated.
 586 0000 80B4     		push	{r7}
 587              		.cfi_def_cfa_offset 4
 588              		.cfi_offset 7, -4
 589 0002 00AF     		add	r7, sp, #0
 590              		.cfi_def_cfa_register 7
 619:Source\portable\GCC\ARM_CM3/port.c **** 	/* Calculate the constants required to configure the tick interrupt. */
 620:Source\portable\GCC\ARM_CM3/port.c **** 	#if( configUSE_TICKLESS_IDLE == 1 )
 621:Source\portable\GCC\ARM_CM3/port.c **** 	{
 622:Source\portable\GCC\ARM_CM3/port.c **** 		ulTimerCountsForOneTick = ( configSYSTICK_CLOCK_HZ / configTICK_RATE_HZ );
 623:Source\portable\GCC\ARM_CM3/port.c **** 		xMaximumPossibleSuppressedTicks = portMAX_24_BIT_NUMBER / ulTimerCountsForOneTick;
 624:Source\portable\GCC\ARM_CM3/port.c **** 		ulStoppedTimerCompensation = portMISSED_COUNTS_FACTOR / ( configCPU_CLOCK_HZ / configSYSTICK_CLOC
 625:Source\portable\GCC\ARM_CM3/port.c **** 	}
 626:Source\portable\GCC\ARM_CM3/port.c **** 	#endif /* configUSE_TICKLESS_IDLE */
 627:Source\portable\GCC\ARM_CM3/port.c **** 
 628:Source\portable\GCC\ARM_CM3/port.c **** 	/* Stop and clear the SysTick. */
 629:Source\portable\GCC\ARM_CM3/port.c **** 	portNVIC_SYSTICK_CTRL_REG = 0UL;
 591              		.loc 1 629 0
 592 0004 084B     		ldr	r3, .L28
 593 0006 0022     		movs	r2, #0
 594 0008 1A60     		str	r2, [r3]
 630:Source\portable\GCC\ARM_CM3/port.c **** 	portNVIC_SYSTICK_CURRENT_VALUE_REG = 0UL;
 595              		.loc 1 630 0
 596 000a 084B     		ldr	r3, .L28+4
 597 000c 0022     		movs	r2, #0
 598 000e 1A60     		str	r2, [r3]
 631:Source\portable\GCC\ARM_CM3/port.c **** 
 632:Source\portable\GCC\ARM_CM3/port.c **** 	/* Configure SysTick to interrupt at the requested rate. */
 633:Source\portable\GCC\ARM_CM3/port.c **** 	portNVIC_SYSTICK_LOAD_REG = ( configSYSTICK_CLOCK_HZ / configTICK_RATE_HZ ) - 1UL;
 599              		.loc 1 633 0
 600 0010 074B     		ldr	r3, .L28+8
 601 0012 45F6BF52 		movw	r2, #23999
 602 0016 1A60     		str	r2, [r3]
 634:Source\portable\GCC\ARM_CM3/port.c **** 	portNVIC_SYSTICK_CTRL_REG = ( portNVIC_SYSTICK_CLK_BIT | portNVIC_SYSTICK_INT_BIT | portNVIC_SYSTI
 603              		.loc 1 634 0
 604 0018 034B     		ldr	r3, .L28
 605 001a 0722     		movs	r2, #7
 606 001c 1A60     		str	r2, [r3]
 635:Source\portable\GCC\ARM_CM3/port.c **** }
 607              		.loc 1 635 0
 608 001e 00BF     		nop
 609 0020 BD46     		mov	sp, r7
 610              		.cfi_def_cfa_register 13
 611              		@ sp needed
 612 0022 80BC     		pop	{r7}
 613              		.cfi_restore 7
 614              		.cfi_def_cfa_offset 0
 615 0024 7047     		bx	lr
ARM GAS  C:\Users\mikke\AppData\Local\Temp\ccKVUC3O.s 			page 27


 616              	.L29:
 617 0026 00BF     		.align	2
 618              	.L28:
 619 0028 10E000E0 		.word	-536813552
 620 002c 18E000E0 		.word	-536813544
 621 0030 14E000E0 		.word	-536813548
 622              		.cfi_endproc
 623              	.LFE78:
 624              		.size	vPortSetupTimerInterrupt, .-vPortSetupTimerInterrupt
 625              		.text
 626              	.Letext0:
 627              		.file 3 "c:\\program files (x86)\\cypress\\psoc creator\\4.3\\psoc creator\\import\\gnu\\arm\\5.4.
 628              		.file 4 "c:\\program files (x86)\\cypress\\psoc creator\\4.3\\psoc creator\\import\\gnu\\arm\\5.4.
 629              		.file 5 ".\\Source\\include/projdefs.h"
 630              		.file 6 "Generated_Source\\PSoC5/core_cm3.h"