ARM GAS  C:\Users\krist\AppData\Local\Temp\cct3LnZV.s 			page 1


   1              		.syntax unified
   2              		.cpu cortex-m3
   3              		.fpu softvfp
   4              		.eabi_attribute 20, 1
   5              		.eabi_attribute 21, 1
   6              		.eabi_attribute 23, 3
   7              		.eabi_attribute 24, 1
   8              		.eabi_attribute 25, 1
   9              		.eabi_attribute 26, 1
  10              		.eabi_attribute 30, 6
  11              		.eabi_attribute 34, 1
  12              		.eabi_attribute 18, 4
  13              		.thumb
  14              		.syntax unified
  15              		.file	"PWM_PERISTALTISK_1.c"
  16              		.text
  17              	.Ltext0:
  18              		.cfi_sections	.debug_frame
  19              		.global	PWM_PERISTALTISK_1_initVar
  20              		.bss
  21              		.type	PWM_PERISTALTISK_1_initVar, %object
  22              		.size	PWM_PERISTALTISK_1_initVar, 1
  23              	PWM_PERISTALTISK_1_initVar:
  24 0000 00       		.space	1
  25              		.section	.text.PWM_PERISTALTISK_1_Start,"ax",%progbits
  26              		.align	2
  27              		.global	PWM_PERISTALTISK_1_Start
  28              		.thumb
  29              		.thumb_func
  30              		.type	PWM_PERISTALTISK_1_Start, %function
  31              	PWM_PERISTALTISK_1_Start:
  32              	.LFB0:
  33              		.file 1 "Generated_Source\\PSoC5\\PWM_PERISTALTISK_1.c"
   1:Generated_Source\PSoC5/PWM_PERISTALTISK_1.c **** /*******************************************************************************
   2:Generated_Source\PSoC5/PWM_PERISTALTISK_1.c **** * File Name: PWM_PERISTALTISK_1.c
   3:Generated_Source\PSoC5/PWM_PERISTALTISK_1.c **** * Version 3.30
   4:Generated_Source\PSoC5/PWM_PERISTALTISK_1.c **** *
   5:Generated_Source\PSoC5/PWM_PERISTALTISK_1.c **** * Description:
   6:Generated_Source\PSoC5/PWM_PERISTALTISK_1.c **** *  The PWM User Module consist of an 8 or 16-bit counter with two 8 or 16-bit
   7:Generated_Source\PSoC5/PWM_PERISTALTISK_1.c **** *  comparitors. Each instance of this user module is capable of generating
   8:Generated_Source\PSoC5/PWM_PERISTALTISK_1.c **** *  two PWM outputs with the same period. The pulse width is selectable between
   9:Generated_Source\PSoC5/PWM_PERISTALTISK_1.c **** *  1 and 255/65535. The period is selectable between 2 and 255/65536 clocks.
  10:Generated_Source\PSoC5/PWM_PERISTALTISK_1.c **** *  The compare value output may be configured to be active when the present
  11:Generated_Source\PSoC5/PWM_PERISTALTISK_1.c **** *  counter is less than or less than/equal to the compare value.
  12:Generated_Source\PSoC5/PWM_PERISTALTISK_1.c **** *  A terminal count output is also provided. It generates a pulse one clock
  13:Generated_Source\PSoC5/PWM_PERISTALTISK_1.c **** *  width wide when the counter is equal to zero.
  14:Generated_Source\PSoC5/PWM_PERISTALTISK_1.c **** *
  15:Generated_Source\PSoC5/PWM_PERISTALTISK_1.c **** * Note:
  16:Generated_Source\PSoC5/PWM_PERISTALTISK_1.c **** *
  17:Generated_Source\PSoC5/PWM_PERISTALTISK_1.c **** *******************************************************************************
  18:Generated_Source\PSoC5/PWM_PERISTALTISK_1.c **** * Copyright 2008-2014, Cypress Semiconductor Corporation.  All rights reserved.
  19:Generated_Source\PSoC5/PWM_PERISTALTISK_1.c **** * You may use this file only in accordance with the license, terms, conditions,
  20:Generated_Source\PSoC5/PWM_PERISTALTISK_1.c **** * disclaimers, and limitations in the end user license agreement accompanying
  21:Generated_Source\PSoC5/PWM_PERISTALTISK_1.c **** * the software package with which this file was provided.
  22:Generated_Source\PSoC5/PWM_PERISTALTISK_1.c **** ********************************************************************************/
  23:Generated_Source\PSoC5/PWM_PERISTALTISK_1.c **** 
  24:Generated_Source\PSoC5/PWM_PERISTALTISK_1.c **** #include "PWM_PERISTALTISK_1.h"
ARM GAS  C:\Users\krist\AppData\Local\Temp\cct3LnZV.s 			page 2


  25:Generated_Source\PSoC5/PWM_PERISTALTISK_1.c **** 
  26:Generated_Source\PSoC5/PWM_PERISTALTISK_1.c **** /* Error message for removed <resource> through optimization */
  27:Generated_Source\PSoC5/PWM_PERISTALTISK_1.c **** #ifdef PWM_PERISTALTISK_1_PWMUDB_genblk1_ctrlreg__REMOVED
  28:Generated_Source\PSoC5/PWM_PERISTALTISK_1.c ****     #error PWM_v3_30 detected with a constant 0 for the enable or \
  29:Generated_Source\PSoC5/PWM_PERISTALTISK_1.c ****          constant 1 for reset. This will prevent the component from operating.
  30:Generated_Source\PSoC5/PWM_PERISTALTISK_1.c **** #endif /* PWM_PERISTALTISK_1_PWMUDB_genblk1_ctrlreg__REMOVED */
  31:Generated_Source\PSoC5/PWM_PERISTALTISK_1.c **** 
  32:Generated_Source\PSoC5/PWM_PERISTALTISK_1.c **** uint8 PWM_PERISTALTISK_1_initVar = 0u;
  33:Generated_Source\PSoC5/PWM_PERISTALTISK_1.c **** 
  34:Generated_Source\PSoC5/PWM_PERISTALTISK_1.c **** 
  35:Generated_Source\PSoC5/PWM_PERISTALTISK_1.c **** /*******************************************************************************
  36:Generated_Source\PSoC5/PWM_PERISTALTISK_1.c **** * Function Name: PWM_PERISTALTISK_1_Start
  37:Generated_Source\PSoC5/PWM_PERISTALTISK_1.c **** ********************************************************************************
  38:Generated_Source\PSoC5/PWM_PERISTALTISK_1.c **** *
  39:Generated_Source\PSoC5/PWM_PERISTALTISK_1.c **** * Summary:
  40:Generated_Source\PSoC5/PWM_PERISTALTISK_1.c **** *  The start function initializes the pwm with the default values, the
  41:Generated_Source\PSoC5/PWM_PERISTALTISK_1.c **** *  enables the counter to begin counting.  It does not enable interrupts,
  42:Generated_Source\PSoC5/PWM_PERISTALTISK_1.c **** *  the EnableInt command should be called if interrupt generation is required.
  43:Generated_Source\PSoC5/PWM_PERISTALTISK_1.c **** *
  44:Generated_Source\PSoC5/PWM_PERISTALTISK_1.c **** * Parameters:
  45:Generated_Source\PSoC5/PWM_PERISTALTISK_1.c **** *  None
  46:Generated_Source\PSoC5/PWM_PERISTALTISK_1.c **** *
  47:Generated_Source\PSoC5/PWM_PERISTALTISK_1.c **** * Return:
  48:Generated_Source\PSoC5/PWM_PERISTALTISK_1.c **** *  None
  49:Generated_Source\PSoC5/PWM_PERISTALTISK_1.c **** *
  50:Generated_Source\PSoC5/PWM_PERISTALTISK_1.c **** * Global variables:
  51:Generated_Source\PSoC5/PWM_PERISTALTISK_1.c **** *  PWM_PERISTALTISK_1_initVar: Is modified when this function is called for the
  52:Generated_Source\PSoC5/PWM_PERISTALTISK_1.c **** *   first time. Is used to ensure that initialization happens only once.
  53:Generated_Source\PSoC5/PWM_PERISTALTISK_1.c **** *
  54:Generated_Source\PSoC5/PWM_PERISTALTISK_1.c **** *******************************************************************************/
  55:Generated_Source\PSoC5/PWM_PERISTALTISK_1.c **** void PWM_PERISTALTISK_1_Start(void) 
  56:Generated_Source\PSoC5/PWM_PERISTALTISK_1.c **** {
  34              		.loc 1 56 0
  35              		.cfi_startproc
  36              		@ args = 0, pretend = 0, frame = 0
  37              		@ frame_needed = 1, uses_anonymous_args = 0
  38 0000 80B5     		push	{r7, lr}
  39              		.cfi_def_cfa_offset 8
  40              		.cfi_offset 7, -8
  41              		.cfi_offset 14, -4
  42 0002 00AF     		add	r7, sp, #0
  43              		.cfi_def_cfa_register 7
  57:Generated_Source\PSoC5/PWM_PERISTALTISK_1.c ****     /* If not Initialized then initialize all required hardware and software */
  58:Generated_Source\PSoC5/PWM_PERISTALTISK_1.c ****     if(PWM_PERISTALTISK_1_initVar == 0u)
  44              		.loc 1 58 0
  45 0004 064B     		ldr	r3, .L3
  46 0006 1B78     		ldrb	r3, [r3]	@ zero_extendqisi2
  47 0008 002B     		cmp	r3, #0
  48 000a 04D1     		bne	.L2
  59:Generated_Source\PSoC5/PWM_PERISTALTISK_1.c ****     {
  60:Generated_Source\PSoC5/PWM_PERISTALTISK_1.c ****         PWM_PERISTALTISK_1_Init();
  49              		.loc 1 60 0
  50 000c FFF7FEFF 		bl	PWM_PERISTALTISK_1_Init
  61:Generated_Source\PSoC5/PWM_PERISTALTISK_1.c ****         PWM_PERISTALTISK_1_initVar = 1u;
  51              		.loc 1 61 0
  52 0010 034B     		ldr	r3, .L3
  53 0012 0122     		movs	r2, #1
ARM GAS  C:\Users\krist\AppData\Local\Temp\cct3LnZV.s 			page 3


  54 0014 1A70     		strb	r2, [r3]
  55              	.L2:
  62:Generated_Source\PSoC5/PWM_PERISTALTISK_1.c ****     }
  63:Generated_Source\PSoC5/PWM_PERISTALTISK_1.c ****     PWM_PERISTALTISK_1_Enable();
  56              		.loc 1 63 0
  57 0016 FFF7FEFF 		bl	PWM_PERISTALTISK_1_Enable
  64:Generated_Source\PSoC5/PWM_PERISTALTISK_1.c **** 
  65:Generated_Source\PSoC5/PWM_PERISTALTISK_1.c **** }
  58              		.loc 1 65 0
  59 001a 00BF     		nop
  60 001c 80BD     		pop	{r7, pc}
  61              	.L4:
  62 001e 00BF     		.align	2
  63              	.L3:
  64 0020 00000000 		.word	PWM_PERISTALTISK_1_initVar
  65              		.cfi_endproc
  66              	.LFE0:
  67              		.size	PWM_PERISTALTISK_1_Start, .-PWM_PERISTALTISK_1_Start
  68              		.section	.text.PWM_PERISTALTISK_1_Init,"ax",%progbits
  69              		.align	2
  70              		.global	PWM_PERISTALTISK_1_Init
  71              		.thumb
  72              		.thumb_func
  73              		.type	PWM_PERISTALTISK_1_Init, %function
  74              	PWM_PERISTALTISK_1_Init:
  75              	.LFB1:
  66:Generated_Source\PSoC5/PWM_PERISTALTISK_1.c **** 
  67:Generated_Source\PSoC5/PWM_PERISTALTISK_1.c **** 
  68:Generated_Source\PSoC5/PWM_PERISTALTISK_1.c **** /*******************************************************************************
  69:Generated_Source\PSoC5/PWM_PERISTALTISK_1.c **** * Function Name: PWM_PERISTALTISK_1_Init
  70:Generated_Source\PSoC5/PWM_PERISTALTISK_1.c **** ********************************************************************************
  71:Generated_Source\PSoC5/PWM_PERISTALTISK_1.c **** *
  72:Generated_Source\PSoC5/PWM_PERISTALTISK_1.c **** * Summary:
  73:Generated_Source\PSoC5/PWM_PERISTALTISK_1.c **** *  Initialize component's parameters to the parameters set by user in the
  74:Generated_Source\PSoC5/PWM_PERISTALTISK_1.c **** *  customizer of the component placed onto schematic. Usually called in
  75:Generated_Source\PSoC5/PWM_PERISTALTISK_1.c **** *  PWM_PERISTALTISK_1_Start().
  76:Generated_Source\PSoC5/PWM_PERISTALTISK_1.c **** *
  77:Generated_Source\PSoC5/PWM_PERISTALTISK_1.c **** * Parameters:
  78:Generated_Source\PSoC5/PWM_PERISTALTISK_1.c **** *  None
  79:Generated_Source\PSoC5/PWM_PERISTALTISK_1.c **** *
  80:Generated_Source\PSoC5/PWM_PERISTALTISK_1.c **** * Return:
  81:Generated_Source\PSoC5/PWM_PERISTALTISK_1.c **** *  None
  82:Generated_Source\PSoC5/PWM_PERISTALTISK_1.c **** *
  83:Generated_Source\PSoC5/PWM_PERISTALTISK_1.c **** *******************************************************************************/
  84:Generated_Source\PSoC5/PWM_PERISTALTISK_1.c **** void PWM_PERISTALTISK_1_Init(void) 
  85:Generated_Source\PSoC5/PWM_PERISTALTISK_1.c **** {
  76              		.loc 1 85 0
  77              		.cfi_startproc
  78              		@ args = 0, pretend = 0, frame = 8
  79              		@ frame_needed = 1, uses_anonymous_args = 0
  80 0000 80B5     		push	{r7, lr}
  81              		.cfi_def_cfa_offset 8
  82              		.cfi_offset 7, -8
  83              		.cfi_offset 14, -4
  84 0002 82B0     		sub	sp, sp, #8
  85              		.cfi_def_cfa_offset 16
  86 0004 00AF     		add	r7, sp, #0
ARM GAS  C:\Users\krist\AppData\Local\Temp\cct3LnZV.s 			page 4


  87              		.cfi_def_cfa_register 7
  86:Generated_Source\PSoC5/PWM_PERISTALTISK_1.c ****     #if (PWM_PERISTALTISK_1_UsingFixedFunction || PWM_PERISTALTISK_1_UseControl)
  87:Generated_Source\PSoC5/PWM_PERISTALTISK_1.c ****         uint8 ctrl;
  88:Generated_Source\PSoC5/PWM_PERISTALTISK_1.c ****     #endif /* (PWM_PERISTALTISK_1_UsingFixedFunction || PWM_PERISTALTISK_1_UseControl) */
  89:Generated_Source\PSoC5/PWM_PERISTALTISK_1.c **** 
  90:Generated_Source\PSoC5/PWM_PERISTALTISK_1.c ****     #if(!PWM_PERISTALTISK_1_UsingFixedFunction)
  91:Generated_Source\PSoC5/PWM_PERISTALTISK_1.c ****         #if(PWM_PERISTALTISK_1_UseStatus)
  92:Generated_Source\PSoC5/PWM_PERISTALTISK_1.c ****             /* Interrupt State Backup for Critical Region*/
  93:Generated_Source\PSoC5/PWM_PERISTALTISK_1.c ****             uint8 PWM_PERISTALTISK_1_interruptState;
  94:Generated_Source\PSoC5/PWM_PERISTALTISK_1.c ****         #endif /* (PWM_PERISTALTISK_1_UseStatus) */
  95:Generated_Source\PSoC5/PWM_PERISTALTISK_1.c ****     #endif /* (!PWM_PERISTALTISK_1_UsingFixedFunction) */
  96:Generated_Source\PSoC5/PWM_PERISTALTISK_1.c **** 
  97:Generated_Source\PSoC5/PWM_PERISTALTISK_1.c ****     #if (PWM_PERISTALTISK_1_UsingFixedFunction)
  98:Generated_Source\PSoC5/PWM_PERISTALTISK_1.c ****         /* You are allowed to write the compare value (FF only) */
  99:Generated_Source\PSoC5/PWM_PERISTALTISK_1.c ****         PWM_PERISTALTISK_1_CONTROL |= PWM_PERISTALTISK_1_CFG0_MODE;
 100:Generated_Source\PSoC5/PWM_PERISTALTISK_1.c ****         #if (PWM_PERISTALTISK_1_DeadBand2_4)
 101:Generated_Source\PSoC5/PWM_PERISTALTISK_1.c ****             PWM_PERISTALTISK_1_CONTROL |= PWM_PERISTALTISK_1_CFG0_DB;
 102:Generated_Source\PSoC5/PWM_PERISTALTISK_1.c ****         #endif /* (PWM_PERISTALTISK_1_DeadBand2_4) */
 103:Generated_Source\PSoC5/PWM_PERISTALTISK_1.c **** 
 104:Generated_Source\PSoC5/PWM_PERISTALTISK_1.c ****         ctrl = PWM_PERISTALTISK_1_CONTROL3 & ((uint8 )(~PWM_PERISTALTISK_1_CTRL_CMPMODE1_MASK));
 105:Generated_Source\PSoC5/PWM_PERISTALTISK_1.c ****         PWM_PERISTALTISK_1_CONTROL3 = ctrl | PWM_PERISTALTISK_1_DEFAULT_COMPARE1_MODE;
 106:Generated_Source\PSoC5/PWM_PERISTALTISK_1.c **** 
 107:Generated_Source\PSoC5/PWM_PERISTALTISK_1.c ****          /* Clear and Set SYNCTC and SYNCCMP bits of RT1 register */
 108:Generated_Source\PSoC5/PWM_PERISTALTISK_1.c ****         PWM_PERISTALTISK_1_RT1 &= ((uint8)(~PWM_PERISTALTISK_1_RT1_MASK));
 109:Generated_Source\PSoC5/PWM_PERISTALTISK_1.c ****         PWM_PERISTALTISK_1_RT1 |= PWM_PERISTALTISK_1_SYNC;
 110:Generated_Source\PSoC5/PWM_PERISTALTISK_1.c **** 
 111:Generated_Source\PSoC5/PWM_PERISTALTISK_1.c ****         /*Enable DSI Sync all all inputs of the PWM*/
 112:Generated_Source\PSoC5/PWM_PERISTALTISK_1.c ****         PWM_PERISTALTISK_1_RT1 &= ((uint8)(~PWM_PERISTALTISK_1_SYNCDSI_MASK));
 113:Generated_Source\PSoC5/PWM_PERISTALTISK_1.c ****         PWM_PERISTALTISK_1_RT1 |= PWM_PERISTALTISK_1_SYNCDSI_EN;
 114:Generated_Source\PSoC5/PWM_PERISTALTISK_1.c **** 
 115:Generated_Source\PSoC5/PWM_PERISTALTISK_1.c ****     #elif (PWM_PERISTALTISK_1_UseControl)
 116:Generated_Source\PSoC5/PWM_PERISTALTISK_1.c ****         /* Set the default compare mode defined in the parameter */
 117:Generated_Source\PSoC5/PWM_PERISTALTISK_1.c ****         ctrl = PWM_PERISTALTISK_1_CONTROL & ((uint8)(~PWM_PERISTALTISK_1_CTRL_CMPMODE2_MASK)) &
  88              		.loc 1 117 0
  89 0006 1C4B     		ldr	r3, .L6
  90 0008 1B78     		ldrb	r3, [r3]
  91 000a DBB2     		uxtb	r3, r3
  92 000c 23F03F03 		bic	r3, r3, #63
  93 0010 FB71     		strb	r3, [r7, #7]
 118:Generated_Source\PSoC5/PWM_PERISTALTISK_1.c ****                 ((uint8)(~PWM_PERISTALTISK_1_CTRL_CMPMODE1_MASK));
 119:Generated_Source\PSoC5/PWM_PERISTALTISK_1.c ****         PWM_PERISTALTISK_1_CONTROL = ctrl | PWM_PERISTALTISK_1_DEFAULT_COMPARE2_MODE |
  94              		.loc 1 119 0
  95 0012 194A     		ldr	r2, .L6
  96 0014 FB79     		ldrb	r3, [r7, #7]
  97 0016 43F00903 		orr	r3, r3, #9
  98 001a DBB2     		uxtb	r3, r3
  99 001c 1370     		strb	r3, [r2]
 120:Generated_Source\PSoC5/PWM_PERISTALTISK_1.c ****                                    PWM_PERISTALTISK_1_DEFAULT_COMPARE1_MODE;
 121:Generated_Source\PSoC5/PWM_PERISTALTISK_1.c ****     #endif /* (PWM_PERISTALTISK_1_UsingFixedFunction) */
 122:Generated_Source\PSoC5/PWM_PERISTALTISK_1.c **** 
 123:Generated_Source\PSoC5/PWM_PERISTALTISK_1.c ****     #if (!PWM_PERISTALTISK_1_UsingFixedFunction)
 124:Generated_Source\PSoC5/PWM_PERISTALTISK_1.c ****         #if (PWM_PERISTALTISK_1_Resolution == 8)
 125:Generated_Source\PSoC5/PWM_PERISTALTISK_1.c ****             /* Set FIFO 0 to 1 byte register for period*/
 126:Generated_Source\PSoC5/PWM_PERISTALTISK_1.c ****             PWM_PERISTALTISK_1_AUX_CONTROLDP0 |= (PWM_PERISTALTISK_1_AUX_CTRL_FIFO0_CLR);
 100              		.loc 1 126 0
 101 001e 174A     		ldr	r2, .L6+4
 102 0020 164B     		ldr	r3, .L6+4
ARM GAS  C:\Users\krist\AppData\Local\Temp\cct3LnZV.s 			page 5


 103 0022 1B78     		ldrb	r3, [r3]
 104 0024 DBB2     		uxtb	r3, r3
 105 0026 43F00103 		orr	r3, r3, #1
 106 002a DBB2     		uxtb	r3, r3
 107 002c 1370     		strb	r3, [r2]
 127:Generated_Source\PSoC5/PWM_PERISTALTISK_1.c ****         #else /* (PWM_PERISTALTISK_1_Resolution == 16)*/
 128:Generated_Source\PSoC5/PWM_PERISTALTISK_1.c ****             /* Set FIFO 0 to 1 byte register for period */
 129:Generated_Source\PSoC5/PWM_PERISTALTISK_1.c ****             PWM_PERISTALTISK_1_AUX_CONTROLDP0 |= (PWM_PERISTALTISK_1_AUX_CTRL_FIFO0_CLR);
 130:Generated_Source\PSoC5/PWM_PERISTALTISK_1.c ****             PWM_PERISTALTISK_1_AUX_CONTROLDP1 |= (PWM_PERISTALTISK_1_AUX_CTRL_FIFO0_CLR);
 131:Generated_Source\PSoC5/PWM_PERISTALTISK_1.c ****         #endif /* (PWM_PERISTALTISK_1_Resolution == 8) */
 132:Generated_Source\PSoC5/PWM_PERISTALTISK_1.c **** 
 133:Generated_Source\PSoC5/PWM_PERISTALTISK_1.c ****         PWM_PERISTALTISK_1_WriteCounter(PWM_PERISTALTISK_1_INIT_PERIOD_VALUE);
 108              		.loc 1 133 0
 109 002e FF20     		movs	r0, #255
 110 0030 FFF7FEFF 		bl	PWM_PERISTALTISK_1_WriteCounter
 134:Generated_Source\PSoC5/PWM_PERISTALTISK_1.c ****     #endif /* (!PWM_PERISTALTISK_1_UsingFixedFunction) */
 135:Generated_Source\PSoC5/PWM_PERISTALTISK_1.c **** 
 136:Generated_Source\PSoC5/PWM_PERISTALTISK_1.c ****     PWM_PERISTALTISK_1_WritePeriod(PWM_PERISTALTISK_1_INIT_PERIOD_VALUE);
 111              		.loc 1 136 0
 112 0034 FF20     		movs	r0, #255
 113 0036 FFF7FEFF 		bl	PWM_PERISTALTISK_1_WritePeriod
 137:Generated_Source\PSoC5/PWM_PERISTALTISK_1.c **** 
 138:Generated_Source\PSoC5/PWM_PERISTALTISK_1.c ****         #if (PWM_PERISTALTISK_1_UseOneCompareMode)
 139:Generated_Source\PSoC5/PWM_PERISTALTISK_1.c ****             PWM_PERISTALTISK_1_WriteCompare(PWM_PERISTALTISK_1_INIT_COMPARE_VALUE1);
 140:Generated_Source\PSoC5/PWM_PERISTALTISK_1.c ****         #else
 141:Generated_Source\PSoC5/PWM_PERISTALTISK_1.c ****             PWM_PERISTALTISK_1_WriteCompare1(PWM_PERISTALTISK_1_INIT_COMPARE_VALUE1);
 114              		.loc 1 141 0
 115 003a 0620     		movs	r0, #6
 116 003c FFF7FEFF 		bl	PWM_PERISTALTISK_1_WriteCompare1
 142:Generated_Source\PSoC5/PWM_PERISTALTISK_1.c ****             PWM_PERISTALTISK_1_WriteCompare2(PWM_PERISTALTISK_1_INIT_COMPARE_VALUE2);
 117              		.loc 1 142 0
 118 0040 1320     		movs	r0, #19
 119 0042 FFF7FEFF 		bl	PWM_PERISTALTISK_1_WriteCompare2
 143:Generated_Source\PSoC5/PWM_PERISTALTISK_1.c ****         #endif /* (PWM_PERISTALTISK_1_UseOneCompareMode) */
 144:Generated_Source\PSoC5/PWM_PERISTALTISK_1.c **** 
 145:Generated_Source\PSoC5/PWM_PERISTALTISK_1.c ****         #if (PWM_PERISTALTISK_1_KillModeMinTime)
 146:Generated_Source\PSoC5/PWM_PERISTALTISK_1.c ****             PWM_PERISTALTISK_1_WriteKillTime(PWM_PERISTALTISK_1_MinimumKillTime);
 147:Generated_Source\PSoC5/PWM_PERISTALTISK_1.c ****         #endif /* (PWM_PERISTALTISK_1_KillModeMinTime) */
 148:Generated_Source\PSoC5/PWM_PERISTALTISK_1.c **** 
 149:Generated_Source\PSoC5/PWM_PERISTALTISK_1.c ****         #if (PWM_PERISTALTISK_1_DeadBandUsed)
 150:Generated_Source\PSoC5/PWM_PERISTALTISK_1.c ****             PWM_PERISTALTISK_1_WriteDeadTime(PWM_PERISTALTISK_1_INIT_DEAD_TIME);
 151:Generated_Source\PSoC5/PWM_PERISTALTISK_1.c ****         #endif /* (PWM_PERISTALTISK_1_DeadBandUsed) */
 152:Generated_Source\PSoC5/PWM_PERISTALTISK_1.c **** 
 153:Generated_Source\PSoC5/PWM_PERISTALTISK_1.c ****     #if (PWM_PERISTALTISK_1_UseStatus || PWM_PERISTALTISK_1_UsingFixedFunction)
 154:Generated_Source\PSoC5/PWM_PERISTALTISK_1.c ****         PWM_PERISTALTISK_1_SetInterruptMode(PWM_PERISTALTISK_1_INIT_INTERRUPTS_MODE);
 120              		.loc 1 154 0
 121 0046 0020     		movs	r0, #0
 122 0048 FFF7FEFF 		bl	PWM_PERISTALTISK_1_SetInterruptMode
 155:Generated_Source\PSoC5/PWM_PERISTALTISK_1.c ****     #endif /* (PWM_PERISTALTISK_1_UseStatus || PWM_PERISTALTISK_1_UsingFixedFunction) */
 156:Generated_Source\PSoC5/PWM_PERISTALTISK_1.c **** 
 157:Generated_Source\PSoC5/PWM_PERISTALTISK_1.c ****     #if (PWM_PERISTALTISK_1_UsingFixedFunction)
 158:Generated_Source\PSoC5/PWM_PERISTALTISK_1.c ****         /* Globally Enable the Fixed Function Block chosen */
 159:Generated_Source\PSoC5/PWM_PERISTALTISK_1.c ****         PWM_PERISTALTISK_1_GLOBAL_ENABLE |= PWM_PERISTALTISK_1_BLOCK_EN_MASK;
 160:Generated_Source\PSoC5/PWM_PERISTALTISK_1.c ****         /* Set the Interrupt source to come from the status register */
 161:Generated_Source\PSoC5/PWM_PERISTALTISK_1.c ****         PWM_PERISTALTISK_1_CONTROL2 |= PWM_PERISTALTISK_1_CTRL2_IRQ_SEL;
 162:Generated_Source\PSoC5/PWM_PERISTALTISK_1.c ****     #else
 163:Generated_Source\PSoC5/PWM_PERISTALTISK_1.c ****         #if(PWM_PERISTALTISK_1_UseStatus)
ARM GAS  C:\Users\krist\AppData\Local\Temp\cct3LnZV.s 			page 6


 164:Generated_Source\PSoC5/PWM_PERISTALTISK_1.c **** 
 165:Generated_Source\PSoC5/PWM_PERISTALTISK_1.c ****             /* CyEnterCriticalRegion and CyExitCriticalRegion are used to mark following region cri
 166:Generated_Source\PSoC5/PWM_PERISTALTISK_1.c ****             /* Enter Critical Region*/
 167:Generated_Source\PSoC5/PWM_PERISTALTISK_1.c ****             PWM_PERISTALTISK_1_interruptState = CyEnterCriticalSection();
 123              		.loc 1 167 0
 124 004c FFF7FEFF 		bl	CyEnterCriticalSection
 125 0050 0346     		mov	r3, r0
 126 0052 BB71     		strb	r3, [r7, #6]
 168:Generated_Source\PSoC5/PWM_PERISTALTISK_1.c ****             /* Use the interrupt output of the status register for IRQ output */
 169:Generated_Source\PSoC5/PWM_PERISTALTISK_1.c ****             PWM_PERISTALTISK_1_STATUS_AUX_CTRL |= PWM_PERISTALTISK_1_STATUS_ACTL_INT_EN_MASK;
 127              		.loc 1 169 0
 128 0054 094A     		ldr	r2, .L6+4
 129 0056 094B     		ldr	r3, .L6+4
 130 0058 1B78     		ldrb	r3, [r3]
 131 005a DBB2     		uxtb	r3, r3
 132 005c 43F01003 		orr	r3, r3, #16
 133 0060 DBB2     		uxtb	r3, r3
 134 0062 1370     		strb	r3, [r2]
 170:Generated_Source\PSoC5/PWM_PERISTALTISK_1.c **** 
 171:Generated_Source\PSoC5/PWM_PERISTALTISK_1.c ****              /* Exit Critical Region*/
 172:Generated_Source\PSoC5/PWM_PERISTALTISK_1.c ****             CyExitCriticalSection(PWM_PERISTALTISK_1_interruptState);
 135              		.loc 1 172 0
 136 0064 BB79     		ldrb	r3, [r7, #6]	@ zero_extendqisi2
 137 0066 1846     		mov	r0, r3
 138 0068 FFF7FEFF 		bl	CyExitCriticalSection
 173:Generated_Source\PSoC5/PWM_PERISTALTISK_1.c **** 
 174:Generated_Source\PSoC5/PWM_PERISTALTISK_1.c ****             /* Clear the FIFO to enable the PWM_PERISTALTISK_1_STATUS_FIFOFULL
 175:Generated_Source\PSoC5/PWM_PERISTALTISK_1.c ****                    bit to be set on FIFO full. */
 176:Generated_Source\PSoC5/PWM_PERISTALTISK_1.c ****             PWM_PERISTALTISK_1_ClearFIFO();
 139              		.loc 1 176 0
 140 006c FFF7FEFF 		bl	PWM_PERISTALTISK_1_ClearFIFO
 177:Generated_Source\PSoC5/PWM_PERISTALTISK_1.c ****         #endif /* (PWM_PERISTALTISK_1_UseStatus) */
 178:Generated_Source\PSoC5/PWM_PERISTALTISK_1.c ****     #endif /* (PWM_PERISTALTISK_1_UsingFixedFunction) */
 179:Generated_Source\PSoC5/PWM_PERISTALTISK_1.c **** }
 141              		.loc 1 179 0
 142 0070 00BF     		nop
 143 0072 0837     		adds	r7, r7, #8
 144              		.cfi_def_cfa_offset 8
 145 0074 BD46     		mov	sp, r7
 146              		.cfi_def_cfa_register 13
 147              		@ sp needed
 148 0076 80BD     		pop	{r7, pc}
 149              	.L7:
 150              		.align	2
 151              	.L6:
 152 0078 70640040 		.word	1073767536
 153 007c 90640040 		.word	1073767568
 154              		.cfi_endproc
 155              	.LFE1:
 156              		.size	PWM_PERISTALTISK_1_Init, .-PWM_PERISTALTISK_1_Init
 157              		.section	.text.PWM_PERISTALTISK_1_Enable,"ax",%progbits
 158              		.align	2
 159              		.global	PWM_PERISTALTISK_1_Enable
 160              		.thumb
 161              		.thumb_func
 162              		.type	PWM_PERISTALTISK_1_Enable, %function
 163              	PWM_PERISTALTISK_1_Enable:
ARM GAS  C:\Users\krist\AppData\Local\Temp\cct3LnZV.s 			page 7


 164              	.LFB2:
 180:Generated_Source\PSoC5/PWM_PERISTALTISK_1.c **** 
 181:Generated_Source\PSoC5/PWM_PERISTALTISK_1.c **** 
 182:Generated_Source\PSoC5/PWM_PERISTALTISK_1.c **** /*******************************************************************************
 183:Generated_Source\PSoC5/PWM_PERISTALTISK_1.c **** * Function Name: PWM_PERISTALTISK_1_Enable
 184:Generated_Source\PSoC5/PWM_PERISTALTISK_1.c **** ********************************************************************************
 185:Generated_Source\PSoC5/PWM_PERISTALTISK_1.c **** *
 186:Generated_Source\PSoC5/PWM_PERISTALTISK_1.c **** * Summary:
 187:Generated_Source\PSoC5/PWM_PERISTALTISK_1.c **** *  Enables the PWM block operation
 188:Generated_Source\PSoC5/PWM_PERISTALTISK_1.c **** *
 189:Generated_Source\PSoC5/PWM_PERISTALTISK_1.c **** * Parameters:
 190:Generated_Source\PSoC5/PWM_PERISTALTISK_1.c **** *  None
 191:Generated_Source\PSoC5/PWM_PERISTALTISK_1.c **** *
 192:Generated_Source\PSoC5/PWM_PERISTALTISK_1.c **** * Return:
 193:Generated_Source\PSoC5/PWM_PERISTALTISK_1.c **** *  None
 194:Generated_Source\PSoC5/PWM_PERISTALTISK_1.c **** *
 195:Generated_Source\PSoC5/PWM_PERISTALTISK_1.c **** * Side Effects:
 196:Generated_Source\PSoC5/PWM_PERISTALTISK_1.c **** *  This works only if software enable mode is chosen
 197:Generated_Source\PSoC5/PWM_PERISTALTISK_1.c **** *
 198:Generated_Source\PSoC5/PWM_PERISTALTISK_1.c **** *******************************************************************************/
 199:Generated_Source\PSoC5/PWM_PERISTALTISK_1.c **** void PWM_PERISTALTISK_1_Enable(void) 
 200:Generated_Source\PSoC5/PWM_PERISTALTISK_1.c **** {
 165              		.loc 1 200 0
 166              		.cfi_startproc
 167              		@ args = 0, pretend = 0, frame = 0
 168              		@ frame_needed = 1, uses_anonymous_args = 0
 169              		@ link register save eliminated.
 170 0000 80B4     		push	{r7}
 171              		.cfi_def_cfa_offset 4
 172              		.cfi_offset 7, -4
 173 0002 00AF     		add	r7, sp, #0
 174              		.cfi_def_cfa_register 7
 201:Generated_Source\PSoC5/PWM_PERISTALTISK_1.c ****     /* Globally Enable the Fixed Function Block chosen */
 202:Generated_Source\PSoC5/PWM_PERISTALTISK_1.c ****     #if (PWM_PERISTALTISK_1_UsingFixedFunction)
 203:Generated_Source\PSoC5/PWM_PERISTALTISK_1.c ****         PWM_PERISTALTISK_1_GLOBAL_ENABLE |= PWM_PERISTALTISK_1_BLOCK_EN_MASK;
 204:Generated_Source\PSoC5/PWM_PERISTALTISK_1.c ****         PWM_PERISTALTISK_1_GLOBAL_STBY_ENABLE |= PWM_PERISTALTISK_1_BLOCK_STBY_EN_MASK;
 205:Generated_Source\PSoC5/PWM_PERISTALTISK_1.c ****     #endif /* (PWM_PERISTALTISK_1_UsingFixedFunction) */
 206:Generated_Source\PSoC5/PWM_PERISTALTISK_1.c **** 
 207:Generated_Source\PSoC5/PWM_PERISTALTISK_1.c ****     /* Enable the PWM from the control register  */
 208:Generated_Source\PSoC5/PWM_PERISTALTISK_1.c ****     #if (PWM_PERISTALTISK_1_UseControl || PWM_PERISTALTISK_1_UsingFixedFunction)
 209:Generated_Source\PSoC5/PWM_PERISTALTISK_1.c ****         PWM_PERISTALTISK_1_CONTROL |= PWM_PERISTALTISK_1_CTRL_ENABLE;
 175              		.loc 1 209 0
 176 0004 054A     		ldr	r2, .L9
 177 0006 054B     		ldr	r3, .L9
 178 0008 1B78     		ldrb	r3, [r3]
 179 000a DBB2     		uxtb	r3, r3
 180 000c 63F07F03 		orn	r3, r3, #127
 181 0010 DBB2     		uxtb	r3, r3
 182 0012 1370     		strb	r3, [r2]
 210:Generated_Source\PSoC5/PWM_PERISTALTISK_1.c ****     #endif /* (PWM_PERISTALTISK_1_UseControl || PWM_PERISTALTISK_1_UsingFixedFunction) */
 211:Generated_Source\PSoC5/PWM_PERISTALTISK_1.c **** }
 183              		.loc 1 211 0
 184 0014 00BF     		nop
 185 0016 BD46     		mov	sp, r7
 186              		.cfi_def_cfa_register 13
 187              		@ sp needed
 188 0018 80BC     		pop	{r7}
ARM GAS  C:\Users\krist\AppData\Local\Temp\cct3LnZV.s 			page 8


 189              		.cfi_restore 7
 190              		.cfi_def_cfa_offset 0
 191 001a 7047     		bx	lr
 192              	.L10:
 193              		.align	2
 194              	.L9:
 195 001c 70640040 		.word	1073767536
 196              		.cfi_endproc
 197              	.LFE2:
 198              		.size	PWM_PERISTALTISK_1_Enable, .-PWM_PERISTALTISK_1_Enable
 199              		.section	.text.PWM_PERISTALTISK_1_Stop,"ax",%progbits
 200              		.align	2
 201              		.global	PWM_PERISTALTISK_1_Stop
 202              		.thumb
 203              		.thumb_func
 204              		.type	PWM_PERISTALTISK_1_Stop, %function
 205              	PWM_PERISTALTISK_1_Stop:
 206              	.LFB3:
 212:Generated_Source\PSoC5/PWM_PERISTALTISK_1.c **** 
 213:Generated_Source\PSoC5/PWM_PERISTALTISK_1.c **** 
 214:Generated_Source\PSoC5/PWM_PERISTALTISK_1.c **** /*******************************************************************************
 215:Generated_Source\PSoC5/PWM_PERISTALTISK_1.c **** * Function Name: PWM_PERISTALTISK_1_Stop
 216:Generated_Source\PSoC5/PWM_PERISTALTISK_1.c **** ********************************************************************************
 217:Generated_Source\PSoC5/PWM_PERISTALTISK_1.c **** *
 218:Generated_Source\PSoC5/PWM_PERISTALTISK_1.c **** * Summary:
 219:Generated_Source\PSoC5/PWM_PERISTALTISK_1.c **** *  The stop function halts the PWM, but does not change any modes or disable
 220:Generated_Source\PSoC5/PWM_PERISTALTISK_1.c **** *  interrupts.
 221:Generated_Source\PSoC5/PWM_PERISTALTISK_1.c **** *
 222:Generated_Source\PSoC5/PWM_PERISTALTISK_1.c **** * Parameters:
 223:Generated_Source\PSoC5/PWM_PERISTALTISK_1.c **** *  None
 224:Generated_Source\PSoC5/PWM_PERISTALTISK_1.c **** *
 225:Generated_Source\PSoC5/PWM_PERISTALTISK_1.c **** * Return:
 226:Generated_Source\PSoC5/PWM_PERISTALTISK_1.c **** *  None
 227:Generated_Source\PSoC5/PWM_PERISTALTISK_1.c **** *
 228:Generated_Source\PSoC5/PWM_PERISTALTISK_1.c **** * Side Effects:
 229:Generated_Source\PSoC5/PWM_PERISTALTISK_1.c **** *  If the Enable mode is set to Hardware only then this function
 230:Generated_Source\PSoC5/PWM_PERISTALTISK_1.c **** *  has no effect on the operation of the PWM
 231:Generated_Source\PSoC5/PWM_PERISTALTISK_1.c **** *
 232:Generated_Source\PSoC5/PWM_PERISTALTISK_1.c **** *******************************************************************************/
 233:Generated_Source\PSoC5/PWM_PERISTALTISK_1.c **** void PWM_PERISTALTISK_1_Stop(void) 
 234:Generated_Source\PSoC5/PWM_PERISTALTISK_1.c **** {
 207              		.loc 1 234 0
 208              		.cfi_startproc
 209              		@ args = 0, pretend = 0, frame = 0
 210              		@ frame_needed = 1, uses_anonymous_args = 0
 211              		@ link register save eliminated.
 212 0000 80B4     		push	{r7}
 213              		.cfi_def_cfa_offset 4
 214              		.cfi_offset 7, -4
 215 0002 00AF     		add	r7, sp, #0
 216              		.cfi_def_cfa_register 7
 235:Generated_Source\PSoC5/PWM_PERISTALTISK_1.c ****     #if (PWM_PERISTALTISK_1_UseControl || PWM_PERISTALTISK_1_UsingFixedFunction)
 236:Generated_Source\PSoC5/PWM_PERISTALTISK_1.c ****         PWM_PERISTALTISK_1_CONTROL &= ((uint8)(~PWM_PERISTALTISK_1_CTRL_ENABLE));
 217              		.loc 1 236 0
 218 0004 054A     		ldr	r2, .L12
 219 0006 054B     		ldr	r3, .L12
 220 0008 1B78     		ldrb	r3, [r3]
ARM GAS  C:\Users\krist\AppData\Local\Temp\cct3LnZV.s 			page 9


 221 000a DBB2     		uxtb	r3, r3
 222 000c 03F07F03 		and	r3, r3, #127
 223 0010 DBB2     		uxtb	r3, r3
 224 0012 1370     		strb	r3, [r2]
 237:Generated_Source\PSoC5/PWM_PERISTALTISK_1.c ****     #endif /* (PWM_PERISTALTISK_1_UseControl || PWM_PERISTALTISK_1_UsingFixedFunction) */
 238:Generated_Source\PSoC5/PWM_PERISTALTISK_1.c **** 
 239:Generated_Source\PSoC5/PWM_PERISTALTISK_1.c ****     /* Globally disable the Fixed Function Block chosen */
 240:Generated_Source\PSoC5/PWM_PERISTALTISK_1.c ****     #if (PWM_PERISTALTISK_1_UsingFixedFunction)
 241:Generated_Source\PSoC5/PWM_PERISTALTISK_1.c ****         PWM_PERISTALTISK_1_GLOBAL_ENABLE &= ((uint8)(~PWM_PERISTALTISK_1_BLOCK_EN_MASK));
 242:Generated_Source\PSoC5/PWM_PERISTALTISK_1.c ****         PWM_PERISTALTISK_1_GLOBAL_STBY_ENABLE &= ((uint8)(~PWM_PERISTALTISK_1_BLOCK_STBY_EN_MASK));
 243:Generated_Source\PSoC5/PWM_PERISTALTISK_1.c ****     #endif /* (PWM_PERISTALTISK_1_UsingFixedFunction) */
 244:Generated_Source\PSoC5/PWM_PERISTALTISK_1.c **** }
 225              		.loc 1 244 0
 226 0014 00BF     		nop
 227 0016 BD46     		mov	sp, r7
 228              		.cfi_def_cfa_register 13
 229              		@ sp needed
 230 0018 80BC     		pop	{r7}
 231              		.cfi_restore 7
 232              		.cfi_def_cfa_offset 0
 233 001a 7047     		bx	lr
 234              	.L13:
 235              		.align	2
 236              	.L12:
 237 001c 70640040 		.word	1073767536
 238              		.cfi_endproc
 239              	.LFE3:
 240              		.size	PWM_PERISTALTISK_1_Stop, .-PWM_PERISTALTISK_1_Stop
 241              		.section	.text.PWM_PERISTALTISK_1_WriteCounter,"ax",%progbits
 242              		.align	2
 243              		.global	PWM_PERISTALTISK_1_WriteCounter
 244              		.thumb
 245              		.thumb_func
 246              		.type	PWM_PERISTALTISK_1_WriteCounter, %function
 247              	PWM_PERISTALTISK_1_WriteCounter:
 248              	.LFB4:
 245:Generated_Source\PSoC5/PWM_PERISTALTISK_1.c **** 
 246:Generated_Source\PSoC5/PWM_PERISTALTISK_1.c **** #if (PWM_PERISTALTISK_1_UseOneCompareMode)
 247:Generated_Source\PSoC5/PWM_PERISTALTISK_1.c ****     #if (PWM_PERISTALTISK_1_CompareMode1SW)
 248:Generated_Source\PSoC5/PWM_PERISTALTISK_1.c **** 
 249:Generated_Source\PSoC5/PWM_PERISTALTISK_1.c **** 
 250:Generated_Source\PSoC5/PWM_PERISTALTISK_1.c ****         /*******************************************************************************
 251:Generated_Source\PSoC5/PWM_PERISTALTISK_1.c ****         * Function Name: PWM_PERISTALTISK_1_SetCompareMode
 252:Generated_Source\PSoC5/PWM_PERISTALTISK_1.c ****         ********************************************************************************
 253:Generated_Source\PSoC5/PWM_PERISTALTISK_1.c ****         *
 254:Generated_Source\PSoC5/PWM_PERISTALTISK_1.c ****         * Summary:
 255:Generated_Source\PSoC5/PWM_PERISTALTISK_1.c ****         *  This function writes the Compare Mode for the pwm output when in Dither mode,
 256:Generated_Source\PSoC5/PWM_PERISTALTISK_1.c ****         *  Center Align Mode or One Output Mode.
 257:Generated_Source\PSoC5/PWM_PERISTALTISK_1.c ****         *
 258:Generated_Source\PSoC5/PWM_PERISTALTISK_1.c ****         * Parameters:
 259:Generated_Source\PSoC5/PWM_PERISTALTISK_1.c ****         *  comparemode:  The new compare mode for the PWM output. Use the compare types
 260:Generated_Source\PSoC5/PWM_PERISTALTISK_1.c ****         *                defined in the H file as input arguments.
 261:Generated_Source\PSoC5/PWM_PERISTALTISK_1.c ****         *
 262:Generated_Source\PSoC5/PWM_PERISTALTISK_1.c ****         * Return:
 263:Generated_Source\PSoC5/PWM_PERISTALTISK_1.c ****         *  None
 264:Generated_Source\PSoC5/PWM_PERISTALTISK_1.c ****         *
 265:Generated_Source\PSoC5/PWM_PERISTALTISK_1.c ****         *******************************************************************************/
ARM GAS  C:\Users\krist\AppData\Local\Temp\cct3LnZV.s 			page 10


 266:Generated_Source\PSoC5/PWM_PERISTALTISK_1.c ****         void PWM_PERISTALTISK_1_SetCompareMode(uint8 comparemode) 
 267:Generated_Source\PSoC5/PWM_PERISTALTISK_1.c ****         {
 268:Generated_Source\PSoC5/PWM_PERISTALTISK_1.c ****             #if(PWM_PERISTALTISK_1_UsingFixedFunction)
 269:Generated_Source\PSoC5/PWM_PERISTALTISK_1.c **** 
 270:Generated_Source\PSoC5/PWM_PERISTALTISK_1.c ****                 #if(0 != PWM_PERISTALTISK_1_CTRL_CMPMODE1_SHIFT)
 271:Generated_Source\PSoC5/PWM_PERISTALTISK_1.c ****                     uint8 comparemodemasked = ((uint8)((uint8)comparemode << PWM_PERISTALTISK_1_CTR
 272:Generated_Source\PSoC5/PWM_PERISTALTISK_1.c ****                 #else
 273:Generated_Source\PSoC5/PWM_PERISTALTISK_1.c ****                     uint8 comparemodemasked = comparemode;
 274:Generated_Source\PSoC5/PWM_PERISTALTISK_1.c ****                 #endif /* (0 != PWM_PERISTALTISK_1_CTRL_CMPMODE1_SHIFT) */
 275:Generated_Source\PSoC5/PWM_PERISTALTISK_1.c **** 
 276:Generated_Source\PSoC5/PWM_PERISTALTISK_1.c ****                 PWM_PERISTALTISK_1_CONTROL3 &= ((uint8)(~PWM_PERISTALTISK_1_CTRL_CMPMODE1_MASK)); /
 277:Generated_Source\PSoC5/PWM_PERISTALTISK_1.c ****                 PWM_PERISTALTISK_1_CONTROL3 |= comparemodemasked;
 278:Generated_Source\PSoC5/PWM_PERISTALTISK_1.c **** 
 279:Generated_Source\PSoC5/PWM_PERISTALTISK_1.c ****             #elif (PWM_PERISTALTISK_1_UseControl)
 280:Generated_Source\PSoC5/PWM_PERISTALTISK_1.c **** 
 281:Generated_Source\PSoC5/PWM_PERISTALTISK_1.c ****                 #if(0 != PWM_PERISTALTISK_1_CTRL_CMPMODE1_SHIFT)
 282:Generated_Source\PSoC5/PWM_PERISTALTISK_1.c ****                     uint8 comparemode1masked = ((uint8)((uint8)comparemode << PWM_PERISTALTISK_1_CT
 283:Generated_Source\PSoC5/PWM_PERISTALTISK_1.c ****                                                 PWM_PERISTALTISK_1_CTRL_CMPMODE1_MASK;
 284:Generated_Source\PSoC5/PWM_PERISTALTISK_1.c ****                 #else
 285:Generated_Source\PSoC5/PWM_PERISTALTISK_1.c ****                     uint8 comparemode1masked = comparemode & PWM_PERISTALTISK_1_CTRL_CMPMODE1_MASK;
 286:Generated_Source\PSoC5/PWM_PERISTALTISK_1.c ****                 #endif /* (0 != PWM_PERISTALTISK_1_CTRL_CMPMODE1_SHIFT) */
 287:Generated_Source\PSoC5/PWM_PERISTALTISK_1.c **** 
 288:Generated_Source\PSoC5/PWM_PERISTALTISK_1.c ****                 #if(0 != PWM_PERISTALTISK_1_CTRL_CMPMODE2_SHIFT)
 289:Generated_Source\PSoC5/PWM_PERISTALTISK_1.c ****                     uint8 comparemode2masked = ((uint8)((uint8)comparemode << PWM_PERISTALTISK_1_CT
 290:Generated_Source\PSoC5/PWM_PERISTALTISK_1.c ****                                                PWM_PERISTALTISK_1_CTRL_CMPMODE2_MASK;
 291:Generated_Source\PSoC5/PWM_PERISTALTISK_1.c ****                 #else
 292:Generated_Source\PSoC5/PWM_PERISTALTISK_1.c ****                     uint8 comparemode2masked = comparemode & PWM_PERISTALTISK_1_CTRL_CMPMODE2_MASK;
 293:Generated_Source\PSoC5/PWM_PERISTALTISK_1.c ****                 #endif /* (0 != PWM_PERISTALTISK_1_CTRL_CMPMODE2_SHIFT) */
 294:Generated_Source\PSoC5/PWM_PERISTALTISK_1.c **** 
 295:Generated_Source\PSoC5/PWM_PERISTALTISK_1.c ****                 /*Clear existing mode */
 296:Generated_Source\PSoC5/PWM_PERISTALTISK_1.c ****                 PWM_PERISTALTISK_1_CONTROL &= ((uint8)(~(PWM_PERISTALTISK_1_CTRL_CMPMODE1_MASK |
 297:Generated_Source\PSoC5/PWM_PERISTALTISK_1.c ****                                             PWM_PERISTALTISK_1_CTRL_CMPMODE2_MASK)));
 298:Generated_Source\PSoC5/PWM_PERISTALTISK_1.c ****                 PWM_PERISTALTISK_1_CONTROL |= (comparemode1masked | comparemode2masked);
 299:Generated_Source\PSoC5/PWM_PERISTALTISK_1.c **** 
 300:Generated_Source\PSoC5/PWM_PERISTALTISK_1.c ****             #else
 301:Generated_Source\PSoC5/PWM_PERISTALTISK_1.c ****                 uint8 temp = comparemode;
 302:Generated_Source\PSoC5/PWM_PERISTALTISK_1.c ****             #endif /* (PWM_PERISTALTISK_1_UsingFixedFunction) */
 303:Generated_Source\PSoC5/PWM_PERISTALTISK_1.c ****         }
 304:Generated_Source\PSoC5/PWM_PERISTALTISK_1.c ****     #endif /* PWM_PERISTALTISK_1_CompareMode1SW */
 305:Generated_Source\PSoC5/PWM_PERISTALTISK_1.c **** 
 306:Generated_Source\PSoC5/PWM_PERISTALTISK_1.c **** #else /* UseOneCompareMode */
 307:Generated_Source\PSoC5/PWM_PERISTALTISK_1.c **** 
 308:Generated_Source\PSoC5/PWM_PERISTALTISK_1.c ****     #if (PWM_PERISTALTISK_1_CompareMode1SW)
 309:Generated_Source\PSoC5/PWM_PERISTALTISK_1.c **** 
 310:Generated_Source\PSoC5/PWM_PERISTALTISK_1.c **** 
 311:Generated_Source\PSoC5/PWM_PERISTALTISK_1.c ****         /*******************************************************************************
 312:Generated_Source\PSoC5/PWM_PERISTALTISK_1.c ****         * Function Name: PWM_PERISTALTISK_1_SetCompareMode1
 313:Generated_Source\PSoC5/PWM_PERISTALTISK_1.c ****         ********************************************************************************
 314:Generated_Source\PSoC5/PWM_PERISTALTISK_1.c ****         *
 315:Generated_Source\PSoC5/PWM_PERISTALTISK_1.c ****         * Summary:
 316:Generated_Source\PSoC5/PWM_PERISTALTISK_1.c ****         *  This function writes the Compare Mode for the pwm or pwm1 output
 317:Generated_Source\PSoC5/PWM_PERISTALTISK_1.c ****         *
 318:Generated_Source\PSoC5/PWM_PERISTALTISK_1.c ****         * Parameters:
 319:Generated_Source\PSoC5/PWM_PERISTALTISK_1.c ****         *  comparemode:  The new compare mode for the PWM output. Use the compare types
 320:Generated_Source\PSoC5/PWM_PERISTALTISK_1.c ****         *                defined in the H file as input arguments.
 321:Generated_Source\PSoC5/PWM_PERISTALTISK_1.c ****         *
 322:Generated_Source\PSoC5/PWM_PERISTALTISK_1.c ****         * Return:
ARM GAS  C:\Users\krist\AppData\Local\Temp\cct3LnZV.s 			page 11


 323:Generated_Source\PSoC5/PWM_PERISTALTISK_1.c ****         *  None
 324:Generated_Source\PSoC5/PWM_PERISTALTISK_1.c ****         *
 325:Generated_Source\PSoC5/PWM_PERISTALTISK_1.c ****         *******************************************************************************/
 326:Generated_Source\PSoC5/PWM_PERISTALTISK_1.c ****         void PWM_PERISTALTISK_1_SetCompareMode1(uint8 comparemode) 
 327:Generated_Source\PSoC5/PWM_PERISTALTISK_1.c ****         {
 328:Generated_Source\PSoC5/PWM_PERISTALTISK_1.c ****             #if(0 != PWM_PERISTALTISK_1_CTRL_CMPMODE1_SHIFT)
 329:Generated_Source\PSoC5/PWM_PERISTALTISK_1.c ****                 uint8 comparemodemasked = ((uint8)((uint8)comparemode << PWM_PERISTALTISK_1_CTRL_CM
 330:Generated_Source\PSoC5/PWM_PERISTALTISK_1.c ****                                            PWM_PERISTALTISK_1_CTRL_CMPMODE1_MASK;
 331:Generated_Source\PSoC5/PWM_PERISTALTISK_1.c ****             #else
 332:Generated_Source\PSoC5/PWM_PERISTALTISK_1.c ****                 uint8 comparemodemasked = comparemode & PWM_PERISTALTISK_1_CTRL_CMPMODE1_MASK;
 333:Generated_Source\PSoC5/PWM_PERISTALTISK_1.c ****             #endif /* (0 != PWM_PERISTALTISK_1_CTRL_CMPMODE1_SHIFT) */
 334:Generated_Source\PSoC5/PWM_PERISTALTISK_1.c **** 
 335:Generated_Source\PSoC5/PWM_PERISTALTISK_1.c ****             #if (PWM_PERISTALTISK_1_UseControl)
 336:Generated_Source\PSoC5/PWM_PERISTALTISK_1.c ****                 PWM_PERISTALTISK_1_CONTROL &= ((uint8)(~PWM_PERISTALTISK_1_CTRL_CMPMODE1_MASK)); /*
 337:Generated_Source\PSoC5/PWM_PERISTALTISK_1.c ****                 PWM_PERISTALTISK_1_CONTROL |= comparemodemasked;
 338:Generated_Source\PSoC5/PWM_PERISTALTISK_1.c ****             #endif /* (PWM_PERISTALTISK_1_UseControl) */
 339:Generated_Source\PSoC5/PWM_PERISTALTISK_1.c ****         }
 340:Generated_Source\PSoC5/PWM_PERISTALTISK_1.c ****     #endif /* PWM_PERISTALTISK_1_CompareMode1SW */
 341:Generated_Source\PSoC5/PWM_PERISTALTISK_1.c **** 
 342:Generated_Source\PSoC5/PWM_PERISTALTISK_1.c **** #if (PWM_PERISTALTISK_1_CompareMode2SW)
 343:Generated_Source\PSoC5/PWM_PERISTALTISK_1.c **** 
 344:Generated_Source\PSoC5/PWM_PERISTALTISK_1.c **** 
 345:Generated_Source\PSoC5/PWM_PERISTALTISK_1.c ****     /*******************************************************************************
 346:Generated_Source\PSoC5/PWM_PERISTALTISK_1.c ****     * Function Name: PWM_PERISTALTISK_1_SetCompareMode2
 347:Generated_Source\PSoC5/PWM_PERISTALTISK_1.c ****     ********************************************************************************
 348:Generated_Source\PSoC5/PWM_PERISTALTISK_1.c ****     *
 349:Generated_Source\PSoC5/PWM_PERISTALTISK_1.c ****     * Summary:
 350:Generated_Source\PSoC5/PWM_PERISTALTISK_1.c ****     *  This function writes the Compare Mode for the pwm or pwm2 output
 351:Generated_Source\PSoC5/PWM_PERISTALTISK_1.c ****     *
 352:Generated_Source\PSoC5/PWM_PERISTALTISK_1.c ****     * Parameters:
 353:Generated_Source\PSoC5/PWM_PERISTALTISK_1.c ****     *  comparemode:  The new compare mode for the PWM output. Use the compare types
 354:Generated_Source\PSoC5/PWM_PERISTALTISK_1.c ****     *                defined in the H file as input arguments.
 355:Generated_Source\PSoC5/PWM_PERISTALTISK_1.c ****     *
 356:Generated_Source\PSoC5/PWM_PERISTALTISK_1.c ****     * Return:
 357:Generated_Source\PSoC5/PWM_PERISTALTISK_1.c ****     *  None
 358:Generated_Source\PSoC5/PWM_PERISTALTISK_1.c ****     *
 359:Generated_Source\PSoC5/PWM_PERISTALTISK_1.c ****     *******************************************************************************/
 360:Generated_Source\PSoC5/PWM_PERISTALTISK_1.c ****     void PWM_PERISTALTISK_1_SetCompareMode2(uint8 comparemode) 
 361:Generated_Source\PSoC5/PWM_PERISTALTISK_1.c ****     {
 362:Generated_Source\PSoC5/PWM_PERISTALTISK_1.c **** 
 363:Generated_Source\PSoC5/PWM_PERISTALTISK_1.c ****         #if(0 != PWM_PERISTALTISK_1_CTRL_CMPMODE2_SHIFT)
 364:Generated_Source\PSoC5/PWM_PERISTALTISK_1.c ****             uint8 comparemodemasked = ((uint8)((uint8)comparemode << PWM_PERISTALTISK_1_CTRL_CMPMOD
 365:Generated_Source\PSoC5/PWM_PERISTALTISK_1.c ****                                                  PWM_PERISTALTISK_1_CTRL_CMPMODE2_MASK;
 366:Generated_Source\PSoC5/PWM_PERISTALTISK_1.c ****         #else
 367:Generated_Source\PSoC5/PWM_PERISTALTISK_1.c ****             uint8 comparemodemasked = comparemode & PWM_PERISTALTISK_1_CTRL_CMPMODE2_MASK;
 368:Generated_Source\PSoC5/PWM_PERISTALTISK_1.c ****         #endif /* (0 != PWM_PERISTALTISK_1_CTRL_CMPMODE2_SHIFT) */
 369:Generated_Source\PSoC5/PWM_PERISTALTISK_1.c **** 
 370:Generated_Source\PSoC5/PWM_PERISTALTISK_1.c ****         #if (PWM_PERISTALTISK_1_UseControl)
 371:Generated_Source\PSoC5/PWM_PERISTALTISK_1.c ****             PWM_PERISTALTISK_1_CONTROL &= ((uint8)(~PWM_PERISTALTISK_1_CTRL_CMPMODE2_MASK)); /*Clea
 372:Generated_Source\PSoC5/PWM_PERISTALTISK_1.c ****             PWM_PERISTALTISK_1_CONTROL |= comparemodemasked;
 373:Generated_Source\PSoC5/PWM_PERISTALTISK_1.c ****         #endif /* (PWM_PERISTALTISK_1_UseControl) */
 374:Generated_Source\PSoC5/PWM_PERISTALTISK_1.c ****     }
 375:Generated_Source\PSoC5/PWM_PERISTALTISK_1.c ****     #endif /*PWM_PERISTALTISK_1_CompareMode2SW */
 376:Generated_Source\PSoC5/PWM_PERISTALTISK_1.c **** 
 377:Generated_Source\PSoC5/PWM_PERISTALTISK_1.c **** #endif /* UseOneCompareMode */
 378:Generated_Source\PSoC5/PWM_PERISTALTISK_1.c **** 
 379:Generated_Source\PSoC5/PWM_PERISTALTISK_1.c **** 
ARM GAS  C:\Users\krist\AppData\Local\Temp\cct3LnZV.s 			page 12


 380:Generated_Source\PSoC5/PWM_PERISTALTISK_1.c **** #if (!PWM_PERISTALTISK_1_UsingFixedFunction)
 381:Generated_Source\PSoC5/PWM_PERISTALTISK_1.c **** 
 382:Generated_Source\PSoC5/PWM_PERISTALTISK_1.c **** 
 383:Generated_Source\PSoC5/PWM_PERISTALTISK_1.c ****     /*******************************************************************************
 384:Generated_Source\PSoC5/PWM_PERISTALTISK_1.c ****     * Function Name: PWM_PERISTALTISK_1_WriteCounter
 385:Generated_Source\PSoC5/PWM_PERISTALTISK_1.c ****     ********************************************************************************
 386:Generated_Source\PSoC5/PWM_PERISTALTISK_1.c ****     *
 387:Generated_Source\PSoC5/PWM_PERISTALTISK_1.c ****     * Summary:
 388:Generated_Source\PSoC5/PWM_PERISTALTISK_1.c ****     *  Writes a new counter value directly to the counter register. This will be
 389:Generated_Source\PSoC5/PWM_PERISTALTISK_1.c ****     *  implemented for that currently running period and only that period. This API
 390:Generated_Source\PSoC5/PWM_PERISTALTISK_1.c ****     *  is valid only for UDB implementation and not available for fixed function
 391:Generated_Source\PSoC5/PWM_PERISTALTISK_1.c ****     *  PWM implementation.
 392:Generated_Source\PSoC5/PWM_PERISTALTISK_1.c ****     *
 393:Generated_Source\PSoC5/PWM_PERISTALTISK_1.c ****     * Parameters:
 394:Generated_Source\PSoC5/PWM_PERISTALTISK_1.c ****     *  counter:  The period new period counter value.
 395:Generated_Source\PSoC5/PWM_PERISTALTISK_1.c ****     *
 396:Generated_Source\PSoC5/PWM_PERISTALTISK_1.c ****     * Return:
 397:Generated_Source\PSoC5/PWM_PERISTALTISK_1.c ****     *  None
 398:Generated_Source\PSoC5/PWM_PERISTALTISK_1.c ****     *
 399:Generated_Source\PSoC5/PWM_PERISTALTISK_1.c ****     * Side Effects:
 400:Generated_Source\PSoC5/PWM_PERISTALTISK_1.c ****     *  The PWM Period will be reloaded when a counter value will be a zero
 401:Generated_Source\PSoC5/PWM_PERISTALTISK_1.c ****     *
 402:Generated_Source\PSoC5/PWM_PERISTALTISK_1.c ****     *******************************************************************************/
 403:Generated_Source\PSoC5/PWM_PERISTALTISK_1.c ****     void PWM_PERISTALTISK_1_WriteCounter(uint8 counter) \
 404:Generated_Source\PSoC5/PWM_PERISTALTISK_1.c ****                                        
 405:Generated_Source\PSoC5/PWM_PERISTALTISK_1.c ****     {
 249              		.loc 1 405 0
 250              		.cfi_startproc
 251              		@ args = 0, pretend = 0, frame = 8
 252              		@ frame_needed = 1, uses_anonymous_args = 0
 253              		@ link register save eliminated.
 254 0000 80B4     		push	{r7}
 255              		.cfi_def_cfa_offset 4
 256              		.cfi_offset 7, -4
 257 0002 83B0     		sub	sp, sp, #12
 258              		.cfi_def_cfa_offset 16
 259 0004 00AF     		add	r7, sp, #0
 260              		.cfi_def_cfa_register 7
 261 0006 0346     		mov	r3, r0
 262 0008 FB71     		strb	r3, [r7, #7]
 406:Generated_Source\PSoC5/PWM_PERISTALTISK_1.c ****         CY_SET_REG8(PWM_PERISTALTISK_1_COUNTER_LSB_PTR, counter);
 263              		.loc 1 406 0
 264 000a 044A     		ldr	r2, .L15
 265 000c FB79     		ldrb	r3, [r7, #7]
 266 000e 1370     		strb	r3, [r2]
 407:Generated_Source\PSoC5/PWM_PERISTALTISK_1.c ****     }
 267              		.loc 1 407 0
 268 0010 00BF     		nop
 269 0012 0C37     		adds	r7, r7, #12
 270              		.cfi_def_cfa_offset 4
 271 0014 BD46     		mov	sp, r7
 272              		.cfi_def_cfa_register 13
 273              		@ sp needed
 274 0016 80BC     		pop	{r7}
 275              		.cfi_restore 7
 276              		.cfi_def_cfa_offset 0
 277 0018 7047     		bx	lr
ARM GAS  C:\Users\krist\AppData\Local\Temp\cct3LnZV.s 			page 13


 278              	.L16:
 279 001a 00BF     		.align	2
 280              	.L15:
 281 001c 00640040 		.word	1073767424
 282              		.cfi_endproc
 283              	.LFE4:
 284              		.size	PWM_PERISTALTISK_1_WriteCounter, .-PWM_PERISTALTISK_1_WriteCounter
 285              		.section	.text.PWM_PERISTALTISK_1_ReadCounter,"ax",%progbits
 286              		.align	2
 287              		.global	PWM_PERISTALTISK_1_ReadCounter
 288              		.thumb
 289              		.thumb_func
 290              		.type	PWM_PERISTALTISK_1_ReadCounter, %function
 291              	PWM_PERISTALTISK_1_ReadCounter:
 292              	.LFB5:
 408:Generated_Source\PSoC5/PWM_PERISTALTISK_1.c **** 
 409:Generated_Source\PSoC5/PWM_PERISTALTISK_1.c **** 
 410:Generated_Source\PSoC5/PWM_PERISTALTISK_1.c ****     /*******************************************************************************
 411:Generated_Source\PSoC5/PWM_PERISTALTISK_1.c ****     * Function Name: PWM_PERISTALTISK_1_ReadCounter
 412:Generated_Source\PSoC5/PWM_PERISTALTISK_1.c ****     ********************************************************************************
 413:Generated_Source\PSoC5/PWM_PERISTALTISK_1.c ****     *
 414:Generated_Source\PSoC5/PWM_PERISTALTISK_1.c ****     * Summary:
 415:Generated_Source\PSoC5/PWM_PERISTALTISK_1.c ****     *  This function returns the current value of the counter.  It doesn't matter
 416:Generated_Source\PSoC5/PWM_PERISTALTISK_1.c ****     *  if the counter is enabled or running.
 417:Generated_Source\PSoC5/PWM_PERISTALTISK_1.c ****     *
 418:Generated_Source\PSoC5/PWM_PERISTALTISK_1.c ****     * Parameters:
 419:Generated_Source\PSoC5/PWM_PERISTALTISK_1.c ****     *  None
 420:Generated_Source\PSoC5/PWM_PERISTALTISK_1.c ****     *
 421:Generated_Source\PSoC5/PWM_PERISTALTISK_1.c ****     * Return:
 422:Generated_Source\PSoC5/PWM_PERISTALTISK_1.c ****     *  The current value of the counter.
 423:Generated_Source\PSoC5/PWM_PERISTALTISK_1.c ****     *
 424:Generated_Source\PSoC5/PWM_PERISTALTISK_1.c ****     *******************************************************************************/
 425:Generated_Source\PSoC5/PWM_PERISTALTISK_1.c ****     uint8 PWM_PERISTALTISK_1_ReadCounter(void) 
 426:Generated_Source\PSoC5/PWM_PERISTALTISK_1.c ****     {
 293              		.loc 1 426 0
 294              		.cfi_startproc
 295              		@ args = 0, pretend = 0, frame = 0
 296              		@ frame_needed = 1, uses_anonymous_args = 0
 297              		@ link register save eliminated.
 298 0000 80B4     		push	{r7}
 299              		.cfi_def_cfa_offset 4
 300              		.cfi_offset 7, -4
 301 0002 00AF     		add	r7, sp, #0
 302              		.cfi_def_cfa_register 7
 427:Generated_Source\PSoC5/PWM_PERISTALTISK_1.c ****         /* Force capture by reading Accumulator */
 428:Generated_Source\PSoC5/PWM_PERISTALTISK_1.c ****         /* Must first do a software capture to be able to read the counter */
 429:Generated_Source\PSoC5/PWM_PERISTALTISK_1.c ****         /* It is up to the user code to make sure there isn't already captured data in the FIFO */
 430:Generated_Source\PSoC5/PWM_PERISTALTISK_1.c ****           (void)CY_GET_REG8(PWM_PERISTALTISK_1_COUNTERCAP_LSB_PTR_8BIT);
 303              		.loc 1 430 0
 304 0004 044B     		ldr	r3, .L19
 305 0006 1B78     		ldrb	r3, [r3]
 431:Generated_Source\PSoC5/PWM_PERISTALTISK_1.c **** 
 432:Generated_Source\PSoC5/PWM_PERISTALTISK_1.c ****         /* Read the data from the FIFO */
 433:Generated_Source\PSoC5/PWM_PERISTALTISK_1.c ****         return (CY_GET_REG8(PWM_PERISTALTISK_1_CAPTURE_LSB_PTR));
 306              		.loc 1 433 0
 307 0008 044B     		ldr	r3, .L19+4
 308 000a 1B78     		ldrb	r3, [r3]
ARM GAS  C:\Users\krist\AppData\Local\Temp\cct3LnZV.s 			page 14


 309 000c DBB2     		uxtb	r3, r3
 434:Generated_Source\PSoC5/PWM_PERISTALTISK_1.c ****     }
 310              		.loc 1 434 0
 311 000e 1846     		mov	r0, r3
 312 0010 BD46     		mov	sp, r7
 313              		.cfi_def_cfa_register 13
 314              		@ sp needed
 315 0012 80BC     		pop	{r7}
 316              		.cfi_restore 7
 317              		.cfi_def_cfa_offset 0
 318 0014 7047     		bx	lr
 319              	.L20:
 320 0016 00BF     		.align	2
 321              	.L19:
 322 0018 10640040 		.word	1073767440
 323 001c 50640040 		.word	1073767504
 324              		.cfi_endproc
 325              	.LFE5:
 326              		.size	PWM_PERISTALTISK_1_ReadCounter, .-PWM_PERISTALTISK_1_ReadCounter
 327              		.section	.text.PWM_PERISTALTISK_1_ClearFIFO,"ax",%progbits
 328              		.align	2
 329              		.global	PWM_PERISTALTISK_1_ClearFIFO
 330              		.thumb
 331              		.thumb_func
 332              		.type	PWM_PERISTALTISK_1_ClearFIFO, %function
 333              	PWM_PERISTALTISK_1_ClearFIFO:
 334              	.LFB6:
 435:Generated_Source\PSoC5/PWM_PERISTALTISK_1.c **** 
 436:Generated_Source\PSoC5/PWM_PERISTALTISK_1.c ****     #if (PWM_PERISTALTISK_1_UseStatus)
 437:Generated_Source\PSoC5/PWM_PERISTALTISK_1.c **** 
 438:Generated_Source\PSoC5/PWM_PERISTALTISK_1.c **** 
 439:Generated_Source\PSoC5/PWM_PERISTALTISK_1.c ****         /*******************************************************************************
 440:Generated_Source\PSoC5/PWM_PERISTALTISK_1.c ****         * Function Name: PWM_PERISTALTISK_1_ClearFIFO
 441:Generated_Source\PSoC5/PWM_PERISTALTISK_1.c ****         ********************************************************************************
 442:Generated_Source\PSoC5/PWM_PERISTALTISK_1.c ****         *
 443:Generated_Source\PSoC5/PWM_PERISTALTISK_1.c ****         * Summary:
 444:Generated_Source\PSoC5/PWM_PERISTALTISK_1.c ****         *  This function clears all capture data from the capture FIFO
 445:Generated_Source\PSoC5/PWM_PERISTALTISK_1.c ****         *
 446:Generated_Source\PSoC5/PWM_PERISTALTISK_1.c ****         * Parameters:
 447:Generated_Source\PSoC5/PWM_PERISTALTISK_1.c ****         *  None
 448:Generated_Source\PSoC5/PWM_PERISTALTISK_1.c ****         *
 449:Generated_Source\PSoC5/PWM_PERISTALTISK_1.c ****         * Return:
 450:Generated_Source\PSoC5/PWM_PERISTALTISK_1.c ****         *  None
 451:Generated_Source\PSoC5/PWM_PERISTALTISK_1.c ****         *
 452:Generated_Source\PSoC5/PWM_PERISTALTISK_1.c ****         *******************************************************************************/
 453:Generated_Source\PSoC5/PWM_PERISTALTISK_1.c ****         void PWM_PERISTALTISK_1_ClearFIFO(void) 
 454:Generated_Source\PSoC5/PWM_PERISTALTISK_1.c ****         {
 335              		.loc 1 454 0
 336              		.cfi_startproc
 337              		@ args = 0, pretend = 0, frame = 0
 338              		@ frame_needed = 1, uses_anonymous_args = 0
 339 0000 80B5     		push	{r7, lr}
 340              		.cfi_def_cfa_offset 8
 341              		.cfi_offset 7, -8
 342              		.cfi_offset 14, -4
 343 0002 00AF     		add	r7, sp, #0
 344              		.cfi_def_cfa_register 7
ARM GAS  C:\Users\krist\AppData\Local\Temp\cct3LnZV.s 			page 15


 455:Generated_Source\PSoC5/PWM_PERISTALTISK_1.c ****             while(0u != (PWM_PERISTALTISK_1_ReadStatusRegister() & PWM_PERISTALTISK_1_STATUS_FIFONE
 345              		.loc 1 455 0
 346 0004 01E0     		b	.L22
 347              	.L23:
 456:Generated_Source\PSoC5/PWM_PERISTALTISK_1.c ****             {
 457:Generated_Source\PSoC5/PWM_PERISTALTISK_1.c ****                 (void)PWM_PERISTALTISK_1_ReadCapture();
 348              		.loc 1 457 0
 349 0006 FFF7FEFF 		bl	PWM_PERISTALTISK_1_ReadCapture
 350              	.L22:
 455:Generated_Source\PSoC5/PWM_PERISTALTISK_1.c ****             while(0u != (PWM_PERISTALTISK_1_ReadStatusRegister() & PWM_PERISTALTISK_1_STATUS_FIFONE
 351              		.loc 1 455 0
 352 000a FFF7FEFF 		bl	PWM_PERISTALTISK_1_ReadStatusRegister
 353 000e 0346     		mov	r3, r0
 354 0010 03F01003 		and	r3, r3, #16
 355 0014 002B     		cmp	r3, #0
 356 0016 F6D1     		bne	.L23
 458:Generated_Source\PSoC5/PWM_PERISTALTISK_1.c ****             }
 459:Generated_Source\PSoC5/PWM_PERISTALTISK_1.c ****         }
 357              		.loc 1 459 0
 358 0018 00BF     		nop
 359 001a 80BD     		pop	{r7, pc}
 360              		.cfi_endproc
 361              	.LFE6:
 362              		.size	PWM_PERISTALTISK_1_ClearFIFO, .-PWM_PERISTALTISK_1_ClearFIFO
 363              		.section	.text.PWM_PERISTALTISK_1_WritePeriod,"ax",%progbits
 364              		.align	2
 365              		.global	PWM_PERISTALTISK_1_WritePeriod
 366              		.thumb
 367              		.thumb_func
 368              		.type	PWM_PERISTALTISK_1_WritePeriod, %function
 369              	PWM_PERISTALTISK_1_WritePeriod:
 370              	.LFB7:
 460:Generated_Source\PSoC5/PWM_PERISTALTISK_1.c **** 
 461:Generated_Source\PSoC5/PWM_PERISTALTISK_1.c ****     #endif /* PWM_PERISTALTISK_1_UseStatus */
 462:Generated_Source\PSoC5/PWM_PERISTALTISK_1.c **** 
 463:Generated_Source\PSoC5/PWM_PERISTALTISK_1.c **** #endif /* !PWM_PERISTALTISK_1_UsingFixedFunction */
 464:Generated_Source\PSoC5/PWM_PERISTALTISK_1.c **** 
 465:Generated_Source\PSoC5/PWM_PERISTALTISK_1.c **** 
 466:Generated_Source\PSoC5/PWM_PERISTALTISK_1.c **** /*******************************************************************************
 467:Generated_Source\PSoC5/PWM_PERISTALTISK_1.c **** * Function Name: PWM_PERISTALTISK_1_WritePeriod
 468:Generated_Source\PSoC5/PWM_PERISTALTISK_1.c **** ********************************************************************************
 469:Generated_Source\PSoC5/PWM_PERISTALTISK_1.c **** *
 470:Generated_Source\PSoC5/PWM_PERISTALTISK_1.c **** * Summary:
 471:Generated_Source\PSoC5/PWM_PERISTALTISK_1.c **** *  This function is used to change the period of the counter.  The new period
 472:Generated_Source\PSoC5/PWM_PERISTALTISK_1.c **** *  will be loaded the next time terminal count is detected.
 473:Generated_Source\PSoC5/PWM_PERISTALTISK_1.c **** *
 474:Generated_Source\PSoC5/PWM_PERISTALTISK_1.c **** * Parameters:
 475:Generated_Source\PSoC5/PWM_PERISTALTISK_1.c **** *  period:  Period value. May be between 1 and (2^Resolution)-1.  A value of 0
 476:Generated_Source\PSoC5/PWM_PERISTALTISK_1.c **** *           will result in the counter remaining at zero.
 477:Generated_Source\PSoC5/PWM_PERISTALTISK_1.c **** *
 478:Generated_Source\PSoC5/PWM_PERISTALTISK_1.c **** * Return:
 479:Generated_Source\PSoC5/PWM_PERISTALTISK_1.c **** *  None
 480:Generated_Source\PSoC5/PWM_PERISTALTISK_1.c **** *
 481:Generated_Source\PSoC5/PWM_PERISTALTISK_1.c **** *******************************************************************************/
 482:Generated_Source\PSoC5/PWM_PERISTALTISK_1.c **** void PWM_PERISTALTISK_1_WritePeriod(uint8 period) 
 483:Generated_Source\PSoC5/PWM_PERISTALTISK_1.c **** {
 371              		.loc 1 483 0
ARM GAS  C:\Users\krist\AppData\Local\Temp\cct3LnZV.s 			page 16


 372              		.cfi_startproc
 373              		@ args = 0, pretend = 0, frame = 8
 374              		@ frame_needed = 1, uses_anonymous_args = 0
 375              		@ link register save eliminated.
 376 0000 80B4     		push	{r7}
 377              		.cfi_def_cfa_offset 4
 378              		.cfi_offset 7, -4
 379 0002 83B0     		sub	sp, sp, #12
 380              		.cfi_def_cfa_offset 16
 381 0004 00AF     		add	r7, sp, #0
 382              		.cfi_def_cfa_register 7
 383 0006 0346     		mov	r3, r0
 384 0008 FB71     		strb	r3, [r7, #7]
 484:Generated_Source\PSoC5/PWM_PERISTALTISK_1.c ****     #if(PWM_PERISTALTISK_1_UsingFixedFunction)
 485:Generated_Source\PSoC5/PWM_PERISTALTISK_1.c ****         CY_SET_REG16(PWM_PERISTALTISK_1_PERIOD_LSB_PTR, (uint16)period);
 486:Generated_Source\PSoC5/PWM_PERISTALTISK_1.c ****     #else
 487:Generated_Source\PSoC5/PWM_PERISTALTISK_1.c ****         CY_SET_REG8(PWM_PERISTALTISK_1_PERIOD_LSB_PTR, period);
 385              		.loc 1 487 0
 386 000a 044A     		ldr	r2, .L25
 387 000c FB79     		ldrb	r3, [r7, #7]
 388 000e 1370     		strb	r3, [r2]
 488:Generated_Source\PSoC5/PWM_PERISTALTISK_1.c ****     #endif /* (PWM_PERISTALTISK_1_UsingFixedFunction) */
 489:Generated_Source\PSoC5/PWM_PERISTALTISK_1.c **** }
 389              		.loc 1 489 0
 390 0010 00BF     		nop
 391 0012 0C37     		adds	r7, r7, #12
 392              		.cfi_def_cfa_offset 4
 393 0014 BD46     		mov	sp, r7
 394              		.cfi_def_cfa_register 13
 395              		@ sp needed
 396 0016 80BC     		pop	{r7}
 397              		.cfi_restore 7
 398              		.cfi_def_cfa_offset 0
 399 0018 7047     		bx	lr
 400              	.L26:
 401 001a 00BF     		.align	2
 402              	.L25:
 403 001c 40640040 		.word	1073767488
 404              		.cfi_endproc
 405              	.LFE7:
 406              		.size	PWM_PERISTALTISK_1_WritePeriod, .-PWM_PERISTALTISK_1_WritePeriod
 407              		.section	.text.PWM_PERISTALTISK_1_WriteCompare1,"ax",%progbits
 408              		.align	2
 409              		.global	PWM_PERISTALTISK_1_WriteCompare1
 410              		.thumb
 411              		.thumb_func
 412              		.type	PWM_PERISTALTISK_1_WriteCompare1, %function
 413              	PWM_PERISTALTISK_1_WriteCompare1:
 414              	.LFB8:
 490:Generated_Source\PSoC5/PWM_PERISTALTISK_1.c **** 
 491:Generated_Source\PSoC5/PWM_PERISTALTISK_1.c **** #if (PWM_PERISTALTISK_1_UseOneCompareMode)
 492:Generated_Source\PSoC5/PWM_PERISTALTISK_1.c **** 
 493:Generated_Source\PSoC5/PWM_PERISTALTISK_1.c **** 
 494:Generated_Source\PSoC5/PWM_PERISTALTISK_1.c ****     /*******************************************************************************
 495:Generated_Source\PSoC5/PWM_PERISTALTISK_1.c ****     * Function Name: PWM_PERISTALTISK_1_WriteCompare
 496:Generated_Source\PSoC5/PWM_PERISTALTISK_1.c ****     ********************************************************************************
 497:Generated_Source\PSoC5/PWM_PERISTALTISK_1.c ****     *
ARM GAS  C:\Users\krist\AppData\Local\Temp\cct3LnZV.s 			page 17


 498:Generated_Source\PSoC5/PWM_PERISTALTISK_1.c ****     * Summary:
 499:Generated_Source\PSoC5/PWM_PERISTALTISK_1.c ****     *  This funtion is used to change the compare1 value when the PWM is in Dither
 500:Generated_Source\PSoC5/PWM_PERISTALTISK_1.c ****     *  mode. The compare output will reflect the new value on the next UDB clock.
 501:Generated_Source\PSoC5/PWM_PERISTALTISK_1.c ****     *  The compare output will be driven high when the present counter value is
 502:Generated_Source\PSoC5/PWM_PERISTALTISK_1.c ****     *  compared to the compare value based on the compare mode defined in
 503:Generated_Source\PSoC5/PWM_PERISTALTISK_1.c ****     *  Dither Mode.
 504:Generated_Source\PSoC5/PWM_PERISTALTISK_1.c ****     *
 505:Generated_Source\PSoC5/PWM_PERISTALTISK_1.c ****     * Parameters:
 506:Generated_Source\PSoC5/PWM_PERISTALTISK_1.c ****     *  compare:  New compare value.
 507:Generated_Source\PSoC5/PWM_PERISTALTISK_1.c ****     *
 508:Generated_Source\PSoC5/PWM_PERISTALTISK_1.c ****     * Return:
 509:Generated_Source\PSoC5/PWM_PERISTALTISK_1.c ****     *  None
 510:Generated_Source\PSoC5/PWM_PERISTALTISK_1.c ****     *
 511:Generated_Source\PSoC5/PWM_PERISTALTISK_1.c ****     * Side Effects:
 512:Generated_Source\PSoC5/PWM_PERISTALTISK_1.c ****     *  This function is only available if the PWM mode parameter is set to
 513:Generated_Source\PSoC5/PWM_PERISTALTISK_1.c ****     *  Dither Mode, Center Aligned Mode or One Output Mode
 514:Generated_Source\PSoC5/PWM_PERISTALTISK_1.c ****     *
 515:Generated_Source\PSoC5/PWM_PERISTALTISK_1.c ****     *******************************************************************************/
 516:Generated_Source\PSoC5/PWM_PERISTALTISK_1.c ****     void PWM_PERISTALTISK_1_WriteCompare(uint8 compare) \
 517:Generated_Source\PSoC5/PWM_PERISTALTISK_1.c ****                                        
 518:Generated_Source\PSoC5/PWM_PERISTALTISK_1.c ****     {
 519:Generated_Source\PSoC5/PWM_PERISTALTISK_1.c ****         #if(PWM_PERISTALTISK_1_UsingFixedFunction)
 520:Generated_Source\PSoC5/PWM_PERISTALTISK_1.c ****             CY_SET_REG16(PWM_PERISTALTISK_1_COMPARE1_LSB_PTR, (uint16)compare);
 521:Generated_Source\PSoC5/PWM_PERISTALTISK_1.c ****         #else
 522:Generated_Source\PSoC5/PWM_PERISTALTISK_1.c ****             CY_SET_REG8(PWM_PERISTALTISK_1_COMPARE1_LSB_PTR, compare);
 523:Generated_Source\PSoC5/PWM_PERISTALTISK_1.c ****         #endif /* (PWM_PERISTALTISK_1_UsingFixedFunction) */
 524:Generated_Source\PSoC5/PWM_PERISTALTISK_1.c **** 
 525:Generated_Source\PSoC5/PWM_PERISTALTISK_1.c ****         #if (PWM_PERISTALTISK_1_PWMMode == PWM_PERISTALTISK_1__B_PWM__DITHER)
 526:Generated_Source\PSoC5/PWM_PERISTALTISK_1.c ****             #if(PWM_PERISTALTISK_1_UsingFixedFunction)
 527:Generated_Source\PSoC5/PWM_PERISTALTISK_1.c ****                 CY_SET_REG16(PWM_PERISTALTISK_1_COMPARE2_LSB_PTR, (uint16)(compare + 1u));
 528:Generated_Source\PSoC5/PWM_PERISTALTISK_1.c ****             #else
 529:Generated_Source\PSoC5/PWM_PERISTALTISK_1.c ****                 CY_SET_REG8(PWM_PERISTALTISK_1_COMPARE2_LSB_PTR, (compare + 1u));
 530:Generated_Source\PSoC5/PWM_PERISTALTISK_1.c ****             #endif /* (PWM_PERISTALTISK_1_UsingFixedFunction) */
 531:Generated_Source\PSoC5/PWM_PERISTALTISK_1.c ****         #endif /* (PWM_PERISTALTISK_1_PWMMode == PWM_PERISTALTISK_1__B_PWM__DITHER) */
 532:Generated_Source\PSoC5/PWM_PERISTALTISK_1.c ****     }
 533:Generated_Source\PSoC5/PWM_PERISTALTISK_1.c **** 
 534:Generated_Source\PSoC5/PWM_PERISTALTISK_1.c **** 
 535:Generated_Source\PSoC5/PWM_PERISTALTISK_1.c **** #else
 536:Generated_Source\PSoC5/PWM_PERISTALTISK_1.c **** 
 537:Generated_Source\PSoC5/PWM_PERISTALTISK_1.c **** 
 538:Generated_Source\PSoC5/PWM_PERISTALTISK_1.c ****     /*******************************************************************************
 539:Generated_Source\PSoC5/PWM_PERISTALTISK_1.c ****     * Function Name: PWM_PERISTALTISK_1_WriteCompare1
 540:Generated_Source\PSoC5/PWM_PERISTALTISK_1.c ****     ********************************************************************************
 541:Generated_Source\PSoC5/PWM_PERISTALTISK_1.c ****     *
 542:Generated_Source\PSoC5/PWM_PERISTALTISK_1.c ****     * Summary:
 543:Generated_Source\PSoC5/PWM_PERISTALTISK_1.c ****     *  This funtion is used to change the compare1 value.  The compare output will
 544:Generated_Source\PSoC5/PWM_PERISTALTISK_1.c ****     *  reflect the new value on the next UDB clock.  The compare output will be
 545:Generated_Source\PSoC5/PWM_PERISTALTISK_1.c ****     *  driven high when the present counter value is less than or less than or
 546:Generated_Source\PSoC5/PWM_PERISTALTISK_1.c ****     *  equal to the compare register, depending on the mode.
 547:Generated_Source\PSoC5/PWM_PERISTALTISK_1.c ****     *
 548:Generated_Source\PSoC5/PWM_PERISTALTISK_1.c ****     * Parameters:
 549:Generated_Source\PSoC5/PWM_PERISTALTISK_1.c ****     *  compare:  New compare value.
 550:Generated_Source\PSoC5/PWM_PERISTALTISK_1.c ****     *
 551:Generated_Source\PSoC5/PWM_PERISTALTISK_1.c ****     * Return:
 552:Generated_Source\PSoC5/PWM_PERISTALTISK_1.c ****     *  None
 553:Generated_Source\PSoC5/PWM_PERISTALTISK_1.c ****     *
 554:Generated_Source\PSoC5/PWM_PERISTALTISK_1.c ****     *******************************************************************************/
ARM GAS  C:\Users\krist\AppData\Local\Temp\cct3LnZV.s 			page 18


 555:Generated_Source\PSoC5/PWM_PERISTALTISK_1.c ****     void PWM_PERISTALTISK_1_WriteCompare1(uint8 compare) \
 556:Generated_Source\PSoC5/PWM_PERISTALTISK_1.c ****                                         
 557:Generated_Source\PSoC5/PWM_PERISTALTISK_1.c ****     {
 415              		.loc 1 557 0
 416              		.cfi_startproc
 417              		@ args = 0, pretend = 0, frame = 8
 418              		@ frame_needed = 1, uses_anonymous_args = 0
 419              		@ link register save eliminated.
 420 0000 80B4     		push	{r7}
 421              		.cfi_def_cfa_offset 4
 422              		.cfi_offset 7, -4
 423 0002 83B0     		sub	sp, sp, #12
 424              		.cfi_def_cfa_offset 16
 425 0004 00AF     		add	r7, sp, #0
 426              		.cfi_def_cfa_register 7
 427 0006 0346     		mov	r3, r0
 428 0008 FB71     		strb	r3, [r7, #7]
 558:Generated_Source\PSoC5/PWM_PERISTALTISK_1.c ****         #if(PWM_PERISTALTISK_1_UsingFixedFunction)
 559:Generated_Source\PSoC5/PWM_PERISTALTISK_1.c ****             CY_SET_REG16(PWM_PERISTALTISK_1_COMPARE1_LSB_PTR, (uint16)compare);
 560:Generated_Source\PSoC5/PWM_PERISTALTISK_1.c ****         #else
 561:Generated_Source\PSoC5/PWM_PERISTALTISK_1.c ****             CY_SET_REG8(PWM_PERISTALTISK_1_COMPARE1_LSB_PTR, compare);
 429              		.loc 1 561 0
 430 000a 044A     		ldr	r2, .L28
 431 000c FB79     		ldrb	r3, [r7, #7]
 432 000e 1370     		strb	r3, [r2]
 562:Generated_Source\PSoC5/PWM_PERISTALTISK_1.c ****         #endif /* (PWM_PERISTALTISK_1_UsingFixedFunction) */
 563:Generated_Source\PSoC5/PWM_PERISTALTISK_1.c ****     }
 433              		.loc 1 563 0
 434 0010 00BF     		nop
 435 0012 0C37     		adds	r7, r7, #12
 436              		.cfi_def_cfa_offset 4
 437 0014 BD46     		mov	sp, r7
 438              		.cfi_def_cfa_register 13
 439              		@ sp needed
 440 0016 80BC     		pop	{r7}
 441              		.cfi_restore 7
 442              		.cfi_def_cfa_offset 0
 443 0018 7047     		bx	lr
 444              	.L29:
 445 001a 00BF     		.align	2
 446              	.L28:
 447 001c 20640040 		.word	1073767456
 448              		.cfi_endproc
 449              	.LFE8:
 450              		.size	PWM_PERISTALTISK_1_WriteCompare1, .-PWM_PERISTALTISK_1_WriteCompare1
 451              		.section	.text.PWM_PERISTALTISK_1_WriteCompare2,"ax",%progbits
 452              		.align	2
 453              		.global	PWM_PERISTALTISK_1_WriteCompare2
 454              		.thumb
 455              		.thumb_func
 456              		.type	PWM_PERISTALTISK_1_WriteCompare2, %function
 457              	PWM_PERISTALTISK_1_WriteCompare2:
 458              	.LFB9:
 564:Generated_Source\PSoC5/PWM_PERISTALTISK_1.c **** 
 565:Generated_Source\PSoC5/PWM_PERISTALTISK_1.c **** 
 566:Generated_Source\PSoC5/PWM_PERISTALTISK_1.c ****     /*******************************************************************************
 567:Generated_Source\PSoC5/PWM_PERISTALTISK_1.c ****     * Function Name: PWM_PERISTALTISK_1_WriteCompare2
ARM GAS  C:\Users\krist\AppData\Local\Temp\cct3LnZV.s 			page 19


 568:Generated_Source\PSoC5/PWM_PERISTALTISK_1.c ****     ********************************************************************************
 569:Generated_Source\PSoC5/PWM_PERISTALTISK_1.c ****     *
 570:Generated_Source\PSoC5/PWM_PERISTALTISK_1.c ****     * Summary:
 571:Generated_Source\PSoC5/PWM_PERISTALTISK_1.c ****     *  This funtion is used to change the compare value, for compare1 output.
 572:Generated_Source\PSoC5/PWM_PERISTALTISK_1.c ****     *  The compare output will reflect the new value on the next UDB clock.
 573:Generated_Source\PSoC5/PWM_PERISTALTISK_1.c ****     *  The compare output will be driven high when the present counter value is
 574:Generated_Source\PSoC5/PWM_PERISTALTISK_1.c ****     *  less than or less than or equal to the compare register, depending on the
 575:Generated_Source\PSoC5/PWM_PERISTALTISK_1.c ****     *  mode.
 576:Generated_Source\PSoC5/PWM_PERISTALTISK_1.c ****     *
 577:Generated_Source\PSoC5/PWM_PERISTALTISK_1.c ****     * Parameters:
 578:Generated_Source\PSoC5/PWM_PERISTALTISK_1.c ****     *  compare:  New compare value.
 579:Generated_Source\PSoC5/PWM_PERISTALTISK_1.c ****     *
 580:Generated_Source\PSoC5/PWM_PERISTALTISK_1.c ****     * Return:
 581:Generated_Source\PSoC5/PWM_PERISTALTISK_1.c ****     *  None
 582:Generated_Source\PSoC5/PWM_PERISTALTISK_1.c ****     *
 583:Generated_Source\PSoC5/PWM_PERISTALTISK_1.c ****     *******************************************************************************/
 584:Generated_Source\PSoC5/PWM_PERISTALTISK_1.c ****     void PWM_PERISTALTISK_1_WriteCompare2(uint8 compare) \
 585:Generated_Source\PSoC5/PWM_PERISTALTISK_1.c ****                                         
 586:Generated_Source\PSoC5/PWM_PERISTALTISK_1.c ****     {
 459              		.loc 1 586 0
 460              		.cfi_startproc
 461              		@ args = 0, pretend = 0, frame = 8
 462              		@ frame_needed = 1, uses_anonymous_args = 0
 463              		@ link register save eliminated.
 464 0000 80B4     		push	{r7}
 465              		.cfi_def_cfa_offset 4
 466              		.cfi_offset 7, -4
 467 0002 83B0     		sub	sp, sp, #12
 468              		.cfi_def_cfa_offset 16
 469 0004 00AF     		add	r7, sp, #0
 470              		.cfi_def_cfa_register 7
 471 0006 0346     		mov	r3, r0
 472 0008 FB71     		strb	r3, [r7, #7]
 587:Generated_Source\PSoC5/PWM_PERISTALTISK_1.c ****         #if(PWM_PERISTALTISK_1_UsingFixedFunction)
 588:Generated_Source\PSoC5/PWM_PERISTALTISK_1.c ****             CY_SET_REG16(PWM_PERISTALTISK_1_COMPARE2_LSB_PTR, compare);
 589:Generated_Source\PSoC5/PWM_PERISTALTISK_1.c ****         #else
 590:Generated_Source\PSoC5/PWM_PERISTALTISK_1.c ****             CY_SET_REG8(PWM_PERISTALTISK_1_COMPARE2_LSB_PTR, compare);
 473              		.loc 1 590 0
 474 000a 044A     		ldr	r2, .L31
 475 000c FB79     		ldrb	r3, [r7, #7]
 476 000e 1370     		strb	r3, [r2]
 591:Generated_Source\PSoC5/PWM_PERISTALTISK_1.c ****         #endif /* (PWM_PERISTALTISK_1_UsingFixedFunction) */
 592:Generated_Source\PSoC5/PWM_PERISTALTISK_1.c ****     }
 477              		.loc 1 592 0
 478 0010 00BF     		nop
 479 0012 0C37     		adds	r7, r7, #12
 480              		.cfi_def_cfa_offset 4
 481 0014 BD46     		mov	sp, r7
 482              		.cfi_def_cfa_register 13
 483              		@ sp needed
 484 0016 80BC     		pop	{r7}
 485              		.cfi_restore 7
 486              		.cfi_def_cfa_offset 0
 487 0018 7047     		bx	lr
 488              	.L32:
 489 001a 00BF     		.align	2
 490              	.L31:
ARM GAS  C:\Users\krist\AppData\Local\Temp\cct3LnZV.s 			page 20


 491 001c 30640040 		.word	1073767472
 492              		.cfi_endproc
 493              	.LFE9:
 494              		.size	PWM_PERISTALTISK_1_WriteCompare2, .-PWM_PERISTALTISK_1_WriteCompare2
 495              		.section	.text.PWM_PERISTALTISK_1_SetInterruptMode,"ax",%progbits
 496              		.align	2
 497              		.global	PWM_PERISTALTISK_1_SetInterruptMode
 498              		.thumb
 499              		.thumb_func
 500              		.type	PWM_PERISTALTISK_1_SetInterruptMode, %function
 501              	PWM_PERISTALTISK_1_SetInterruptMode:
 502              	.LFB10:
 593:Generated_Source\PSoC5/PWM_PERISTALTISK_1.c **** #endif /* UseOneCompareMode */
 594:Generated_Source\PSoC5/PWM_PERISTALTISK_1.c **** 
 595:Generated_Source\PSoC5/PWM_PERISTALTISK_1.c **** #if (PWM_PERISTALTISK_1_DeadBandUsed)
 596:Generated_Source\PSoC5/PWM_PERISTALTISK_1.c **** 
 597:Generated_Source\PSoC5/PWM_PERISTALTISK_1.c **** 
 598:Generated_Source\PSoC5/PWM_PERISTALTISK_1.c ****     /*******************************************************************************
 599:Generated_Source\PSoC5/PWM_PERISTALTISK_1.c ****     * Function Name: PWM_PERISTALTISK_1_WriteDeadTime
 600:Generated_Source\PSoC5/PWM_PERISTALTISK_1.c ****     ********************************************************************************
 601:Generated_Source\PSoC5/PWM_PERISTALTISK_1.c ****     *
 602:Generated_Source\PSoC5/PWM_PERISTALTISK_1.c ****     * Summary:
 603:Generated_Source\PSoC5/PWM_PERISTALTISK_1.c ****     *  This function writes the dead-band counts to the corresponding register
 604:Generated_Source\PSoC5/PWM_PERISTALTISK_1.c ****     *
 605:Generated_Source\PSoC5/PWM_PERISTALTISK_1.c ****     * Parameters:
 606:Generated_Source\PSoC5/PWM_PERISTALTISK_1.c ****     *  deadtime:  Number of counts for dead time
 607:Generated_Source\PSoC5/PWM_PERISTALTISK_1.c ****     *
 608:Generated_Source\PSoC5/PWM_PERISTALTISK_1.c ****     * Return:
 609:Generated_Source\PSoC5/PWM_PERISTALTISK_1.c ****     *  None
 610:Generated_Source\PSoC5/PWM_PERISTALTISK_1.c ****     *
 611:Generated_Source\PSoC5/PWM_PERISTALTISK_1.c ****     *******************************************************************************/
 612:Generated_Source\PSoC5/PWM_PERISTALTISK_1.c ****     void PWM_PERISTALTISK_1_WriteDeadTime(uint8 deadtime) 
 613:Generated_Source\PSoC5/PWM_PERISTALTISK_1.c ****     {
 614:Generated_Source\PSoC5/PWM_PERISTALTISK_1.c ****         /* If using the Dead Band 1-255 mode then just write the register */
 615:Generated_Source\PSoC5/PWM_PERISTALTISK_1.c ****         #if(!PWM_PERISTALTISK_1_DeadBand2_4)
 616:Generated_Source\PSoC5/PWM_PERISTALTISK_1.c ****             CY_SET_REG8(PWM_PERISTALTISK_1_DEADBAND_COUNT_PTR, deadtime);
 617:Generated_Source\PSoC5/PWM_PERISTALTISK_1.c ****         #else
 618:Generated_Source\PSoC5/PWM_PERISTALTISK_1.c ****             /* Otherwise the data has to be masked and offset */
 619:Generated_Source\PSoC5/PWM_PERISTALTISK_1.c ****             /* Clear existing data */
 620:Generated_Source\PSoC5/PWM_PERISTALTISK_1.c ****             PWM_PERISTALTISK_1_DEADBAND_COUNT &= ((uint8)(~PWM_PERISTALTISK_1_DEADBAND_COUNT_MASK))
 621:Generated_Source\PSoC5/PWM_PERISTALTISK_1.c **** 
 622:Generated_Source\PSoC5/PWM_PERISTALTISK_1.c ****             /* Set new dead time */
 623:Generated_Source\PSoC5/PWM_PERISTALTISK_1.c ****             #if(PWM_PERISTALTISK_1_DEADBAND_COUNT_SHIFT)
 624:Generated_Source\PSoC5/PWM_PERISTALTISK_1.c ****                 PWM_PERISTALTISK_1_DEADBAND_COUNT |= ((uint8)((uint8)deadtime << PWM_PERISTALTISK_1
 625:Generated_Source\PSoC5/PWM_PERISTALTISK_1.c ****                                                     PWM_PERISTALTISK_1_DEADBAND_COUNT_MASK;
 626:Generated_Source\PSoC5/PWM_PERISTALTISK_1.c ****             #else
 627:Generated_Source\PSoC5/PWM_PERISTALTISK_1.c ****                 PWM_PERISTALTISK_1_DEADBAND_COUNT |= deadtime & PWM_PERISTALTISK_1_DEADBAND_COUNT_M
 628:Generated_Source\PSoC5/PWM_PERISTALTISK_1.c ****             #endif /* (PWM_PERISTALTISK_1_DEADBAND_COUNT_SHIFT) */
 629:Generated_Source\PSoC5/PWM_PERISTALTISK_1.c **** 
 630:Generated_Source\PSoC5/PWM_PERISTALTISK_1.c ****         #endif /* (!PWM_PERISTALTISK_1_DeadBand2_4) */
 631:Generated_Source\PSoC5/PWM_PERISTALTISK_1.c ****     }
 632:Generated_Source\PSoC5/PWM_PERISTALTISK_1.c **** 
 633:Generated_Source\PSoC5/PWM_PERISTALTISK_1.c **** 
 634:Generated_Source\PSoC5/PWM_PERISTALTISK_1.c ****     /*******************************************************************************
 635:Generated_Source\PSoC5/PWM_PERISTALTISK_1.c ****     * Function Name: PWM_PERISTALTISK_1_ReadDeadTime
 636:Generated_Source\PSoC5/PWM_PERISTALTISK_1.c ****     ********************************************************************************
 637:Generated_Source\PSoC5/PWM_PERISTALTISK_1.c ****     *
ARM GAS  C:\Users\krist\AppData\Local\Temp\cct3LnZV.s 			page 21


 638:Generated_Source\PSoC5/PWM_PERISTALTISK_1.c ****     * Summary:
 639:Generated_Source\PSoC5/PWM_PERISTALTISK_1.c ****     *  This function reads the dead-band counts from the corresponding register
 640:Generated_Source\PSoC5/PWM_PERISTALTISK_1.c ****     *
 641:Generated_Source\PSoC5/PWM_PERISTALTISK_1.c ****     * Parameters:
 642:Generated_Source\PSoC5/PWM_PERISTALTISK_1.c ****     *  None
 643:Generated_Source\PSoC5/PWM_PERISTALTISK_1.c ****     *
 644:Generated_Source\PSoC5/PWM_PERISTALTISK_1.c ****     * Return:
 645:Generated_Source\PSoC5/PWM_PERISTALTISK_1.c ****     *  Dead Band Counts
 646:Generated_Source\PSoC5/PWM_PERISTALTISK_1.c ****     *
 647:Generated_Source\PSoC5/PWM_PERISTALTISK_1.c ****     *******************************************************************************/
 648:Generated_Source\PSoC5/PWM_PERISTALTISK_1.c ****     uint8 PWM_PERISTALTISK_1_ReadDeadTime(void) 
 649:Generated_Source\PSoC5/PWM_PERISTALTISK_1.c ****     {
 650:Generated_Source\PSoC5/PWM_PERISTALTISK_1.c ****         /* If using the Dead Band 1-255 mode then just read the register */
 651:Generated_Source\PSoC5/PWM_PERISTALTISK_1.c ****         #if(!PWM_PERISTALTISK_1_DeadBand2_4)
 652:Generated_Source\PSoC5/PWM_PERISTALTISK_1.c ****             return (CY_GET_REG8(PWM_PERISTALTISK_1_DEADBAND_COUNT_PTR));
 653:Generated_Source\PSoC5/PWM_PERISTALTISK_1.c ****         #else
 654:Generated_Source\PSoC5/PWM_PERISTALTISK_1.c **** 
 655:Generated_Source\PSoC5/PWM_PERISTALTISK_1.c ****             /* Otherwise the data has to be masked and offset */
 656:Generated_Source\PSoC5/PWM_PERISTALTISK_1.c ****             #if(PWM_PERISTALTISK_1_DEADBAND_COUNT_SHIFT)
 657:Generated_Source\PSoC5/PWM_PERISTALTISK_1.c ****                 return ((uint8)(((uint8)(PWM_PERISTALTISK_1_DEADBAND_COUNT & PWM_PERISTALTISK_1_DEA
 658:Generated_Source\PSoC5/PWM_PERISTALTISK_1.c ****                                                                            PWM_PERISTALTISK_1_DEADB
 659:Generated_Source\PSoC5/PWM_PERISTALTISK_1.c ****             #else
 660:Generated_Source\PSoC5/PWM_PERISTALTISK_1.c ****                 return (PWM_PERISTALTISK_1_DEADBAND_COUNT & PWM_PERISTALTISK_1_DEADBAND_COUNT_MASK)
 661:Generated_Source\PSoC5/PWM_PERISTALTISK_1.c ****             #endif /* (PWM_PERISTALTISK_1_DEADBAND_COUNT_SHIFT) */
 662:Generated_Source\PSoC5/PWM_PERISTALTISK_1.c ****         #endif /* (!PWM_PERISTALTISK_1_DeadBand2_4) */
 663:Generated_Source\PSoC5/PWM_PERISTALTISK_1.c ****     }
 664:Generated_Source\PSoC5/PWM_PERISTALTISK_1.c **** #endif /* DeadBandUsed */
 665:Generated_Source\PSoC5/PWM_PERISTALTISK_1.c **** 
 666:Generated_Source\PSoC5/PWM_PERISTALTISK_1.c **** #if (PWM_PERISTALTISK_1_UseStatus || PWM_PERISTALTISK_1_UsingFixedFunction)
 667:Generated_Source\PSoC5/PWM_PERISTALTISK_1.c **** 
 668:Generated_Source\PSoC5/PWM_PERISTALTISK_1.c **** 
 669:Generated_Source\PSoC5/PWM_PERISTALTISK_1.c ****     /*******************************************************************************
 670:Generated_Source\PSoC5/PWM_PERISTALTISK_1.c ****     * Function Name: PWM_PERISTALTISK_1_SetInterruptMode
 671:Generated_Source\PSoC5/PWM_PERISTALTISK_1.c ****     ********************************************************************************
 672:Generated_Source\PSoC5/PWM_PERISTALTISK_1.c ****     *
 673:Generated_Source\PSoC5/PWM_PERISTALTISK_1.c ****     * Summary:
 674:Generated_Source\PSoC5/PWM_PERISTALTISK_1.c ****     *  This function configures the interrupts mask control of theinterrupt
 675:Generated_Source\PSoC5/PWM_PERISTALTISK_1.c ****     *  source status register.
 676:Generated_Source\PSoC5/PWM_PERISTALTISK_1.c ****     *
 677:Generated_Source\PSoC5/PWM_PERISTALTISK_1.c ****     * Parameters:
 678:Generated_Source\PSoC5/PWM_PERISTALTISK_1.c ****     *  uint8 interruptMode: Bit field containing the interrupt sources enabled
 679:Generated_Source\PSoC5/PWM_PERISTALTISK_1.c ****     *
 680:Generated_Source\PSoC5/PWM_PERISTALTISK_1.c ****     * Return:
 681:Generated_Source\PSoC5/PWM_PERISTALTISK_1.c ****     *  None
 682:Generated_Source\PSoC5/PWM_PERISTALTISK_1.c ****     *
 683:Generated_Source\PSoC5/PWM_PERISTALTISK_1.c ****     *******************************************************************************/
 684:Generated_Source\PSoC5/PWM_PERISTALTISK_1.c ****     void PWM_PERISTALTISK_1_SetInterruptMode(uint8 interruptMode) 
 685:Generated_Source\PSoC5/PWM_PERISTALTISK_1.c ****     {
 503              		.loc 1 685 0
 504              		.cfi_startproc
 505              		@ args = 0, pretend = 0, frame = 8
 506              		@ frame_needed = 1, uses_anonymous_args = 0
 507              		@ link register save eliminated.
 508 0000 80B4     		push	{r7}
 509              		.cfi_def_cfa_offset 4
 510              		.cfi_offset 7, -4
 511 0002 83B0     		sub	sp, sp, #12
ARM GAS  C:\Users\krist\AppData\Local\Temp\cct3LnZV.s 			page 22


 512              		.cfi_def_cfa_offset 16
 513 0004 00AF     		add	r7, sp, #0
 514              		.cfi_def_cfa_register 7
 515 0006 0346     		mov	r3, r0
 516 0008 FB71     		strb	r3, [r7, #7]
 686:Generated_Source\PSoC5/PWM_PERISTALTISK_1.c ****         CY_SET_REG8(PWM_PERISTALTISK_1_STATUS_MASK_PTR, interruptMode);
 517              		.loc 1 686 0
 518 000a 044A     		ldr	r2, .L34
 519 000c FB79     		ldrb	r3, [r7, #7]
 520 000e 1370     		strb	r3, [r2]
 687:Generated_Source\PSoC5/PWM_PERISTALTISK_1.c ****     }
 521              		.loc 1 687 0
 522 0010 00BF     		nop
 523 0012 0C37     		adds	r7, r7, #12
 524              		.cfi_def_cfa_offset 4
 525 0014 BD46     		mov	sp, r7
 526              		.cfi_def_cfa_register 13
 527              		@ sp needed
 528 0016 80BC     		pop	{r7}
 529              		.cfi_restore 7
 530              		.cfi_def_cfa_offset 0
 531 0018 7047     		bx	lr
 532              	.L35:
 533 001a 00BF     		.align	2
 534              	.L34:
 535 001c 80640040 		.word	1073767552
 536              		.cfi_endproc
 537              	.LFE10:
 538              		.size	PWM_PERISTALTISK_1_SetInterruptMode, .-PWM_PERISTALTISK_1_SetInterruptMode
 539              		.section	.text.PWM_PERISTALTISK_1_ReadStatusRegister,"ax",%progbits
 540              		.align	2
 541              		.global	PWM_PERISTALTISK_1_ReadStatusRegister
 542              		.thumb
 543              		.thumb_func
 544              		.type	PWM_PERISTALTISK_1_ReadStatusRegister, %function
 545              	PWM_PERISTALTISK_1_ReadStatusRegister:
 546              	.LFB11:
 688:Generated_Source\PSoC5/PWM_PERISTALTISK_1.c **** 
 689:Generated_Source\PSoC5/PWM_PERISTALTISK_1.c **** 
 690:Generated_Source\PSoC5/PWM_PERISTALTISK_1.c ****     /*******************************************************************************
 691:Generated_Source\PSoC5/PWM_PERISTALTISK_1.c ****     * Function Name: PWM_PERISTALTISK_1_ReadStatusRegister
 692:Generated_Source\PSoC5/PWM_PERISTALTISK_1.c ****     ********************************************************************************
 693:Generated_Source\PSoC5/PWM_PERISTALTISK_1.c ****     *
 694:Generated_Source\PSoC5/PWM_PERISTALTISK_1.c ****     * Summary:
 695:Generated_Source\PSoC5/PWM_PERISTALTISK_1.c ****     *  This function returns the current state of the status register.
 696:Generated_Source\PSoC5/PWM_PERISTALTISK_1.c ****     *
 697:Generated_Source\PSoC5/PWM_PERISTALTISK_1.c ****     * Parameters:
 698:Generated_Source\PSoC5/PWM_PERISTALTISK_1.c ****     *  None
 699:Generated_Source\PSoC5/PWM_PERISTALTISK_1.c ****     *
 700:Generated_Source\PSoC5/PWM_PERISTALTISK_1.c ****     * Return:
 701:Generated_Source\PSoC5/PWM_PERISTALTISK_1.c ****     *  uint8 : Current status register value. The status register bits are:
 702:Generated_Source\PSoC5/PWM_PERISTALTISK_1.c ****     *  [7:6] : Unused(0)
 703:Generated_Source\PSoC5/PWM_PERISTALTISK_1.c ****     *  [5]   : Kill event output
 704:Generated_Source\PSoC5/PWM_PERISTALTISK_1.c ****     *  [4]   : FIFO not empty
 705:Generated_Source\PSoC5/PWM_PERISTALTISK_1.c ****     *  [3]   : FIFO full
 706:Generated_Source\PSoC5/PWM_PERISTALTISK_1.c ****     *  [2]   : Terminal count
 707:Generated_Source\PSoC5/PWM_PERISTALTISK_1.c ****     *  [1]   : Compare output 2
ARM GAS  C:\Users\krist\AppData\Local\Temp\cct3LnZV.s 			page 23


 708:Generated_Source\PSoC5/PWM_PERISTALTISK_1.c ****     *  [0]   : Compare output 1
 709:Generated_Source\PSoC5/PWM_PERISTALTISK_1.c ****     *
 710:Generated_Source\PSoC5/PWM_PERISTALTISK_1.c ****     *******************************************************************************/
 711:Generated_Source\PSoC5/PWM_PERISTALTISK_1.c ****     uint8 PWM_PERISTALTISK_1_ReadStatusRegister(void) 
 712:Generated_Source\PSoC5/PWM_PERISTALTISK_1.c ****     {
 547              		.loc 1 712 0
 548              		.cfi_startproc
 549              		@ args = 0, pretend = 0, frame = 0
 550              		@ frame_needed = 1, uses_anonymous_args = 0
 551              		@ link register save eliminated.
 552 0000 80B4     		push	{r7}
 553              		.cfi_def_cfa_offset 4
 554              		.cfi_offset 7, -4
 555 0002 00AF     		add	r7, sp, #0
 556              		.cfi_def_cfa_register 7
 713:Generated_Source\PSoC5/PWM_PERISTALTISK_1.c ****         return (CY_GET_REG8(PWM_PERISTALTISK_1_STATUS_PTR));
 557              		.loc 1 713 0
 558 0004 034B     		ldr	r3, .L38
 559 0006 1B78     		ldrb	r3, [r3]
 560 0008 DBB2     		uxtb	r3, r3
 714:Generated_Source\PSoC5/PWM_PERISTALTISK_1.c ****     }
 561              		.loc 1 714 0
 562 000a 1846     		mov	r0, r3
 563 000c BD46     		mov	sp, r7
 564              		.cfi_def_cfa_register 13
 565              		@ sp needed
 566 000e 80BC     		pop	{r7}
 567              		.cfi_restore 7
 568              		.cfi_def_cfa_offset 0
 569 0010 7047     		bx	lr
 570              	.L39:
 571 0012 00BF     		.align	2
 572              	.L38:
 573 0014 60640040 		.word	1073767520
 574              		.cfi_endproc
 575              	.LFE11:
 576              		.size	PWM_PERISTALTISK_1_ReadStatusRegister, .-PWM_PERISTALTISK_1_ReadStatusRegister
 577              		.section	.text.PWM_PERISTALTISK_1_ReadControlRegister,"ax",%progbits
 578              		.align	2
 579              		.global	PWM_PERISTALTISK_1_ReadControlRegister
 580              		.thumb
 581              		.thumb_func
 582              		.type	PWM_PERISTALTISK_1_ReadControlRegister, %function
 583              	PWM_PERISTALTISK_1_ReadControlRegister:
 584              	.LFB12:
 715:Generated_Source\PSoC5/PWM_PERISTALTISK_1.c **** 
 716:Generated_Source\PSoC5/PWM_PERISTALTISK_1.c **** #endif /* (PWM_PERISTALTISK_1_UseStatus || PWM_PERISTALTISK_1_UsingFixedFunction) */
 717:Generated_Source\PSoC5/PWM_PERISTALTISK_1.c **** 
 718:Generated_Source\PSoC5/PWM_PERISTALTISK_1.c **** 
 719:Generated_Source\PSoC5/PWM_PERISTALTISK_1.c **** #if (PWM_PERISTALTISK_1_UseControl)
 720:Generated_Source\PSoC5/PWM_PERISTALTISK_1.c **** 
 721:Generated_Source\PSoC5/PWM_PERISTALTISK_1.c **** 
 722:Generated_Source\PSoC5/PWM_PERISTALTISK_1.c ****     /*******************************************************************************
 723:Generated_Source\PSoC5/PWM_PERISTALTISK_1.c ****     * Function Name: PWM_PERISTALTISK_1_ReadControlRegister
 724:Generated_Source\PSoC5/PWM_PERISTALTISK_1.c ****     ********************************************************************************
 725:Generated_Source\PSoC5/PWM_PERISTALTISK_1.c ****     *
 726:Generated_Source\PSoC5/PWM_PERISTALTISK_1.c ****     * Summary:
ARM GAS  C:\Users\krist\AppData\Local\Temp\cct3LnZV.s 			page 24


 727:Generated_Source\PSoC5/PWM_PERISTALTISK_1.c ****     *  Returns the current state of the control register. This API is available
 728:Generated_Source\PSoC5/PWM_PERISTALTISK_1.c ****     *  only if the control register is not removed.
 729:Generated_Source\PSoC5/PWM_PERISTALTISK_1.c ****     *
 730:Generated_Source\PSoC5/PWM_PERISTALTISK_1.c ****     * Parameters:
 731:Generated_Source\PSoC5/PWM_PERISTALTISK_1.c ****     *  None
 732:Generated_Source\PSoC5/PWM_PERISTALTISK_1.c ****     *
 733:Generated_Source\PSoC5/PWM_PERISTALTISK_1.c ****     * Return:
 734:Generated_Source\PSoC5/PWM_PERISTALTISK_1.c ****     *  uint8 : Current control register value
 735:Generated_Source\PSoC5/PWM_PERISTALTISK_1.c ****     *
 736:Generated_Source\PSoC5/PWM_PERISTALTISK_1.c ****     *******************************************************************************/
 737:Generated_Source\PSoC5/PWM_PERISTALTISK_1.c ****     uint8 PWM_PERISTALTISK_1_ReadControlRegister(void) 
 738:Generated_Source\PSoC5/PWM_PERISTALTISK_1.c ****     {
 585              		.loc 1 738 0
 586              		.cfi_startproc
 587              		@ args = 0, pretend = 0, frame = 8
 588              		@ frame_needed = 1, uses_anonymous_args = 0
 589              		@ link register save eliminated.
 590 0000 80B4     		push	{r7}
 591              		.cfi_def_cfa_offset 4
 592              		.cfi_offset 7, -4
 593 0002 83B0     		sub	sp, sp, #12
 594              		.cfi_def_cfa_offset 16
 595 0004 00AF     		add	r7, sp, #0
 596              		.cfi_def_cfa_register 7
 739:Generated_Source\PSoC5/PWM_PERISTALTISK_1.c ****         uint8 result;
 740:Generated_Source\PSoC5/PWM_PERISTALTISK_1.c **** 
 741:Generated_Source\PSoC5/PWM_PERISTALTISK_1.c ****         result = CY_GET_REG8(PWM_PERISTALTISK_1_CONTROL_PTR);
 597              		.loc 1 741 0
 598 0006 044B     		ldr	r3, .L42
 599 0008 1B78     		ldrb	r3, [r3]
 600 000a FB71     		strb	r3, [r7, #7]
 742:Generated_Source\PSoC5/PWM_PERISTALTISK_1.c ****         return (result);
 601              		.loc 1 742 0
 602 000c FB79     		ldrb	r3, [r7, #7]	@ zero_extendqisi2
 743:Generated_Source\PSoC5/PWM_PERISTALTISK_1.c ****     }
 603              		.loc 1 743 0
 604 000e 1846     		mov	r0, r3
 605 0010 0C37     		adds	r7, r7, #12
 606              		.cfi_def_cfa_offset 4
 607 0012 BD46     		mov	sp, r7
 608              		.cfi_def_cfa_register 13
 609              		@ sp needed
 610 0014 80BC     		pop	{r7}
 611              		.cfi_restore 7
 612              		.cfi_def_cfa_offset 0
 613 0016 7047     		bx	lr
 614              	.L43:
 615              		.align	2
 616              	.L42:
 617 0018 70640040 		.word	1073767536
 618              		.cfi_endproc
 619              	.LFE12:
 620              		.size	PWM_PERISTALTISK_1_ReadControlRegister, .-PWM_PERISTALTISK_1_ReadControlRegister
 621              		.section	.text.PWM_PERISTALTISK_1_WriteControlRegister,"ax",%progbits
 622              		.align	2
 623              		.global	PWM_PERISTALTISK_1_WriteControlRegister
 624              		.thumb
ARM GAS  C:\Users\krist\AppData\Local\Temp\cct3LnZV.s 			page 25


 625              		.thumb_func
 626              		.type	PWM_PERISTALTISK_1_WriteControlRegister, %function
 627              	PWM_PERISTALTISK_1_WriteControlRegister:
 628              	.LFB13:
 744:Generated_Source\PSoC5/PWM_PERISTALTISK_1.c **** 
 745:Generated_Source\PSoC5/PWM_PERISTALTISK_1.c **** 
 746:Generated_Source\PSoC5/PWM_PERISTALTISK_1.c ****     /*******************************************************************************
 747:Generated_Source\PSoC5/PWM_PERISTALTISK_1.c ****     * Function Name: PWM_PERISTALTISK_1_WriteControlRegister
 748:Generated_Source\PSoC5/PWM_PERISTALTISK_1.c ****     ********************************************************************************
 749:Generated_Source\PSoC5/PWM_PERISTALTISK_1.c ****     *
 750:Generated_Source\PSoC5/PWM_PERISTALTISK_1.c ****     * Summary:
 751:Generated_Source\PSoC5/PWM_PERISTALTISK_1.c ****     *  Sets the bit field of the control register. This API is available only if
 752:Generated_Source\PSoC5/PWM_PERISTALTISK_1.c ****     *  the control register is not removed.
 753:Generated_Source\PSoC5/PWM_PERISTALTISK_1.c ****     *
 754:Generated_Source\PSoC5/PWM_PERISTALTISK_1.c ****     * Parameters:
 755:Generated_Source\PSoC5/PWM_PERISTALTISK_1.c ****     *  uint8 control: Control register bit field, The status register bits are:
 756:Generated_Source\PSoC5/PWM_PERISTALTISK_1.c ****     *  [7]   : PWM Enable
 757:Generated_Source\PSoC5/PWM_PERISTALTISK_1.c ****     *  [6]   : Reset
 758:Generated_Source\PSoC5/PWM_PERISTALTISK_1.c ****     *  [5:3] : Compare Mode2
 759:Generated_Source\PSoC5/PWM_PERISTALTISK_1.c ****     *  [2:0] : Compare Mode2
 760:Generated_Source\PSoC5/PWM_PERISTALTISK_1.c ****     *
 761:Generated_Source\PSoC5/PWM_PERISTALTISK_1.c ****     * Return:
 762:Generated_Source\PSoC5/PWM_PERISTALTISK_1.c ****     *  None
 763:Generated_Source\PSoC5/PWM_PERISTALTISK_1.c ****     *
 764:Generated_Source\PSoC5/PWM_PERISTALTISK_1.c ****     *******************************************************************************/
 765:Generated_Source\PSoC5/PWM_PERISTALTISK_1.c ****     void PWM_PERISTALTISK_1_WriteControlRegister(uint8 control) 
 766:Generated_Source\PSoC5/PWM_PERISTALTISK_1.c ****     {
 629              		.loc 1 766 0
 630              		.cfi_startproc
 631              		@ args = 0, pretend = 0, frame = 8
 632              		@ frame_needed = 1, uses_anonymous_args = 0
 633              		@ link register save eliminated.
 634 0000 80B4     		push	{r7}
 635              		.cfi_def_cfa_offset 4
 636              		.cfi_offset 7, -4
 637 0002 83B0     		sub	sp, sp, #12
 638              		.cfi_def_cfa_offset 16
 639 0004 00AF     		add	r7, sp, #0
 640              		.cfi_def_cfa_register 7
 641 0006 0346     		mov	r3, r0
 642 0008 FB71     		strb	r3, [r7, #7]
 767:Generated_Source\PSoC5/PWM_PERISTALTISK_1.c ****         CY_SET_REG8(PWM_PERISTALTISK_1_CONTROL_PTR, control);
 643              		.loc 1 767 0
 644 000a 044A     		ldr	r2, .L45
 645 000c FB79     		ldrb	r3, [r7, #7]
 646 000e 1370     		strb	r3, [r2]
 768:Generated_Source\PSoC5/PWM_PERISTALTISK_1.c ****     }
 647              		.loc 1 768 0
 648 0010 00BF     		nop
 649 0012 0C37     		adds	r7, r7, #12
 650              		.cfi_def_cfa_offset 4
 651 0014 BD46     		mov	sp, r7
 652              		.cfi_def_cfa_register 13
 653              		@ sp needed
 654 0016 80BC     		pop	{r7}
 655              		.cfi_restore 7
 656              		.cfi_def_cfa_offset 0
ARM GAS  C:\Users\krist\AppData\Local\Temp\cct3LnZV.s 			page 26


 657 0018 7047     		bx	lr
 658              	.L46:
 659 001a 00BF     		.align	2
 660              	.L45:
 661 001c 70640040 		.word	1073767536
 662              		.cfi_endproc
 663              	.LFE13:
 664              		.size	PWM_PERISTALTISK_1_WriteControlRegister, .-PWM_PERISTALTISK_1_WriteControlRegister
 665              		.section	.text.PWM_PERISTALTISK_1_ReadCapture,"ax",%progbits
 666              		.align	2
 667              		.global	PWM_PERISTALTISK_1_ReadCapture
 668              		.thumb
 669              		.thumb_func
 670              		.type	PWM_PERISTALTISK_1_ReadCapture, %function
 671              	PWM_PERISTALTISK_1_ReadCapture:
 672              	.LFB14:
 769:Generated_Source\PSoC5/PWM_PERISTALTISK_1.c **** 
 770:Generated_Source\PSoC5/PWM_PERISTALTISK_1.c **** #endif /* (PWM_PERISTALTISK_1_UseControl) */
 771:Generated_Source\PSoC5/PWM_PERISTALTISK_1.c **** 
 772:Generated_Source\PSoC5/PWM_PERISTALTISK_1.c **** 
 773:Generated_Source\PSoC5/PWM_PERISTALTISK_1.c **** #if (!PWM_PERISTALTISK_1_UsingFixedFunction)
 774:Generated_Source\PSoC5/PWM_PERISTALTISK_1.c **** 
 775:Generated_Source\PSoC5/PWM_PERISTALTISK_1.c **** 
 776:Generated_Source\PSoC5/PWM_PERISTALTISK_1.c ****     /*******************************************************************************
 777:Generated_Source\PSoC5/PWM_PERISTALTISK_1.c ****     * Function Name: PWM_PERISTALTISK_1_ReadCapture
 778:Generated_Source\PSoC5/PWM_PERISTALTISK_1.c ****     ********************************************************************************
 779:Generated_Source\PSoC5/PWM_PERISTALTISK_1.c ****     *
 780:Generated_Source\PSoC5/PWM_PERISTALTISK_1.c ****     * Summary:
 781:Generated_Source\PSoC5/PWM_PERISTALTISK_1.c ****     *  Reads the capture value from the capture FIFO.
 782:Generated_Source\PSoC5/PWM_PERISTALTISK_1.c ****     *
 783:Generated_Source\PSoC5/PWM_PERISTALTISK_1.c ****     * Parameters:
 784:Generated_Source\PSoC5/PWM_PERISTALTISK_1.c ****     *  None
 785:Generated_Source\PSoC5/PWM_PERISTALTISK_1.c ****     *
 786:Generated_Source\PSoC5/PWM_PERISTALTISK_1.c ****     * Return:
 787:Generated_Source\PSoC5/PWM_PERISTALTISK_1.c ****     *  uint8/uint16: The current capture value
 788:Generated_Source\PSoC5/PWM_PERISTALTISK_1.c ****     *
 789:Generated_Source\PSoC5/PWM_PERISTALTISK_1.c ****     *******************************************************************************/
 790:Generated_Source\PSoC5/PWM_PERISTALTISK_1.c ****     uint8 PWM_PERISTALTISK_1_ReadCapture(void) 
 791:Generated_Source\PSoC5/PWM_PERISTALTISK_1.c ****     {
 673              		.loc 1 791 0
 674              		.cfi_startproc
 675              		@ args = 0, pretend = 0, frame = 0
 676              		@ frame_needed = 1, uses_anonymous_args = 0
 677              		@ link register save eliminated.
 678 0000 80B4     		push	{r7}
 679              		.cfi_def_cfa_offset 4
 680              		.cfi_offset 7, -4
 681 0002 00AF     		add	r7, sp, #0
 682              		.cfi_def_cfa_register 7
 792:Generated_Source\PSoC5/PWM_PERISTALTISK_1.c ****         return (CY_GET_REG8(PWM_PERISTALTISK_1_CAPTURE_LSB_PTR));
 683              		.loc 1 792 0
 684 0004 034B     		ldr	r3, .L49
 685 0006 1B78     		ldrb	r3, [r3]
 686 0008 DBB2     		uxtb	r3, r3
 793:Generated_Source\PSoC5/PWM_PERISTALTISK_1.c ****     }
 687              		.loc 1 793 0
 688 000a 1846     		mov	r0, r3
ARM GAS  C:\Users\krist\AppData\Local\Temp\cct3LnZV.s 			page 27


 689 000c BD46     		mov	sp, r7
 690              		.cfi_def_cfa_register 13
 691              		@ sp needed
 692 000e 80BC     		pop	{r7}
 693              		.cfi_restore 7
 694              		.cfi_def_cfa_offset 0
 695 0010 7047     		bx	lr
 696              	.L50:
 697 0012 00BF     		.align	2
 698              	.L49:
 699 0014 50640040 		.word	1073767504
 700              		.cfi_endproc
 701              	.LFE14:
 702              		.size	PWM_PERISTALTISK_1_ReadCapture, .-PWM_PERISTALTISK_1_ReadCapture
 703              		.section	.text.PWM_PERISTALTISK_1_ReadCompare1,"ax",%progbits
 704              		.align	2
 705              		.global	PWM_PERISTALTISK_1_ReadCompare1
 706              		.thumb
 707              		.thumb_func
 708              		.type	PWM_PERISTALTISK_1_ReadCompare1, %function
 709              	PWM_PERISTALTISK_1_ReadCompare1:
 710              	.LFB15:
 794:Generated_Source\PSoC5/PWM_PERISTALTISK_1.c **** 
 795:Generated_Source\PSoC5/PWM_PERISTALTISK_1.c **** #endif /* (!PWM_PERISTALTISK_1_UsingFixedFunction) */
 796:Generated_Source\PSoC5/PWM_PERISTALTISK_1.c **** 
 797:Generated_Source\PSoC5/PWM_PERISTALTISK_1.c **** 
 798:Generated_Source\PSoC5/PWM_PERISTALTISK_1.c **** #if (PWM_PERISTALTISK_1_UseOneCompareMode)
 799:Generated_Source\PSoC5/PWM_PERISTALTISK_1.c **** 
 800:Generated_Source\PSoC5/PWM_PERISTALTISK_1.c **** 
 801:Generated_Source\PSoC5/PWM_PERISTALTISK_1.c ****     /*******************************************************************************
 802:Generated_Source\PSoC5/PWM_PERISTALTISK_1.c ****     * Function Name: PWM_PERISTALTISK_1_ReadCompare
 803:Generated_Source\PSoC5/PWM_PERISTALTISK_1.c ****     ********************************************************************************
 804:Generated_Source\PSoC5/PWM_PERISTALTISK_1.c ****     *
 805:Generated_Source\PSoC5/PWM_PERISTALTISK_1.c ****     * Summary:
 806:Generated_Source\PSoC5/PWM_PERISTALTISK_1.c ****     *  Reads the compare value for the compare output when the PWM Mode parameter is
 807:Generated_Source\PSoC5/PWM_PERISTALTISK_1.c ****     *  set to Dither mode, Center Aligned mode, or One Output mode.
 808:Generated_Source\PSoC5/PWM_PERISTALTISK_1.c ****     *
 809:Generated_Source\PSoC5/PWM_PERISTALTISK_1.c ****     * Parameters:
 810:Generated_Source\PSoC5/PWM_PERISTALTISK_1.c ****     *  None
 811:Generated_Source\PSoC5/PWM_PERISTALTISK_1.c ****     *
 812:Generated_Source\PSoC5/PWM_PERISTALTISK_1.c ****     * Return:
 813:Generated_Source\PSoC5/PWM_PERISTALTISK_1.c ****     *  uint8/uint16: Current compare value
 814:Generated_Source\PSoC5/PWM_PERISTALTISK_1.c ****     *
 815:Generated_Source\PSoC5/PWM_PERISTALTISK_1.c ****     *******************************************************************************/
 816:Generated_Source\PSoC5/PWM_PERISTALTISK_1.c ****     uint8 PWM_PERISTALTISK_1_ReadCompare(void) 
 817:Generated_Source\PSoC5/PWM_PERISTALTISK_1.c ****     {
 818:Generated_Source\PSoC5/PWM_PERISTALTISK_1.c ****         #if(PWM_PERISTALTISK_1_UsingFixedFunction)
 819:Generated_Source\PSoC5/PWM_PERISTALTISK_1.c ****             return ((uint8)CY_GET_REG16(PWM_PERISTALTISK_1_COMPARE1_LSB_PTR));
 820:Generated_Source\PSoC5/PWM_PERISTALTISK_1.c ****         #else
 821:Generated_Source\PSoC5/PWM_PERISTALTISK_1.c ****             return (CY_GET_REG8(PWM_PERISTALTISK_1_COMPARE1_LSB_PTR));
 822:Generated_Source\PSoC5/PWM_PERISTALTISK_1.c ****         #endif /* (PWM_PERISTALTISK_1_UsingFixedFunction) */
 823:Generated_Source\PSoC5/PWM_PERISTALTISK_1.c ****     }
 824:Generated_Source\PSoC5/PWM_PERISTALTISK_1.c **** 
 825:Generated_Source\PSoC5/PWM_PERISTALTISK_1.c **** #else
 826:Generated_Source\PSoC5/PWM_PERISTALTISK_1.c **** 
 827:Generated_Source\PSoC5/PWM_PERISTALTISK_1.c **** 
 828:Generated_Source\PSoC5/PWM_PERISTALTISK_1.c ****     /*******************************************************************************
ARM GAS  C:\Users\krist\AppData\Local\Temp\cct3LnZV.s 			page 28


 829:Generated_Source\PSoC5/PWM_PERISTALTISK_1.c ****     * Function Name: PWM_PERISTALTISK_1_ReadCompare1
 830:Generated_Source\PSoC5/PWM_PERISTALTISK_1.c ****     ********************************************************************************
 831:Generated_Source\PSoC5/PWM_PERISTALTISK_1.c ****     *
 832:Generated_Source\PSoC5/PWM_PERISTALTISK_1.c ****     * Summary:
 833:Generated_Source\PSoC5/PWM_PERISTALTISK_1.c ****     *  Reads the compare value for the compare1 output.
 834:Generated_Source\PSoC5/PWM_PERISTALTISK_1.c ****     *
 835:Generated_Source\PSoC5/PWM_PERISTALTISK_1.c ****     * Parameters:
 836:Generated_Source\PSoC5/PWM_PERISTALTISK_1.c ****     *  None
 837:Generated_Source\PSoC5/PWM_PERISTALTISK_1.c ****     *
 838:Generated_Source\PSoC5/PWM_PERISTALTISK_1.c ****     * Return:
 839:Generated_Source\PSoC5/PWM_PERISTALTISK_1.c ****     *  uint8/uint16: Current compare value.
 840:Generated_Source\PSoC5/PWM_PERISTALTISK_1.c ****     *
 841:Generated_Source\PSoC5/PWM_PERISTALTISK_1.c ****     *******************************************************************************/
 842:Generated_Source\PSoC5/PWM_PERISTALTISK_1.c ****     uint8 PWM_PERISTALTISK_1_ReadCompare1(void) 
 843:Generated_Source\PSoC5/PWM_PERISTALTISK_1.c ****     {
 711              		.loc 1 843 0
 712              		.cfi_startproc
 713              		@ args = 0, pretend = 0, frame = 0
 714              		@ frame_needed = 1, uses_anonymous_args = 0
 715              		@ link register save eliminated.
 716 0000 80B4     		push	{r7}
 717              		.cfi_def_cfa_offset 4
 718              		.cfi_offset 7, -4
 719 0002 00AF     		add	r7, sp, #0
 720              		.cfi_def_cfa_register 7
 844:Generated_Source\PSoC5/PWM_PERISTALTISK_1.c ****         return (CY_GET_REG8(PWM_PERISTALTISK_1_COMPARE1_LSB_PTR));
 721              		.loc 1 844 0
 722 0004 034B     		ldr	r3, .L53
 723 0006 1B78     		ldrb	r3, [r3]
 724 0008 DBB2     		uxtb	r3, r3
 845:Generated_Source\PSoC5/PWM_PERISTALTISK_1.c ****     }
 725              		.loc 1 845 0
 726 000a 1846     		mov	r0, r3
 727 000c BD46     		mov	sp, r7
 728              		.cfi_def_cfa_register 13
 729              		@ sp needed
 730 000e 80BC     		pop	{r7}
 731              		.cfi_restore 7
 732              		.cfi_def_cfa_offset 0
 733 0010 7047     		bx	lr
 734              	.L54:
 735 0012 00BF     		.align	2
 736              	.L53:
 737 0014 20640040 		.word	1073767456
 738              		.cfi_endproc
 739              	.LFE15:
 740              		.size	PWM_PERISTALTISK_1_ReadCompare1, .-PWM_PERISTALTISK_1_ReadCompare1
 741              		.section	.text.PWM_PERISTALTISK_1_ReadCompare2,"ax",%progbits
 742              		.align	2
 743              		.global	PWM_PERISTALTISK_1_ReadCompare2
 744              		.thumb
 745              		.thumb_func
 746              		.type	PWM_PERISTALTISK_1_ReadCompare2, %function
 747              	PWM_PERISTALTISK_1_ReadCompare2:
 748              	.LFB16:
 846:Generated_Source\PSoC5/PWM_PERISTALTISK_1.c **** 
 847:Generated_Source\PSoC5/PWM_PERISTALTISK_1.c **** 
ARM GAS  C:\Users\krist\AppData\Local\Temp\cct3LnZV.s 			page 29


 848:Generated_Source\PSoC5/PWM_PERISTALTISK_1.c ****     /*******************************************************************************
 849:Generated_Source\PSoC5/PWM_PERISTALTISK_1.c ****     * Function Name: PWM_PERISTALTISK_1_ReadCompare2
 850:Generated_Source\PSoC5/PWM_PERISTALTISK_1.c ****     ********************************************************************************
 851:Generated_Source\PSoC5/PWM_PERISTALTISK_1.c ****     *
 852:Generated_Source\PSoC5/PWM_PERISTALTISK_1.c ****     * Summary:
 853:Generated_Source\PSoC5/PWM_PERISTALTISK_1.c ****     *  Reads the compare value for the compare2 output.
 854:Generated_Source\PSoC5/PWM_PERISTALTISK_1.c ****     *
 855:Generated_Source\PSoC5/PWM_PERISTALTISK_1.c ****     * Parameters:
 856:Generated_Source\PSoC5/PWM_PERISTALTISK_1.c ****     *  None
 857:Generated_Source\PSoC5/PWM_PERISTALTISK_1.c ****     *
 858:Generated_Source\PSoC5/PWM_PERISTALTISK_1.c ****     * Return:
 859:Generated_Source\PSoC5/PWM_PERISTALTISK_1.c ****     *  uint8/uint16: Current compare value.
 860:Generated_Source\PSoC5/PWM_PERISTALTISK_1.c ****     *
 861:Generated_Source\PSoC5/PWM_PERISTALTISK_1.c ****     *******************************************************************************/
 862:Generated_Source\PSoC5/PWM_PERISTALTISK_1.c ****     uint8 PWM_PERISTALTISK_1_ReadCompare2(void) 
 863:Generated_Source\PSoC5/PWM_PERISTALTISK_1.c ****     {
 749              		.loc 1 863 0
 750              		.cfi_startproc
 751              		@ args = 0, pretend = 0, frame = 0
 752              		@ frame_needed = 1, uses_anonymous_args = 0
 753              		@ link register save eliminated.
 754 0000 80B4     		push	{r7}
 755              		.cfi_def_cfa_offset 4
 756              		.cfi_offset 7, -4
 757 0002 00AF     		add	r7, sp, #0
 758              		.cfi_def_cfa_register 7
 864:Generated_Source\PSoC5/PWM_PERISTALTISK_1.c ****         return (CY_GET_REG8(PWM_PERISTALTISK_1_COMPARE2_LSB_PTR));
 759              		.loc 1 864 0
 760 0004 034B     		ldr	r3, .L57
 761 0006 1B78     		ldrb	r3, [r3]
 762 0008 DBB2     		uxtb	r3, r3
 865:Generated_Source\PSoC5/PWM_PERISTALTISK_1.c ****     }
 763              		.loc 1 865 0
 764 000a 1846     		mov	r0, r3
 765 000c BD46     		mov	sp, r7
 766              		.cfi_def_cfa_register 13
 767              		@ sp needed
 768 000e 80BC     		pop	{r7}
 769              		.cfi_restore 7
 770              		.cfi_def_cfa_offset 0
 771 0010 7047     		bx	lr
 772              	.L58:
 773 0012 00BF     		.align	2
 774              	.L57:
 775 0014 30640040 		.word	1073767472
 776              		.cfi_endproc
 777              	.LFE16:
 778              		.size	PWM_PERISTALTISK_1_ReadCompare2, .-PWM_PERISTALTISK_1_ReadCompare2
 779              		.section	.text.PWM_PERISTALTISK_1_ReadPeriod,"ax",%progbits
 780              		.align	2
 781              		.global	PWM_PERISTALTISK_1_ReadPeriod
 782              		.thumb
 783              		.thumb_func
 784              		.type	PWM_PERISTALTISK_1_ReadPeriod, %function
 785              	PWM_PERISTALTISK_1_ReadPeriod:
 786              	.LFB17:
 866:Generated_Source\PSoC5/PWM_PERISTALTISK_1.c **** 
ARM GAS  C:\Users\krist\AppData\Local\Temp\cct3LnZV.s 			page 30


 867:Generated_Source\PSoC5/PWM_PERISTALTISK_1.c **** #endif /* (PWM_PERISTALTISK_1_UseOneCompareMode) */
 868:Generated_Source\PSoC5/PWM_PERISTALTISK_1.c **** 
 869:Generated_Source\PSoC5/PWM_PERISTALTISK_1.c **** 
 870:Generated_Source\PSoC5/PWM_PERISTALTISK_1.c **** /*******************************************************************************
 871:Generated_Source\PSoC5/PWM_PERISTALTISK_1.c **** * Function Name: PWM_PERISTALTISK_1_ReadPeriod
 872:Generated_Source\PSoC5/PWM_PERISTALTISK_1.c **** ********************************************************************************
 873:Generated_Source\PSoC5/PWM_PERISTALTISK_1.c **** *
 874:Generated_Source\PSoC5/PWM_PERISTALTISK_1.c **** * Summary:
 875:Generated_Source\PSoC5/PWM_PERISTALTISK_1.c **** *  Reads the period value used by the PWM hardware.
 876:Generated_Source\PSoC5/PWM_PERISTALTISK_1.c **** *
 877:Generated_Source\PSoC5/PWM_PERISTALTISK_1.c **** * Parameters:
 878:Generated_Source\PSoC5/PWM_PERISTALTISK_1.c **** *  None
 879:Generated_Source\PSoC5/PWM_PERISTALTISK_1.c **** *
 880:Generated_Source\PSoC5/PWM_PERISTALTISK_1.c **** * Return:
 881:Generated_Source\PSoC5/PWM_PERISTALTISK_1.c **** *  uint8/16: Period value
 882:Generated_Source\PSoC5/PWM_PERISTALTISK_1.c **** *
 883:Generated_Source\PSoC5/PWM_PERISTALTISK_1.c **** *******************************************************************************/
 884:Generated_Source\PSoC5/PWM_PERISTALTISK_1.c **** uint8 PWM_PERISTALTISK_1_ReadPeriod(void) 
 885:Generated_Source\PSoC5/PWM_PERISTALTISK_1.c **** {
 787              		.loc 1 885 0
 788              		.cfi_startproc
 789              		@ args = 0, pretend = 0, frame = 0
 790              		@ frame_needed = 1, uses_anonymous_args = 0
 791              		@ link register save eliminated.
 792 0000 80B4     		push	{r7}
 793              		.cfi_def_cfa_offset 4
 794              		.cfi_offset 7, -4
 795 0002 00AF     		add	r7, sp, #0
 796              		.cfi_def_cfa_register 7
 886:Generated_Source\PSoC5/PWM_PERISTALTISK_1.c ****     #if(PWM_PERISTALTISK_1_UsingFixedFunction)
 887:Generated_Source\PSoC5/PWM_PERISTALTISK_1.c ****         return ((uint8)CY_GET_REG16(PWM_PERISTALTISK_1_PERIOD_LSB_PTR));
 888:Generated_Source\PSoC5/PWM_PERISTALTISK_1.c ****     #else
 889:Generated_Source\PSoC5/PWM_PERISTALTISK_1.c ****         return (CY_GET_REG8(PWM_PERISTALTISK_1_PERIOD_LSB_PTR));
 797              		.loc 1 889 0
 798 0004 034B     		ldr	r3, .L61
 799 0006 1B78     		ldrb	r3, [r3]
 800 0008 DBB2     		uxtb	r3, r3
 890:Generated_Source\PSoC5/PWM_PERISTALTISK_1.c ****     #endif /* (PWM_PERISTALTISK_1_UsingFixedFunction) */
 891:Generated_Source\PSoC5/PWM_PERISTALTISK_1.c **** }
 801              		.loc 1 891 0
 802 000a 1846     		mov	r0, r3
 803 000c BD46     		mov	sp, r7
 804              		.cfi_def_cfa_register 13
 805              		@ sp needed
 806 000e 80BC     		pop	{r7}
 807              		.cfi_restore 7
 808              		.cfi_def_cfa_offset 0
 809 0010 7047     		bx	lr
 810              	.L62:
 811 0012 00BF     		.align	2
 812              	.L61:
 813 0014 40640040 		.word	1073767488
 814              		.cfi_endproc
 815              	.LFE17:
 816              		.size	PWM_PERISTALTISK_1_ReadPeriod, .-PWM_PERISTALTISK_1_ReadPeriod
 817              		.text
 818              	.Letext0:
ARM GAS  C:\Users\krist\AppData\Local\Temp\cct3LnZV.s 			page 31


 819              		.file 2 "Generated_Source\\PSoC5\\cytypes.h"