ARM GAS  C:\Users\Emil\AppData\Local\Temp\ccX3pjTY.s 			page 1


   1              		.syntax unified
   2              		.cpu cortex-m3
   3              		.fpu softvfp
   4              		.eabi_attribute 20, 1
   5              		.eabi_attribute 21, 1
   6              		.eabi_attribute 23, 3
   7              		.eabi_attribute 24, 1
   8              		.eabi_attribute 25, 1
   9              		.eabi_attribute 26, 1
  10              		.eabi_attribute 30, 6
  11              		.eabi_attribute 34, 1
  12              		.eabi_attribute 18, 4
  13              		.thumb
  14              		.syntax unified
  15              		.file	"queue.c"
  16              		.text
  17              	.Ltext0:
  18              		.cfi_sections	.debug_frame
  19              		.comm	xQueueRegistry,80,4
  20              		.section	.text.xQueueGenericReset,"ax",%progbits
  21              		.align	2
  22              		.global	xQueueGenericReset
  23              		.thumb
  24              		.thumb_func
  25              		.type	xQueueGenericReset, %function
  26              	xQueueGenericReset:
  27              	.LFB68:
  28              		.file 1 "Source\\queue.c"
   1:Source/queue.c **** /*
   2:Source/queue.c ****  * FreeRTOS Kernel V10.3.1
   3:Source/queue.c ****  * Copyright (C) 2020 Amazon.com, Inc. or its affiliates.  All Rights Reserved.
   4:Source/queue.c ****  *
   5:Source/queue.c ****  * Permission is hereby granted, free of charge, to any person obtaining a copy of
   6:Source/queue.c ****  * this software and associated documentation files (the "Software"), to deal in
   7:Source/queue.c ****  * the Software without restriction, including without limitation the rights to
   8:Source/queue.c ****  * use, copy, modify, merge, publish, distribute, sublicense, and/or sell copies of
   9:Source/queue.c ****  * the Software, and to permit persons to whom the Software is furnished to do so,
  10:Source/queue.c ****  * subject to the following conditions:
  11:Source/queue.c ****  *
  12:Source/queue.c ****  * The above copyright notice and this permission notice shall be included in all
  13:Source/queue.c ****  * copies or substantial portions of the Software.
  14:Source/queue.c ****  *
  15:Source/queue.c ****  * THE SOFTWARE IS PROVIDED "AS IS", WITHOUT WARRANTY OF ANY KIND, EXPRESS OR
  16:Source/queue.c ****  * IMPLIED, INCLUDING BUT NOT LIMITED TO THE WARRANTIES OF MERCHANTABILITY, FITNESS
  17:Source/queue.c ****  * FOR A PARTICULAR PURPOSE AND NONINFRINGEMENT. IN NO EVENT SHALL THE AUTHORS OR
  18:Source/queue.c ****  * COPYRIGHT HOLDERS BE LIABLE FOR ANY CLAIM, DAMAGES OR OTHER LIABILITY, WHETHER
  19:Source/queue.c ****  * IN AN ACTION OF CONTRACT, TORT OR OTHERWISE, ARISING FROM, OUT OF OR IN
  20:Source/queue.c ****  * CONNECTION WITH THE SOFTWARE OR THE USE OR OTHER DEALINGS IN THE SOFTWARE.
  21:Source/queue.c ****  *
  22:Source/queue.c ****  * http://www.FreeRTOS.org
  23:Source/queue.c ****  * http://aws.amazon.com/freertos
  24:Source/queue.c ****  *
  25:Source/queue.c ****  * 1 tab == 4 spaces!
  26:Source/queue.c ****  */
  27:Source/queue.c **** 
  28:Source/queue.c **** #include <stdlib.h>
  29:Source/queue.c **** #include <string.h>
ARM GAS  C:\Users\Emil\AppData\Local\Temp\ccX3pjTY.s 			page 2


  30:Source/queue.c **** 
  31:Source/queue.c **** /* Defining MPU_WRAPPERS_INCLUDED_FROM_API_FILE prevents task.h from redefining
  32:Source/queue.c **** all the API functions to use the MPU wrappers.  That should only be done when
  33:Source/queue.c **** task.h is included from an application file. */
  34:Source/queue.c **** #define MPU_WRAPPERS_INCLUDED_FROM_API_FILE
  35:Source/queue.c **** 
  36:Source/queue.c **** #include "FreeRTOS.h"
  37:Source/queue.c **** #include "task.h"
  38:Source/queue.c **** #include "queue.h"
  39:Source/queue.c **** 
  40:Source/queue.c **** #if ( configUSE_CO_ROUTINES == 1 )
  41:Source/queue.c **** 	#include "croutine.h"
  42:Source/queue.c **** #endif
  43:Source/queue.c **** 
  44:Source/queue.c **** /* Lint e9021, e961 and e750 are suppressed as a MISRA exception justified
  45:Source/queue.c **** because the MPU ports require MPU_WRAPPERS_INCLUDED_FROM_API_FILE to be defined
  46:Source/queue.c **** for the header files above, but not in this file, in order to generate the
  47:Source/queue.c **** correct privileged Vs unprivileged linkage and placement. */
  48:Source/queue.c **** #undef MPU_WRAPPERS_INCLUDED_FROM_API_FILE /*lint !e961 !e750 !e9021. */
  49:Source/queue.c **** 
  50:Source/queue.c **** 
  51:Source/queue.c **** /* Constants used with the cRxLock and cTxLock structure members. */
  52:Source/queue.c **** #define queueUNLOCKED					( ( int8_t ) -1 )
  53:Source/queue.c **** #define queueLOCKED_UNMODIFIED			( ( int8_t ) 0 )
  54:Source/queue.c **** 
  55:Source/queue.c **** /* When the Queue_t structure is used to represent a base queue its pcHead and
  56:Source/queue.c **** pcTail members are used as pointers into the queue storage area.  When the
  57:Source/queue.c **** Queue_t structure is used to represent a mutex pcHead and pcTail pointers are
  58:Source/queue.c **** not necessary, and the pcHead pointer is set to NULL to indicate that the
  59:Source/queue.c **** structure instead holds a pointer to the mutex holder (if any).  Map alternative
  60:Source/queue.c **** names to the pcHead and structure member to ensure the readability of the code
  61:Source/queue.c **** is maintained.  The QueuePointers_t and SemaphoreData_t types are used to form
  62:Source/queue.c **** a union as their usage is mutually exclusive dependent on what the queue is
  63:Source/queue.c **** being used for. */
  64:Source/queue.c **** #define uxQueueType						pcHead
  65:Source/queue.c **** #define queueQUEUE_IS_MUTEX				NULL
  66:Source/queue.c **** 
  67:Source/queue.c **** typedef struct QueuePointers
  68:Source/queue.c **** {
  69:Source/queue.c **** 	int8_t *pcTail;					/*< Points to the byte at the end of the queue storage area.  Once more byte i
  70:Source/queue.c **** 	int8_t *pcReadFrom;				/*< Points to the last place that a queued item was read from when the stru
  71:Source/queue.c **** } QueuePointers_t;
  72:Source/queue.c **** 
  73:Source/queue.c **** typedef struct SemaphoreData
  74:Source/queue.c **** {
  75:Source/queue.c **** 	TaskHandle_t xMutexHolder;		 /*< The handle of the task that holds the mutex. */
  76:Source/queue.c **** 	UBaseType_t uxRecursiveCallCount;/*< Maintains a count of the number of times a recursive mutex ha
  77:Source/queue.c **** } SemaphoreData_t;
  78:Source/queue.c **** 
  79:Source/queue.c **** /* Semaphores do not actually store or copy data, so have an item size of
  80:Source/queue.c **** zero. */
  81:Source/queue.c **** #define queueSEMAPHORE_QUEUE_ITEM_LENGTH ( ( UBaseType_t ) 0 )
  82:Source/queue.c **** #define queueMUTEX_GIVE_BLOCK_TIME		 ( ( TickType_t ) 0U )
  83:Source/queue.c **** 
  84:Source/queue.c **** #if( configUSE_PREEMPTION == 0 )
  85:Source/queue.c **** 	/* If the cooperative scheduler is being used then a yield should not be
  86:Source/queue.c **** 	performed just because a higher priority task has been woken. */
ARM GAS  C:\Users\Emil\AppData\Local\Temp\ccX3pjTY.s 			page 3


  87:Source/queue.c **** 	#define queueYIELD_IF_USING_PREEMPTION()
  88:Source/queue.c **** #else
  89:Source/queue.c **** 	#define queueYIELD_IF_USING_PREEMPTION() portYIELD_WITHIN_API()
  90:Source/queue.c **** #endif
  91:Source/queue.c **** 
  92:Source/queue.c **** /*
  93:Source/queue.c ****  * Definition of the queue used by the scheduler.
  94:Source/queue.c ****  * Items are queued by copy, not reference.  See the following link for the
  95:Source/queue.c ****  * rationale: https://www.freertos.org/Embedded-RTOS-Queues.html
  96:Source/queue.c ****  */
  97:Source/queue.c **** typedef struct QueueDefinition 		/* The old naming convention is used to prevent breaking kernel aw
  98:Source/queue.c **** {
  99:Source/queue.c **** 	int8_t *pcHead;					/*< Points to the beginning of the queue storage area. */
 100:Source/queue.c **** 	int8_t *pcWriteTo;				/*< Points to the free next place in the storage area. */
 101:Source/queue.c **** 
 102:Source/queue.c **** 	union
 103:Source/queue.c **** 	{
 104:Source/queue.c **** 		QueuePointers_t xQueue;		/*< Data required exclusively when this structure is used as a queue. */
 105:Source/queue.c **** 		SemaphoreData_t xSemaphore; /*< Data required exclusively when this structure is used as a semaph
 106:Source/queue.c **** 	} u;
 107:Source/queue.c **** 
 108:Source/queue.c **** 	List_t xTasksWaitingToSend;		/*< List of tasks that are blocked waiting to post onto this queue.  
 109:Source/queue.c **** 	List_t xTasksWaitingToReceive;	/*< List of tasks that are blocked waiting to read from this queue.
 110:Source/queue.c **** 
 111:Source/queue.c **** 	volatile UBaseType_t uxMessagesWaiting;/*< The number of items currently in the queue. */
 112:Source/queue.c **** 	UBaseType_t uxLength;			/*< The length of the queue defined as the number of items it will hold, n
 113:Source/queue.c **** 	UBaseType_t uxItemSize;			/*< The size of each items that the queue will hold. */
 114:Source/queue.c **** 
 115:Source/queue.c **** 	volatile int8_t cRxLock;		/*< Stores the number of items received from the queue (removed from the
 116:Source/queue.c **** 	volatile int8_t cTxLock;		/*< Stores the number of items transmitted to the queue (added to the qu
 117:Source/queue.c **** 
 118:Source/queue.c **** 	#if( ( configSUPPORT_STATIC_ALLOCATION == 1 ) && ( configSUPPORT_DYNAMIC_ALLOCATION == 1 ) )
 119:Source/queue.c **** 		uint8_t ucStaticallyAllocated;	/*< Set to pdTRUE if the memory used by the queue was statically a
 120:Source/queue.c **** 	#endif
 121:Source/queue.c **** 
 122:Source/queue.c **** 	#if ( configUSE_QUEUE_SETS == 1 )
 123:Source/queue.c **** 		struct QueueDefinition *pxQueueSetContainer;
 124:Source/queue.c **** 	#endif
 125:Source/queue.c **** 
 126:Source/queue.c **** 	#if ( configUSE_TRACE_FACILITY == 1 )
 127:Source/queue.c **** 		UBaseType_t uxQueueNumber;
 128:Source/queue.c **** 		uint8_t ucQueueType;
 129:Source/queue.c **** 	#endif
 130:Source/queue.c **** 
 131:Source/queue.c **** } xQUEUE;
 132:Source/queue.c **** 
 133:Source/queue.c **** /* The old xQUEUE name is maintained above then typedefed to the new Queue_t
 134:Source/queue.c **** name below to enable the use of older kernel aware debuggers. */
 135:Source/queue.c **** typedef xQUEUE Queue_t;
 136:Source/queue.c **** 
 137:Source/queue.c **** /*-----------------------------------------------------------*/
 138:Source/queue.c **** 
 139:Source/queue.c **** /*
 140:Source/queue.c ****  * The queue registry is just a means for kernel aware debuggers to locate
 141:Source/queue.c ****  * queue structures.  It has no other purpose so is an optional component.
 142:Source/queue.c ****  */
 143:Source/queue.c **** #if ( configQUEUE_REGISTRY_SIZE > 0 )
ARM GAS  C:\Users\Emil\AppData\Local\Temp\ccX3pjTY.s 			page 4


 144:Source/queue.c **** 
 145:Source/queue.c **** 	/* The type stored within the queue registry array.  This allows a name
 146:Source/queue.c **** 	to be assigned to each queue making kernel aware debugging a little
 147:Source/queue.c **** 	more user friendly. */
 148:Source/queue.c **** 	typedef struct QUEUE_REGISTRY_ITEM
 149:Source/queue.c **** 	{
 150:Source/queue.c **** 		const char *pcQueueName; /*lint !e971 Unqualified char types are allowed for strings and single c
 151:Source/queue.c **** 		QueueHandle_t xHandle;
 152:Source/queue.c **** 	} xQueueRegistryItem;
 153:Source/queue.c **** 
 154:Source/queue.c **** 	/* The old xQueueRegistryItem name is maintained above then typedefed to the
 155:Source/queue.c **** 	new xQueueRegistryItem name below to enable the use of older kernel aware
 156:Source/queue.c **** 	debuggers. */
 157:Source/queue.c **** 	typedef xQueueRegistryItem QueueRegistryItem_t;
 158:Source/queue.c **** 
 159:Source/queue.c **** 	/* The queue registry is simply an array of QueueRegistryItem_t structures.
 160:Source/queue.c **** 	The pcQueueName member of a structure being NULL is indicative of the
 161:Source/queue.c **** 	array position being vacant. */
 162:Source/queue.c **** 	PRIVILEGED_DATA QueueRegistryItem_t xQueueRegistry[ configQUEUE_REGISTRY_SIZE ];
 163:Source/queue.c **** 
 164:Source/queue.c **** #endif /* configQUEUE_REGISTRY_SIZE */
 165:Source/queue.c **** 
 166:Source/queue.c **** /*
 167:Source/queue.c ****  * Unlocks a queue locked by a call to prvLockQueue.  Locking a queue does not
 168:Source/queue.c ****  * prevent an ISR from adding or removing items to the queue, but does prevent
 169:Source/queue.c ****  * an ISR from removing tasks from the queue event lists.  If an ISR finds a
 170:Source/queue.c ****  * queue is locked it will instead increment the appropriate queue lock count
 171:Source/queue.c ****  * to indicate that a task may require unblocking.  When the queue in unlocked
 172:Source/queue.c ****  * these lock counts are inspected, and the appropriate action taken.
 173:Source/queue.c ****  */
 174:Source/queue.c **** static void prvUnlockQueue( Queue_t * const pxQueue ) PRIVILEGED_FUNCTION;
 175:Source/queue.c **** 
 176:Source/queue.c **** /*
 177:Source/queue.c ****  * Uses a critical section to determine if there is any data in a queue.
 178:Source/queue.c ****  *
 179:Source/queue.c ****  * @return pdTRUE if the queue contains no items, otherwise pdFALSE.
 180:Source/queue.c ****  */
 181:Source/queue.c **** static BaseType_t prvIsQueueEmpty( const Queue_t *pxQueue ) PRIVILEGED_FUNCTION;
 182:Source/queue.c **** 
 183:Source/queue.c **** /*
 184:Source/queue.c ****  * Uses a critical section to determine if there is any space in a queue.
 185:Source/queue.c ****  *
 186:Source/queue.c ****  * @return pdTRUE if there is no space, otherwise pdFALSE;
 187:Source/queue.c ****  */
 188:Source/queue.c **** static BaseType_t prvIsQueueFull( const Queue_t *pxQueue ) PRIVILEGED_FUNCTION;
 189:Source/queue.c **** 
 190:Source/queue.c **** /*
 191:Source/queue.c ****  * Copies an item into the queue, either at the front of the queue or the
 192:Source/queue.c ****  * back of the queue.
 193:Source/queue.c ****  */
 194:Source/queue.c **** static BaseType_t prvCopyDataToQueue( Queue_t * const pxQueue, const void *pvItemToQueue, const Bas
 195:Source/queue.c **** 
 196:Source/queue.c **** /*
 197:Source/queue.c ****  * Copies an item out of a queue.
 198:Source/queue.c ****  */
 199:Source/queue.c **** static void prvCopyDataFromQueue( Queue_t * const pxQueue, void * const pvBuffer ) PRIVILEGED_FUNCT
 200:Source/queue.c **** 
ARM GAS  C:\Users\Emil\AppData\Local\Temp\ccX3pjTY.s 			page 5


 201:Source/queue.c **** #if ( configUSE_QUEUE_SETS == 1 )
 202:Source/queue.c **** 	/*
 203:Source/queue.c **** 	 * Checks to see if a queue is a member of a queue set, and if so, notifies
 204:Source/queue.c **** 	 * the queue set that the queue contains data.
 205:Source/queue.c **** 	 */
 206:Source/queue.c **** 	static BaseType_t prvNotifyQueueSetContainer( const Queue_t * const pxQueue ) PRIVILEGED_FUNCTION;
 207:Source/queue.c **** #endif
 208:Source/queue.c **** 
 209:Source/queue.c **** /*
 210:Source/queue.c ****  * Called after a Queue_t structure has been allocated either statically or
 211:Source/queue.c ****  * dynamically to fill in the structure's members.
 212:Source/queue.c ****  */
 213:Source/queue.c **** static void prvInitialiseNewQueue( const UBaseType_t uxQueueLength, const UBaseType_t uxItemSize, u
 214:Source/queue.c **** 
 215:Source/queue.c **** /*
 216:Source/queue.c ****  * Mutexes are a special type of queue.  When a mutex is created, first the
 217:Source/queue.c ****  * queue is created, then prvInitialiseMutex() is called to configure the queue
 218:Source/queue.c ****  * as a mutex.
 219:Source/queue.c ****  */
 220:Source/queue.c **** #if( configUSE_MUTEXES == 1 )
 221:Source/queue.c **** 	static void prvInitialiseMutex( Queue_t *pxNewQueue ) PRIVILEGED_FUNCTION;
 222:Source/queue.c **** #endif
 223:Source/queue.c **** 
 224:Source/queue.c **** #if( configUSE_MUTEXES == 1 )
 225:Source/queue.c **** 	/*
 226:Source/queue.c **** 	 * If a task waiting for a mutex causes the mutex holder to inherit a
 227:Source/queue.c **** 	 * priority, but the waiting task times out, then the holder should
 228:Source/queue.c **** 	 * disinherit the priority - but only down to the highest priority of any
 229:Source/queue.c **** 	 * other tasks that are waiting for the same mutex.  This function returns
 230:Source/queue.c **** 	 * that priority.
 231:Source/queue.c **** 	 */
 232:Source/queue.c **** 	static UBaseType_t prvGetDisinheritPriorityAfterTimeout( const Queue_t * const pxQueue ) PRIVILEGE
 233:Source/queue.c **** #endif
 234:Source/queue.c **** /*-----------------------------------------------------------*/
 235:Source/queue.c **** 
 236:Source/queue.c **** /*
 237:Source/queue.c ****  * Macro to mark a queue as locked.  Locking a queue prevents an ISR from
 238:Source/queue.c ****  * accessing the queue event lists.
 239:Source/queue.c ****  */
 240:Source/queue.c **** #define prvLockQueue( pxQueue )								\
 241:Source/queue.c **** 	taskENTER_CRITICAL();									\
 242:Source/queue.c **** 	{														\
 243:Source/queue.c **** 		if( ( pxQueue )->cRxLock == queueUNLOCKED )			\
 244:Source/queue.c **** 		{													\
 245:Source/queue.c **** 			( pxQueue )->cRxLock = queueLOCKED_UNMODIFIED;	\
 246:Source/queue.c **** 		}													\
 247:Source/queue.c **** 		if( ( pxQueue )->cTxLock == queueUNLOCKED )			\
 248:Source/queue.c **** 		{													\
 249:Source/queue.c **** 			( pxQueue )->cTxLock = queueLOCKED_UNMODIFIED;	\
 250:Source/queue.c **** 		}													\
 251:Source/queue.c **** 	}														\
 252:Source/queue.c **** 	taskEXIT_CRITICAL()
 253:Source/queue.c **** /*-----------------------------------------------------------*/
 254:Source/queue.c **** 
 255:Source/queue.c **** BaseType_t xQueueGenericReset( QueueHandle_t xQueue, BaseType_t xNewQueue )
 256:Source/queue.c **** {
  29              		.loc 1 256 0
ARM GAS  C:\Users\Emil\AppData\Local\Temp\ccX3pjTY.s 			page 6


  30              		.cfi_startproc
  31              		@ args = 0, pretend = 0, frame = 16
  32              		@ frame_needed = 1, uses_anonymous_args = 0
  33 0000 80B5     		push	{r7, lr}
  34              		.cfi_def_cfa_offset 8
  35              		.cfi_offset 7, -8
  36              		.cfi_offset 14, -4
  37 0002 84B0     		sub	sp, sp, #16
  38              		.cfi_def_cfa_offset 24
  39 0004 00AF     		add	r7, sp, #0
  40              		.cfi_def_cfa_register 7
  41 0006 7860     		str	r0, [r7, #4]
  42 0008 3960     		str	r1, [r7]
 257:Source/queue.c **** Queue_t * const pxQueue = xQueue;
  43              		.loc 1 257 0
  44 000a 7B68     		ldr	r3, [r7, #4]
  45 000c FB60     		str	r3, [r7, #12]
 258:Source/queue.c **** 
 259:Source/queue.c **** 	configASSERT( pxQueue );
 260:Source/queue.c **** 
 261:Source/queue.c **** 	taskENTER_CRITICAL();
  46              		.loc 1 261 0
  47 000e FFF7FEFF 		bl	vPortEnterCritical
 262:Source/queue.c **** 	{
 263:Source/queue.c **** 		pxQueue->u.xQueue.pcTail = pxQueue->pcHead + ( pxQueue->uxLength * pxQueue->uxItemSize ); /*lint 
  48              		.loc 1 263 0
  49 0012 FB68     		ldr	r3, [r7, #12]
  50 0014 1A68     		ldr	r2, [r3]
  51 0016 FB68     		ldr	r3, [r7, #12]
  52 0018 DB6B     		ldr	r3, [r3, #60]
  53 001a F968     		ldr	r1, [r7, #12]
  54 001c 096C     		ldr	r1, [r1, #64]
  55 001e 01FB03F3 		mul	r3, r1, r3
  56 0022 1A44     		add	r2, r2, r3
  57 0024 FB68     		ldr	r3, [r7, #12]
  58 0026 9A60     		str	r2, [r3, #8]
 264:Source/queue.c **** 		pxQueue->uxMessagesWaiting = ( UBaseType_t ) 0U;
  59              		.loc 1 264 0
  60 0028 FB68     		ldr	r3, [r7, #12]
  61 002a 0022     		movs	r2, #0
  62 002c 9A63     		str	r2, [r3, #56]
 265:Source/queue.c **** 		pxQueue->pcWriteTo = pxQueue->pcHead;
  63              		.loc 1 265 0
  64 002e FB68     		ldr	r3, [r7, #12]
  65 0030 1A68     		ldr	r2, [r3]
  66 0032 FB68     		ldr	r3, [r7, #12]
  67 0034 5A60     		str	r2, [r3, #4]
 266:Source/queue.c **** 		pxQueue->u.xQueue.pcReadFrom = pxQueue->pcHead + ( ( pxQueue->uxLength - 1U ) * pxQueue->uxItemSi
  68              		.loc 1 266 0
  69 0036 FB68     		ldr	r3, [r7, #12]
  70 0038 1A68     		ldr	r2, [r3]
  71 003a FB68     		ldr	r3, [r7, #12]
  72 003c DB6B     		ldr	r3, [r3, #60]
  73 003e 013B     		subs	r3, r3, #1
  74 0040 F968     		ldr	r1, [r7, #12]
  75 0042 096C     		ldr	r1, [r1, #64]
  76 0044 01FB03F3 		mul	r3, r1, r3
ARM GAS  C:\Users\Emil\AppData\Local\Temp\ccX3pjTY.s 			page 7


  77 0048 1A44     		add	r2, r2, r3
  78 004a FB68     		ldr	r3, [r7, #12]
  79 004c DA60     		str	r2, [r3, #12]
 267:Source/queue.c **** 		pxQueue->cRxLock = queueUNLOCKED;
  80              		.loc 1 267 0
  81 004e FB68     		ldr	r3, [r7, #12]
  82 0050 FF22     		movs	r2, #255
  83 0052 83F84420 		strb	r2, [r3, #68]
 268:Source/queue.c **** 		pxQueue->cTxLock = queueUNLOCKED;
  84              		.loc 1 268 0
  85 0056 FB68     		ldr	r3, [r7, #12]
  86 0058 FF22     		movs	r2, #255
  87 005a 83F84520 		strb	r2, [r3, #69]
 269:Source/queue.c **** 
 270:Source/queue.c **** 		if( xNewQueue == pdFALSE )
  88              		.loc 1 270 0
  89 005e 3B68     		ldr	r3, [r7]
  90 0060 002B     		cmp	r3, #0
  91 0062 14D1     		bne	.L2
 271:Source/queue.c **** 		{
 272:Source/queue.c **** 			/* If there are tasks blocked waiting to read from the queue, then
 273:Source/queue.c **** 			the tasks will remain blocked as after this function exits the queue
 274:Source/queue.c **** 			will still be empty.  If there are tasks blocked waiting to write to
 275:Source/queue.c **** 			the queue, then one should be unblocked as after this function exits
 276:Source/queue.c **** 			it will be possible to write to it. */
 277:Source/queue.c **** 			if( listLIST_IS_EMPTY( &( pxQueue->xTasksWaitingToSend ) ) == pdFALSE )
  92              		.loc 1 277 0
  93 0064 FB68     		ldr	r3, [r7, #12]
  94 0066 1B69     		ldr	r3, [r3, #16]
  95 0068 002B     		cmp	r3, #0
  96 006a 1AD0     		beq	.L3
 278:Source/queue.c **** 			{
 279:Source/queue.c **** 				if( xTaskRemoveFromEventList( &( pxQueue->xTasksWaitingToSend ) ) != pdFALSE )
  97              		.loc 1 279 0
  98 006c FB68     		ldr	r3, [r7, #12]
  99 006e 1033     		adds	r3, r3, #16
 100 0070 1846     		mov	r0, r3
 101 0072 FFF7FEFF 		bl	xTaskRemoveFromEventList
 102 0076 0346     		mov	r3, r0
 103 0078 002B     		cmp	r3, #0
 104 007a 12D0     		beq	.L3
 280:Source/queue.c **** 				{
 281:Source/queue.c **** 					queueYIELD_IF_USING_PREEMPTION();
 105              		.loc 1 281 0
 106 007c 0C4B     		ldr	r3, .L5
 107 007e 4FF08052 		mov	r2, #268435456
 108 0082 1A60     		str	r2, [r3]
 109              		.syntax unified
 110              	@ 281 "Source\queue.c" 1
 111 0084 BFF34F8F 		dsb
 112              	@ 0 "" 2
 113              	@ 281 "Source\queue.c" 1
 114 0088 BFF36F8F 		isb
 115              	@ 0 "" 2
 116              		.thumb
 117              		.syntax unified
 118 008c 09E0     		b	.L3
ARM GAS  C:\Users\Emil\AppData\Local\Temp\ccX3pjTY.s 			page 8


 119              	.L2:
 282:Source/queue.c **** 				}
 283:Source/queue.c **** 				else
 284:Source/queue.c **** 				{
 285:Source/queue.c **** 					mtCOVERAGE_TEST_MARKER();
 286:Source/queue.c **** 				}
 287:Source/queue.c **** 			}
 288:Source/queue.c **** 			else
 289:Source/queue.c **** 			{
 290:Source/queue.c **** 				mtCOVERAGE_TEST_MARKER();
 291:Source/queue.c **** 			}
 292:Source/queue.c **** 		}
 293:Source/queue.c **** 		else
 294:Source/queue.c **** 		{
 295:Source/queue.c **** 			/* Ensure the event queues start in the correct state. */
 296:Source/queue.c **** 			vListInitialise( &( pxQueue->xTasksWaitingToSend ) );
 120              		.loc 1 296 0
 121 008e FB68     		ldr	r3, [r7, #12]
 122 0090 1033     		adds	r3, r3, #16
 123 0092 1846     		mov	r0, r3
 124 0094 FFF7FEFF 		bl	vListInitialise
 297:Source/queue.c **** 			vListInitialise( &( pxQueue->xTasksWaitingToReceive ) );
 125              		.loc 1 297 0
 126 0098 FB68     		ldr	r3, [r7, #12]
 127 009a 2433     		adds	r3, r3, #36
 128 009c 1846     		mov	r0, r3
 129 009e FFF7FEFF 		bl	vListInitialise
 130              	.L3:
 298:Source/queue.c **** 		}
 299:Source/queue.c **** 	}
 300:Source/queue.c **** 	taskEXIT_CRITICAL();
 131              		.loc 1 300 0
 132 00a2 FFF7FEFF 		bl	vPortExitCritical
 301:Source/queue.c **** 
 302:Source/queue.c **** 	/* A value is returned for calling semantic consistency with previous
 303:Source/queue.c **** 	versions. */
 304:Source/queue.c **** 	return pdPASS;
 133              		.loc 1 304 0
 134 00a6 0123     		movs	r3, #1
 305:Source/queue.c **** }
 135              		.loc 1 305 0
 136 00a8 1846     		mov	r0, r3
 137 00aa 1037     		adds	r7, r7, #16
 138              		.cfi_def_cfa_offset 8
 139 00ac BD46     		mov	sp, r7
 140              		.cfi_def_cfa_register 13
 141              		@ sp needed
 142 00ae 80BD     		pop	{r7, pc}
 143              	.L6:
 144              		.align	2
 145              	.L5:
 146 00b0 04ED00E0 		.word	-536810236
 147              		.cfi_endproc
 148              	.LFE68:
 149              		.size	xQueueGenericReset, .-xQueueGenericReset
 150              		.section	.text.xQueueGenericCreate,"ax",%progbits
 151              		.align	2
ARM GAS  C:\Users\Emil\AppData\Local\Temp\ccX3pjTY.s 			page 9


 152              		.global	xQueueGenericCreate
 153              		.thumb
 154              		.thumb_func
 155              		.type	xQueueGenericCreate, %function
 156              	xQueueGenericCreate:
 157              	.LFB69:
 306:Source/queue.c **** /*-----------------------------------------------------------*/
 307:Source/queue.c **** 
 308:Source/queue.c **** #if( configSUPPORT_STATIC_ALLOCATION == 1 )
 309:Source/queue.c **** 
 310:Source/queue.c **** 	QueueHandle_t xQueueGenericCreateStatic( const UBaseType_t uxQueueLength, const UBaseType_t uxItem
 311:Source/queue.c **** 	{
 312:Source/queue.c **** 	Queue_t *pxNewQueue;
 313:Source/queue.c **** 
 314:Source/queue.c **** 		configASSERT( uxQueueLength > ( UBaseType_t ) 0 );
 315:Source/queue.c **** 
 316:Source/queue.c **** 		/* The StaticQueue_t structure and the queue storage area must be
 317:Source/queue.c **** 		supplied. */
 318:Source/queue.c **** 		configASSERT( pxStaticQueue != NULL );
 319:Source/queue.c **** 
 320:Source/queue.c **** 		/* A queue storage area should be provided if the item size is not 0, and
 321:Source/queue.c **** 		should not be provided if the item size is 0. */
 322:Source/queue.c **** 		configASSERT( !( ( pucQueueStorage != NULL ) && ( uxItemSize == 0 ) ) );
 323:Source/queue.c **** 		configASSERT( !( ( pucQueueStorage == NULL ) && ( uxItemSize != 0 ) ) );
 324:Source/queue.c **** 
 325:Source/queue.c **** 		#if( configASSERT_DEFINED == 1 )
 326:Source/queue.c **** 		{
 327:Source/queue.c **** 			/* Sanity check that the size of the structure used to declare a
 328:Source/queue.c **** 			variable of type StaticQueue_t or StaticSemaphore_t equals the size of
 329:Source/queue.c **** 			the real queue and semaphore structures. */
 330:Source/queue.c **** 			volatile size_t xSize = sizeof( StaticQueue_t );
 331:Source/queue.c **** 			configASSERT( xSize == sizeof( Queue_t ) );
 332:Source/queue.c **** 			( void ) xSize; /* Keeps lint quiet when configASSERT() is not defined. */
 333:Source/queue.c **** 		}
 334:Source/queue.c **** 		#endif /* configASSERT_DEFINED */
 335:Source/queue.c **** 
 336:Source/queue.c **** 		/* The address of a statically allocated queue was passed in, use it.
 337:Source/queue.c **** 		The address of a statically allocated storage area was also passed in
 338:Source/queue.c **** 		but is already set. */
 339:Source/queue.c **** 		pxNewQueue = ( Queue_t * ) pxStaticQueue; /*lint !e740 !e9087 Unusual cast is ok as the structure
 340:Source/queue.c **** 
 341:Source/queue.c **** 		if( pxNewQueue != NULL )
 342:Source/queue.c **** 		{
 343:Source/queue.c **** 			#if( configSUPPORT_DYNAMIC_ALLOCATION == 1 )
 344:Source/queue.c **** 			{
 345:Source/queue.c **** 				/* Queues can be allocated wither statically or dynamically, so
 346:Source/queue.c **** 				note this queue was allocated statically in case the queue is
 347:Source/queue.c **** 				later deleted. */
 348:Source/queue.c **** 				pxNewQueue->ucStaticallyAllocated = pdTRUE;
 349:Source/queue.c **** 			}
 350:Source/queue.c **** 			#endif /* configSUPPORT_DYNAMIC_ALLOCATION */
 351:Source/queue.c **** 
 352:Source/queue.c **** 			prvInitialiseNewQueue( uxQueueLength, uxItemSize, pucQueueStorage, ucQueueType, pxNewQueue );
 353:Source/queue.c **** 		}
 354:Source/queue.c **** 		else
 355:Source/queue.c **** 		{
 356:Source/queue.c **** 			traceQUEUE_CREATE_FAILED( ucQueueType );
ARM GAS  C:\Users\Emil\AppData\Local\Temp\ccX3pjTY.s 			page 10


 357:Source/queue.c **** 			mtCOVERAGE_TEST_MARKER();
 358:Source/queue.c **** 		}
 359:Source/queue.c **** 
 360:Source/queue.c **** 		return pxNewQueue;
 361:Source/queue.c **** 	}
 362:Source/queue.c **** 
 363:Source/queue.c **** #endif /* configSUPPORT_STATIC_ALLOCATION */
 364:Source/queue.c **** /*-----------------------------------------------------------*/
 365:Source/queue.c **** 
 366:Source/queue.c **** #if( configSUPPORT_DYNAMIC_ALLOCATION == 1 )
 367:Source/queue.c **** 
 368:Source/queue.c **** 	QueueHandle_t xQueueGenericCreate( const UBaseType_t uxQueueLength, const UBaseType_t uxItemSize, 
 369:Source/queue.c **** 	{
 158              		.loc 1 369 0
 159              		.cfi_startproc
 160              		@ args = 0, pretend = 0, frame = 32
 161              		@ frame_needed = 1, uses_anonymous_args = 0
 162 0000 80B5     		push	{r7, lr}
 163              		.cfi_def_cfa_offset 8
 164              		.cfi_offset 7, -8
 165              		.cfi_offset 14, -4
 166 0002 8AB0     		sub	sp, sp, #40
 167              		.cfi_def_cfa_offset 48
 168 0004 02AF     		add	r7, sp, #8
 169              		.cfi_def_cfa 7, 40
 170 0006 F860     		str	r0, [r7, #12]
 171 0008 B960     		str	r1, [r7, #8]
 172 000a 1346     		mov	r3, r2
 173 000c FB71     		strb	r3, [r7, #7]
 370:Source/queue.c **** 	Queue_t *pxNewQueue;
 371:Source/queue.c **** 	size_t xQueueSizeInBytes;
 372:Source/queue.c **** 	uint8_t *pucQueueStorage;
 373:Source/queue.c **** 
 374:Source/queue.c **** 		configASSERT( uxQueueLength > ( UBaseType_t ) 0 );
 375:Source/queue.c **** 
 376:Source/queue.c **** 		/* Allocate enough space to hold the maximum number of items that
 377:Source/queue.c **** 		can be in the queue at any time.  It is valid for uxItemSize to be
 378:Source/queue.c **** 		zero in the case the queue is used as a semaphore. */
 379:Source/queue.c **** 		xQueueSizeInBytes = ( size_t ) ( uxQueueLength * uxItemSize ); /*lint !e961 MISRA exception as th
 174              		.loc 1 379 0
 175 000e FB68     		ldr	r3, [r7, #12]
 176 0010 BA68     		ldr	r2, [r7, #8]
 177 0012 02FB03F3 		mul	r3, r2, r3
 178 0016 FB61     		str	r3, [r7, #28]
 380:Source/queue.c **** 
 381:Source/queue.c **** 		/* Allocate the queue and storage area.  Justification for MISRA
 382:Source/queue.c **** 		deviation as follows:  pvPortMalloc() always ensures returned memory
 383:Source/queue.c **** 		blocks are aligned per the requirements of the MCU stack.  In this case
 384:Source/queue.c **** 		pvPortMalloc() must return a pointer that is guaranteed to meet the
 385:Source/queue.c **** 		alignment requirements of the Queue_t structure - which in this case
 386:Source/queue.c **** 		is an int8_t *.  Therefore, whenever the stack alignment requirements
 387:Source/queue.c **** 		are greater than or equal to the pointer to char requirements the cast
 388:Source/queue.c **** 		is safe.  In other cases alignment requirements are not strict (one or
 389:Source/queue.c **** 		two bytes). */
 390:Source/queue.c **** 		pxNewQueue = ( Queue_t * ) pvPortMalloc( sizeof( Queue_t ) + xQueueSizeInBytes ); /*lint !e9087 !
 179              		.loc 1 390 0
 180 0018 FB69     		ldr	r3, [r7, #28]
ARM GAS  C:\Users\Emil\AppData\Local\Temp\ccX3pjTY.s 			page 11


 181 001a 4833     		adds	r3, r3, #72
 182 001c 1846     		mov	r0, r3
 183 001e FFF7FEFF 		bl	pvPortMalloc
 184 0022 B861     		str	r0, [r7, #24]
 391:Source/queue.c **** 
 392:Source/queue.c **** 		if( pxNewQueue != NULL )
 185              		.loc 1 392 0
 186 0024 BB69     		ldr	r3, [r7, #24]
 187 0026 002B     		cmp	r3, #0
 188 0028 0DD0     		beq	.L8
 393:Source/queue.c **** 		{
 394:Source/queue.c **** 			/* Jump past the queue structure to find the location of the queue
 395:Source/queue.c **** 			storage area. */
 396:Source/queue.c **** 			pucQueueStorage = ( uint8_t * ) pxNewQueue;
 189              		.loc 1 396 0
 190 002a BB69     		ldr	r3, [r7, #24]
 191 002c 7B61     		str	r3, [r7, #20]
 397:Source/queue.c **** 			pucQueueStorage += sizeof( Queue_t ); /*lint !e9016 Pointer arithmetic allowed on char types, es
 192              		.loc 1 397 0
 193 002e 7B69     		ldr	r3, [r7, #20]
 194 0030 4833     		adds	r3, r3, #72
 195 0032 7B61     		str	r3, [r7, #20]
 398:Source/queue.c **** 
 399:Source/queue.c **** 			#if( configSUPPORT_STATIC_ALLOCATION == 1 )
 400:Source/queue.c **** 			{
 401:Source/queue.c **** 				/* Queues can be created either statically or dynamically, so
 402:Source/queue.c **** 				note this task was created dynamically in case it is later
 403:Source/queue.c **** 				deleted. */
 404:Source/queue.c **** 				pxNewQueue->ucStaticallyAllocated = pdFALSE;
 405:Source/queue.c **** 			}
 406:Source/queue.c **** 			#endif /* configSUPPORT_STATIC_ALLOCATION */
 407:Source/queue.c **** 
 408:Source/queue.c **** 			prvInitialiseNewQueue( uxQueueLength, uxItemSize, pucQueueStorage, ucQueueType, pxNewQueue );
 196              		.loc 1 408 0
 197 0034 FA79     		ldrb	r2, [r7, #7]	@ zero_extendqisi2
 198 0036 BB69     		ldr	r3, [r7, #24]
 199 0038 0093     		str	r3, [sp]
 200 003a 1346     		mov	r3, r2
 201 003c 7A69     		ldr	r2, [r7, #20]
 202 003e B968     		ldr	r1, [r7, #8]
 203 0040 F868     		ldr	r0, [r7, #12]
 204 0042 FFF7FEFF 		bl	prvInitialiseNewQueue
 205              	.L8:
 409:Source/queue.c **** 		}
 410:Source/queue.c **** 		else
 411:Source/queue.c **** 		{
 412:Source/queue.c **** 			traceQUEUE_CREATE_FAILED( ucQueueType );
 413:Source/queue.c **** 			mtCOVERAGE_TEST_MARKER();
 414:Source/queue.c **** 		}
 415:Source/queue.c **** 
 416:Source/queue.c **** 		return pxNewQueue;
 206              		.loc 1 416 0
 207 0046 BB69     		ldr	r3, [r7, #24]
 417:Source/queue.c **** 	}
 208              		.loc 1 417 0
 209 0048 1846     		mov	r0, r3
 210 004a 2037     		adds	r7, r7, #32
ARM GAS  C:\Users\Emil\AppData\Local\Temp\ccX3pjTY.s 			page 12


 211              		.cfi_def_cfa_offset 8
 212 004c BD46     		mov	sp, r7
 213              		.cfi_def_cfa_register 13
 214              		@ sp needed
 215 004e 80BD     		pop	{r7, pc}
 216              		.cfi_endproc
 217              	.LFE69:
 218              		.size	xQueueGenericCreate, .-xQueueGenericCreate
 219              		.section	.text.prvInitialiseNewQueue,"ax",%progbits
 220              		.align	2
 221              		.thumb
 222              		.thumb_func
 223              		.type	prvInitialiseNewQueue, %function
 224              	prvInitialiseNewQueue:
 225              	.LFB70:
 418:Source/queue.c **** 
 419:Source/queue.c **** #endif /* configSUPPORT_STATIC_ALLOCATION */
 420:Source/queue.c **** /*-----------------------------------------------------------*/
 421:Source/queue.c **** 
 422:Source/queue.c **** static void prvInitialiseNewQueue( const UBaseType_t uxQueueLength, const UBaseType_t uxItemSize, u
 423:Source/queue.c **** {
 226              		.loc 1 423 0
 227              		.cfi_startproc
 228              		@ args = 4, pretend = 0, frame = 16
 229              		@ frame_needed = 1, uses_anonymous_args = 0
 230 0000 80B5     		push	{r7, lr}
 231              		.cfi_def_cfa_offset 8
 232              		.cfi_offset 7, -8
 233              		.cfi_offset 14, -4
 234 0002 84B0     		sub	sp, sp, #16
 235              		.cfi_def_cfa_offset 24
 236 0004 00AF     		add	r7, sp, #0
 237              		.cfi_def_cfa_register 7
 238 0006 F860     		str	r0, [r7, #12]
 239 0008 B960     		str	r1, [r7, #8]
 240 000a 7A60     		str	r2, [r7, #4]
 241 000c FB70     		strb	r3, [r7, #3]
 424:Source/queue.c **** 	/* Remove compiler warnings about unused parameters should
 425:Source/queue.c **** 	configUSE_TRACE_FACILITY not be set to 1. */
 426:Source/queue.c **** 	( void ) ucQueueType;
 427:Source/queue.c **** 
 428:Source/queue.c **** 	if( uxItemSize == ( UBaseType_t ) 0 )
 242              		.loc 1 428 0
 243 000e BB68     		ldr	r3, [r7, #8]
 244 0010 002B     		cmp	r3, #0
 245 0012 03D1     		bne	.L11
 429:Source/queue.c **** 	{
 430:Source/queue.c **** 		/* No RAM was allocated for the queue storage area, but PC head cannot
 431:Source/queue.c **** 		be set to NULL because NULL is used as a key to say the queue is used as
 432:Source/queue.c **** 		a mutex.  Therefore just set pcHead to point to the queue as a benign
 433:Source/queue.c **** 		value that is known to be within the memory map. */
 434:Source/queue.c **** 		pxNewQueue->pcHead = ( int8_t * ) pxNewQueue;
 246              		.loc 1 434 0
 247 0014 BB69     		ldr	r3, [r7, #24]
 248 0016 BA69     		ldr	r2, [r7, #24]
 249 0018 1A60     		str	r2, [r3]
 250 001a 02E0     		b	.L12
ARM GAS  C:\Users\Emil\AppData\Local\Temp\ccX3pjTY.s 			page 13


 251              	.L11:
 435:Source/queue.c **** 	}
 436:Source/queue.c **** 	else
 437:Source/queue.c **** 	{
 438:Source/queue.c **** 		/* Set the head to the start of the queue storage area. */
 439:Source/queue.c **** 		pxNewQueue->pcHead = ( int8_t * ) pucQueueStorage;
 252              		.loc 1 439 0
 253 001c BB69     		ldr	r3, [r7, #24]
 254 001e 7A68     		ldr	r2, [r7, #4]
 255 0020 1A60     		str	r2, [r3]
 256              	.L12:
 440:Source/queue.c **** 	}
 441:Source/queue.c **** 
 442:Source/queue.c **** 	/* Initialise the queue members as described where the queue type is
 443:Source/queue.c **** 	defined. */
 444:Source/queue.c **** 	pxNewQueue->uxLength = uxQueueLength;
 257              		.loc 1 444 0
 258 0022 BB69     		ldr	r3, [r7, #24]
 259 0024 FA68     		ldr	r2, [r7, #12]
 260 0026 DA63     		str	r2, [r3, #60]
 445:Source/queue.c **** 	pxNewQueue->uxItemSize = uxItemSize;
 261              		.loc 1 445 0
 262 0028 BB69     		ldr	r3, [r7, #24]
 263 002a BA68     		ldr	r2, [r7, #8]
 264 002c 1A64     		str	r2, [r3, #64]
 446:Source/queue.c **** 	( void ) xQueueGenericReset( pxNewQueue, pdTRUE );
 265              		.loc 1 446 0
 266 002e 0121     		movs	r1, #1
 267 0030 B869     		ldr	r0, [r7, #24]
 268 0032 FFF7FEFF 		bl	xQueueGenericReset
 447:Source/queue.c **** 
 448:Source/queue.c **** 	#if ( configUSE_TRACE_FACILITY == 1 )
 449:Source/queue.c **** 	{
 450:Source/queue.c **** 		pxNewQueue->ucQueueType = ucQueueType;
 451:Source/queue.c **** 	}
 452:Source/queue.c **** 	#endif /* configUSE_TRACE_FACILITY */
 453:Source/queue.c **** 
 454:Source/queue.c **** 	#if( configUSE_QUEUE_SETS == 1 )
 455:Source/queue.c **** 	{
 456:Source/queue.c **** 		pxNewQueue->pxQueueSetContainer = NULL;
 457:Source/queue.c **** 	}
 458:Source/queue.c **** 	#endif /* configUSE_QUEUE_SETS */
 459:Source/queue.c **** 
 460:Source/queue.c **** 	traceQUEUE_CREATE( pxNewQueue );
 461:Source/queue.c **** }
 269              		.loc 1 461 0
 270 0036 00BF     		nop
 271 0038 1037     		adds	r7, r7, #16
 272              		.cfi_def_cfa_offset 8
 273 003a BD46     		mov	sp, r7
 274              		.cfi_def_cfa_register 13
 275              		@ sp needed
 276 003c 80BD     		pop	{r7, pc}
 277              		.cfi_endproc
 278              	.LFE70:
 279              		.size	prvInitialiseNewQueue, .-prvInitialiseNewQueue
 280 003e 00BF     		.section	.text.prvInitialiseMutex,"ax",%progbits
ARM GAS  C:\Users\Emil\AppData\Local\Temp\ccX3pjTY.s 			page 14


 281              		.align	2
 282              		.thumb
 283              		.thumb_func
 284              		.type	prvInitialiseMutex, %function
 285              	prvInitialiseMutex:
 286              	.LFB71:
 462:Source/queue.c **** /*-----------------------------------------------------------*/
 463:Source/queue.c **** 
 464:Source/queue.c **** #if( configUSE_MUTEXES == 1 )
 465:Source/queue.c **** 
 466:Source/queue.c **** 	static void prvInitialiseMutex( Queue_t *pxNewQueue )
 467:Source/queue.c **** 	{
 287              		.loc 1 467 0
 288              		.cfi_startproc
 289              		@ args = 0, pretend = 0, frame = 8
 290              		@ frame_needed = 1, uses_anonymous_args = 0
 291 0000 80B5     		push	{r7, lr}
 292              		.cfi_def_cfa_offset 8
 293              		.cfi_offset 7, -8
 294              		.cfi_offset 14, -4
 295 0002 82B0     		sub	sp, sp, #8
 296              		.cfi_def_cfa_offset 16
 297 0004 00AF     		add	r7, sp, #0
 298              		.cfi_def_cfa_register 7
 299 0006 7860     		str	r0, [r7, #4]
 468:Source/queue.c **** 		if( pxNewQueue != NULL )
 300              		.loc 1 468 0
 301 0008 7B68     		ldr	r3, [r7, #4]
 302 000a 002B     		cmp	r3, #0
 303 000c 0ED0     		beq	.L15
 469:Source/queue.c **** 		{
 470:Source/queue.c **** 			/* The queue create function will set all the queue structure members
 471:Source/queue.c **** 			correctly for a generic queue, but this function is creating a
 472:Source/queue.c **** 			mutex.  Overwrite those members that need to be set differently -
 473:Source/queue.c **** 			in particular the information required for priority inheritance. */
 474:Source/queue.c **** 			pxNewQueue->u.xSemaphore.xMutexHolder = NULL;
 304              		.loc 1 474 0
 305 000e 7B68     		ldr	r3, [r7, #4]
 306 0010 0022     		movs	r2, #0
 307 0012 9A60     		str	r2, [r3, #8]
 475:Source/queue.c **** 			pxNewQueue->uxQueueType = queueQUEUE_IS_MUTEX;
 308              		.loc 1 475 0
 309 0014 7B68     		ldr	r3, [r7, #4]
 310 0016 0022     		movs	r2, #0
 311 0018 1A60     		str	r2, [r3]
 476:Source/queue.c **** 
 477:Source/queue.c **** 			/* In case this is a recursive mutex. */
 478:Source/queue.c **** 			pxNewQueue->u.xSemaphore.uxRecursiveCallCount = 0;
 312              		.loc 1 478 0
 313 001a 7B68     		ldr	r3, [r7, #4]
 314 001c 0022     		movs	r2, #0
 315 001e DA60     		str	r2, [r3, #12]
 479:Source/queue.c **** 
 480:Source/queue.c **** 			traceCREATE_MUTEX( pxNewQueue );
 481:Source/queue.c **** 
 482:Source/queue.c **** 			/* Start with the semaphore in the expected state. */
 483:Source/queue.c **** 			( void ) xQueueGenericSend( pxNewQueue, NULL, ( TickType_t ) 0U, queueSEND_TO_BACK );
ARM GAS  C:\Users\Emil\AppData\Local\Temp\ccX3pjTY.s 			page 15


 316              		.loc 1 483 0
 317 0020 0023     		movs	r3, #0
 318 0022 0022     		movs	r2, #0
 319 0024 0021     		movs	r1, #0
 320 0026 7868     		ldr	r0, [r7, #4]
 321 0028 FFF7FEFF 		bl	xQueueGenericSend
 322              	.L15:
 484:Source/queue.c **** 		}
 485:Source/queue.c **** 		else
 486:Source/queue.c **** 		{
 487:Source/queue.c **** 			traceCREATE_MUTEX_FAILED();
 488:Source/queue.c **** 		}
 489:Source/queue.c **** 	}
 323              		.loc 1 489 0
 324 002c 00BF     		nop
 325 002e 0837     		adds	r7, r7, #8
 326              		.cfi_def_cfa_offset 8
 327 0030 BD46     		mov	sp, r7
 328              		.cfi_def_cfa_register 13
 329              		@ sp needed
 330 0032 80BD     		pop	{r7, pc}
 331              		.cfi_endproc
 332              	.LFE71:
 333              		.size	prvInitialiseMutex, .-prvInitialiseMutex
 334              		.section	.text.xQueueCreateMutex,"ax",%progbits
 335              		.align	2
 336              		.global	xQueueCreateMutex
 337              		.thumb
 338              		.thumb_func
 339              		.type	xQueueCreateMutex, %function
 340              	xQueueCreateMutex:
 341              	.LFB72:
 490:Source/queue.c **** 
 491:Source/queue.c **** #endif /* configUSE_MUTEXES */
 492:Source/queue.c **** /*-----------------------------------------------------------*/
 493:Source/queue.c **** 
 494:Source/queue.c **** #if( ( configUSE_MUTEXES == 1 ) && ( configSUPPORT_DYNAMIC_ALLOCATION == 1 ) )
 495:Source/queue.c **** 
 496:Source/queue.c **** 	QueueHandle_t xQueueCreateMutex( const uint8_t ucQueueType )
 497:Source/queue.c **** 	{
 342              		.loc 1 497 0
 343              		.cfi_startproc
 344              		@ args = 0, pretend = 0, frame = 24
 345              		@ frame_needed = 1, uses_anonymous_args = 0
 346 0000 80B5     		push	{r7, lr}
 347              		.cfi_def_cfa_offset 8
 348              		.cfi_offset 7, -8
 349              		.cfi_offset 14, -4
 350 0002 86B0     		sub	sp, sp, #24
 351              		.cfi_def_cfa_offset 32
 352 0004 00AF     		add	r7, sp, #0
 353              		.cfi_def_cfa_register 7
 354 0006 0346     		mov	r3, r0
 355 0008 FB71     		strb	r3, [r7, #7]
 498:Source/queue.c **** 	QueueHandle_t xNewQueue;
 499:Source/queue.c **** 	const UBaseType_t uxMutexLength = ( UBaseType_t ) 1, uxMutexSize = ( UBaseType_t ) 0;
 356              		.loc 1 499 0
ARM GAS  C:\Users\Emil\AppData\Local\Temp\ccX3pjTY.s 			page 16


 357 000a 0123     		movs	r3, #1
 358 000c 7B61     		str	r3, [r7, #20]
 359 000e 0023     		movs	r3, #0
 360 0010 3B61     		str	r3, [r7, #16]
 500:Source/queue.c **** 
 501:Source/queue.c **** 		xNewQueue = xQueueGenericCreate( uxMutexLength, uxMutexSize, ucQueueType );
 361              		.loc 1 501 0
 362 0012 FB79     		ldrb	r3, [r7, #7]	@ zero_extendqisi2
 363 0014 1A46     		mov	r2, r3
 364 0016 3969     		ldr	r1, [r7, #16]
 365 0018 7869     		ldr	r0, [r7, #20]
 366 001a FFF7FEFF 		bl	xQueueGenericCreate
 367 001e F860     		str	r0, [r7, #12]
 502:Source/queue.c **** 		prvInitialiseMutex( ( Queue_t * ) xNewQueue );
 368              		.loc 1 502 0
 369 0020 F868     		ldr	r0, [r7, #12]
 370 0022 FFF7FEFF 		bl	prvInitialiseMutex
 503:Source/queue.c **** 
 504:Source/queue.c **** 		return xNewQueue;
 371              		.loc 1 504 0
 372 0026 FB68     		ldr	r3, [r7, #12]
 505:Source/queue.c **** 	}
 373              		.loc 1 505 0
 374 0028 1846     		mov	r0, r3
 375 002a 1837     		adds	r7, r7, #24
 376              		.cfi_def_cfa_offset 8
 377 002c BD46     		mov	sp, r7
 378              		.cfi_def_cfa_register 13
 379              		@ sp needed
 380 002e 80BD     		pop	{r7, pc}
 381              		.cfi_endproc
 382              	.LFE72:
 383              		.size	xQueueCreateMutex, .-xQueueCreateMutex
 384              		.section	.text.xQueueGiveMutexRecursive,"ax",%progbits
 385              		.align	2
 386              		.global	xQueueGiveMutexRecursive
 387              		.thumb
 388              		.thumb_func
 389              		.type	xQueueGiveMutexRecursive, %function
 390              	xQueueGiveMutexRecursive:
 391              	.LFB73:
 506:Source/queue.c **** 
 507:Source/queue.c **** #endif /* configUSE_MUTEXES */
 508:Source/queue.c **** /*-----------------------------------------------------------*/
 509:Source/queue.c **** 
 510:Source/queue.c **** #if( ( configUSE_MUTEXES == 1 ) && ( configSUPPORT_STATIC_ALLOCATION == 1 ) )
 511:Source/queue.c **** 
 512:Source/queue.c **** 	QueueHandle_t xQueueCreateMutexStatic( const uint8_t ucQueueType, StaticQueue_t *pxStaticQueue )
 513:Source/queue.c **** 	{
 514:Source/queue.c **** 	QueueHandle_t xNewQueue;
 515:Source/queue.c **** 	const UBaseType_t uxMutexLength = ( UBaseType_t ) 1, uxMutexSize = ( UBaseType_t ) 0;
 516:Source/queue.c **** 
 517:Source/queue.c **** 		/* Prevent compiler warnings about unused parameters if
 518:Source/queue.c **** 		configUSE_TRACE_FACILITY does not equal 1. */
 519:Source/queue.c **** 		( void ) ucQueueType;
 520:Source/queue.c **** 
 521:Source/queue.c **** 		xNewQueue = xQueueGenericCreateStatic( uxMutexLength, uxMutexSize, NULL, pxStaticQueue, ucQueueTy
ARM GAS  C:\Users\Emil\AppData\Local\Temp\ccX3pjTY.s 			page 17


 522:Source/queue.c **** 		prvInitialiseMutex( ( Queue_t * ) xNewQueue );
 523:Source/queue.c **** 
 524:Source/queue.c **** 		return xNewQueue;
 525:Source/queue.c **** 	}
 526:Source/queue.c **** 
 527:Source/queue.c **** #endif /* configUSE_MUTEXES */
 528:Source/queue.c **** /*-----------------------------------------------------------*/
 529:Source/queue.c **** 
 530:Source/queue.c **** #if ( ( configUSE_MUTEXES == 1 ) && ( INCLUDE_xSemaphoreGetMutexHolder == 1 ) )
 531:Source/queue.c **** 
 532:Source/queue.c **** 	TaskHandle_t xQueueGetMutexHolder( QueueHandle_t xSemaphore )
 533:Source/queue.c **** 	{
 534:Source/queue.c **** 	TaskHandle_t pxReturn;
 535:Source/queue.c **** 	Queue_t * const pxSemaphore = ( Queue_t * ) xSemaphore;
 536:Source/queue.c **** 
 537:Source/queue.c **** 		/* This function is called by xSemaphoreGetMutexHolder(), and should not
 538:Source/queue.c **** 		be called directly.  Note:  This is a good way of determining if the
 539:Source/queue.c **** 		calling task is the mutex holder, but not a good way of determining the
 540:Source/queue.c **** 		identity of the mutex holder, as the holder may change between the
 541:Source/queue.c **** 		following critical section exiting and the function returning. */
 542:Source/queue.c **** 		taskENTER_CRITICAL();
 543:Source/queue.c **** 		{
 544:Source/queue.c **** 			if( pxSemaphore->uxQueueType == queueQUEUE_IS_MUTEX )
 545:Source/queue.c **** 			{
 546:Source/queue.c **** 				pxReturn = pxSemaphore->u.xSemaphore.xMutexHolder;
 547:Source/queue.c **** 			}
 548:Source/queue.c **** 			else
 549:Source/queue.c **** 			{
 550:Source/queue.c **** 				pxReturn = NULL;
 551:Source/queue.c **** 			}
 552:Source/queue.c **** 		}
 553:Source/queue.c **** 		taskEXIT_CRITICAL();
 554:Source/queue.c **** 
 555:Source/queue.c **** 		return pxReturn;
 556:Source/queue.c **** 	} /*lint !e818 xSemaphore cannot be a pointer to const because it is a typedef. */
 557:Source/queue.c **** 
 558:Source/queue.c **** #endif
 559:Source/queue.c **** /*-----------------------------------------------------------*/
 560:Source/queue.c **** 
 561:Source/queue.c **** #if ( ( configUSE_MUTEXES == 1 ) && ( INCLUDE_xSemaphoreGetMutexHolder == 1 ) )
 562:Source/queue.c **** 
 563:Source/queue.c **** 	TaskHandle_t xQueueGetMutexHolderFromISR( QueueHandle_t xSemaphore )
 564:Source/queue.c **** 	{
 565:Source/queue.c **** 	TaskHandle_t pxReturn;
 566:Source/queue.c **** 
 567:Source/queue.c **** 		configASSERT( xSemaphore );
 568:Source/queue.c **** 
 569:Source/queue.c **** 		/* Mutexes cannot be used in interrupt service routines, so the mutex
 570:Source/queue.c **** 		holder should not change in an ISR, and therefore a critical section is
 571:Source/queue.c **** 		not required here. */
 572:Source/queue.c **** 		if( ( ( Queue_t * ) xSemaphore )->uxQueueType == queueQUEUE_IS_MUTEX )
 573:Source/queue.c **** 		{
 574:Source/queue.c **** 			pxReturn = ( ( Queue_t * ) xSemaphore )->u.xSemaphore.xMutexHolder;
 575:Source/queue.c **** 		}
 576:Source/queue.c **** 		else
 577:Source/queue.c **** 		{
 578:Source/queue.c **** 			pxReturn = NULL;
ARM GAS  C:\Users\Emil\AppData\Local\Temp\ccX3pjTY.s 			page 18


 579:Source/queue.c **** 		}
 580:Source/queue.c **** 
 581:Source/queue.c **** 		return pxReturn;
 582:Source/queue.c **** 	} /*lint !e818 xSemaphore cannot be a pointer to const because it is a typedef. */
 583:Source/queue.c **** 
 584:Source/queue.c **** #endif
 585:Source/queue.c **** /*-----------------------------------------------------------*/
 586:Source/queue.c **** 
 587:Source/queue.c **** #if ( configUSE_RECURSIVE_MUTEXES == 1 )
 588:Source/queue.c **** 
 589:Source/queue.c **** 	BaseType_t xQueueGiveMutexRecursive( QueueHandle_t xMutex )
 590:Source/queue.c **** 	{
 392              		.loc 1 590 0
 393              		.cfi_startproc
 394              		@ args = 0, pretend = 0, frame = 16
 395              		@ frame_needed = 1, uses_anonymous_args = 0
 396 0000 90B5     		push	{r4, r7, lr}
 397              		.cfi_def_cfa_offset 12
 398              		.cfi_offset 4, -12
 399              		.cfi_offset 7, -8
 400              		.cfi_offset 14, -4
 401 0002 85B0     		sub	sp, sp, #20
 402              		.cfi_def_cfa_offset 32
 403 0004 00AF     		add	r7, sp, #0
 404              		.cfi_def_cfa_register 7
 405 0006 7860     		str	r0, [r7, #4]
 591:Source/queue.c **** 	BaseType_t xReturn;
 592:Source/queue.c **** 	Queue_t * const pxMutex = ( Queue_t * ) xMutex;
 406              		.loc 1 592 0
 407 0008 7B68     		ldr	r3, [r7, #4]
 408 000a BB60     		str	r3, [r7, #8]
 593:Source/queue.c **** 
 594:Source/queue.c **** 		configASSERT( pxMutex );
 595:Source/queue.c **** 
 596:Source/queue.c **** 		/* If this is the task that holds the mutex then xMutexHolder will not
 597:Source/queue.c **** 		change outside of this task.  If this task does not hold the mutex then
 598:Source/queue.c **** 		pxMutexHolder can never coincidentally equal the tasks handle, and as
 599:Source/queue.c **** 		this is the only condition we are interested in it does not matter if
 600:Source/queue.c **** 		pxMutexHolder is accessed simultaneously by another task.  Therefore no
 601:Source/queue.c **** 		mutual exclusion is required to test the pxMutexHolder variable. */
 602:Source/queue.c **** 		if( pxMutex->u.xSemaphore.xMutexHolder == xTaskGetCurrentTaskHandle() )
 409              		.loc 1 602 0
 410 000c BB68     		ldr	r3, [r7, #8]
 411 000e 9C68     		ldr	r4, [r3, #8]
 412 0010 FFF7FEFF 		bl	xTaskGetCurrentTaskHandle
 413 0014 0346     		mov	r3, r0
 414 0016 9C42     		cmp	r4, r3
 415 0018 11D1     		bne	.L19
 603:Source/queue.c **** 		{
 604:Source/queue.c **** 			traceGIVE_MUTEX_RECURSIVE( pxMutex );
 605:Source/queue.c **** 
 606:Source/queue.c **** 			/* uxRecursiveCallCount cannot be zero if xMutexHolder is equal to
 607:Source/queue.c **** 			the task handle, therefore no underflow check is required.  Also,
 608:Source/queue.c **** 			uxRecursiveCallCount is only modified by the mutex holder, and as
 609:Source/queue.c **** 			there can only be one, no mutual exclusion is required to modify the
 610:Source/queue.c **** 			uxRecursiveCallCount member. */
 611:Source/queue.c **** 			( pxMutex->u.xSemaphore.uxRecursiveCallCount )--;
ARM GAS  C:\Users\Emil\AppData\Local\Temp\ccX3pjTY.s 			page 19


 416              		.loc 1 611 0
 417 001a BB68     		ldr	r3, [r7, #8]
 418 001c DB68     		ldr	r3, [r3, #12]
 419 001e 5A1E     		subs	r2, r3, #1
 420 0020 BB68     		ldr	r3, [r7, #8]
 421 0022 DA60     		str	r2, [r3, #12]
 612:Source/queue.c **** 
 613:Source/queue.c **** 			/* Has the recursive call count unwound to 0? */
 614:Source/queue.c **** 			if( pxMutex->u.xSemaphore.uxRecursiveCallCount == ( UBaseType_t ) 0 )
 422              		.loc 1 614 0
 423 0024 BB68     		ldr	r3, [r7, #8]
 424 0026 DB68     		ldr	r3, [r3, #12]
 425 0028 002B     		cmp	r3, #0
 426 002a 05D1     		bne	.L20
 615:Source/queue.c **** 			{
 616:Source/queue.c **** 				/* Return the mutex.  This will automatically unblock any other
 617:Source/queue.c **** 				task that might be waiting to access the mutex. */
 618:Source/queue.c **** 				( void ) xQueueGenericSend( pxMutex, NULL, queueMUTEX_GIVE_BLOCK_TIME, queueSEND_TO_BACK );
 427              		.loc 1 618 0
 428 002c 0023     		movs	r3, #0
 429 002e 0022     		movs	r2, #0
 430 0030 0021     		movs	r1, #0
 431 0032 B868     		ldr	r0, [r7, #8]
 432 0034 FFF7FEFF 		bl	xQueueGenericSend
 433              	.L20:
 619:Source/queue.c **** 			}
 620:Source/queue.c **** 			else
 621:Source/queue.c **** 			{
 622:Source/queue.c **** 				mtCOVERAGE_TEST_MARKER();
 623:Source/queue.c **** 			}
 624:Source/queue.c **** 
 625:Source/queue.c **** 			xReturn = pdPASS;
 434              		.loc 1 625 0
 435 0038 0123     		movs	r3, #1
 436 003a FB60     		str	r3, [r7, #12]
 437 003c 01E0     		b	.L21
 438              	.L19:
 626:Source/queue.c **** 		}
 627:Source/queue.c **** 		else
 628:Source/queue.c **** 		{
 629:Source/queue.c **** 			/* The mutex cannot be given because the calling task is not the
 630:Source/queue.c **** 			holder. */
 631:Source/queue.c **** 			xReturn = pdFAIL;
 439              		.loc 1 631 0
 440 003e 0023     		movs	r3, #0
 441 0040 FB60     		str	r3, [r7, #12]
 442              	.L21:
 632:Source/queue.c **** 
 633:Source/queue.c **** 			traceGIVE_MUTEX_RECURSIVE_FAILED( pxMutex );
 634:Source/queue.c **** 		}
 635:Source/queue.c **** 
 636:Source/queue.c **** 		return xReturn;
 443              		.loc 1 636 0
 444 0042 FB68     		ldr	r3, [r7, #12]
 637:Source/queue.c **** 	}
 445              		.loc 1 637 0
 446 0044 1846     		mov	r0, r3
ARM GAS  C:\Users\Emil\AppData\Local\Temp\ccX3pjTY.s 			page 20


 447 0046 1437     		adds	r7, r7, #20
 448              		.cfi_def_cfa_offset 12
 449 0048 BD46     		mov	sp, r7
 450              		.cfi_def_cfa_register 13
 451              		@ sp needed
 452 004a 90BD     		pop	{r4, r7, pc}
 453              		.cfi_endproc
 454              	.LFE73:
 455              		.size	xQueueGiveMutexRecursive, .-xQueueGiveMutexRecursive
 456              		.section	.text.xQueueTakeMutexRecursive,"ax",%progbits
 457              		.align	2
 458              		.global	xQueueTakeMutexRecursive
 459              		.thumb
 460              		.thumb_func
 461              		.type	xQueueTakeMutexRecursive, %function
 462              	xQueueTakeMutexRecursive:
 463              	.LFB74:
 638:Source/queue.c **** 
 639:Source/queue.c **** #endif /* configUSE_RECURSIVE_MUTEXES */
 640:Source/queue.c **** /*-----------------------------------------------------------*/
 641:Source/queue.c **** 
 642:Source/queue.c **** #if ( configUSE_RECURSIVE_MUTEXES == 1 )
 643:Source/queue.c **** 
 644:Source/queue.c **** 	BaseType_t xQueueTakeMutexRecursive( QueueHandle_t xMutex, TickType_t xTicksToWait )
 645:Source/queue.c **** 	{
 464              		.loc 1 645 0
 465              		.cfi_startproc
 466              		@ args = 0, pretend = 0, frame = 16
 467              		@ frame_needed = 1, uses_anonymous_args = 0
 468 0000 90B5     		push	{r4, r7, lr}
 469              		.cfi_def_cfa_offset 12
 470              		.cfi_offset 4, -12
 471              		.cfi_offset 7, -8
 472              		.cfi_offset 14, -4
 473 0002 85B0     		sub	sp, sp, #20
 474              		.cfi_def_cfa_offset 32
 475 0004 00AF     		add	r7, sp, #0
 476              		.cfi_def_cfa_register 7
 477 0006 7860     		str	r0, [r7, #4]
 478 0008 3960     		str	r1, [r7]
 646:Source/queue.c **** 	BaseType_t xReturn;
 647:Source/queue.c **** 	Queue_t * const pxMutex = ( Queue_t * ) xMutex;
 479              		.loc 1 647 0
 480 000a 7B68     		ldr	r3, [r7, #4]
 481 000c BB60     		str	r3, [r7, #8]
 648:Source/queue.c **** 
 649:Source/queue.c **** 		configASSERT( pxMutex );
 650:Source/queue.c **** 
 651:Source/queue.c **** 		/* Comments regarding mutual exclusion as per those within
 652:Source/queue.c **** 		xQueueGiveMutexRecursive(). */
 653:Source/queue.c **** 
 654:Source/queue.c **** 		traceTAKE_MUTEX_RECURSIVE( pxMutex );
 655:Source/queue.c **** 
 656:Source/queue.c **** 		if( pxMutex->u.xSemaphore.xMutexHolder == xTaskGetCurrentTaskHandle() )
 482              		.loc 1 656 0
 483 000e BB68     		ldr	r3, [r7, #8]
 484 0010 9C68     		ldr	r4, [r3, #8]
ARM GAS  C:\Users\Emil\AppData\Local\Temp\ccX3pjTY.s 			page 21


 485 0012 FFF7FEFF 		bl	xTaskGetCurrentTaskHandle
 486 0016 0346     		mov	r3, r0
 487 0018 9C42     		cmp	r4, r3
 488 001a 07D1     		bne	.L24
 657:Source/queue.c **** 		{
 658:Source/queue.c **** 			( pxMutex->u.xSemaphore.uxRecursiveCallCount )++;
 489              		.loc 1 658 0
 490 001c BB68     		ldr	r3, [r7, #8]
 491 001e DB68     		ldr	r3, [r3, #12]
 492 0020 5A1C     		adds	r2, r3, #1
 493 0022 BB68     		ldr	r3, [r7, #8]
 494 0024 DA60     		str	r2, [r3, #12]
 659:Source/queue.c **** 			xReturn = pdPASS;
 495              		.loc 1 659 0
 496 0026 0123     		movs	r3, #1
 497 0028 FB60     		str	r3, [r7, #12]
 498 002a 0CE0     		b	.L25
 499              	.L24:
 660:Source/queue.c **** 		}
 661:Source/queue.c **** 		else
 662:Source/queue.c **** 		{
 663:Source/queue.c **** 			xReturn = xQueueSemaphoreTake( pxMutex, xTicksToWait );
 500              		.loc 1 663 0
 501 002c 3968     		ldr	r1, [r7]
 502 002e B868     		ldr	r0, [r7, #8]
 503 0030 FFF7FEFF 		bl	xQueueSemaphoreTake
 504 0034 F860     		str	r0, [r7, #12]
 664:Source/queue.c **** 
 665:Source/queue.c **** 			/* pdPASS will only be returned if the mutex was successfully
 666:Source/queue.c **** 			obtained.  The calling task may have entered the Blocked state
 667:Source/queue.c **** 			before reaching here. */
 668:Source/queue.c **** 			if( xReturn != pdFAIL )
 505              		.loc 1 668 0
 506 0036 FB68     		ldr	r3, [r7, #12]
 507 0038 002B     		cmp	r3, #0
 508 003a 04D0     		beq	.L25
 669:Source/queue.c **** 			{
 670:Source/queue.c **** 				( pxMutex->u.xSemaphore.uxRecursiveCallCount )++;
 509              		.loc 1 670 0
 510 003c BB68     		ldr	r3, [r7, #8]
 511 003e DB68     		ldr	r3, [r3, #12]
 512 0040 5A1C     		adds	r2, r3, #1
 513 0042 BB68     		ldr	r3, [r7, #8]
 514 0044 DA60     		str	r2, [r3, #12]
 515              	.L25:
 671:Source/queue.c **** 			}
 672:Source/queue.c **** 			else
 673:Source/queue.c **** 			{
 674:Source/queue.c **** 				traceTAKE_MUTEX_RECURSIVE_FAILED( pxMutex );
 675:Source/queue.c **** 			}
 676:Source/queue.c **** 		}
 677:Source/queue.c **** 
 678:Source/queue.c **** 		return xReturn;
 516              		.loc 1 678 0
 517 0046 FB68     		ldr	r3, [r7, #12]
 679:Source/queue.c **** 	}
 518              		.loc 1 679 0
ARM GAS  C:\Users\Emil\AppData\Local\Temp\ccX3pjTY.s 			page 22


 519 0048 1846     		mov	r0, r3
 520 004a 1437     		adds	r7, r7, #20
 521              		.cfi_def_cfa_offset 12
 522 004c BD46     		mov	sp, r7
 523              		.cfi_def_cfa_register 13
 524              		@ sp needed
 525 004e 90BD     		pop	{r4, r7, pc}
 526              		.cfi_endproc
 527              	.LFE74:
 528              		.size	xQueueTakeMutexRecursive, .-xQueueTakeMutexRecursive
 529              		.section	.text.xQueueCreateCountingSemaphore,"ax",%progbits
 530              		.align	2
 531              		.global	xQueueCreateCountingSemaphore
 532              		.thumb
 533              		.thumb_func
 534              		.type	xQueueCreateCountingSemaphore, %function
 535              	xQueueCreateCountingSemaphore:
 536              	.LFB75:
 680:Source/queue.c **** 
 681:Source/queue.c **** #endif /* configUSE_RECURSIVE_MUTEXES */
 682:Source/queue.c **** /*-----------------------------------------------------------*/
 683:Source/queue.c **** 
 684:Source/queue.c **** #if( ( configUSE_COUNTING_SEMAPHORES == 1 ) && ( configSUPPORT_STATIC_ALLOCATION == 1 ) )
 685:Source/queue.c **** 
 686:Source/queue.c **** 	QueueHandle_t xQueueCreateCountingSemaphoreStatic( const UBaseType_t uxMaxCount, const UBaseType_t
 687:Source/queue.c **** 	{
 688:Source/queue.c **** 	QueueHandle_t xHandle;
 689:Source/queue.c **** 
 690:Source/queue.c **** 		configASSERT( uxMaxCount != 0 );
 691:Source/queue.c **** 		configASSERT( uxInitialCount <= uxMaxCount );
 692:Source/queue.c **** 
 693:Source/queue.c **** 		xHandle = xQueueGenericCreateStatic( uxMaxCount, queueSEMAPHORE_QUEUE_ITEM_LENGTH, NULL, pxStatic
 694:Source/queue.c **** 
 695:Source/queue.c **** 		if( xHandle != NULL )
 696:Source/queue.c **** 		{
 697:Source/queue.c **** 			( ( Queue_t * ) xHandle )->uxMessagesWaiting = uxInitialCount;
 698:Source/queue.c **** 
 699:Source/queue.c **** 			traceCREATE_COUNTING_SEMAPHORE();
 700:Source/queue.c **** 		}
 701:Source/queue.c **** 		else
 702:Source/queue.c **** 		{
 703:Source/queue.c **** 			traceCREATE_COUNTING_SEMAPHORE_FAILED();
 704:Source/queue.c **** 		}
 705:Source/queue.c **** 
 706:Source/queue.c **** 		return xHandle;
 707:Source/queue.c **** 	}
 708:Source/queue.c **** 
 709:Source/queue.c **** #endif /* ( ( configUSE_COUNTING_SEMAPHORES == 1 ) && ( configSUPPORT_DYNAMIC_ALLOCATION == 1 ) ) *
 710:Source/queue.c **** /*-----------------------------------------------------------*/
 711:Source/queue.c **** 
 712:Source/queue.c **** #if( ( configUSE_COUNTING_SEMAPHORES == 1 ) && ( configSUPPORT_DYNAMIC_ALLOCATION == 1 ) )
 713:Source/queue.c **** 
 714:Source/queue.c **** 	QueueHandle_t xQueueCreateCountingSemaphore( const UBaseType_t uxMaxCount, const UBaseType_t uxIni
 715:Source/queue.c **** 	{
 537              		.loc 1 715 0
 538              		.cfi_startproc
 539              		@ args = 0, pretend = 0, frame = 16
ARM GAS  C:\Users\Emil\AppData\Local\Temp\ccX3pjTY.s 			page 23


 540              		@ frame_needed = 1, uses_anonymous_args = 0
 541 0000 80B5     		push	{r7, lr}
 542              		.cfi_def_cfa_offset 8
 543              		.cfi_offset 7, -8
 544              		.cfi_offset 14, -4
 545 0002 84B0     		sub	sp, sp, #16
 546              		.cfi_def_cfa_offset 24
 547 0004 00AF     		add	r7, sp, #0
 548              		.cfi_def_cfa_register 7
 549 0006 7860     		str	r0, [r7, #4]
 550 0008 3960     		str	r1, [r7]
 716:Source/queue.c **** 	QueueHandle_t xHandle;
 717:Source/queue.c **** 
 718:Source/queue.c **** 		configASSERT( uxMaxCount != 0 );
 719:Source/queue.c **** 		configASSERT( uxInitialCount <= uxMaxCount );
 720:Source/queue.c **** 
 721:Source/queue.c **** 		xHandle = xQueueGenericCreate( uxMaxCount, queueSEMAPHORE_QUEUE_ITEM_LENGTH, queueQUEUE_TYPE_COUN
 551              		.loc 1 721 0
 552 000a 0222     		movs	r2, #2
 553 000c 0021     		movs	r1, #0
 554 000e 7868     		ldr	r0, [r7, #4]
 555 0010 FFF7FEFF 		bl	xQueueGenericCreate
 556 0014 F860     		str	r0, [r7, #12]
 722:Source/queue.c **** 
 723:Source/queue.c **** 		if( xHandle != NULL )
 557              		.loc 1 723 0
 558 0016 FB68     		ldr	r3, [r7, #12]
 559 0018 002B     		cmp	r3, #0
 560 001a 02D0     		beq	.L28
 724:Source/queue.c **** 		{
 725:Source/queue.c **** 			( ( Queue_t * ) xHandle )->uxMessagesWaiting = uxInitialCount;
 561              		.loc 1 725 0
 562 001c FB68     		ldr	r3, [r7, #12]
 563 001e 3A68     		ldr	r2, [r7]
 564 0020 9A63     		str	r2, [r3, #56]
 565              	.L28:
 726:Source/queue.c **** 
 727:Source/queue.c **** 			traceCREATE_COUNTING_SEMAPHORE();
 728:Source/queue.c **** 		}
 729:Source/queue.c **** 		else
 730:Source/queue.c **** 		{
 731:Source/queue.c **** 			traceCREATE_COUNTING_SEMAPHORE_FAILED();
 732:Source/queue.c **** 		}
 733:Source/queue.c **** 
 734:Source/queue.c **** 		return xHandle;
 566              		.loc 1 734 0
 567 0022 FB68     		ldr	r3, [r7, #12]
 735:Source/queue.c **** 	}
 568              		.loc 1 735 0
 569 0024 1846     		mov	r0, r3
 570 0026 1037     		adds	r7, r7, #16
 571              		.cfi_def_cfa_offset 8
 572 0028 BD46     		mov	sp, r7
 573              		.cfi_def_cfa_register 13
 574              		@ sp needed
 575 002a 80BD     		pop	{r7, pc}
 576              		.cfi_endproc
ARM GAS  C:\Users\Emil\AppData\Local\Temp\ccX3pjTY.s 			page 24


 577              	.LFE75:
 578              		.size	xQueueCreateCountingSemaphore, .-xQueueCreateCountingSemaphore
 579              		.section	.text.xQueueGenericSend,"ax",%progbits
 580              		.align	2
 581              		.global	xQueueGenericSend
 582              		.thumb
 583              		.thumb_func
 584              		.type	xQueueGenericSend, %function
 585              	xQueueGenericSend:
 586              	.LFB76:
 736:Source/queue.c **** 
 737:Source/queue.c **** #endif /* ( ( configUSE_COUNTING_SEMAPHORES == 1 ) && ( configSUPPORT_DYNAMIC_ALLOCATION == 1 ) ) *
 738:Source/queue.c **** /*-----------------------------------------------------------*/
 739:Source/queue.c **** 
 740:Source/queue.c **** BaseType_t xQueueGenericSend( QueueHandle_t xQueue, const void * const pvItemToQueue, TickType_t xT
 741:Source/queue.c **** {
 587              		.loc 1 741 0
 588              		.cfi_startproc
 589              		@ args = 0, pretend = 0, frame = 40
 590              		@ frame_needed = 1, uses_anonymous_args = 0
 591 0000 80B5     		push	{r7, lr}
 592              		.cfi_def_cfa_offset 8
 593              		.cfi_offset 7, -8
 594              		.cfi_offset 14, -4
 595 0002 8AB0     		sub	sp, sp, #40
 596              		.cfi_def_cfa_offset 48
 597 0004 00AF     		add	r7, sp, #0
 598              		.cfi_def_cfa_register 7
 599 0006 F860     		str	r0, [r7, #12]
 600 0008 B960     		str	r1, [r7, #8]
 601 000a 7A60     		str	r2, [r7, #4]
 602 000c 3B60     		str	r3, [r7]
 742:Source/queue.c **** BaseType_t xEntryTimeSet = pdFALSE, xYieldRequired;
 603              		.loc 1 742 0
 604 000e 0023     		movs	r3, #0
 605 0010 7B62     		str	r3, [r7, #36]
 743:Source/queue.c **** TimeOut_t xTimeOut;
 744:Source/queue.c **** Queue_t * const pxQueue = xQueue;
 606              		.loc 1 744 0
 607 0012 FB68     		ldr	r3, [r7, #12]
 608 0014 3B62     		str	r3, [r7, #32]
 609              	.L45:
 745:Source/queue.c **** 
 746:Source/queue.c **** 	configASSERT( pxQueue );
 747:Source/queue.c **** 	configASSERT( !( ( pvItemToQueue == NULL ) && ( pxQueue->uxItemSize != ( UBaseType_t ) 0U ) ) );
 748:Source/queue.c **** 	configASSERT( !( ( xCopyPosition == queueOVERWRITE ) && ( pxQueue->uxLength != 1 ) ) );
 749:Source/queue.c **** 	#if ( ( INCLUDE_xTaskGetSchedulerState == 1 ) || ( configUSE_TIMERS == 1 ) )
 750:Source/queue.c **** 	{
 751:Source/queue.c **** 		configASSERT( !( ( xTaskGetSchedulerState() == taskSCHEDULER_SUSPENDED ) && ( xTicksToWait != 0 )
 752:Source/queue.c **** 	}
 753:Source/queue.c **** 	#endif
 754:Source/queue.c **** 
 755:Source/queue.c **** 
 756:Source/queue.c **** 	/*lint -save -e904 This function relaxes the coding standard somewhat to
 757:Source/queue.c **** 	allow return statements within the function itself.  This is done in the
 758:Source/queue.c **** 	interest of execution time efficiency. */
 759:Source/queue.c **** 	for( ;; )
ARM GAS  C:\Users\Emil\AppData\Local\Temp\ccX3pjTY.s 			page 25


 760:Source/queue.c **** 	{
 761:Source/queue.c **** 		taskENTER_CRITICAL();
 610              		.loc 1 761 0
 611 0016 FFF7FEFF 		bl	vPortEnterCritical
 762:Source/queue.c **** 		{
 763:Source/queue.c **** 			/* Is there room on the queue now?  The running task must be the
 764:Source/queue.c **** 			highest priority task wanting to access the queue.  If the head item
 765:Source/queue.c **** 			in the queue is to be overwritten then it does not matter if the
 766:Source/queue.c **** 			queue is full. */
 767:Source/queue.c **** 			if( ( pxQueue->uxMessagesWaiting < pxQueue->uxLength ) || ( xCopyPosition == queueOVERWRITE ) )
 612              		.loc 1 767 0
 613 001a 3B6A     		ldr	r3, [r7, #32]
 614 001c 9A6B     		ldr	r2, [r3, #56]
 615 001e 3B6A     		ldr	r3, [r7, #32]
 616 0020 DB6B     		ldr	r3, [r3, #60]
 617 0022 9A42     		cmp	r2, r3
 618 0024 02D3     		bcc	.L31
 619              		.loc 1 767 0 is_stmt 0 discriminator 1
 620 0026 3B68     		ldr	r3, [r7]
 621 0028 022B     		cmp	r3, #2
 622 002a 29D1     		bne	.L32
 623              	.L31:
 768:Source/queue.c **** 			{
 769:Source/queue.c **** 				traceQUEUE_SEND( pxQueue );
 770:Source/queue.c **** 
 771:Source/queue.c **** 				#if ( configUSE_QUEUE_SETS == 1 )
 772:Source/queue.c **** 				{
 773:Source/queue.c **** 				const UBaseType_t uxPreviousMessagesWaiting = pxQueue->uxMessagesWaiting;
 774:Source/queue.c **** 
 775:Source/queue.c **** 					xYieldRequired = prvCopyDataToQueue( pxQueue, pvItemToQueue, xCopyPosition );
 776:Source/queue.c **** 
 777:Source/queue.c **** 					if( pxQueue->pxQueueSetContainer != NULL )
 778:Source/queue.c **** 					{
 779:Source/queue.c **** 						if( ( xCopyPosition == queueOVERWRITE ) && ( uxPreviousMessagesWaiting != ( UBaseType_t ) 0 )
 780:Source/queue.c **** 						{
 781:Source/queue.c **** 							/* Do not notify the queue set as an existing item
 782:Source/queue.c **** 							was overwritten in the queue so the number of items
 783:Source/queue.c **** 							in the queue has not changed. */
 784:Source/queue.c **** 							mtCOVERAGE_TEST_MARKER();
 785:Source/queue.c **** 						}
 786:Source/queue.c **** 						else if( prvNotifyQueueSetContainer( pxQueue ) != pdFALSE )
 787:Source/queue.c **** 						{
 788:Source/queue.c **** 							/* The queue is a member of a queue set, and posting
 789:Source/queue.c **** 							to the queue set caused a higher priority task to
 790:Source/queue.c **** 							unblock. A context switch is required. */
 791:Source/queue.c **** 							queueYIELD_IF_USING_PREEMPTION();
 792:Source/queue.c **** 						}
 793:Source/queue.c **** 						else
 794:Source/queue.c **** 						{
 795:Source/queue.c **** 							mtCOVERAGE_TEST_MARKER();
 796:Source/queue.c **** 						}
 797:Source/queue.c **** 					}
 798:Source/queue.c **** 					else
 799:Source/queue.c **** 					{
 800:Source/queue.c **** 						/* If there was a task waiting for data to arrive on the
 801:Source/queue.c **** 						queue then unblock it now. */
 802:Source/queue.c **** 						if( listLIST_IS_EMPTY( &( pxQueue->xTasksWaitingToReceive ) ) == pdFALSE )
ARM GAS  C:\Users\Emil\AppData\Local\Temp\ccX3pjTY.s 			page 26


 803:Source/queue.c **** 						{
 804:Source/queue.c **** 							if( xTaskRemoveFromEventList( &( pxQueue->xTasksWaitingToReceive ) ) != pdFALSE )
 805:Source/queue.c **** 							{
 806:Source/queue.c **** 								/* The unblocked task has a priority higher than
 807:Source/queue.c **** 								our own so yield immediately.  Yes it is ok to
 808:Source/queue.c **** 								do this from within the critical section - the
 809:Source/queue.c **** 								kernel takes care of that. */
 810:Source/queue.c **** 								queueYIELD_IF_USING_PREEMPTION();
 811:Source/queue.c **** 							}
 812:Source/queue.c **** 							else
 813:Source/queue.c **** 							{
 814:Source/queue.c **** 								mtCOVERAGE_TEST_MARKER();
 815:Source/queue.c **** 							}
 816:Source/queue.c **** 						}
 817:Source/queue.c **** 						else if( xYieldRequired != pdFALSE )
 818:Source/queue.c **** 						{
 819:Source/queue.c **** 							/* This path is a special case that will only get
 820:Source/queue.c **** 							executed if the task was holding multiple mutexes
 821:Source/queue.c **** 							and the mutexes were given back in an order that is
 822:Source/queue.c **** 							different to that in which they were taken. */
 823:Source/queue.c **** 							queueYIELD_IF_USING_PREEMPTION();
 824:Source/queue.c **** 						}
 825:Source/queue.c **** 						else
 826:Source/queue.c **** 						{
 827:Source/queue.c **** 							mtCOVERAGE_TEST_MARKER();
 828:Source/queue.c **** 						}
 829:Source/queue.c **** 					}
 830:Source/queue.c **** 				}
 831:Source/queue.c **** 				#else /* configUSE_QUEUE_SETS */
 832:Source/queue.c **** 				{
 833:Source/queue.c **** 					xYieldRequired = prvCopyDataToQueue( pxQueue, pvItemToQueue, xCopyPosition );
 624              		.loc 1 833 0 is_stmt 1
 625 002c 3A68     		ldr	r2, [r7]
 626 002e B968     		ldr	r1, [r7, #8]
 627 0030 386A     		ldr	r0, [r7, #32]
 628 0032 FFF7FEFF 		bl	prvCopyDataToQueue
 629 0036 F861     		str	r0, [r7, #28]
 834:Source/queue.c **** 
 835:Source/queue.c **** 					/* If there was a task waiting for data to arrive on the
 836:Source/queue.c **** 					queue then unblock it now. */
 837:Source/queue.c **** 					if( listLIST_IS_EMPTY( &( pxQueue->xTasksWaitingToReceive ) ) == pdFALSE )
 630              		.loc 1 837 0
 631 0038 3B6A     		ldr	r3, [r7, #32]
 632 003a 5B6A     		ldr	r3, [r3, #36]
 633 003c 002B     		cmp	r3, #0
 634 003e 10D0     		beq	.L33
 838:Source/queue.c **** 					{
 839:Source/queue.c **** 						if( xTaskRemoveFromEventList( &( pxQueue->xTasksWaitingToReceive ) ) != pdFALSE )
 635              		.loc 1 839 0
 636 0040 3B6A     		ldr	r3, [r7, #32]
 637 0042 2433     		adds	r3, r3, #36
 638 0044 1846     		mov	r0, r3
 639 0046 FFF7FEFF 		bl	xTaskRemoveFromEventList
 640 004a 0346     		mov	r3, r0
 641 004c 002B     		cmp	r3, #0
 642 004e 13D0     		beq	.L34
 840:Source/queue.c **** 						{
ARM GAS  C:\Users\Emil\AppData\Local\Temp\ccX3pjTY.s 			page 27


 841:Source/queue.c **** 							/* The unblocked task has a priority higher than
 842:Source/queue.c **** 							our own so yield immediately.  Yes it is ok to do
 843:Source/queue.c **** 							this from within the critical section - the kernel
 844:Source/queue.c **** 							takes care of that. */
 845:Source/queue.c **** 							queueYIELD_IF_USING_PREEMPTION();
 643              		.loc 1 845 0
 644 0050 3F4B     		ldr	r3, .L47
 645 0052 4FF08052 		mov	r2, #268435456
 646 0056 1A60     		str	r2, [r3]
 647              		.syntax unified
 648              	@ 845 "Source\queue.c" 1
 649 0058 BFF34F8F 		dsb
 650              	@ 0 "" 2
 651              	@ 845 "Source\queue.c" 1
 652 005c BFF36F8F 		isb
 653              	@ 0 "" 2
 654              		.thumb
 655              		.syntax unified
 656 0060 0AE0     		b	.L34
 657              	.L33:
 846:Source/queue.c **** 						}
 847:Source/queue.c **** 						else
 848:Source/queue.c **** 						{
 849:Source/queue.c **** 							mtCOVERAGE_TEST_MARKER();
 850:Source/queue.c **** 						}
 851:Source/queue.c **** 					}
 852:Source/queue.c **** 					else if( xYieldRequired != pdFALSE )
 658              		.loc 1 852 0
 659 0062 FB69     		ldr	r3, [r7, #28]
 660 0064 002B     		cmp	r3, #0
 661 0066 07D0     		beq	.L34
 853:Source/queue.c **** 					{
 854:Source/queue.c **** 						/* This path is a special case that will only get
 855:Source/queue.c **** 						executed if the task was holding multiple mutexes and
 856:Source/queue.c **** 						the mutexes were given back in an order that is
 857:Source/queue.c **** 						different to that in which they were taken. */
 858:Source/queue.c **** 						queueYIELD_IF_USING_PREEMPTION();
 662              		.loc 1 858 0
 663 0068 394B     		ldr	r3, .L47
 664 006a 4FF08052 		mov	r2, #268435456
 665 006e 1A60     		str	r2, [r3]
 666              		.syntax unified
 667              	@ 858 "Source\queue.c" 1
 668 0070 BFF34F8F 		dsb
 669              	@ 0 "" 2
 670              	@ 858 "Source\queue.c" 1
 671 0074 BFF36F8F 		isb
 672              	@ 0 "" 2
 673              		.thumb
 674              		.syntax unified
 675              	.L34:
 859:Source/queue.c **** 					}
 860:Source/queue.c **** 					else
 861:Source/queue.c **** 					{
 862:Source/queue.c **** 						mtCOVERAGE_TEST_MARKER();
 863:Source/queue.c **** 					}
 864:Source/queue.c **** 				}
ARM GAS  C:\Users\Emil\AppData\Local\Temp\ccX3pjTY.s 			page 28


 865:Source/queue.c **** 				#endif /* configUSE_QUEUE_SETS */
 866:Source/queue.c **** 
 867:Source/queue.c **** 				taskEXIT_CRITICAL();
 676              		.loc 1 867 0
 677 0078 FFF7FEFF 		bl	vPortExitCritical
 868:Source/queue.c **** 				return pdPASS;
 678              		.loc 1 868 0
 679 007c 0123     		movs	r3, #1
 680 007e 63E0     		b	.L46
 681              	.L32:
 869:Source/queue.c **** 			}
 870:Source/queue.c **** 			else
 871:Source/queue.c **** 			{
 872:Source/queue.c **** 				if( xTicksToWait == ( TickType_t ) 0 )
 682              		.loc 1 872 0
 683 0080 7B68     		ldr	r3, [r7, #4]
 684 0082 002B     		cmp	r3, #0
 685 0084 03D1     		bne	.L36
 873:Source/queue.c **** 				{
 874:Source/queue.c **** 					/* The queue was full and no block time is specified (or
 875:Source/queue.c **** 					the block time has expired) so leave now. */
 876:Source/queue.c **** 					taskEXIT_CRITICAL();
 686              		.loc 1 876 0
 687 0086 FFF7FEFF 		bl	vPortExitCritical
 877:Source/queue.c **** 
 878:Source/queue.c **** 					/* Return to the original privilege level before exiting
 879:Source/queue.c **** 					the function. */
 880:Source/queue.c **** 					traceQUEUE_SEND_FAILED( pxQueue );
 881:Source/queue.c **** 					return errQUEUE_FULL;
 688              		.loc 1 881 0
 689 008a 0023     		movs	r3, #0
 690 008c 5CE0     		b	.L46
 691              	.L36:
 882:Source/queue.c **** 				}
 883:Source/queue.c **** 				else if( xEntryTimeSet == pdFALSE )
 692              		.loc 1 883 0
 693 008e 7B6A     		ldr	r3, [r7, #36]
 694 0090 002B     		cmp	r3, #0
 695 0092 06D1     		bne	.L37
 884:Source/queue.c **** 				{
 885:Source/queue.c **** 					/* The queue was full and a block time was specified so
 886:Source/queue.c **** 					configure the timeout structure. */
 887:Source/queue.c **** 					vTaskInternalSetTimeOutState( &xTimeOut );
 696              		.loc 1 887 0
 697 0094 07F11403 		add	r3, r7, #20
 698 0098 1846     		mov	r0, r3
 699 009a FFF7FEFF 		bl	vTaskInternalSetTimeOutState
 888:Source/queue.c **** 					xEntryTimeSet = pdTRUE;
 700              		.loc 1 888 0
 701 009e 0123     		movs	r3, #1
 702 00a0 7B62     		str	r3, [r7, #36]
 703              	.L37:
 889:Source/queue.c **** 				}
 890:Source/queue.c **** 				else
 891:Source/queue.c **** 				{
 892:Source/queue.c **** 					/* Entry time was already set. */
 893:Source/queue.c **** 					mtCOVERAGE_TEST_MARKER();
ARM GAS  C:\Users\Emil\AppData\Local\Temp\ccX3pjTY.s 			page 29


 894:Source/queue.c **** 				}
 895:Source/queue.c **** 			}
 896:Source/queue.c **** 		}
 897:Source/queue.c **** 		taskEXIT_CRITICAL();
 704              		.loc 1 897 0
 705 00a2 FFF7FEFF 		bl	vPortExitCritical
 898:Source/queue.c **** 
 899:Source/queue.c **** 		/* Interrupts and other tasks can send to and receive from the queue
 900:Source/queue.c **** 		now the critical section has been exited. */
 901:Source/queue.c **** 
 902:Source/queue.c **** 		vTaskSuspendAll();
 706              		.loc 1 902 0
 707 00a6 FFF7FEFF 		bl	vTaskSuspendAll
 903:Source/queue.c **** 		prvLockQueue( pxQueue );
 708              		.loc 1 903 0
 709 00aa FFF7FEFF 		bl	vPortEnterCritical
 710 00ae 3B6A     		ldr	r3, [r7, #32]
 711 00b0 93F84430 		ldrb	r3, [r3, #68]
 712 00b4 5BB2     		sxtb	r3, r3
 713 00b6 B3F1FF3F 		cmp	r3, #-1
 714 00ba 03D1     		bne	.L38
 715              		.loc 1 903 0 is_stmt 0 discriminator 1
 716 00bc 3B6A     		ldr	r3, [r7, #32]
 717 00be 0022     		movs	r2, #0
 718 00c0 83F84420 		strb	r2, [r3, #68]
 719              	.L38:
 720              		.loc 1 903 0 discriminator 3
 721 00c4 3B6A     		ldr	r3, [r7, #32]
 722 00c6 93F84530 		ldrb	r3, [r3, #69]
 723 00ca 5BB2     		sxtb	r3, r3
 724 00cc B3F1FF3F 		cmp	r3, #-1
 725 00d0 03D1     		bne	.L39
 726              		.loc 1 903 0 discriminator 4
 727 00d2 3B6A     		ldr	r3, [r7, #32]
 728 00d4 0022     		movs	r2, #0
 729 00d6 83F84520 		strb	r2, [r3, #69]
 730              	.L39:
 731              		.loc 1 903 0 discriminator 6
 732 00da FFF7FEFF 		bl	vPortExitCritical
 904:Source/queue.c **** 
 905:Source/queue.c **** 		/* Update the timeout state to see if it has expired yet. */
 906:Source/queue.c **** 		if( xTaskCheckForTimeOut( &xTimeOut, &xTicksToWait ) == pdFALSE )
 733              		.loc 1 906 0 is_stmt 1 discriminator 6
 734 00de 3A1D     		adds	r2, r7, #4
 735 00e0 07F11403 		add	r3, r7, #20
 736 00e4 1146     		mov	r1, r2
 737 00e6 1846     		mov	r0, r3
 738 00e8 FFF7FEFF 		bl	xTaskCheckForTimeOut
 739 00ec 0346     		mov	r3, r0
 740 00ee 002B     		cmp	r3, #0
 741 00f0 24D1     		bne	.L40
 907:Source/queue.c **** 		{
 908:Source/queue.c **** 			if( prvIsQueueFull( pxQueue ) != pdFALSE )
 742              		.loc 1 908 0
 743 00f2 386A     		ldr	r0, [r7, #32]
 744 00f4 FFF7FEFF 		bl	prvIsQueueFull
 745 00f8 0346     		mov	r3, r0
ARM GAS  C:\Users\Emil\AppData\Local\Temp\ccX3pjTY.s 			page 30


 746 00fa 002B     		cmp	r3, #0
 747 00fc 18D0     		beq	.L41
 909:Source/queue.c **** 			{
 910:Source/queue.c **** 				traceBLOCKING_ON_QUEUE_SEND( pxQueue );
 911:Source/queue.c **** 				vTaskPlaceOnEventList( &( pxQueue->xTasksWaitingToSend ), xTicksToWait );
 748              		.loc 1 911 0
 749 00fe 3B6A     		ldr	r3, [r7, #32]
 750 0100 1033     		adds	r3, r3, #16
 751 0102 7A68     		ldr	r2, [r7, #4]
 752 0104 1146     		mov	r1, r2
 753 0106 1846     		mov	r0, r3
 754 0108 FFF7FEFF 		bl	vTaskPlaceOnEventList
 912:Source/queue.c **** 
 913:Source/queue.c **** 				/* Unlocking the queue means queue events can effect the
 914:Source/queue.c **** 				event list.  It is possible that interrupts occurring now
 915:Source/queue.c **** 				remove this task from the event list again - but as the
 916:Source/queue.c **** 				scheduler is suspended the task will go onto the pending
 917:Source/queue.c **** 				ready last instead of the actual ready list. */
 918:Source/queue.c **** 				prvUnlockQueue( pxQueue );
 755              		.loc 1 918 0
 756 010c 386A     		ldr	r0, [r7, #32]
 757 010e FFF7FEFF 		bl	prvUnlockQueue
 919:Source/queue.c **** 
 920:Source/queue.c **** 				/* Resuming the scheduler will move tasks from the pending
 921:Source/queue.c **** 				ready list into the ready list - so it is feasible that this
 922:Source/queue.c **** 				task is already in a ready list before it yields - in which
 923:Source/queue.c **** 				case the yield will not cause a context switch unless there
 924:Source/queue.c **** 				is also a higher priority task in the pending ready list. */
 925:Source/queue.c **** 				if( xTaskResumeAll() == pdFALSE )
 758              		.loc 1 925 0
 759 0112 FFF7FEFF 		bl	xTaskResumeAll
 760 0116 0346     		mov	r3, r0
 761 0118 002B     		cmp	r3, #0
 762 011a 7FF47CAF 		bne	.L45
 926:Source/queue.c **** 				{
 927:Source/queue.c **** 					portYIELD_WITHIN_API();
 763              		.loc 1 927 0
 764 011e 0C4B     		ldr	r3, .L47
 765 0120 4FF08052 		mov	r2, #268435456
 766 0124 1A60     		str	r2, [r3]
 767              		.syntax unified
 768              	@ 927 "Source\queue.c" 1
 769 0126 BFF34F8F 		dsb
 770              	@ 0 "" 2
 771              	@ 927 "Source\queue.c" 1
 772 012a BFF36F8F 		isb
 773              	@ 0 "" 2
 774              		.thumb
 775              		.syntax unified
 776 012e 72E7     		b	.L45
 777              	.L41:
 928:Source/queue.c **** 				}
 929:Source/queue.c **** 			}
 930:Source/queue.c **** 			else
 931:Source/queue.c **** 			{
 932:Source/queue.c **** 				/* Try again. */
 933:Source/queue.c **** 				prvUnlockQueue( pxQueue );
ARM GAS  C:\Users\Emil\AppData\Local\Temp\ccX3pjTY.s 			page 31


 778              		.loc 1 933 0
 779 0130 386A     		ldr	r0, [r7, #32]
 780 0132 FFF7FEFF 		bl	prvUnlockQueue
 934:Source/queue.c **** 				( void ) xTaskResumeAll();
 781              		.loc 1 934 0
 782 0136 FFF7FEFF 		bl	xTaskResumeAll
 783 013a 6CE7     		b	.L45
 784              	.L40:
 935:Source/queue.c **** 			}
 936:Source/queue.c **** 		}
 937:Source/queue.c **** 		else
 938:Source/queue.c **** 		{
 939:Source/queue.c **** 			/* The timeout has expired. */
 940:Source/queue.c **** 			prvUnlockQueue( pxQueue );
 785              		.loc 1 940 0
 786 013c 386A     		ldr	r0, [r7, #32]
 787 013e FFF7FEFF 		bl	prvUnlockQueue
 941:Source/queue.c **** 			( void ) xTaskResumeAll();
 788              		.loc 1 941 0
 789 0142 FFF7FEFF 		bl	xTaskResumeAll
 942:Source/queue.c **** 
 943:Source/queue.c **** 			traceQUEUE_SEND_FAILED( pxQueue );
 944:Source/queue.c **** 			return errQUEUE_FULL;
 790              		.loc 1 944 0
 791 0146 0023     		movs	r3, #0
 792              	.L46:
 945:Source/queue.c **** 		}
 946:Source/queue.c **** 	} /*lint -restore */
 947:Source/queue.c **** }
 793              		.loc 1 947 0 discriminator 3
 794 0148 1846     		mov	r0, r3
 795 014a 2837     		adds	r7, r7, #40
 796              		.cfi_def_cfa_offset 8
 797 014c BD46     		mov	sp, r7
 798              		.cfi_def_cfa_register 13
 799              		@ sp needed
 800 014e 80BD     		pop	{r7, pc}
 801              	.L48:
 802              		.align	2
 803              	.L47:
 804 0150 04ED00E0 		.word	-536810236
 805              		.cfi_endproc
 806              	.LFE76:
 807              		.size	xQueueGenericSend, .-xQueueGenericSend
 808              		.section	.text.xQueueGenericSendFromISR,"ax",%progbits
 809              		.align	2
 810              		.global	xQueueGenericSendFromISR
 811              		.thumb
 812              		.thumb_func
 813              		.type	xQueueGenericSendFromISR, %function
 814              	xQueueGenericSendFromISR:
 815              	.LFB77:
 948:Source/queue.c **** /*-----------------------------------------------------------*/
 949:Source/queue.c **** 
 950:Source/queue.c **** BaseType_t xQueueGenericSendFromISR( QueueHandle_t xQueue, const void * const pvItemToQueue, BaseTy
 951:Source/queue.c **** {
 816              		.loc 1 951 0
ARM GAS  C:\Users\Emil\AppData\Local\Temp\ccX3pjTY.s 			page 32


 817              		.cfi_startproc
 818              		@ args = 0, pretend = 0, frame = 48
 819              		@ frame_needed = 1, uses_anonymous_args = 0
 820 0000 80B5     		push	{r7, lr}
 821              		.cfi_def_cfa_offset 8
 822              		.cfi_offset 7, -8
 823              		.cfi_offset 14, -4
 824 0002 8CB0     		sub	sp, sp, #48
 825              		.cfi_def_cfa_offset 56
 826 0004 00AF     		add	r7, sp, #0
 827              		.cfi_def_cfa_register 7
 828 0006 F860     		str	r0, [r7, #12]
 829 0008 B960     		str	r1, [r7, #8]
 830 000a 7A60     		str	r2, [r7, #4]
 831 000c 3B60     		str	r3, [r7]
 952:Source/queue.c **** BaseType_t xReturn;
 953:Source/queue.c **** UBaseType_t uxSavedInterruptStatus;
 954:Source/queue.c **** Queue_t * const pxQueue = xQueue;
 832              		.loc 1 954 0
 833 000e FB68     		ldr	r3, [r7, #12]
 834 0010 BB62     		str	r3, [r7, #40]
 835              	.LBB23:
 836              	.LBB24:
 837              		.file 2 ".\\Source\\portable\\GCC\\ARM_CM3/portmacro.h"
   1:.\Source\portable\GCC\ARM_CM3/portmacro.h **** /*
   2:.\Source\portable\GCC\ARM_CM3/portmacro.h ****  * FreeRTOS Kernel V10.3.1
   3:.\Source\portable\GCC\ARM_CM3/portmacro.h ****  * Copyright (C) 2020 Amazon.com, Inc. or its affiliates.  All Rights Reserved.
   4:.\Source\portable\GCC\ARM_CM3/portmacro.h ****  *
   5:.\Source\portable\GCC\ARM_CM3/portmacro.h ****  * Permission is hereby granted, free of charge, to any person obtaining a copy of
   6:.\Source\portable\GCC\ARM_CM3/portmacro.h ****  * this software and associated documentation files (the "Software"), to deal in
   7:.\Source\portable\GCC\ARM_CM3/portmacro.h ****  * the Software without restriction, including without limitation the rights to
   8:.\Source\portable\GCC\ARM_CM3/portmacro.h ****  * use, copy, modify, merge, publish, distribute, sublicense, and/or sell copies of
   9:.\Source\portable\GCC\ARM_CM3/portmacro.h ****  * the Software, and to permit persons to whom the Software is furnished to do so,
  10:.\Source\portable\GCC\ARM_CM3/portmacro.h ****  * subject to the following conditions:
  11:.\Source\portable\GCC\ARM_CM3/portmacro.h ****  *
  12:.\Source\portable\GCC\ARM_CM3/portmacro.h ****  * The above copyright notice and this permission notice shall be included in all
  13:.\Source\portable\GCC\ARM_CM3/portmacro.h ****  * copies or substantial portions of the Software.
  14:.\Source\portable\GCC\ARM_CM3/portmacro.h ****  *
  15:.\Source\portable\GCC\ARM_CM3/portmacro.h ****  * THE SOFTWARE IS PROVIDED "AS IS", WITHOUT WARRANTY OF ANY KIND, EXPRESS OR
  16:.\Source\portable\GCC\ARM_CM3/portmacro.h ****  * IMPLIED, INCLUDING BUT NOT LIMITED TO THE WARRANTIES OF MERCHANTABILITY, FITNESS
  17:.\Source\portable\GCC\ARM_CM3/portmacro.h ****  * FOR A PARTICULAR PURPOSE AND NONINFRINGEMENT. IN NO EVENT SHALL THE AUTHORS OR
  18:.\Source\portable\GCC\ARM_CM3/portmacro.h ****  * COPYRIGHT HOLDERS BE LIABLE FOR ANY CLAIM, DAMAGES OR OTHER LIABILITY, WHETHER
  19:.\Source\portable\GCC\ARM_CM3/portmacro.h ****  * IN AN ACTION OF CONTRACT, TORT OR OTHERWISE, ARISING FROM, OUT OF OR IN
  20:.\Source\portable\GCC\ARM_CM3/portmacro.h ****  * CONNECTION WITH THE SOFTWARE OR THE USE OR OTHER DEALINGS IN THE SOFTWARE.
  21:.\Source\portable\GCC\ARM_CM3/portmacro.h ****  *
  22:.\Source\portable\GCC\ARM_CM3/portmacro.h ****  * http://www.FreeRTOS.org
  23:.\Source\portable\GCC\ARM_CM3/portmacro.h ****  * http://aws.amazon.com/freertos
  24:.\Source\portable\GCC\ARM_CM3/portmacro.h ****  *
  25:.\Source\portable\GCC\ARM_CM3/portmacro.h ****  * 1 tab == 4 spaces!
  26:.\Source\portable\GCC\ARM_CM3/portmacro.h ****  */
  27:.\Source\portable\GCC\ARM_CM3/portmacro.h **** 
  28:.\Source\portable\GCC\ARM_CM3/portmacro.h **** 
  29:.\Source\portable\GCC\ARM_CM3/portmacro.h **** #ifndef PORTMACRO_H
  30:.\Source\portable\GCC\ARM_CM3/portmacro.h **** #define PORTMACRO_H
  31:.\Source\portable\GCC\ARM_CM3/portmacro.h **** 
  32:.\Source\portable\GCC\ARM_CM3/portmacro.h **** #ifdef __cplusplus
  33:.\Source\portable\GCC\ARM_CM3/portmacro.h **** extern "C" {
ARM GAS  C:\Users\Emil\AppData\Local\Temp\ccX3pjTY.s 			page 33


  34:.\Source\portable\GCC\ARM_CM3/portmacro.h **** #endif
  35:.\Source\portable\GCC\ARM_CM3/portmacro.h **** 
  36:.\Source\portable\GCC\ARM_CM3/portmacro.h **** /*-----------------------------------------------------------
  37:.\Source\portable\GCC\ARM_CM3/portmacro.h ****  * Port specific definitions.
  38:.\Source\portable\GCC\ARM_CM3/portmacro.h ****  *
  39:.\Source\portable\GCC\ARM_CM3/portmacro.h ****  * The settings in this file configure FreeRTOS correctly for the
  40:.\Source\portable\GCC\ARM_CM3/portmacro.h ****  * given hardware and compiler.
  41:.\Source\portable\GCC\ARM_CM3/portmacro.h ****  *
  42:.\Source\portable\GCC\ARM_CM3/portmacro.h ****  * These settings should not be altered.
  43:.\Source\portable\GCC\ARM_CM3/portmacro.h ****  *-----------------------------------------------------------
  44:.\Source\portable\GCC\ARM_CM3/portmacro.h ****  */
  45:.\Source\portable\GCC\ARM_CM3/portmacro.h **** 
  46:.\Source\portable\GCC\ARM_CM3/portmacro.h **** /* Type definitions. */
  47:.\Source\portable\GCC\ARM_CM3/portmacro.h **** #define portCHAR		char
  48:.\Source\portable\GCC\ARM_CM3/portmacro.h **** #define portFLOAT		float
  49:.\Source\portable\GCC\ARM_CM3/portmacro.h **** #define portDOUBLE		double
  50:.\Source\portable\GCC\ARM_CM3/portmacro.h **** #define portLONG		long
  51:.\Source\portable\GCC\ARM_CM3/portmacro.h **** #define portSHORT		short
  52:.\Source\portable\GCC\ARM_CM3/portmacro.h **** #define portSTACK_TYPE	uint32_t
  53:.\Source\portable\GCC\ARM_CM3/portmacro.h **** #define portBASE_TYPE	long
  54:.\Source\portable\GCC\ARM_CM3/portmacro.h **** 
  55:.\Source\portable\GCC\ARM_CM3/portmacro.h **** typedef portSTACK_TYPE StackType_t;
  56:.\Source\portable\GCC\ARM_CM3/portmacro.h **** typedef long BaseType_t;
  57:.\Source\portable\GCC\ARM_CM3/portmacro.h **** typedef unsigned long UBaseType_t;
  58:.\Source\portable\GCC\ARM_CM3/portmacro.h **** 
  59:.\Source\portable\GCC\ARM_CM3/portmacro.h **** #if( configUSE_16_BIT_TICKS == 1 )
  60:.\Source\portable\GCC\ARM_CM3/portmacro.h **** 	typedef uint16_t TickType_t;
  61:.\Source\portable\GCC\ARM_CM3/portmacro.h **** 	#define portMAX_DELAY ( TickType_t ) 0xffff
  62:.\Source\portable\GCC\ARM_CM3/portmacro.h **** #else
  63:.\Source\portable\GCC\ARM_CM3/portmacro.h **** 	typedef uint32_t TickType_t;
  64:.\Source\portable\GCC\ARM_CM3/portmacro.h **** 	#define portMAX_DELAY ( TickType_t ) 0xffffffffUL
  65:.\Source\portable\GCC\ARM_CM3/portmacro.h **** 
  66:.\Source\portable\GCC\ARM_CM3/portmacro.h **** 	/* 32-bit tick type on a 32-bit architecture, so reads of the tick count do
  67:.\Source\portable\GCC\ARM_CM3/portmacro.h **** 	not need to be guarded with a critical section. */
  68:.\Source\portable\GCC\ARM_CM3/portmacro.h **** 	#define portTICK_TYPE_IS_ATOMIC 1
  69:.\Source\portable\GCC\ARM_CM3/portmacro.h **** #endif
  70:.\Source\portable\GCC\ARM_CM3/portmacro.h **** /*-----------------------------------------------------------*/
  71:.\Source\portable\GCC\ARM_CM3/portmacro.h **** 
  72:.\Source\portable\GCC\ARM_CM3/portmacro.h **** /* Architecture specifics. */
  73:.\Source\portable\GCC\ARM_CM3/portmacro.h **** #define portSTACK_GROWTH			( -1 )
  74:.\Source\portable\GCC\ARM_CM3/portmacro.h **** #define portTICK_PERIOD_MS			( ( TickType_t ) 1000 / configTICK_RATE_HZ )
  75:.\Source\portable\GCC\ARM_CM3/portmacro.h **** #define portBYTE_ALIGNMENT			8
  76:.\Source\portable\GCC\ARM_CM3/portmacro.h **** /*-----------------------------------------------------------*/
  77:.\Source\portable\GCC\ARM_CM3/portmacro.h **** 
  78:.\Source\portable\GCC\ARM_CM3/portmacro.h **** /* Scheduler utilities. */
  79:.\Source\portable\GCC\ARM_CM3/portmacro.h **** #define portYIELD() 															\
  80:.\Source\portable\GCC\ARM_CM3/portmacro.h **** {																				\
  81:.\Source\portable\GCC\ARM_CM3/portmacro.h **** 	/* Set a PendSV to request a context switch. */								\
  82:.\Source\portable\GCC\ARM_CM3/portmacro.h **** 	portNVIC_INT_CTRL_REG = portNVIC_PENDSVSET_BIT;								\
  83:.\Source\portable\GCC\ARM_CM3/portmacro.h **** 																				\
  84:.\Source\portable\GCC\ARM_CM3/portmacro.h **** 	/* Barriers are normally not required but do ensure the code is completely	\
  85:.\Source\portable\GCC\ARM_CM3/portmacro.h **** 	within the specified behaviour for the architecture. */						\
  86:.\Source\portable\GCC\ARM_CM3/portmacro.h **** 	__asm volatile( "dsb" ::: "memory" );										\
  87:.\Source\portable\GCC\ARM_CM3/portmacro.h **** 	__asm volatile( "isb" );													\
  88:.\Source\portable\GCC\ARM_CM3/portmacro.h **** }
  89:.\Source\portable\GCC\ARM_CM3/portmacro.h **** 
  90:.\Source\portable\GCC\ARM_CM3/portmacro.h **** #define portNVIC_INT_CTRL_REG		( * ( ( volatile uint32_t * ) 0xe000ed04 ) )
ARM GAS  C:\Users\Emil\AppData\Local\Temp\ccX3pjTY.s 			page 34


  91:.\Source\portable\GCC\ARM_CM3/portmacro.h **** #define portNVIC_PENDSVSET_BIT		( 1UL << 28UL )
  92:.\Source\portable\GCC\ARM_CM3/portmacro.h **** #define portEND_SWITCHING_ISR( xSwitchRequired ) if( xSwitchRequired != pdFALSE ) portYIELD()
  93:.\Source\portable\GCC\ARM_CM3/portmacro.h **** #define portYIELD_FROM_ISR( x ) portEND_SWITCHING_ISR( x )
  94:.\Source\portable\GCC\ARM_CM3/portmacro.h **** /*-----------------------------------------------------------*/
  95:.\Source\portable\GCC\ARM_CM3/portmacro.h **** 
  96:.\Source\portable\GCC\ARM_CM3/portmacro.h **** /* Critical section management. */
  97:.\Source\portable\GCC\ARM_CM3/portmacro.h **** extern void vPortEnterCritical( void );
  98:.\Source\portable\GCC\ARM_CM3/portmacro.h **** extern void vPortExitCritical( void );
  99:.\Source\portable\GCC\ARM_CM3/portmacro.h **** #define portSET_INTERRUPT_MASK_FROM_ISR()		ulPortRaiseBASEPRI()
 100:.\Source\portable\GCC\ARM_CM3/portmacro.h **** #define portCLEAR_INTERRUPT_MASK_FROM_ISR(x)	vPortSetBASEPRI(x)
 101:.\Source\portable\GCC\ARM_CM3/portmacro.h **** #define portDISABLE_INTERRUPTS()				vPortRaiseBASEPRI()
 102:.\Source\portable\GCC\ARM_CM3/portmacro.h **** #define portENABLE_INTERRUPTS()					vPortSetBASEPRI(0)
 103:.\Source\portable\GCC\ARM_CM3/portmacro.h **** #define portENTER_CRITICAL()					vPortEnterCritical()
 104:.\Source\portable\GCC\ARM_CM3/portmacro.h **** #define portEXIT_CRITICAL()						vPortExitCritical()
 105:.\Source\portable\GCC\ARM_CM3/portmacro.h **** 
 106:.\Source\portable\GCC\ARM_CM3/portmacro.h **** /*-----------------------------------------------------------*/
 107:.\Source\portable\GCC\ARM_CM3/portmacro.h **** 
 108:.\Source\portable\GCC\ARM_CM3/portmacro.h **** /* Task function macros as described on the FreeRTOS.org WEB site.  These are
 109:.\Source\portable\GCC\ARM_CM3/portmacro.h **** not necessary for to use this port.  They are defined so the common demo files
 110:.\Source\portable\GCC\ARM_CM3/portmacro.h **** (which build with all the ports) will build. */
 111:.\Source\portable\GCC\ARM_CM3/portmacro.h **** #define portTASK_FUNCTION_PROTO( vFunction, pvParameters ) void vFunction( void *pvParameters )
 112:.\Source\portable\GCC\ARM_CM3/portmacro.h **** #define portTASK_FUNCTION( vFunction, pvParameters ) void vFunction( void *pvParameters )
 113:.\Source\portable\GCC\ARM_CM3/portmacro.h **** /*-----------------------------------------------------------*/
 114:.\Source\portable\GCC\ARM_CM3/portmacro.h **** 
 115:.\Source\portable\GCC\ARM_CM3/portmacro.h **** /* Tickless idle/low power functionality. */
 116:.\Source\portable\GCC\ARM_CM3/portmacro.h **** #ifndef portSUPPRESS_TICKS_AND_SLEEP
 117:.\Source\portable\GCC\ARM_CM3/portmacro.h **** 	extern void vPortSuppressTicksAndSleep( TickType_t xExpectedIdleTime );
 118:.\Source\portable\GCC\ARM_CM3/portmacro.h **** 	#define portSUPPRESS_TICKS_AND_SLEEP( xExpectedIdleTime ) vPortSuppressTicksAndSleep( xExpectedIdl
 119:.\Source\portable\GCC\ARM_CM3/portmacro.h **** #endif
 120:.\Source\portable\GCC\ARM_CM3/portmacro.h **** /*-----------------------------------------------------------*/
 121:.\Source\portable\GCC\ARM_CM3/portmacro.h **** 
 122:.\Source\portable\GCC\ARM_CM3/portmacro.h **** /* Architecture specific optimisations. */
 123:.\Source\portable\GCC\ARM_CM3/portmacro.h **** #ifndef configUSE_PORT_OPTIMISED_TASK_SELECTION
 124:.\Source\portable\GCC\ARM_CM3/portmacro.h **** 	#define configUSE_PORT_OPTIMISED_TASK_SELECTION 1
 125:.\Source\portable\GCC\ARM_CM3/portmacro.h **** #endif
 126:.\Source\portable\GCC\ARM_CM3/portmacro.h **** 
 127:.\Source\portable\GCC\ARM_CM3/portmacro.h **** #if configUSE_PORT_OPTIMISED_TASK_SELECTION == 1
 128:.\Source\portable\GCC\ARM_CM3/portmacro.h **** 
 129:.\Source\portable\GCC\ARM_CM3/portmacro.h **** 	/* Generic helper function. */
 130:.\Source\portable\GCC\ARM_CM3/portmacro.h **** 	__attribute__( ( always_inline ) ) static inline uint8_t ucPortCountLeadingZeros( uint32_t ulBitma
 131:.\Source\portable\GCC\ARM_CM3/portmacro.h **** 	{
 132:.\Source\portable\GCC\ARM_CM3/portmacro.h **** 	uint8_t ucReturn;
 133:.\Source\portable\GCC\ARM_CM3/portmacro.h **** 
 134:.\Source\portable\GCC\ARM_CM3/portmacro.h **** 		__asm volatile ( "clz %0, %1" : "=r" ( ucReturn ) : "r" ( ulBitmap ) : "memory" );
 135:.\Source\portable\GCC\ARM_CM3/portmacro.h **** 		return ucReturn;
 136:.\Source\portable\GCC\ARM_CM3/portmacro.h **** 	}
 137:.\Source\portable\GCC\ARM_CM3/portmacro.h **** 
 138:.\Source\portable\GCC\ARM_CM3/portmacro.h **** 	/* Check the configuration. */
 139:.\Source\portable\GCC\ARM_CM3/portmacro.h **** 	#if( configMAX_PRIORITIES > 32 )
 140:.\Source\portable\GCC\ARM_CM3/portmacro.h **** 		#error configUSE_PORT_OPTIMISED_TASK_SELECTION can only be set to 1 when configMAX_PRIORITIES is 
 141:.\Source\portable\GCC\ARM_CM3/portmacro.h **** 	#endif
 142:.\Source\portable\GCC\ARM_CM3/portmacro.h **** 
 143:.\Source\portable\GCC\ARM_CM3/portmacro.h **** 	/* Store/clear the ready priorities in a bit map. */
 144:.\Source\portable\GCC\ARM_CM3/portmacro.h **** 	#define portRECORD_READY_PRIORITY( uxPriority, uxReadyPriorities ) ( uxReadyPriorities ) |= ( 1UL 
 145:.\Source\portable\GCC\ARM_CM3/portmacro.h **** 	#define portRESET_READY_PRIORITY( uxPriority, uxReadyPriorities ) ( uxReadyPriorities ) &= ~( 1UL 
 146:.\Source\portable\GCC\ARM_CM3/portmacro.h **** 
 147:.\Source\portable\GCC\ARM_CM3/portmacro.h **** 	/*-----------------------------------------------------------*/
ARM GAS  C:\Users\Emil\AppData\Local\Temp\ccX3pjTY.s 			page 35


 148:.\Source\portable\GCC\ARM_CM3/portmacro.h **** 
 149:.\Source\portable\GCC\ARM_CM3/portmacro.h **** 	#define portGET_HIGHEST_PRIORITY( uxTopPriority, uxReadyPriorities ) uxTopPriority = ( 31UL - ( ui
 150:.\Source\portable\GCC\ARM_CM3/portmacro.h **** 
 151:.\Source\portable\GCC\ARM_CM3/portmacro.h **** #endif /* configUSE_PORT_OPTIMISED_TASK_SELECTION */
 152:.\Source\portable\GCC\ARM_CM3/portmacro.h **** 
 153:.\Source\portable\GCC\ARM_CM3/portmacro.h **** /*-----------------------------------------------------------*/
 154:.\Source\portable\GCC\ARM_CM3/portmacro.h **** 
 155:.\Source\portable\GCC\ARM_CM3/portmacro.h **** #ifdef configASSERT
 156:.\Source\portable\GCC\ARM_CM3/portmacro.h **** 	void vPortValidateInterruptPriority( void );
 157:.\Source\portable\GCC\ARM_CM3/portmacro.h **** 	#define portASSERT_IF_INTERRUPT_PRIORITY_INVALID() 	vPortValidateInterruptPriority()
 158:.\Source\portable\GCC\ARM_CM3/portmacro.h **** #endif
 159:.\Source\portable\GCC\ARM_CM3/portmacro.h **** 
 160:.\Source\portable\GCC\ARM_CM3/portmacro.h **** /* portNOP() is not required by this port. */
 161:.\Source\portable\GCC\ARM_CM3/portmacro.h **** #define portNOP()
 162:.\Source\portable\GCC\ARM_CM3/portmacro.h **** 
 163:.\Source\portable\GCC\ARM_CM3/portmacro.h **** #define portINLINE	__inline
 164:.\Source\portable\GCC\ARM_CM3/portmacro.h **** 
 165:.\Source\portable\GCC\ARM_CM3/portmacro.h **** #ifndef portFORCE_INLINE
 166:.\Source\portable\GCC\ARM_CM3/portmacro.h **** 	#define portFORCE_INLINE inline __attribute__(( always_inline))
 167:.\Source\portable\GCC\ARM_CM3/portmacro.h **** #endif
 168:.\Source\portable\GCC\ARM_CM3/portmacro.h **** 
 169:.\Source\portable\GCC\ARM_CM3/portmacro.h **** /*-----------------------------------------------------------*/
 170:.\Source\portable\GCC\ARM_CM3/portmacro.h **** 
 171:.\Source\portable\GCC\ARM_CM3/portmacro.h **** portFORCE_INLINE static BaseType_t xPortIsInsideInterrupt( void )
 172:.\Source\portable\GCC\ARM_CM3/portmacro.h **** {
 173:.\Source\portable\GCC\ARM_CM3/portmacro.h **** uint32_t ulCurrentInterrupt;
 174:.\Source\portable\GCC\ARM_CM3/portmacro.h **** BaseType_t xReturn;
 175:.\Source\portable\GCC\ARM_CM3/portmacro.h **** 
 176:.\Source\portable\GCC\ARM_CM3/portmacro.h **** 	/* Obtain the number of the currently executing interrupt. */
 177:.\Source\portable\GCC\ARM_CM3/portmacro.h **** 	__asm volatile( "mrs %0, ipsr" : "=r"( ulCurrentInterrupt ) :: "memory" );
 178:.\Source\portable\GCC\ARM_CM3/portmacro.h **** 
 179:.\Source\portable\GCC\ARM_CM3/portmacro.h **** 	if( ulCurrentInterrupt == 0 )
 180:.\Source\portable\GCC\ARM_CM3/portmacro.h **** 	{
 181:.\Source\portable\GCC\ARM_CM3/portmacro.h **** 		xReturn = pdFALSE;
 182:.\Source\portable\GCC\ARM_CM3/portmacro.h **** 	}
 183:.\Source\portable\GCC\ARM_CM3/portmacro.h **** 	else
 184:.\Source\portable\GCC\ARM_CM3/portmacro.h **** 	{
 185:.\Source\portable\GCC\ARM_CM3/portmacro.h **** 		xReturn = pdTRUE;
 186:.\Source\portable\GCC\ARM_CM3/portmacro.h **** 	}
 187:.\Source\portable\GCC\ARM_CM3/portmacro.h **** 
 188:.\Source\portable\GCC\ARM_CM3/portmacro.h **** 	return xReturn;
 189:.\Source\portable\GCC\ARM_CM3/portmacro.h **** }
 190:.\Source\portable\GCC\ARM_CM3/portmacro.h **** 
 191:.\Source\portable\GCC\ARM_CM3/portmacro.h **** /*-----------------------------------------------------------*/
 192:.\Source\portable\GCC\ARM_CM3/portmacro.h **** 
 193:.\Source\portable\GCC\ARM_CM3/portmacro.h **** portFORCE_INLINE static void vPortRaiseBASEPRI( void )
 194:.\Source\portable\GCC\ARM_CM3/portmacro.h **** {
 195:.\Source\portable\GCC\ARM_CM3/portmacro.h **** uint32_t ulNewBASEPRI;
 196:.\Source\portable\GCC\ARM_CM3/portmacro.h **** 
 197:.\Source\portable\GCC\ARM_CM3/portmacro.h **** 	__asm volatile
 198:.\Source\portable\GCC\ARM_CM3/portmacro.h **** 	(
 199:.\Source\portable\GCC\ARM_CM3/portmacro.h **** 		"	mov %0, %1												\n" \
 200:.\Source\portable\GCC\ARM_CM3/portmacro.h **** 		"	msr basepri, %0											\n" \
 201:.\Source\portable\GCC\ARM_CM3/portmacro.h **** 		"	isb														\n" \
 202:.\Source\portable\GCC\ARM_CM3/portmacro.h **** 		"	dsb														\n" \
 203:.\Source\portable\GCC\ARM_CM3/portmacro.h **** 		:"=r" (ulNewBASEPRI) : "i" ( configMAX_SYSCALL_INTERRUPT_PRIORITY ) : "memory"
 204:.\Source\portable\GCC\ARM_CM3/portmacro.h **** 	);
ARM GAS  C:\Users\Emil\AppData\Local\Temp\ccX3pjTY.s 			page 36


 205:.\Source\portable\GCC\ARM_CM3/portmacro.h **** }
 206:.\Source\portable\GCC\ARM_CM3/portmacro.h **** 
 207:.\Source\portable\GCC\ARM_CM3/portmacro.h **** /*-----------------------------------------------------------*/
 208:.\Source\portable\GCC\ARM_CM3/portmacro.h **** 
 209:.\Source\portable\GCC\ARM_CM3/portmacro.h **** portFORCE_INLINE static uint32_t ulPortRaiseBASEPRI( void )
 210:.\Source\portable\GCC\ARM_CM3/portmacro.h **** {
 211:.\Source\portable\GCC\ARM_CM3/portmacro.h **** uint32_t ulOriginalBASEPRI, ulNewBASEPRI;
 212:.\Source\portable\GCC\ARM_CM3/portmacro.h **** 
 213:.\Source\portable\GCC\ARM_CM3/portmacro.h **** 	__asm volatile
 838              		.loc 2 213 0
 839              		.syntax unified
 840              	@ 213 ".\Source\portable\GCC\ARM_CM3/portmacro.h" 1
 841 0012 EFF31182 			mrs r2, basepri											
 842 0016 4FF0A003 		mov r3, #160												
 843 001a 83F31188 		msr basepri, r3											
 844 001e BFF36F8F 		isb														
 845 0022 BFF34F8F 		dsb														
 846              	
 847              	@ 0 "" 2
 848              		.thumb
 849              		.syntax unified
 850 0026 7A61     		str	r2, [r7, #20]
 851 0028 3B61     		str	r3, [r7, #16]
 214:.\Source\portable\GCC\ARM_CM3/portmacro.h **** 	(
 215:.\Source\portable\GCC\ARM_CM3/portmacro.h **** 		"	mrs %0, basepri											\n" \
 216:.\Source\portable\GCC\ARM_CM3/portmacro.h **** 		"	mov %1, %2												\n" \
 217:.\Source\portable\GCC\ARM_CM3/portmacro.h **** 		"	msr basepri, %1											\n" \
 218:.\Source\portable\GCC\ARM_CM3/portmacro.h **** 		"	isb														\n" \
 219:.\Source\portable\GCC\ARM_CM3/portmacro.h **** 		"	dsb														\n" \
 220:.\Source\portable\GCC\ARM_CM3/portmacro.h **** 		:"=r" (ulOriginalBASEPRI), "=r" (ulNewBASEPRI) : "i" ( configMAX_SYSCALL_INTERRUPT_PRIORITY ) : "
 221:.\Source\portable\GCC\ARM_CM3/portmacro.h **** 	);
 222:.\Source\portable\GCC\ARM_CM3/portmacro.h **** 
 223:.\Source\portable\GCC\ARM_CM3/portmacro.h **** 	/* This return will not be reached but is necessary to prevent compiler
 224:.\Source\portable\GCC\ARM_CM3/portmacro.h **** 	warnings. */
 225:.\Source\portable\GCC\ARM_CM3/portmacro.h **** 	return ulOriginalBASEPRI;
 852              		.loc 2 225 0
 853 002a 7B69     		ldr	r3, [r7, #20]
 854              	.LBE24:
 855              	.LBE23:
 955:Source/queue.c **** 
 956:Source/queue.c **** 	configASSERT( pxQueue );
 957:Source/queue.c **** 	configASSERT( !( ( pvItemToQueue == NULL ) && ( pxQueue->uxItemSize != ( UBaseType_t ) 0U ) ) );
 958:Source/queue.c **** 	configASSERT( !( ( xCopyPosition == queueOVERWRITE ) && ( pxQueue->uxLength != 1 ) ) );
 959:Source/queue.c **** 
 960:Source/queue.c **** 	/* RTOS ports that support interrupt nesting have the concept of a maximum
 961:Source/queue.c **** 	system call (or maximum API call) interrupt priority.  Interrupts that are
 962:Source/queue.c **** 	above the maximum system call priority are kept permanently enabled, even
 963:Source/queue.c **** 	when the RTOS kernel is in a critical section, but cannot make any calls to
 964:Source/queue.c **** 	FreeRTOS API functions.  If configASSERT() is defined in FreeRTOSConfig.h
 965:Source/queue.c **** 	then portASSERT_IF_INTERRUPT_PRIORITY_INVALID() will result in an assertion
 966:Source/queue.c **** 	failure if a FreeRTOS API function is called from an interrupt that has been
 967:Source/queue.c **** 	assigned a priority above the configured maximum system call priority.
 968:Source/queue.c **** 	Only FreeRTOS functions that end in FromISR can be called from interrupts
 969:Source/queue.c **** 	that have been assigned a priority at or (logically) below the maximum
 970:Source/queue.c **** 	system call	interrupt priority.  FreeRTOS maintains a separate interrupt
 971:Source/queue.c **** 	safe API to ensure interrupt entry is as fast and as simple as possible.
 972:Source/queue.c **** 	More information (albeit Cortex-M specific) is provided on the following
ARM GAS  C:\Users\Emil\AppData\Local\Temp\ccX3pjTY.s 			page 37


 973:Source/queue.c **** 	link: http://www.freertos.org/RTOS-Cortex-M3-M4.html */
 974:Source/queue.c **** 	portASSERT_IF_INTERRUPT_PRIORITY_INVALID();
 975:Source/queue.c **** 
 976:Source/queue.c **** 	/* Similar to xQueueGenericSend, except without blocking if there is no room
 977:Source/queue.c **** 	in the queue.  Also don't directly wake a task that was blocked on a queue
 978:Source/queue.c **** 	read, instead return a flag to say whether a context switch is required or
 979:Source/queue.c **** 	not (i.e. has a task with a higher priority than us been woken by this
 980:Source/queue.c **** 	post). */
 981:Source/queue.c **** 	uxSavedInterruptStatus = portSET_INTERRUPT_MASK_FROM_ISR();
 856              		.loc 1 981 0
 857 002c 3B62     		str	r3, [r7, #32]
 982:Source/queue.c **** 	{
 983:Source/queue.c **** 		if( ( pxQueue->uxMessagesWaiting < pxQueue->uxLength ) || ( xCopyPosition == queueOVERWRITE ) )
 858              		.loc 1 983 0
 859 002e BB6A     		ldr	r3, [r7, #40]
 860 0030 9A6B     		ldr	r2, [r3, #56]
 861 0032 BB6A     		ldr	r3, [r7, #40]
 862 0034 DB6B     		ldr	r3, [r3, #60]
 863 0036 9A42     		cmp	r2, r3
 864 0038 02D3     		bcc	.L51
 865              		.loc 1 983 0 is_stmt 0 discriminator 1
 866 003a 3B68     		ldr	r3, [r7]
 867 003c 022B     		cmp	r3, #2
 868 003e 2DD1     		bne	.L52
 869              	.L51:
 870              	.LBB25:
 984:Source/queue.c **** 		{
 985:Source/queue.c **** 			const int8_t cTxLock = pxQueue->cTxLock;
 871              		.loc 1 985 0 is_stmt 1
 872 0040 BB6A     		ldr	r3, [r7, #40]
 873 0042 93F84530 		ldrb	r3, [r3, #69]
 874 0046 FB77     		strb	r3, [r7, #31]
 986:Source/queue.c **** 			const UBaseType_t uxPreviousMessagesWaiting = pxQueue->uxMessagesWaiting;
 875              		.loc 1 986 0
 876 0048 BB6A     		ldr	r3, [r7, #40]
 877 004a 9B6B     		ldr	r3, [r3, #56]
 878 004c BB61     		str	r3, [r7, #24]
 987:Source/queue.c **** 
 988:Source/queue.c **** 			traceQUEUE_SEND_FROM_ISR( pxQueue );
 989:Source/queue.c **** 
 990:Source/queue.c **** 			/* Semaphores use xQueueGiveFromISR(), so pxQueue will not be a
 991:Source/queue.c **** 			semaphore or mutex.  That means prvCopyDataToQueue() cannot result
 992:Source/queue.c **** 			in a task disinheriting a priority and prvCopyDataToQueue() can be
 993:Source/queue.c **** 			called here even though the disinherit function does not check if
 994:Source/queue.c **** 			the scheduler is suspended before accessing the ready lists. */
 995:Source/queue.c **** 			( void ) prvCopyDataToQueue( pxQueue, pvItemToQueue, xCopyPosition );
 879              		.loc 1 995 0
 880 004e 3A68     		ldr	r2, [r7]
 881 0050 B968     		ldr	r1, [r7, #8]
 882 0052 B86A     		ldr	r0, [r7, #40]
 883 0054 FFF7FEFF 		bl	prvCopyDataToQueue
 996:Source/queue.c **** 
 997:Source/queue.c **** 			/* The event list is not altered if the queue is locked.  This will
 998:Source/queue.c **** 			be done when the queue is unlocked later. */
 999:Source/queue.c **** 			if( cTxLock == queueUNLOCKED )
 884              		.loc 1 999 0
 885 0058 97F91F30 		ldrsb	r3, [r7, #31]
ARM GAS  C:\Users\Emil\AppData\Local\Temp\ccX3pjTY.s 			page 38


 886 005c B3F1FF3F 		cmp	r3, #-1
 887 0060 12D1     		bne	.L53
1000:Source/queue.c **** 			{
1001:Source/queue.c **** 				#if ( configUSE_QUEUE_SETS == 1 )
1002:Source/queue.c **** 				{
1003:Source/queue.c **** 					if( pxQueue->pxQueueSetContainer != NULL )
1004:Source/queue.c **** 					{
1005:Source/queue.c **** 						if( ( xCopyPosition == queueOVERWRITE ) && ( uxPreviousMessagesWaiting != ( UBaseType_t ) 0 )
1006:Source/queue.c **** 						{
1007:Source/queue.c **** 							/* Do not notify the queue set as an existing item
1008:Source/queue.c **** 							was overwritten in the queue so the number of items
1009:Source/queue.c **** 							in the queue has not changed. */
1010:Source/queue.c **** 							mtCOVERAGE_TEST_MARKER();
1011:Source/queue.c **** 						}
1012:Source/queue.c **** 						else if( prvNotifyQueueSetContainer( pxQueue ) != pdFALSE )
1013:Source/queue.c **** 						{
1014:Source/queue.c **** 							/* The queue is a member of a queue set, and posting
1015:Source/queue.c **** 							to the queue set caused a higher priority task to
1016:Source/queue.c **** 							unblock.  A context switch is required. */
1017:Source/queue.c **** 							if( pxHigherPriorityTaskWoken != NULL )
1018:Source/queue.c **** 							{
1019:Source/queue.c **** 								*pxHigherPriorityTaskWoken = pdTRUE;
1020:Source/queue.c **** 							}
1021:Source/queue.c **** 							else
1022:Source/queue.c **** 							{
1023:Source/queue.c **** 								mtCOVERAGE_TEST_MARKER();
1024:Source/queue.c **** 							}
1025:Source/queue.c **** 						}
1026:Source/queue.c **** 						else
1027:Source/queue.c **** 						{
1028:Source/queue.c **** 							mtCOVERAGE_TEST_MARKER();
1029:Source/queue.c **** 						}
1030:Source/queue.c **** 					}
1031:Source/queue.c **** 					else
1032:Source/queue.c **** 					{
1033:Source/queue.c **** 						if( listLIST_IS_EMPTY( &( pxQueue->xTasksWaitingToReceive ) ) == pdFALSE )
1034:Source/queue.c **** 						{
1035:Source/queue.c **** 							if( xTaskRemoveFromEventList( &( pxQueue->xTasksWaitingToReceive ) ) != pdFALSE )
1036:Source/queue.c **** 							{
1037:Source/queue.c **** 								/* The task waiting has a higher priority so
1038:Source/queue.c **** 								record that a context switch is required. */
1039:Source/queue.c **** 								if( pxHigherPriorityTaskWoken != NULL )
1040:Source/queue.c **** 								{
1041:Source/queue.c **** 									*pxHigherPriorityTaskWoken = pdTRUE;
1042:Source/queue.c **** 								}
1043:Source/queue.c **** 								else
1044:Source/queue.c **** 								{
1045:Source/queue.c **** 									mtCOVERAGE_TEST_MARKER();
1046:Source/queue.c **** 								}
1047:Source/queue.c **** 							}
1048:Source/queue.c **** 							else
1049:Source/queue.c **** 							{
1050:Source/queue.c **** 								mtCOVERAGE_TEST_MARKER();
1051:Source/queue.c **** 							}
1052:Source/queue.c **** 						}
1053:Source/queue.c **** 						else
1054:Source/queue.c **** 						{
ARM GAS  C:\Users\Emil\AppData\Local\Temp\ccX3pjTY.s 			page 39


1055:Source/queue.c **** 							mtCOVERAGE_TEST_MARKER();
1056:Source/queue.c **** 						}
1057:Source/queue.c **** 					}
1058:Source/queue.c **** 				}
1059:Source/queue.c **** 				#else /* configUSE_QUEUE_SETS */
1060:Source/queue.c **** 				{
1061:Source/queue.c **** 					if( listLIST_IS_EMPTY( &( pxQueue->xTasksWaitingToReceive ) ) == pdFALSE )
 888              		.loc 1 1061 0
 889 0062 BB6A     		ldr	r3, [r7, #40]
 890 0064 5B6A     		ldr	r3, [r3, #36]
 891 0066 002B     		cmp	r3, #0
 892 0068 15D0     		beq	.L54
1062:Source/queue.c **** 					{
1063:Source/queue.c **** 						if( xTaskRemoveFromEventList( &( pxQueue->xTasksWaitingToReceive ) ) != pdFALSE )
 893              		.loc 1 1063 0
 894 006a BB6A     		ldr	r3, [r7, #40]
 895 006c 2433     		adds	r3, r3, #36
 896 006e 1846     		mov	r0, r3
 897 0070 FFF7FEFF 		bl	xTaskRemoveFromEventList
 898 0074 0346     		mov	r3, r0
 899 0076 002B     		cmp	r3, #0
 900 0078 0DD0     		beq	.L54
1064:Source/queue.c **** 						{
1065:Source/queue.c **** 							/* The task waiting has a higher priority so record that a
1066:Source/queue.c **** 							context	switch is required. */
1067:Source/queue.c **** 							if( pxHigherPriorityTaskWoken != NULL )
 901              		.loc 1 1067 0
 902 007a 7B68     		ldr	r3, [r7, #4]
 903 007c 002B     		cmp	r3, #0
 904 007e 0AD0     		beq	.L54
1068:Source/queue.c **** 							{
1069:Source/queue.c **** 								*pxHigherPriorityTaskWoken = pdTRUE;
 905              		.loc 1 1069 0
 906 0080 7B68     		ldr	r3, [r7, #4]
 907 0082 0122     		movs	r2, #1
 908 0084 1A60     		str	r2, [r3]
 909 0086 06E0     		b	.L54
 910              	.L53:
1070:Source/queue.c **** 							}
1071:Source/queue.c **** 							else
1072:Source/queue.c **** 							{
1073:Source/queue.c **** 								mtCOVERAGE_TEST_MARKER();
1074:Source/queue.c **** 							}
1075:Source/queue.c **** 						}
1076:Source/queue.c **** 						else
1077:Source/queue.c **** 						{
1078:Source/queue.c **** 							mtCOVERAGE_TEST_MARKER();
1079:Source/queue.c **** 						}
1080:Source/queue.c **** 					}
1081:Source/queue.c **** 					else
1082:Source/queue.c **** 					{
1083:Source/queue.c **** 						mtCOVERAGE_TEST_MARKER();
1084:Source/queue.c **** 					}
1085:Source/queue.c **** 					
1086:Source/queue.c **** 					/* Not used in this path. */
1087:Source/queue.c **** 					( void ) uxPreviousMessagesWaiting;
1088:Source/queue.c **** 				}
ARM GAS  C:\Users\Emil\AppData\Local\Temp\ccX3pjTY.s 			page 40


1089:Source/queue.c **** 				#endif /* configUSE_QUEUE_SETS */
1090:Source/queue.c **** 			}
1091:Source/queue.c **** 			else
1092:Source/queue.c **** 			{
1093:Source/queue.c **** 				/* Increment the lock count so the task that unlocks the queue
1094:Source/queue.c **** 				knows that data was posted while it was locked. */
1095:Source/queue.c **** 				pxQueue->cTxLock = ( int8_t ) ( cTxLock + 1 );
 911              		.loc 1 1095 0
 912 0088 FB7F     		ldrb	r3, [r7, #31]	@ zero_extendqisi2
 913 008a 0133     		adds	r3, r3, #1
 914 008c DBB2     		uxtb	r3, r3
 915 008e 5AB2     		sxtb	r2, r3
 916 0090 BB6A     		ldr	r3, [r7, #40]
 917 0092 83F84520 		strb	r2, [r3, #69]
 918              	.L54:
1096:Source/queue.c **** 			}
1097:Source/queue.c **** 
1098:Source/queue.c **** 			xReturn = pdPASS;
 919              		.loc 1 1098 0
 920 0096 0123     		movs	r3, #1
 921 0098 FB62     		str	r3, [r7, #44]
 922              	.LBE25:
 984:Source/queue.c **** 			const int8_t cTxLock = pxQueue->cTxLock;
 923              		.loc 1 984 0
 924 009a 01E0     		b	.L55
 925              	.L52:
1099:Source/queue.c **** 		}
1100:Source/queue.c **** 		else
1101:Source/queue.c **** 		{
1102:Source/queue.c **** 			traceQUEUE_SEND_FROM_ISR_FAILED( pxQueue );
1103:Source/queue.c **** 			xReturn = errQUEUE_FULL;
 926              		.loc 1 1103 0
 927 009c 0023     		movs	r3, #0
 928 009e FB62     		str	r3, [r7, #44]
 929              	.L55:
 930 00a0 3B6A     		ldr	r3, [r7, #32]
 931 00a2 7B62     		str	r3, [r7, #36]
 932              	.LBB26:
 933              	.LBB27:
 226:.\Source\portable\GCC\ARM_CM3/portmacro.h **** }
 227:.\Source\portable\GCC\ARM_CM3/portmacro.h **** /*-----------------------------------------------------------*/
 228:.\Source\portable\GCC\ARM_CM3/portmacro.h **** 
 229:.\Source\portable\GCC\ARM_CM3/portmacro.h **** portFORCE_INLINE static void vPortSetBASEPRI( uint32_t ulNewMaskValue )
 230:.\Source\portable\GCC\ARM_CM3/portmacro.h **** {
 231:.\Source\portable\GCC\ARM_CM3/portmacro.h **** 	__asm volatile
 934              		.loc 2 231 0
 935 00a4 7B6A     		ldr	r3, [r7, #36]
 936              		.syntax unified
 937              	@ 231 ".\Source\portable\GCC\ARM_CM3/portmacro.h" 1
 938 00a6 83F31188 			msr basepri, r3	
 939              	@ 0 "" 2
 940              		.thumb
 941              		.syntax unified
 942              	.LBE27:
 943              	.LBE26:
1104:Source/queue.c **** 		}
1105:Source/queue.c **** 	}
ARM GAS  C:\Users\Emil\AppData\Local\Temp\ccX3pjTY.s 			page 41


1106:Source/queue.c **** 	portCLEAR_INTERRUPT_MASK_FROM_ISR( uxSavedInterruptStatus );
1107:Source/queue.c **** 
1108:Source/queue.c **** 	return xReturn;
 944              		.loc 1 1108 0
 945 00aa FB6A     		ldr	r3, [r7, #44]
1109:Source/queue.c **** }
 946              		.loc 1 1109 0
 947 00ac 1846     		mov	r0, r3
 948 00ae 3037     		adds	r7, r7, #48
 949              		.cfi_def_cfa_offset 8
 950 00b0 BD46     		mov	sp, r7
 951              		.cfi_def_cfa_register 13
 952              		@ sp needed
 953 00b2 80BD     		pop	{r7, pc}
 954              		.cfi_endproc
 955              	.LFE77:
 956              		.size	xQueueGenericSendFromISR, .-xQueueGenericSendFromISR
 957              		.section	.text.xQueueGiveFromISR,"ax",%progbits
 958              		.align	2
 959              		.global	xQueueGiveFromISR
 960              		.thumb
 961              		.thumb_func
 962              		.type	xQueueGiveFromISR, %function
 963              	xQueueGiveFromISR:
 964              	.LFB78:
1110:Source/queue.c **** /*-----------------------------------------------------------*/
1111:Source/queue.c **** 
1112:Source/queue.c **** BaseType_t xQueueGiveFromISR( QueueHandle_t xQueue, BaseType_t * const pxHigherPriorityTaskWoken )
1113:Source/queue.c **** {
 965              		.loc 1 1113 0
 966              		.cfi_startproc
 967              		@ args = 0, pretend = 0, frame = 40
 968              		@ frame_needed = 1, uses_anonymous_args = 0
 969 0000 80B5     		push	{r7, lr}
 970              		.cfi_def_cfa_offset 8
 971              		.cfi_offset 7, -8
 972              		.cfi_offset 14, -4
 973 0002 8AB0     		sub	sp, sp, #40
 974              		.cfi_def_cfa_offset 48
 975 0004 00AF     		add	r7, sp, #0
 976              		.cfi_def_cfa_register 7
 977 0006 7860     		str	r0, [r7, #4]
 978 0008 3960     		str	r1, [r7]
1114:Source/queue.c **** BaseType_t xReturn;
1115:Source/queue.c **** UBaseType_t uxSavedInterruptStatus;
1116:Source/queue.c **** Queue_t * const pxQueue = xQueue;
 979              		.loc 1 1116 0
 980 000a 7B68     		ldr	r3, [r7, #4]
 981 000c 3B62     		str	r3, [r7, #32]
 982              	.LBB28:
 983              	.LBB29:
 213:.\Source\portable\GCC\ARM_CM3/portmacro.h **** 	(
 984              		.loc 2 213 0
 985              		.syntax unified
 986              	@ 213 ".\Source\portable\GCC\ARM_CM3/portmacro.h" 1
 987 000e EFF31182 			mrs r2, basepri											
 988 0012 4FF0A003 		mov r3, #160												
ARM GAS  C:\Users\Emil\AppData\Local\Temp\ccX3pjTY.s 			page 42


 989 0016 83F31188 		msr basepri, r3											
 990 001a BFF36F8F 		isb														
 991 001e BFF34F8F 		dsb														
 992              	
 993              	@ 0 "" 2
 994              		.thumb
 995              		.syntax unified
 996 0022 FA60     		str	r2, [r7, #12]
 997 0024 BB60     		str	r3, [r7, #8]
 225:.\Source\portable\GCC\ARM_CM3/portmacro.h **** }
 998              		.loc 2 225 0
 999 0026 FB68     		ldr	r3, [r7, #12]
 1000              	.LBE29:
 1001              	.LBE28:
1117:Source/queue.c **** 
1118:Source/queue.c **** 	/* Similar to xQueueGenericSendFromISR() but used with semaphores where the
1119:Source/queue.c **** 	item size is 0.  Don't directly wake a task that was blocked on a queue
1120:Source/queue.c **** 	read, instead return a flag to say whether a context switch is required or
1121:Source/queue.c **** 	not (i.e. has a task with a higher priority than us been woken by this
1122:Source/queue.c **** 	post). */
1123:Source/queue.c **** 
1124:Source/queue.c **** 	configASSERT( pxQueue );
1125:Source/queue.c **** 
1126:Source/queue.c **** 	/* xQueueGenericSendFromISR() should be used instead of xQueueGiveFromISR()
1127:Source/queue.c **** 	if the item size is not 0. */
1128:Source/queue.c **** 	configASSERT( pxQueue->uxItemSize == 0 );
1129:Source/queue.c **** 
1130:Source/queue.c **** 	/* Normally a mutex would not be given from an interrupt, especially if
1131:Source/queue.c **** 	there is a mutex holder, as priority inheritance makes no sense for an
1132:Source/queue.c **** 	interrupts, only tasks. */
1133:Source/queue.c **** 	configASSERT( !( ( pxQueue->uxQueueType == queueQUEUE_IS_MUTEX ) && ( pxQueue->u.xSemaphore.xMutex
1134:Source/queue.c **** 
1135:Source/queue.c **** 	/* RTOS ports that support interrupt nesting have the concept of a maximum
1136:Source/queue.c **** 	system call (or maximum API call) interrupt priority.  Interrupts that are
1137:Source/queue.c **** 	above the maximum system call priority are kept permanently enabled, even
1138:Source/queue.c **** 	when the RTOS kernel is in a critical section, but cannot make any calls to
1139:Source/queue.c **** 	FreeRTOS API functions.  If configASSERT() is defined in FreeRTOSConfig.h
1140:Source/queue.c **** 	then portASSERT_IF_INTERRUPT_PRIORITY_INVALID() will result in an assertion
1141:Source/queue.c **** 	failure if a FreeRTOS API function is called from an interrupt that has been
1142:Source/queue.c **** 	assigned a priority above the configured maximum system call priority.
1143:Source/queue.c **** 	Only FreeRTOS functions that end in FromISR can be called from interrupts
1144:Source/queue.c **** 	that have been assigned a priority at or (logically) below the maximum
1145:Source/queue.c **** 	system call	interrupt priority.  FreeRTOS maintains a separate interrupt
1146:Source/queue.c **** 	safe API to ensure interrupt entry is as fast and as simple as possible.
1147:Source/queue.c **** 	More information (albeit Cortex-M specific) is provided on the following
1148:Source/queue.c **** 	link: http://www.freertos.org/RTOS-Cortex-M3-M4.html */
1149:Source/queue.c **** 	portASSERT_IF_INTERRUPT_PRIORITY_INVALID();
1150:Source/queue.c **** 
1151:Source/queue.c **** 	uxSavedInterruptStatus = portSET_INTERRUPT_MASK_FROM_ISR();
 1002              		.loc 1 1151 0
 1003 0028 BB61     		str	r3, [r7, #24]
 1004              	.LBB30:
1152:Source/queue.c **** 	{
1153:Source/queue.c **** 		const UBaseType_t uxMessagesWaiting = pxQueue->uxMessagesWaiting;
 1005              		.loc 1 1153 0
 1006 002a 3B6A     		ldr	r3, [r7, #32]
 1007 002c 9B6B     		ldr	r3, [r3, #56]
ARM GAS  C:\Users\Emil\AppData\Local\Temp\ccX3pjTY.s 			page 43


 1008 002e 7B61     		str	r3, [r7, #20]
1154:Source/queue.c **** 
1155:Source/queue.c **** 		/* When the queue is used to implement a semaphore no data is ever
1156:Source/queue.c **** 		moved through the queue but it is still valid to see if the queue 'has
1157:Source/queue.c **** 		space'. */
1158:Source/queue.c **** 		if( uxMessagesWaiting < pxQueue->uxLength )
 1009              		.loc 1 1158 0
 1010 0030 3B6A     		ldr	r3, [r7, #32]
 1011 0032 DA6B     		ldr	r2, [r3, #60]
 1012 0034 7B69     		ldr	r3, [r7, #20]
 1013 0036 9A42     		cmp	r2, r3
 1014 0038 29D9     		bls	.L59
 1015              	.LBB31:
1159:Source/queue.c **** 		{
1160:Source/queue.c **** 			const int8_t cTxLock = pxQueue->cTxLock;
 1016              		.loc 1 1160 0
 1017 003a 3B6A     		ldr	r3, [r7, #32]
 1018 003c 93F84530 		ldrb	r3, [r3, #69]
 1019 0040 FB74     		strb	r3, [r7, #19]
1161:Source/queue.c **** 
1162:Source/queue.c **** 			traceQUEUE_SEND_FROM_ISR( pxQueue );
1163:Source/queue.c **** 
1164:Source/queue.c **** 			/* A task can only have an inherited priority if it is a mutex
1165:Source/queue.c **** 			holder - and if there is a mutex holder then the mutex cannot be
1166:Source/queue.c **** 			given from an ISR.  As this is the ISR version of the function it
1167:Source/queue.c **** 			can be assumed there is no mutex holder and no need to determine if
1168:Source/queue.c **** 			priority disinheritance is needed.  Simply increase the count of
1169:Source/queue.c **** 			messages (semaphores) available. */
1170:Source/queue.c **** 			pxQueue->uxMessagesWaiting = uxMessagesWaiting + ( UBaseType_t ) 1;
 1020              		.loc 1 1170 0
 1021 0042 7B69     		ldr	r3, [r7, #20]
 1022 0044 5A1C     		adds	r2, r3, #1
 1023 0046 3B6A     		ldr	r3, [r7, #32]
 1024 0048 9A63     		str	r2, [r3, #56]
1171:Source/queue.c **** 
1172:Source/queue.c **** 			/* The event list is not altered if the queue is locked.  This will
1173:Source/queue.c **** 			be done when the queue is unlocked later. */
1174:Source/queue.c **** 			if( cTxLock == queueUNLOCKED )
 1025              		.loc 1 1174 0
 1026 004a 97F91330 		ldrsb	r3, [r7, #19]
 1027 004e B3F1FF3F 		cmp	r3, #-1
 1028 0052 12D1     		bne	.L60
1175:Source/queue.c **** 			{
1176:Source/queue.c **** 				#if ( configUSE_QUEUE_SETS == 1 )
1177:Source/queue.c **** 				{
1178:Source/queue.c **** 					if( pxQueue->pxQueueSetContainer != NULL )
1179:Source/queue.c **** 					{
1180:Source/queue.c **** 						if( prvNotifyQueueSetContainer( pxQueue ) != pdFALSE )
1181:Source/queue.c **** 						{
1182:Source/queue.c **** 							/* The semaphore is a member of a queue set, and
1183:Source/queue.c **** 							posting	to the queue set caused a higher priority
1184:Source/queue.c **** 							task to	unblock.  A context switch is required. */
1185:Source/queue.c **** 							if( pxHigherPriorityTaskWoken != NULL )
1186:Source/queue.c **** 							{
1187:Source/queue.c **** 								*pxHigherPriorityTaskWoken = pdTRUE;
1188:Source/queue.c **** 							}
1189:Source/queue.c **** 							else
ARM GAS  C:\Users\Emil\AppData\Local\Temp\ccX3pjTY.s 			page 44


1190:Source/queue.c **** 							{
1191:Source/queue.c **** 								mtCOVERAGE_TEST_MARKER();
1192:Source/queue.c **** 							}
1193:Source/queue.c **** 						}
1194:Source/queue.c **** 						else
1195:Source/queue.c **** 						{
1196:Source/queue.c **** 							mtCOVERAGE_TEST_MARKER();
1197:Source/queue.c **** 						}
1198:Source/queue.c **** 					}
1199:Source/queue.c **** 					else
1200:Source/queue.c **** 					{
1201:Source/queue.c **** 						if( listLIST_IS_EMPTY( &( pxQueue->xTasksWaitingToReceive ) ) == pdFALSE )
1202:Source/queue.c **** 						{
1203:Source/queue.c **** 							if( xTaskRemoveFromEventList( &( pxQueue->xTasksWaitingToReceive ) ) != pdFALSE )
1204:Source/queue.c **** 							{
1205:Source/queue.c **** 								/* The task waiting has a higher priority so
1206:Source/queue.c **** 								record that a context switch is required. */
1207:Source/queue.c **** 								if( pxHigherPriorityTaskWoken != NULL )
1208:Source/queue.c **** 								{
1209:Source/queue.c **** 									*pxHigherPriorityTaskWoken = pdTRUE;
1210:Source/queue.c **** 								}
1211:Source/queue.c **** 								else
1212:Source/queue.c **** 								{
1213:Source/queue.c **** 									mtCOVERAGE_TEST_MARKER();
1214:Source/queue.c **** 								}
1215:Source/queue.c **** 							}
1216:Source/queue.c **** 							else
1217:Source/queue.c **** 							{
1218:Source/queue.c **** 								mtCOVERAGE_TEST_MARKER();
1219:Source/queue.c **** 							}
1220:Source/queue.c **** 						}
1221:Source/queue.c **** 						else
1222:Source/queue.c **** 						{
1223:Source/queue.c **** 							mtCOVERAGE_TEST_MARKER();
1224:Source/queue.c **** 						}
1225:Source/queue.c **** 					}
1226:Source/queue.c **** 				}
1227:Source/queue.c **** 				#else /* configUSE_QUEUE_SETS */
1228:Source/queue.c **** 				{
1229:Source/queue.c **** 					if( listLIST_IS_EMPTY( &( pxQueue->xTasksWaitingToReceive ) ) == pdFALSE )
 1029              		.loc 1 1229 0
 1030 0054 3B6A     		ldr	r3, [r7, #32]
 1031 0056 5B6A     		ldr	r3, [r3, #36]
 1032 0058 002B     		cmp	r3, #0
 1033 005a 15D0     		beq	.L61
1230:Source/queue.c **** 					{
1231:Source/queue.c **** 						if( xTaskRemoveFromEventList( &( pxQueue->xTasksWaitingToReceive ) ) != pdFALSE )
 1034              		.loc 1 1231 0
 1035 005c 3B6A     		ldr	r3, [r7, #32]
 1036 005e 2433     		adds	r3, r3, #36
 1037 0060 1846     		mov	r0, r3
 1038 0062 FFF7FEFF 		bl	xTaskRemoveFromEventList
 1039 0066 0346     		mov	r3, r0
 1040 0068 002B     		cmp	r3, #0
 1041 006a 0DD0     		beq	.L61
1232:Source/queue.c **** 						{
1233:Source/queue.c **** 							/* The task waiting has a higher priority so record that a
ARM GAS  C:\Users\Emil\AppData\Local\Temp\ccX3pjTY.s 			page 45


1234:Source/queue.c **** 							context	switch is required. */
1235:Source/queue.c **** 							if( pxHigherPriorityTaskWoken != NULL )
 1042              		.loc 1 1235 0
 1043 006c 3B68     		ldr	r3, [r7]
 1044 006e 002B     		cmp	r3, #0
 1045 0070 0AD0     		beq	.L61
1236:Source/queue.c **** 							{
1237:Source/queue.c **** 								*pxHigherPriorityTaskWoken = pdTRUE;
 1046              		.loc 1 1237 0
 1047 0072 3B68     		ldr	r3, [r7]
 1048 0074 0122     		movs	r2, #1
 1049 0076 1A60     		str	r2, [r3]
 1050 0078 06E0     		b	.L61
 1051              	.L60:
1238:Source/queue.c **** 							}
1239:Source/queue.c **** 							else
1240:Source/queue.c **** 							{
1241:Source/queue.c **** 								mtCOVERAGE_TEST_MARKER();
1242:Source/queue.c **** 							}
1243:Source/queue.c **** 						}
1244:Source/queue.c **** 						else
1245:Source/queue.c **** 						{
1246:Source/queue.c **** 							mtCOVERAGE_TEST_MARKER();
1247:Source/queue.c **** 						}
1248:Source/queue.c **** 					}
1249:Source/queue.c **** 					else
1250:Source/queue.c **** 					{
1251:Source/queue.c **** 						mtCOVERAGE_TEST_MARKER();
1252:Source/queue.c **** 					}
1253:Source/queue.c **** 				}
1254:Source/queue.c **** 				#endif /* configUSE_QUEUE_SETS */
1255:Source/queue.c **** 			}
1256:Source/queue.c **** 			else
1257:Source/queue.c **** 			{
1258:Source/queue.c **** 				/* Increment the lock count so the task that unlocks the queue
1259:Source/queue.c **** 				knows that data was posted while it was locked. */
1260:Source/queue.c **** 				pxQueue->cTxLock = ( int8_t ) ( cTxLock + 1 );
 1052              		.loc 1 1260 0
 1053 007a FB7C     		ldrb	r3, [r7, #19]	@ zero_extendqisi2
 1054 007c 0133     		adds	r3, r3, #1
 1055 007e DBB2     		uxtb	r3, r3
 1056 0080 5AB2     		sxtb	r2, r3
 1057 0082 3B6A     		ldr	r3, [r7, #32]
 1058 0084 83F84520 		strb	r2, [r3, #69]
 1059              	.L61:
1261:Source/queue.c **** 			}
1262:Source/queue.c **** 
1263:Source/queue.c **** 			xReturn = pdPASS;
 1060              		.loc 1 1263 0
 1061 0088 0123     		movs	r3, #1
 1062 008a 7B62     		str	r3, [r7, #36]
 1063              	.LBE31:
 1064 008c 01E0     		b	.L62
 1065              	.L59:
1264:Source/queue.c **** 		}
1265:Source/queue.c **** 		else
1266:Source/queue.c **** 		{
ARM GAS  C:\Users\Emil\AppData\Local\Temp\ccX3pjTY.s 			page 46


1267:Source/queue.c **** 			traceQUEUE_SEND_FROM_ISR_FAILED( pxQueue );
1268:Source/queue.c **** 			xReturn = errQUEUE_FULL;
 1066              		.loc 1 1268 0
 1067 008e 0023     		movs	r3, #0
 1068 0090 7B62     		str	r3, [r7, #36]
 1069              	.L62:
 1070 0092 BB69     		ldr	r3, [r7, #24]
 1071 0094 FB61     		str	r3, [r7, #28]
 1072              	.LBE30:
 1073              	.LBB32:
 1074              	.LBB33:
 1075              		.loc 2 231 0
 1076 0096 FB69     		ldr	r3, [r7, #28]
 1077              		.syntax unified
 1078              	@ 231 ".\Source\portable\GCC\ARM_CM3/portmacro.h" 1
 1079 0098 83F31188 			msr basepri, r3	
 1080              	@ 0 "" 2
 1081              		.thumb
 1082              		.syntax unified
 1083              	.LBE33:
 1084              	.LBE32:
1269:Source/queue.c **** 		}
1270:Source/queue.c **** 	}
1271:Source/queue.c **** 	portCLEAR_INTERRUPT_MASK_FROM_ISR( uxSavedInterruptStatus );
1272:Source/queue.c **** 
1273:Source/queue.c **** 	return xReturn;
 1085              		.loc 1 1273 0
 1086 009c 7B6A     		ldr	r3, [r7, #36]
1274:Source/queue.c **** }
 1087              		.loc 1 1274 0
 1088 009e 1846     		mov	r0, r3
 1089 00a0 2837     		adds	r7, r7, #40
 1090              		.cfi_def_cfa_offset 8
 1091 00a2 BD46     		mov	sp, r7
 1092              		.cfi_def_cfa_register 13
 1093              		@ sp needed
 1094 00a4 80BD     		pop	{r7, pc}
 1095              		.cfi_endproc
 1096              	.LFE78:
 1097              		.size	xQueueGiveFromISR, .-xQueueGiveFromISR
 1098 00a6 00BF     		.section	.text.xQueueReceive,"ax",%progbits
 1099              		.align	2
 1100              		.global	xQueueReceive
 1101              		.thumb
 1102              		.thumb_func
 1103              		.type	xQueueReceive, %function
 1104              	xQueueReceive:
 1105              	.LFB79:
1275:Source/queue.c **** /*-----------------------------------------------------------*/
1276:Source/queue.c **** 
1277:Source/queue.c **** BaseType_t xQueueReceive( QueueHandle_t xQueue, void * const pvBuffer, TickType_t xTicksToWait )
1278:Source/queue.c **** {
 1106              		.loc 1 1278 0
 1107              		.cfi_startproc
 1108              		@ args = 0, pretend = 0, frame = 40
 1109              		@ frame_needed = 1, uses_anonymous_args = 0
 1110 0000 80B5     		push	{r7, lr}
ARM GAS  C:\Users\Emil\AppData\Local\Temp\ccX3pjTY.s 			page 47


 1111              		.cfi_def_cfa_offset 8
 1112              		.cfi_offset 7, -8
 1113              		.cfi_offset 14, -4
 1114 0002 8AB0     		sub	sp, sp, #40
 1115              		.cfi_def_cfa_offset 48
 1116 0004 00AF     		add	r7, sp, #0
 1117              		.cfi_def_cfa_register 7
 1118 0006 F860     		str	r0, [r7, #12]
 1119 0008 B960     		str	r1, [r7, #8]
 1120 000a 7A60     		str	r2, [r7, #4]
1279:Source/queue.c **** BaseType_t xEntryTimeSet = pdFALSE;
 1121              		.loc 1 1279 0
 1122 000c 0023     		movs	r3, #0
 1123 000e 7B62     		str	r3, [r7, #36]
1280:Source/queue.c **** TimeOut_t xTimeOut;
1281:Source/queue.c **** Queue_t * const pxQueue = xQueue;
 1124              		.loc 1 1281 0
 1125 0010 FB68     		ldr	r3, [r7, #12]
 1126 0012 3B62     		str	r3, [r7, #32]
 1127              	.L76:
1282:Source/queue.c **** 
1283:Source/queue.c **** 	/* Check the pointer is not NULL. */
1284:Source/queue.c **** 	configASSERT( ( pxQueue ) );
1285:Source/queue.c **** 
1286:Source/queue.c **** 	/* The buffer into which data is received can only be NULL if the data size
1287:Source/queue.c **** 	is zero (so no data is copied into the buffer. */
1288:Source/queue.c **** 	configASSERT( !( ( ( pvBuffer ) == NULL ) && ( ( pxQueue )->uxItemSize != ( UBaseType_t ) 0U ) ) )
1289:Source/queue.c **** 
1290:Source/queue.c **** 	/* Cannot block if the scheduler is suspended. */
1291:Source/queue.c **** 	#if ( ( INCLUDE_xTaskGetSchedulerState == 1 ) || ( configUSE_TIMERS == 1 ) )
1292:Source/queue.c **** 	{
1293:Source/queue.c **** 		configASSERT( !( ( xTaskGetSchedulerState() == taskSCHEDULER_SUSPENDED ) && ( xTicksToWait != 0 )
1294:Source/queue.c **** 	}
1295:Source/queue.c **** 	#endif
1296:Source/queue.c **** 
1297:Source/queue.c **** 
1298:Source/queue.c **** 	/*lint -save -e904  This function relaxes the coding standard somewhat to
1299:Source/queue.c **** 	allow return statements within the function itself.  This is done in the
1300:Source/queue.c **** 	interest of execution time efficiency. */
1301:Source/queue.c **** 	for( ;; )
1302:Source/queue.c **** 	{
1303:Source/queue.c **** 		taskENTER_CRITICAL();
 1128              		.loc 1 1303 0
 1129 0014 FFF7FEFF 		bl	vPortEnterCritical
 1130              	.LBB34:
1304:Source/queue.c **** 		{
1305:Source/queue.c **** 			const UBaseType_t uxMessagesWaiting = pxQueue->uxMessagesWaiting;
 1131              		.loc 1 1305 0
 1132 0018 3B6A     		ldr	r3, [r7, #32]
 1133 001a 9B6B     		ldr	r3, [r3, #56]
 1134 001c FB61     		str	r3, [r7, #28]
1306:Source/queue.c **** 
1307:Source/queue.c **** 			/* Is there data in the queue now?  To be running the calling task
1308:Source/queue.c **** 			must be the highest priority task wanting to access the queue. */
1309:Source/queue.c **** 			if( uxMessagesWaiting > ( UBaseType_t ) 0 )
 1135              		.loc 1 1309 0
 1136 001e FB69     		ldr	r3, [r7, #28]
ARM GAS  C:\Users\Emil\AppData\Local\Temp\ccX3pjTY.s 			page 48


 1137 0020 002B     		cmp	r3, #0
 1138 0022 1FD0     		beq	.L65
1310:Source/queue.c **** 			{
1311:Source/queue.c **** 				/* Data available, remove one item. */
1312:Source/queue.c **** 				prvCopyDataFromQueue( pxQueue, pvBuffer );
 1139              		.loc 1 1312 0
 1140 0024 B968     		ldr	r1, [r7, #8]
 1141 0026 386A     		ldr	r0, [r7, #32]
 1142 0028 FFF7FEFF 		bl	prvCopyDataFromQueue
1313:Source/queue.c **** 				traceQUEUE_RECEIVE( pxQueue );
1314:Source/queue.c **** 				pxQueue->uxMessagesWaiting = uxMessagesWaiting - ( UBaseType_t ) 1;
 1143              		.loc 1 1314 0
 1144 002c FB69     		ldr	r3, [r7, #28]
 1145 002e 5A1E     		subs	r2, r3, #1
 1146 0030 3B6A     		ldr	r3, [r7, #32]
 1147 0032 9A63     		str	r2, [r3, #56]
1315:Source/queue.c **** 
1316:Source/queue.c **** 				/* There is now space in the queue, were any tasks waiting to
1317:Source/queue.c **** 				post to the queue?  If so, unblock the highest priority waiting
1318:Source/queue.c **** 				task. */
1319:Source/queue.c **** 				if( listLIST_IS_EMPTY( &( pxQueue->xTasksWaitingToSend ) ) == pdFALSE )
 1148              		.loc 1 1319 0
 1149 0034 3B6A     		ldr	r3, [r7, #32]
 1150 0036 1B69     		ldr	r3, [r3, #16]
 1151 0038 002B     		cmp	r3, #0
 1152 003a 0FD0     		beq	.L66
1320:Source/queue.c **** 				{
1321:Source/queue.c **** 					if( xTaskRemoveFromEventList( &( pxQueue->xTasksWaitingToSend ) ) != pdFALSE )
 1153              		.loc 1 1321 0
 1154 003c 3B6A     		ldr	r3, [r7, #32]
 1155 003e 1033     		adds	r3, r3, #16
 1156 0040 1846     		mov	r0, r3
 1157 0042 FFF7FEFF 		bl	xTaskRemoveFromEventList
 1158 0046 0346     		mov	r3, r0
 1159 0048 002B     		cmp	r3, #0
 1160 004a 07D0     		beq	.L66
1322:Source/queue.c **** 					{
1323:Source/queue.c **** 						queueYIELD_IF_USING_PREEMPTION();
 1161              		.loc 1 1323 0
 1162 004c 3C4B     		ldr	r3, .L78
 1163 004e 4FF08052 		mov	r2, #268435456
 1164 0052 1A60     		str	r2, [r3]
 1165              		.syntax unified
 1166              	@ 1323 "Source\queue.c" 1
 1167 0054 BFF34F8F 		dsb
 1168              	@ 0 "" 2
 1169              	@ 1323 "Source\queue.c" 1
 1170 0058 BFF36F8F 		isb
 1171              	@ 0 "" 2
 1172              		.thumb
 1173              		.syntax unified
 1174              	.L66:
1324:Source/queue.c **** 					}
1325:Source/queue.c **** 					else
1326:Source/queue.c **** 					{
1327:Source/queue.c **** 						mtCOVERAGE_TEST_MARKER();
1328:Source/queue.c **** 					}
ARM GAS  C:\Users\Emil\AppData\Local\Temp\ccX3pjTY.s 			page 49


1329:Source/queue.c **** 				}
1330:Source/queue.c **** 				else
1331:Source/queue.c **** 				{
1332:Source/queue.c **** 					mtCOVERAGE_TEST_MARKER();
1333:Source/queue.c **** 				}
1334:Source/queue.c **** 
1335:Source/queue.c **** 				taskEXIT_CRITICAL();
 1175              		.loc 1 1335 0
 1176 005c FFF7FEFF 		bl	vPortExitCritical
1336:Source/queue.c **** 				return pdPASS;
 1177              		.loc 1 1336 0
 1178 0060 0123     		movs	r3, #1
 1179 0062 69E0     		b	.L77
 1180              	.L65:
1337:Source/queue.c **** 			}
1338:Source/queue.c **** 			else
1339:Source/queue.c **** 			{
1340:Source/queue.c **** 				if( xTicksToWait == ( TickType_t ) 0 )
 1181              		.loc 1 1340 0
 1182 0064 7B68     		ldr	r3, [r7, #4]
 1183 0066 002B     		cmp	r3, #0
 1184 0068 03D1     		bne	.L68
1341:Source/queue.c **** 				{
1342:Source/queue.c **** 					/* The queue was empty and no block time is specified (or
1343:Source/queue.c **** 					the block time has expired) so leave now. */
1344:Source/queue.c **** 					taskEXIT_CRITICAL();
 1185              		.loc 1 1344 0
 1186 006a FFF7FEFF 		bl	vPortExitCritical
1345:Source/queue.c **** 					traceQUEUE_RECEIVE_FAILED( pxQueue );
1346:Source/queue.c **** 					return errQUEUE_EMPTY;
 1187              		.loc 1 1346 0
 1188 006e 0023     		movs	r3, #0
 1189 0070 62E0     		b	.L77
 1190              	.L68:
1347:Source/queue.c **** 				}
1348:Source/queue.c **** 				else if( xEntryTimeSet == pdFALSE )
 1191              		.loc 1 1348 0
 1192 0072 7B6A     		ldr	r3, [r7, #36]
 1193 0074 002B     		cmp	r3, #0
 1194 0076 06D1     		bne	.L69
1349:Source/queue.c **** 				{
1350:Source/queue.c **** 					/* The queue was empty and a block time was specified so
1351:Source/queue.c **** 					configure the timeout structure. */
1352:Source/queue.c **** 					vTaskInternalSetTimeOutState( &xTimeOut );
 1195              		.loc 1 1352 0
 1196 0078 07F11403 		add	r3, r7, #20
 1197 007c 1846     		mov	r0, r3
 1198 007e FFF7FEFF 		bl	vTaskInternalSetTimeOutState
1353:Source/queue.c **** 					xEntryTimeSet = pdTRUE;
 1199              		.loc 1 1353 0
 1200 0082 0123     		movs	r3, #1
 1201 0084 7B62     		str	r3, [r7, #36]
 1202              	.L69:
 1203              	.LBE34:
1354:Source/queue.c **** 				}
1355:Source/queue.c **** 				else
1356:Source/queue.c **** 				{
ARM GAS  C:\Users\Emil\AppData\Local\Temp\ccX3pjTY.s 			page 50


1357:Source/queue.c **** 					/* Entry time was already set. */
1358:Source/queue.c **** 					mtCOVERAGE_TEST_MARKER();
1359:Source/queue.c **** 				}
1360:Source/queue.c **** 			}
1361:Source/queue.c **** 		}
1362:Source/queue.c **** 		taskEXIT_CRITICAL();
 1204              		.loc 1 1362 0
 1205 0086 FFF7FEFF 		bl	vPortExitCritical
1363:Source/queue.c **** 
1364:Source/queue.c **** 		/* Interrupts and other tasks can send to and receive from the queue
1365:Source/queue.c **** 		now the critical section has been exited. */
1366:Source/queue.c **** 
1367:Source/queue.c **** 		vTaskSuspendAll();
 1206              		.loc 1 1367 0
 1207 008a FFF7FEFF 		bl	vTaskSuspendAll
1368:Source/queue.c **** 		prvLockQueue( pxQueue );
 1208              		.loc 1 1368 0
 1209 008e FFF7FEFF 		bl	vPortEnterCritical
 1210 0092 3B6A     		ldr	r3, [r7, #32]
 1211 0094 93F84430 		ldrb	r3, [r3, #68]
 1212 0098 5BB2     		sxtb	r3, r3
 1213 009a B3F1FF3F 		cmp	r3, #-1
 1214 009e 03D1     		bne	.L70
 1215              		.loc 1 1368 0 is_stmt 0 discriminator 1
 1216 00a0 3B6A     		ldr	r3, [r7, #32]
 1217 00a2 0022     		movs	r2, #0
 1218 00a4 83F84420 		strb	r2, [r3, #68]
 1219              	.L70:
 1220              		.loc 1 1368 0 discriminator 3
 1221 00a8 3B6A     		ldr	r3, [r7, #32]
 1222 00aa 93F84530 		ldrb	r3, [r3, #69]
 1223 00ae 5BB2     		sxtb	r3, r3
 1224 00b0 B3F1FF3F 		cmp	r3, #-1
 1225 00b4 03D1     		bne	.L71
 1226              		.loc 1 1368 0 discriminator 4
 1227 00b6 3B6A     		ldr	r3, [r7, #32]
 1228 00b8 0022     		movs	r2, #0
 1229 00ba 83F84520 		strb	r2, [r3, #69]
 1230              	.L71:
 1231              		.loc 1 1368 0 discriminator 6
 1232 00be FFF7FEFF 		bl	vPortExitCritical
1369:Source/queue.c **** 
1370:Source/queue.c **** 		/* Update the timeout state to see if it has expired yet. */
1371:Source/queue.c **** 		if( xTaskCheckForTimeOut( &xTimeOut, &xTicksToWait ) == pdFALSE )
 1233              		.loc 1 1371 0 is_stmt 1 discriminator 6
 1234 00c2 3A1D     		adds	r2, r7, #4
 1235 00c4 07F11403 		add	r3, r7, #20
 1236 00c8 1146     		mov	r1, r2
 1237 00ca 1846     		mov	r0, r3
 1238 00cc FFF7FEFF 		bl	xTaskCheckForTimeOut
 1239 00d0 0346     		mov	r3, r0
 1240 00d2 002B     		cmp	r3, #0
 1241 00d4 23D1     		bne	.L72
1372:Source/queue.c **** 		{
1373:Source/queue.c **** 			/* The timeout has not expired.  If the queue is still empty place
1374:Source/queue.c **** 			the task on the list of tasks waiting to receive from the queue. */
1375:Source/queue.c **** 			if( prvIsQueueEmpty( pxQueue ) != pdFALSE )
ARM GAS  C:\Users\Emil\AppData\Local\Temp\ccX3pjTY.s 			page 51


 1242              		.loc 1 1375 0
 1243 00d6 386A     		ldr	r0, [r7, #32]
 1244 00d8 FFF7FEFF 		bl	prvIsQueueEmpty
 1245 00dc 0346     		mov	r3, r0
 1246 00de 002B     		cmp	r3, #0
 1247 00e0 17D0     		beq	.L73
1376:Source/queue.c **** 			{
1377:Source/queue.c **** 				traceBLOCKING_ON_QUEUE_RECEIVE( pxQueue );
1378:Source/queue.c **** 				vTaskPlaceOnEventList( &( pxQueue->xTasksWaitingToReceive ), xTicksToWait );
 1248              		.loc 1 1378 0
 1249 00e2 3B6A     		ldr	r3, [r7, #32]
 1250 00e4 2433     		adds	r3, r3, #36
 1251 00e6 7A68     		ldr	r2, [r7, #4]
 1252 00e8 1146     		mov	r1, r2
 1253 00ea 1846     		mov	r0, r3
 1254 00ec FFF7FEFF 		bl	vTaskPlaceOnEventList
1379:Source/queue.c **** 				prvUnlockQueue( pxQueue );
 1255              		.loc 1 1379 0
 1256 00f0 386A     		ldr	r0, [r7, #32]
 1257 00f2 FFF7FEFF 		bl	prvUnlockQueue
1380:Source/queue.c **** 				if( xTaskResumeAll() == pdFALSE )
 1258              		.loc 1 1380 0
 1259 00f6 FFF7FEFF 		bl	xTaskResumeAll
 1260 00fa 0346     		mov	r3, r0
 1261 00fc 002B     		cmp	r3, #0
 1262 00fe 89D1     		bne	.L76
1381:Source/queue.c **** 				{
1382:Source/queue.c **** 					portYIELD_WITHIN_API();
 1263              		.loc 1 1382 0
 1264 0100 0F4B     		ldr	r3, .L78
 1265 0102 4FF08052 		mov	r2, #268435456
 1266 0106 1A60     		str	r2, [r3]
 1267              		.syntax unified
 1268              	@ 1382 "Source\queue.c" 1
 1269 0108 BFF34F8F 		dsb
 1270              	@ 0 "" 2
 1271              	@ 1382 "Source\queue.c" 1
 1272 010c BFF36F8F 		isb
 1273              	@ 0 "" 2
 1274              		.thumb
 1275              		.syntax unified
 1276 0110 80E7     		b	.L76
 1277              	.L73:
1383:Source/queue.c **** 				}
1384:Source/queue.c **** 				else
1385:Source/queue.c **** 				{
1386:Source/queue.c **** 					mtCOVERAGE_TEST_MARKER();
1387:Source/queue.c **** 				}
1388:Source/queue.c **** 			}
1389:Source/queue.c **** 			else
1390:Source/queue.c **** 			{
1391:Source/queue.c **** 				/* The queue contains data again.  Loop back to try and read the
1392:Source/queue.c **** 				data. */
1393:Source/queue.c **** 				prvUnlockQueue( pxQueue );
 1278              		.loc 1 1393 0
 1279 0112 386A     		ldr	r0, [r7, #32]
 1280 0114 FFF7FEFF 		bl	prvUnlockQueue
ARM GAS  C:\Users\Emil\AppData\Local\Temp\ccX3pjTY.s 			page 52


1394:Source/queue.c **** 				( void ) xTaskResumeAll();
 1281              		.loc 1 1394 0
 1282 0118 FFF7FEFF 		bl	xTaskResumeAll
 1283 011c 7AE7     		b	.L76
 1284              	.L72:
1395:Source/queue.c **** 			}
1396:Source/queue.c **** 		}
1397:Source/queue.c **** 		else
1398:Source/queue.c **** 		{
1399:Source/queue.c **** 			/* Timed out.  If there is no data in the queue exit, otherwise loop
1400:Source/queue.c **** 			back and attempt to read the data. */
1401:Source/queue.c **** 			prvUnlockQueue( pxQueue );
 1285              		.loc 1 1401 0
 1286 011e 386A     		ldr	r0, [r7, #32]
 1287 0120 FFF7FEFF 		bl	prvUnlockQueue
1402:Source/queue.c **** 			( void ) xTaskResumeAll();
 1288              		.loc 1 1402 0
 1289 0124 FFF7FEFF 		bl	xTaskResumeAll
1403:Source/queue.c **** 
1404:Source/queue.c **** 			if( prvIsQueueEmpty( pxQueue ) != pdFALSE )
 1290              		.loc 1 1404 0
 1291 0128 386A     		ldr	r0, [r7, #32]
 1292 012a FFF7FEFF 		bl	prvIsQueueEmpty
 1293 012e 0346     		mov	r3, r0
 1294 0130 002B     		cmp	r3, #0
 1295 0132 3FF46FAF 		beq	.L76
1405:Source/queue.c **** 			{
1406:Source/queue.c **** 				traceQUEUE_RECEIVE_FAILED( pxQueue );
1407:Source/queue.c **** 				return errQUEUE_EMPTY;
 1296              		.loc 1 1407 0
 1297 0136 0023     		movs	r3, #0
 1298              	.L77:
1408:Source/queue.c **** 			}
1409:Source/queue.c **** 			else
1410:Source/queue.c **** 			{
1411:Source/queue.c **** 				mtCOVERAGE_TEST_MARKER();
1412:Source/queue.c **** 			}
1413:Source/queue.c **** 		}
1414:Source/queue.c **** 	} /*lint -restore */
1415:Source/queue.c **** }
 1299              		.loc 1 1415 0 discriminator 3
 1300 0138 1846     		mov	r0, r3
 1301 013a 2837     		adds	r7, r7, #40
 1302              		.cfi_def_cfa_offset 8
 1303 013c BD46     		mov	sp, r7
 1304              		.cfi_def_cfa_register 13
 1305              		@ sp needed
 1306 013e 80BD     		pop	{r7, pc}
 1307              	.L79:
 1308              		.align	2
 1309              	.L78:
 1310 0140 04ED00E0 		.word	-536810236
 1311              		.cfi_endproc
 1312              	.LFE79:
 1313              		.size	xQueueReceive, .-xQueueReceive
 1314              		.section	.text.xQueueSemaphoreTake,"ax",%progbits
 1315              		.align	2
ARM GAS  C:\Users\Emil\AppData\Local\Temp\ccX3pjTY.s 			page 53


 1316              		.global	xQueueSemaphoreTake
 1317              		.thumb
 1318              		.thumb_func
 1319              		.type	xQueueSemaphoreTake, %function
 1320              	xQueueSemaphoreTake:
 1321              	.LFB80:
1416:Source/queue.c **** /*-----------------------------------------------------------*/
1417:Source/queue.c **** 
1418:Source/queue.c **** BaseType_t xQueueSemaphoreTake( QueueHandle_t xQueue, TickType_t xTicksToWait )
1419:Source/queue.c **** {
 1322              		.loc 1 1419 0
 1323              		.cfi_startproc
 1324              		@ args = 0, pretend = 0, frame = 40
 1325              		@ frame_needed = 1, uses_anonymous_args = 0
 1326 0000 80B5     		push	{r7, lr}
 1327              		.cfi_def_cfa_offset 8
 1328              		.cfi_offset 7, -8
 1329              		.cfi_offset 14, -4
 1330 0002 8AB0     		sub	sp, sp, #40
 1331              		.cfi_def_cfa_offset 48
 1332 0004 00AF     		add	r7, sp, #0
 1333              		.cfi_def_cfa_register 7
 1334 0006 7860     		str	r0, [r7, #4]
 1335 0008 3960     		str	r1, [r7]
1420:Source/queue.c **** BaseType_t xEntryTimeSet = pdFALSE;
 1336              		.loc 1 1420 0
 1337 000a 0023     		movs	r3, #0
 1338 000c 7B62     		str	r3, [r7, #36]
1421:Source/queue.c **** TimeOut_t xTimeOut;
1422:Source/queue.c **** Queue_t * const pxQueue = xQueue;
 1339              		.loc 1 1422 0
 1340 000e 7B68     		ldr	r3, [r7, #4]
 1341 0010 FB61     		str	r3, [r7, #28]
1423:Source/queue.c **** 
1424:Source/queue.c **** #if( configUSE_MUTEXES == 1 )
1425:Source/queue.c **** 	BaseType_t xInheritanceOccurred = pdFALSE;
 1342              		.loc 1 1425 0
 1343 0012 0023     		movs	r3, #0
 1344 0014 3B62     		str	r3, [r7, #32]
 1345              	.L95:
1426:Source/queue.c **** #endif
1427:Source/queue.c **** 
1428:Source/queue.c **** 	/* Check the queue pointer is not NULL. */
1429:Source/queue.c **** 	configASSERT( ( pxQueue ) );
1430:Source/queue.c **** 
1431:Source/queue.c **** 	/* Check this really is a semaphore, in which case the item size will be
1432:Source/queue.c **** 	0. */
1433:Source/queue.c **** 	configASSERT( pxQueue->uxItemSize == 0 );
1434:Source/queue.c **** 
1435:Source/queue.c **** 	/* Cannot block if the scheduler is suspended. */
1436:Source/queue.c **** 	#if ( ( INCLUDE_xTaskGetSchedulerState == 1 ) || ( configUSE_TIMERS == 1 ) )
1437:Source/queue.c **** 	{
1438:Source/queue.c **** 		configASSERT( !( ( xTaskGetSchedulerState() == taskSCHEDULER_SUSPENDED ) && ( xTicksToWait != 0 )
1439:Source/queue.c **** 	}
1440:Source/queue.c **** 	#endif
1441:Source/queue.c **** 
1442:Source/queue.c **** 
ARM GAS  C:\Users\Emil\AppData\Local\Temp\ccX3pjTY.s 			page 54


1443:Source/queue.c **** 	/*lint -save -e904 This function relaxes the coding standard somewhat to allow return
1444:Source/queue.c **** 	statements within the function itself.  This is done in the interest
1445:Source/queue.c **** 	of execution time efficiency. */
1446:Source/queue.c **** 	for( ;; )
1447:Source/queue.c **** 	{
1448:Source/queue.c **** 		taskENTER_CRITICAL();
 1346              		.loc 1 1448 0
 1347 0016 FFF7FEFF 		bl	vPortEnterCritical
 1348              	.LBB35:
1449:Source/queue.c **** 		{
1450:Source/queue.c **** 			/* Semaphores are queues with an item size of 0, and where the
1451:Source/queue.c **** 			number of messages in the queue is the semaphore's count value. */
1452:Source/queue.c **** 			const UBaseType_t uxSemaphoreCount = pxQueue->uxMessagesWaiting;
 1349              		.loc 1 1452 0
 1350 001a FB69     		ldr	r3, [r7, #28]
 1351 001c 9B6B     		ldr	r3, [r3, #56]
 1352 001e BB61     		str	r3, [r7, #24]
1453:Source/queue.c **** 
1454:Source/queue.c **** 			/* Is there data in the queue now?  To be running the calling task
1455:Source/queue.c **** 			must be the highest priority task wanting to access the queue. */
1456:Source/queue.c **** 			if( uxSemaphoreCount > ( UBaseType_t ) 0 )
 1353              		.loc 1 1456 0
 1354 0020 BB69     		ldr	r3, [r7, #24]
 1355 0022 002B     		cmp	r3, #0
 1356 0024 24D0     		beq	.L81
1457:Source/queue.c **** 			{
1458:Source/queue.c **** 				traceQUEUE_RECEIVE( pxQueue );
1459:Source/queue.c **** 
1460:Source/queue.c **** 				/* Semaphores are queues with a data size of zero and where the
1461:Source/queue.c **** 				messages waiting is the semaphore's count.  Reduce the count. */
1462:Source/queue.c **** 				pxQueue->uxMessagesWaiting = uxSemaphoreCount - ( UBaseType_t ) 1;
 1357              		.loc 1 1462 0
 1358 0026 BB69     		ldr	r3, [r7, #24]
 1359 0028 5A1E     		subs	r2, r3, #1
 1360 002a FB69     		ldr	r3, [r7, #28]
 1361 002c 9A63     		str	r2, [r3, #56]
1463:Source/queue.c **** 
1464:Source/queue.c **** 				#if ( configUSE_MUTEXES == 1 )
1465:Source/queue.c **** 				{
1466:Source/queue.c **** 					if( pxQueue->uxQueueType == queueQUEUE_IS_MUTEX )
 1362              		.loc 1 1466 0
 1363 002e FB69     		ldr	r3, [r7, #28]
 1364 0030 1B68     		ldr	r3, [r3]
 1365 0032 002B     		cmp	r3, #0
 1366 0034 04D1     		bne	.L82
1467:Source/queue.c **** 					{
1468:Source/queue.c **** 						/* Record the information required to implement
1469:Source/queue.c **** 						priority inheritance should it become necessary. */
1470:Source/queue.c **** 						pxQueue->u.xSemaphore.xMutexHolder = pvTaskIncrementMutexHeldCount();
 1367              		.loc 1 1470 0
 1368 0036 FFF7FEFF 		bl	pvTaskIncrementMutexHeldCount
 1369 003a 0246     		mov	r2, r0
 1370 003c FB69     		ldr	r3, [r7, #28]
 1371 003e 9A60     		str	r2, [r3, #8]
 1372              	.L82:
1471:Source/queue.c **** 					}
1472:Source/queue.c **** 					else
ARM GAS  C:\Users\Emil\AppData\Local\Temp\ccX3pjTY.s 			page 55


1473:Source/queue.c **** 					{
1474:Source/queue.c **** 						mtCOVERAGE_TEST_MARKER();
1475:Source/queue.c **** 					}
1476:Source/queue.c **** 				}
1477:Source/queue.c **** 				#endif /* configUSE_MUTEXES */
1478:Source/queue.c **** 
1479:Source/queue.c **** 				/* Check to see if other tasks are blocked waiting to give the
1480:Source/queue.c **** 				semaphore, and if so, unblock the highest priority such task. */
1481:Source/queue.c **** 				if( listLIST_IS_EMPTY( &( pxQueue->xTasksWaitingToSend ) ) == pdFALSE )
 1373              		.loc 1 1481 0
 1374 0040 FB69     		ldr	r3, [r7, #28]
 1375 0042 1B69     		ldr	r3, [r3, #16]
 1376 0044 002B     		cmp	r3, #0
 1377 0046 0FD0     		beq	.L83
1482:Source/queue.c **** 				{
1483:Source/queue.c **** 					if( xTaskRemoveFromEventList( &( pxQueue->xTasksWaitingToSend ) ) != pdFALSE )
 1378              		.loc 1 1483 0
 1379 0048 FB69     		ldr	r3, [r7, #28]
 1380 004a 1033     		adds	r3, r3, #16
 1381 004c 1846     		mov	r0, r3
 1382 004e FFF7FEFF 		bl	xTaskRemoveFromEventList
 1383 0052 0346     		mov	r3, r0
 1384 0054 002B     		cmp	r3, #0
 1385 0056 07D0     		beq	.L83
1484:Source/queue.c **** 					{
1485:Source/queue.c **** 						queueYIELD_IF_USING_PREEMPTION();
 1386              		.loc 1 1485 0
 1387 0058 4C4B     		ldr	r3, .L97
 1388 005a 4FF08052 		mov	r2, #268435456
 1389 005e 1A60     		str	r2, [r3]
 1390              		.syntax unified
 1391              	@ 1485 "Source\queue.c" 1
 1392 0060 BFF34F8F 		dsb
 1393              	@ 0 "" 2
 1394              	@ 1485 "Source\queue.c" 1
 1395 0064 BFF36F8F 		isb
 1396              	@ 0 "" 2
 1397              		.thumb
 1398              		.syntax unified
 1399              	.L83:
1486:Source/queue.c **** 					}
1487:Source/queue.c **** 					else
1488:Source/queue.c **** 					{
1489:Source/queue.c **** 						mtCOVERAGE_TEST_MARKER();
1490:Source/queue.c **** 					}
1491:Source/queue.c **** 				}
1492:Source/queue.c **** 				else
1493:Source/queue.c **** 				{
1494:Source/queue.c **** 					mtCOVERAGE_TEST_MARKER();
1495:Source/queue.c **** 				}
1496:Source/queue.c **** 
1497:Source/queue.c **** 				taskEXIT_CRITICAL();
 1400              		.loc 1 1497 0
 1401 0068 FFF7FEFF 		bl	vPortExitCritical
1498:Source/queue.c **** 				return pdPASS;
 1402              		.loc 1 1498 0
 1403 006c 0123     		movs	r3, #1
ARM GAS  C:\Users\Emil\AppData\Local\Temp\ccX3pjTY.s 			page 56


 1404 006e 89E0     		b	.L96
 1405              	.L81:
1499:Source/queue.c **** 			}
1500:Source/queue.c **** 			else
1501:Source/queue.c **** 			{
1502:Source/queue.c **** 				if( xTicksToWait == ( TickType_t ) 0 )
 1406              		.loc 1 1502 0
 1407 0070 3B68     		ldr	r3, [r7]
 1408 0072 002B     		cmp	r3, #0
 1409 0074 03D1     		bne	.L85
1503:Source/queue.c **** 				{
1504:Source/queue.c **** 					/* For inheritance to have occurred there must have been an
1505:Source/queue.c **** 					initial timeout, and an adjusted timeout cannot become 0, as
1506:Source/queue.c **** 					if it were 0 the function would have exited. */
1507:Source/queue.c **** 					#if( configUSE_MUTEXES == 1 )
1508:Source/queue.c **** 					{
1509:Source/queue.c **** 						configASSERT( xInheritanceOccurred == pdFALSE );
1510:Source/queue.c **** 					}
1511:Source/queue.c **** 					#endif /* configUSE_MUTEXES */
1512:Source/queue.c **** 
1513:Source/queue.c **** 					/* The semaphore count was 0 and no block time is specified
1514:Source/queue.c **** 					(or the block time has expired) so exit now. */
1515:Source/queue.c **** 					taskEXIT_CRITICAL();
 1410              		.loc 1 1515 0
 1411 0076 FFF7FEFF 		bl	vPortExitCritical
1516:Source/queue.c **** 					traceQUEUE_RECEIVE_FAILED( pxQueue );
1517:Source/queue.c **** 					return errQUEUE_EMPTY;
 1412              		.loc 1 1517 0
 1413 007a 0023     		movs	r3, #0
 1414 007c 82E0     		b	.L96
 1415              	.L85:
1518:Source/queue.c **** 				}
1519:Source/queue.c **** 				else if( xEntryTimeSet == pdFALSE )
 1416              		.loc 1 1519 0
 1417 007e 7B6A     		ldr	r3, [r7, #36]
 1418 0080 002B     		cmp	r3, #0
 1419 0082 06D1     		bne	.L86
1520:Source/queue.c **** 				{
1521:Source/queue.c **** 					/* The semaphore count was 0 and a block time was specified
1522:Source/queue.c **** 					so configure the timeout structure ready to block. */
1523:Source/queue.c **** 					vTaskInternalSetTimeOutState( &xTimeOut );
 1420              		.loc 1 1523 0
 1421 0084 07F10C03 		add	r3, r7, #12
 1422 0088 1846     		mov	r0, r3
 1423 008a FFF7FEFF 		bl	vTaskInternalSetTimeOutState
1524:Source/queue.c **** 					xEntryTimeSet = pdTRUE;
 1424              		.loc 1 1524 0
 1425 008e 0123     		movs	r3, #1
 1426 0090 7B62     		str	r3, [r7, #36]
 1427              	.L86:
 1428              	.LBE35:
1525:Source/queue.c **** 				}
1526:Source/queue.c **** 				else
1527:Source/queue.c **** 				{
1528:Source/queue.c **** 					/* Entry time was already set. */
1529:Source/queue.c **** 					mtCOVERAGE_TEST_MARKER();
1530:Source/queue.c **** 				}
ARM GAS  C:\Users\Emil\AppData\Local\Temp\ccX3pjTY.s 			page 57


1531:Source/queue.c **** 			}
1532:Source/queue.c **** 		}
1533:Source/queue.c **** 		taskEXIT_CRITICAL();
 1429              		.loc 1 1533 0
 1430 0092 FFF7FEFF 		bl	vPortExitCritical
1534:Source/queue.c **** 
1535:Source/queue.c **** 		/* Interrupts and other tasks can give to and take from the semaphore
1536:Source/queue.c **** 		now the critical section has been exited. */
1537:Source/queue.c **** 
1538:Source/queue.c **** 		vTaskSuspendAll();
 1431              		.loc 1 1538 0
 1432 0096 FFF7FEFF 		bl	vTaskSuspendAll
1539:Source/queue.c **** 		prvLockQueue( pxQueue );
 1433              		.loc 1 1539 0
 1434 009a FFF7FEFF 		bl	vPortEnterCritical
 1435 009e FB69     		ldr	r3, [r7, #28]
 1436 00a0 93F84430 		ldrb	r3, [r3, #68]
 1437 00a4 5BB2     		sxtb	r3, r3
 1438 00a6 B3F1FF3F 		cmp	r3, #-1
 1439 00aa 03D1     		bne	.L87
 1440              		.loc 1 1539 0 is_stmt 0 discriminator 1
 1441 00ac FB69     		ldr	r3, [r7, #28]
 1442 00ae 0022     		movs	r2, #0
 1443 00b0 83F84420 		strb	r2, [r3, #68]
 1444              	.L87:
 1445              		.loc 1 1539 0 discriminator 3
 1446 00b4 FB69     		ldr	r3, [r7, #28]
 1447 00b6 93F84530 		ldrb	r3, [r3, #69]
 1448 00ba 5BB2     		sxtb	r3, r3
 1449 00bc B3F1FF3F 		cmp	r3, #-1
 1450 00c0 03D1     		bne	.L88
 1451              		.loc 1 1539 0 discriminator 4
 1452 00c2 FB69     		ldr	r3, [r7, #28]
 1453 00c4 0022     		movs	r2, #0
 1454 00c6 83F84520 		strb	r2, [r3, #69]
 1455              	.L88:
 1456              		.loc 1 1539 0 discriminator 6
 1457 00ca FFF7FEFF 		bl	vPortExitCritical
1540:Source/queue.c **** 
1541:Source/queue.c **** 		/* Update the timeout state to see if it has expired yet. */
1542:Source/queue.c **** 		if( xTaskCheckForTimeOut( &xTimeOut, &xTicksToWait ) == pdFALSE )
 1458              		.loc 1 1542 0 is_stmt 1 discriminator 6
 1459 00ce 3A46     		mov	r2, r7
 1460 00d0 07F10C03 		add	r3, r7, #12
 1461 00d4 1146     		mov	r1, r2
 1462 00d6 1846     		mov	r0, r3
 1463 00d8 FFF7FEFF 		bl	xTaskCheckForTimeOut
 1464 00dc 0346     		mov	r3, r0
 1465 00de 002B     		cmp	r3, #0
 1466 00e0 32D1     		bne	.L89
1543:Source/queue.c **** 		{
1544:Source/queue.c **** 			/* A block time is specified and not expired.  If the semaphore
1545:Source/queue.c **** 			count is 0 then enter the Blocked state to wait for a semaphore to
1546:Source/queue.c **** 			become available.  As semaphores are implemented with queues the
1547:Source/queue.c **** 			queue being empty is equivalent to the semaphore count being 0. */
1548:Source/queue.c **** 			if( prvIsQueueEmpty( pxQueue ) != pdFALSE )
 1467              		.loc 1 1548 0
ARM GAS  C:\Users\Emil\AppData\Local\Temp\ccX3pjTY.s 			page 58


 1468 00e2 F869     		ldr	r0, [r7, #28]
 1469 00e4 FFF7FEFF 		bl	prvIsQueueEmpty
 1470 00e8 0346     		mov	r3, r0
 1471 00ea 002B     		cmp	r3, #0
 1472 00ec 26D0     		beq	.L90
1549:Source/queue.c **** 			{
1550:Source/queue.c **** 				traceBLOCKING_ON_QUEUE_RECEIVE( pxQueue );
1551:Source/queue.c **** 
1552:Source/queue.c **** 				#if ( configUSE_MUTEXES == 1 )
1553:Source/queue.c **** 				{
1554:Source/queue.c **** 					if( pxQueue->uxQueueType == queueQUEUE_IS_MUTEX )
 1473              		.loc 1 1554 0
 1474 00ee FB69     		ldr	r3, [r7, #28]
 1475 00f0 1B68     		ldr	r3, [r3]
 1476 00f2 002B     		cmp	r3, #0
 1477 00f4 09D1     		bne	.L91
1555:Source/queue.c **** 					{
1556:Source/queue.c **** 						taskENTER_CRITICAL();
 1478              		.loc 1 1556 0
 1479 00f6 FFF7FEFF 		bl	vPortEnterCritical
1557:Source/queue.c **** 						{
1558:Source/queue.c **** 							xInheritanceOccurred = xTaskPriorityInherit( pxQueue->u.xSemaphore.xMutexHolder );
 1480              		.loc 1 1558 0
 1481 00fa FB69     		ldr	r3, [r7, #28]
 1482 00fc 9B68     		ldr	r3, [r3, #8]
 1483 00fe 1846     		mov	r0, r3
 1484 0100 FFF7FEFF 		bl	xTaskPriorityInherit
 1485 0104 3862     		str	r0, [r7, #32]
1559:Source/queue.c **** 						}
1560:Source/queue.c **** 						taskEXIT_CRITICAL();
 1486              		.loc 1 1560 0
 1487 0106 FFF7FEFF 		bl	vPortExitCritical
 1488              	.L91:
1561:Source/queue.c **** 					}
1562:Source/queue.c **** 					else
1563:Source/queue.c **** 					{
1564:Source/queue.c **** 						mtCOVERAGE_TEST_MARKER();
1565:Source/queue.c **** 					}
1566:Source/queue.c **** 				}
1567:Source/queue.c **** 				#endif
1568:Source/queue.c **** 
1569:Source/queue.c **** 				vTaskPlaceOnEventList( &( pxQueue->xTasksWaitingToReceive ), xTicksToWait );
 1489              		.loc 1 1569 0
 1490 010a FB69     		ldr	r3, [r7, #28]
 1491 010c 2433     		adds	r3, r3, #36
 1492 010e 3A68     		ldr	r2, [r7]
 1493 0110 1146     		mov	r1, r2
 1494 0112 1846     		mov	r0, r3
 1495 0114 FFF7FEFF 		bl	vTaskPlaceOnEventList
1570:Source/queue.c **** 				prvUnlockQueue( pxQueue );
 1496              		.loc 1 1570 0
 1497 0118 F869     		ldr	r0, [r7, #28]
 1498 011a FFF7FEFF 		bl	prvUnlockQueue
1571:Source/queue.c **** 				if( xTaskResumeAll() == pdFALSE )
 1499              		.loc 1 1571 0
 1500 011e FFF7FEFF 		bl	xTaskResumeAll
 1501 0122 0346     		mov	r3, r0
ARM GAS  C:\Users\Emil\AppData\Local\Temp\ccX3pjTY.s 			page 59


 1502 0124 002B     		cmp	r3, #0
 1503 0126 7FF476AF 		bne	.L95
1572:Source/queue.c **** 				{
1573:Source/queue.c **** 					portYIELD_WITHIN_API();
 1504              		.loc 1 1573 0
 1505 012a 184B     		ldr	r3, .L97
 1506 012c 4FF08052 		mov	r2, #268435456
 1507 0130 1A60     		str	r2, [r3]
 1508              		.syntax unified
 1509              	@ 1573 "Source\queue.c" 1
 1510 0132 BFF34F8F 		dsb
 1511              	@ 0 "" 2
 1512              	@ 1573 "Source\queue.c" 1
 1513 0136 BFF36F8F 		isb
 1514              	@ 0 "" 2
 1515              		.thumb
 1516              		.syntax unified
 1517 013a 6CE7     		b	.L95
 1518              	.L90:
1574:Source/queue.c **** 				}
1575:Source/queue.c **** 				else
1576:Source/queue.c **** 				{
1577:Source/queue.c **** 					mtCOVERAGE_TEST_MARKER();
1578:Source/queue.c **** 				}
1579:Source/queue.c **** 			}
1580:Source/queue.c **** 			else
1581:Source/queue.c **** 			{
1582:Source/queue.c **** 				/* There was no timeout and the semaphore count was not 0, so
1583:Source/queue.c **** 				attempt to take the semaphore again. */
1584:Source/queue.c **** 				prvUnlockQueue( pxQueue );
 1519              		.loc 1 1584 0
 1520 013c F869     		ldr	r0, [r7, #28]
 1521 013e FFF7FEFF 		bl	prvUnlockQueue
1585:Source/queue.c **** 				( void ) xTaskResumeAll();
 1522              		.loc 1 1585 0
 1523 0142 FFF7FEFF 		bl	xTaskResumeAll
 1524 0146 66E7     		b	.L95
 1525              	.L89:
1586:Source/queue.c **** 			}
1587:Source/queue.c **** 		}
1588:Source/queue.c **** 		else
1589:Source/queue.c **** 		{
1590:Source/queue.c **** 			/* Timed out. */
1591:Source/queue.c **** 			prvUnlockQueue( pxQueue );
 1526              		.loc 1 1591 0
 1527 0148 F869     		ldr	r0, [r7, #28]
 1528 014a FFF7FEFF 		bl	prvUnlockQueue
1592:Source/queue.c **** 			( void ) xTaskResumeAll();
 1529              		.loc 1 1592 0
 1530 014e FFF7FEFF 		bl	xTaskResumeAll
1593:Source/queue.c **** 
1594:Source/queue.c **** 			/* If the semaphore count is 0 exit now as the timeout has
1595:Source/queue.c **** 			expired.  Otherwise return to attempt to take the semaphore that is
1596:Source/queue.c **** 			known to be available.  As semaphores are implemented by queues the
1597:Source/queue.c **** 			queue being empty is equivalent to the semaphore count being 0. */
1598:Source/queue.c **** 			if( prvIsQueueEmpty( pxQueue ) != pdFALSE )
 1531              		.loc 1 1598 0
ARM GAS  C:\Users\Emil\AppData\Local\Temp\ccX3pjTY.s 			page 60


 1532 0152 F869     		ldr	r0, [r7, #28]
 1533 0154 FFF7FEFF 		bl	prvIsQueueEmpty
 1534 0158 0346     		mov	r3, r0
 1535 015a 002B     		cmp	r3, #0
 1536 015c 3FF45BAF 		beq	.L95
1599:Source/queue.c **** 			{
1600:Source/queue.c **** 				#if ( configUSE_MUTEXES == 1 )
1601:Source/queue.c **** 				{
1602:Source/queue.c **** 					/* xInheritanceOccurred could only have be set if
1603:Source/queue.c **** 					pxQueue->uxQueueType == queueQUEUE_IS_MUTEX so no need to
1604:Source/queue.c **** 					test the mutex type again to check it is actually a mutex. */
1605:Source/queue.c **** 					if( xInheritanceOccurred != pdFALSE )
 1537              		.loc 1 1605 0
 1538 0160 3B6A     		ldr	r3, [r7, #32]
 1539 0162 002B     		cmp	r3, #0
 1540 0164 0DD0     		beq	.L94
1606:Source/queue.c **** 					{
1607:Source/queue.c **** 						taskENTER_CRITICAL();
 1541              		.loc 1 1607 0
 1542 0166 FFF7FEFF 		bl	vPortEnterCritical
 1543              	.LBB36:
1608:Source/queue.c **** 						{
1609:Source/queue.c **** 							UBaseType_t uxHighestWaitingPriority;
1610:Source/queue.c **** 
1611:Source/queue.c **** 							/* This task blocking on the mutex caused another
1612:Source/queue.c **** 							task to inherit this task's priority.  Now this task
1613:Source/queue.c **** 							has timed out the priority should be disinherited
1614:Source/queue.c **** 							again, but only as low as the next highest priority
1615:Source/queue.c **** 							task that is waiting for the same mutex. */
1616:Source/queue.c **** 							uxHighestWaitingPriority = prvGetDisinheritPriorityAfterTimeout( pxQueue );
 1544              		.loc 1 1616 0
 1545 016a F869     		ldr	r0, [r7, #28]
 1546 016c FFF7FEFF 		bl	prvGetDisinheritPriorityAfterTimeout
 1547 0170 7861     		str	r0, [r7, #20]
1617:Source/queue.c **** 							vTaskPriorityDisinheritAfterTimeout( pxQueue->u.xSemaphore.xMutexHolder, uxHighestWaitingPri
 1548              		.loc 1 1617 0
 1549 0172 FB69     		ldr	r3, [r7, #28]
 1550 0174 9B68     		ldr	r3, [r3, #8]
 1551 0176 7969     		ldr	r1, [r7, #20]
 1552 0178 1846     		mov	r0, r3
 1553 017a FFF7FEFF 		bl	vTaskPriorityDisinheritAfterTimeout
 1554              	.LBE36:
1618:Source/queue.c **** 						}
1619:Source/queue.c **** 						taskEXIT_CRITICAL();
 1555              		.loc 1 1619 0
 1556 017e FFF7FEFF 		bl	vPortExitCritical
 1557              	.L94:
1620:Source/queue.c **** 					}
1621:Source/queue.c **** 				}
1622:Source/queue.c **** 				#endif /* configUSE_MUTEXES */
1623:Source/queue.c **** 
1624:Source/queue.c **** 				traceQUEUE_RECEIVE_FAILED( pxQueue );
1625:Source/queue.c **** 				return errQUEUE_EMPTY;
 1558              		.loc 1 1625 0
 1559 0182 0023     		movs	r3, #0
 1560              	.L96:
1626:Source/queue.c **** 			}
ARM GAS  C:\Users\Emil\AppData\Local\Temp\ccX3pjTY.s 			page 61


1627:Source/queue.c **** 			else
1628:Source/queue.c **** 			{
1629:Source/queue.c **** 				mtCOVERAGE_TEST_MARKER();
1630:Source/queue.c **** 			}
1631:Source/queue.c **** 		}
1632:Source/queue.c **** 	} /*lint -restore */
1633:Source/queue.c **** }
 1561              		.loc 1 1633 0 discriminator 3
 1562 0184 1846     		mov	r0, r3
 1563 0186 2837     		adds	r7, r7, #40
 1564              		.cfi_def_cfa_offset 8
 1565 0188 BD46     		mov	sp, r7
 1566              		.cfi_def_cfa_register 13
 1567              		@ sp needed
 1568 018a 80BD     		pop	{r7, pc}
 1569              	.L98:
 1570              		.align	2
 1571              	.L97:
 1572 018c 04ED00E0 		.word	-536810236
 1573              		.cfi_endproc
 1574              	.LFE80:
 1575              		.size	xQueueSemaphoreTake, .-xQueueSemaphoreTake
 1576              		.section	.text.xQueuePeek,"ax",%progbits
 1577              		.align	2
 1578              		.global	xQueuePeek
 1579              		.thumb
 1580              		.thumb_func
 1581              		.type	xQueuePeek, %function
 1582              	xQueuePeek:
 1583              	.LFB81:
1634:Source/queue.c **** /*-----------------------------------------------------------*/
1635:Source/queue.c **** 
1636:Source/queue.c **** BaseType_t xQueuePeek( QueueHandle_t xQueue, void * const pvBuffer, TickType_t xTicksToWait )
1637:Source/queue.c **** {
 1584              		.loc 1 1637 0
 1585              		.cfi_startproc
 1586              		@ args = 0, pretend = 0, frame = 40
 1587              		@ frame_needed = 1, uses_anonymous_args = 0
 1588 0000 80B5     		push	{r7, lr}
 1589              		.cfi_def_cfa_offset 8
 1590              		.cfi_offset 7, -8
 1591              		.cfi_offset 14, -4
 1592 0002 8AB0     		sub	sp, sp, #40
 1593              		.cfi_def_cfa_offset 48
 1594 0004 00AF     		add	r7, sp, #0
 1595              		.cfi_def_cfa_register 7
 1596 0006 F860     		str	r0, [r7, #12]
 1597 0008 B960     		str	r1, [r7, #8]
 1598 000a 7A60     		str	r2, [r7, #4]
1638:Source/queue.c **** BaseType_t xEntryTimeSet = pdFALSE;
 1599              		.loc 1 1638 0
 1600 000c 0023     		movs	r3, #0
 1601 000e 7B62     		str	r3, [r7, #36]
1639:Source/queue.c **** TimeOut_t xTimeOut;
1640:Source/queue.c **** int8_t *pcOriginalReadPosition;
1641:Source/queue.c **** Queue_t * const pxQueue = xQueue;
 1602              		.loc 1 1641 0
ARM GAS  C:\Users\Emil\AppData\Local\Temp\ccX3pjTY.s 			page 62


 1603 0010 FB68     		ldr	r3, [r7, #12]
 1604 0012 3B62     		str	r3, [r7, #32]
 1605              	.L111:
1642:Source/queue.c **** 
1643:Source/queue.c **** 	/* Check the pointer is not NULL. */
1644:Source/queue.c **** 	configASSERT( ( pxQueue ) );
1645:Source/queue.c **** 
1646:Source/queue.c **** 	/* The buffer into which data is received can only be NULL if the data size
1647:Source/queue.c **** 	is zero (so no data is copied into the buffer. */
1648:Source/queue.c **** 	configASSERT( !( ( ( pvBuffer ) == NULL ) && ( ( pxQueue )->uxItemSize != ( UBaseType_t ) 0U ) ) )
1649:Source/queue.c **** 
1650:Source/queue.c **** 	/* Cannot block if the scheduler is suspended. */
1651:Source/queue.c **** 	#if ( ( INCLUDE_xTaskGetSchedulerState == 1 ) || ( configUSE_TIMERS == 1 ) )
1652:Source/queue.c **** 	{
1653:Source/queue.c **** 		configASSERT( !( ( xTaskGetSchedulerState() == taskSCHEDULER_SUSPENDED ) && ( xTicksToWait != 0 )
1654:Source/queue.c **** 	}
1655:Source/queue.c **** 	#endif
1656:Source/queue.c **** 
1657:Source/queue.c **** 
1658:Source/queue.c **** 	/*lint -save -e904  This function relaxes the coding standard somewhat to
1659:Source/queue.c **** 	allow return statements within the function itself.  This is done in the
1660:Source/queue.c **** 	interest of execution time efficiency. */
1661:Source/queue.c **** 	for( ;; )
1662:Source/queue.c **** 	{
1663:Source/queue.c **** 		taskENTER_CRITICAL();
 1606              		.loc 1 1663 0
 1607 0014 FFF7FEFF 		bl	vPortEnterCritical
 1608              	.LBB37:
1664:Source/queue.c **** 		{
1665:Source/queue.c **** 			const UBaseType_t uxMessagesWaiting = pxQueue->uxMessagesWaiting;
 1609              		.loc 1 1665 0
 1610 0018 3B6A     		ldr	r3, [r7, #32]
 1611 001a 9B6B     		ldr	r3, [r3, #56]
 1612 001c FB61     		str	r3, [r7, #28]
1666:Source/queue.c **** 
1667:Source/queue.c **** 			/* Is there data in the queue now?  To be running the calling task
1668:Source/queue.c **** 			must be the highest priority task wanting to access the queue. */
1669:Source/queue.c **** 			if( uxMessagesWaiting > ( UBaseType_t ) 0 )
 1613              		.loc 1 1669 0
 1614 001e FB69     		ldr	r3, [r7, #28]
 1615 0020 002B     		cmp	r3, #0
 1616 0022 21D0     		beq	.L100
1670:Source/queue.c **** 			{
1671:Source/queue.c **** 				/* Remember the read position so it can be reset after the data
1672:Source/queue.c **** 				is read from the queue as this function is only peeking the
1673:Source/queue.c **** 				data, not removing it. */
1674:Source/queue.c **** 				pcOriginalReadPosition = pxQueue->u.xQueue.pcReadFrom;
 1617              		.loc 1 1674 0
 1618 0024 3B6A     		ldr	r3, [r7, #32]
 1619 0026 DB68     		ldr	r3, [r3, #12]
 1620 0028 BB61     		str	r3, [r7, #24]
1675:Source/queue.c **** 
1676:Source/queue.c **** 				prvCopyDataFromQueue( pxQueue, pvBuffer );
 1621              		.loc 1 1676 0
 1622 002a B968     		ldr	r1, [r7, #8]
 1623 002c 386A     		ldr	r0, [r7, #32]
 1624 002e FFF7FEFF 		bl	prvCopyDataFromQueue
ARM GAS  C:\Users\Emil\AppData\Local\Temp\ccX3pjTY.s 			page 63


1677:Source/queue.c **** 				traceQUEUE_PEEK( pxQueue );
1678:Source/queue.c **** 
1679:Source/queue.c **** 				/* The data is not being removed, so reset the read pointer. */
1680:Source/queue.c **** 				pxQueue->u.xQueue.pcReadFrom = pcOriginalReadPosition;
 1625              		.loc 1 1680 0
 1626 0032 3B6A     		ldr	r3, [r7, #32]
 1627 0034 BA69     		ldr	r2, [r7, #24]
 1628 0036 DA60     		str	r2, [r3, #12]
1681:Source/queue.c **** 
1682:Source/queue.c **** 				/* The data is being left in the queue, so see if there are
1683:Source/queue.c **** 				any other tasks waiting for the data. */
1684:Source/queue.c **** 				if( listLIST_IS_EMPTY( &( pxQueue->xTasksWaitingToReceive ) ) == pdFALSE )
 1629              		.loc 1 1684 0
 1630 0038 3B6A     		ldr	r3, [r7, #32]
 1631 003a 5B6A     		ldr	r3, [r3, #36]
 1632 003c 002B     		cmp	r3, #0
 1633 003e 0FD0     		beq	.L101
1685:Source/queue.c **** 				{
1686:Source/queue.c **** 					if( xTaskRemoveFromEventList( &( pxQueue->xTasksWaitingToReceive ) ) != pdFALSE )
 1634              		.loc 1 1686 0
 1635 0040 3B6A     		ldr	r3, [r7, #32]
 1636 0042 2433     		adds	r3, r3, #36
 1637 0044 1846     		mov	r0, r3
 1638 0046 FFF7FEFF 		bl	xTaskRemoveFromEventList
 1639 004a 0346     		mov	r3, r0
 1640 004c 002B     		cmp	r3, #0
 1641 004e 07D0     		beq	.L101
1687:Source/queue.c **** 					{
1688:Source/queue.c **** 						/* The task waiting has a higher priority than this task. */
1689:Source/queue.c **** 						queueYIELD_IF_USING_PREEMPTION();
 1642              		.loc 1 1689 0
 1643 0050 3C4B     		ldr	r3, .L113
 1644 0052 4FF08052 		mov	r2, #268435456
 1645 0056 1A60     		str	r2, [r3]
 1646              		.syntax unified
 1647              	@ 1689 "Source\queue.c" 1
 1648 0058 BFF34F8F 		dsb
 1649              	@ 0 "" 2
 1650              	@ 1689 "Source\queue.c" 1
 1651 005c BFF36F8F 		isb
 1652              	@ 0 "" 2
 1653              		.thumb
 1654              		.syntax unified
 1655              	.L101:
1690:Source/queue.c **** 					}
1691:Source/queue.c **** 					else
1692:Source/queue.c **** 					{
1693:Source/queue.c **** 						mtCOVERAGE_TEST_MARKER();
1694:Source/queue.c **** 					}
1695:Source/queue.c **** 				}
1696:Source/queue.c **** 				else
1697:Source/queue.c **** 				{
1698:Source/queue.c **** 					mtCOVERAGE_TEST_MARKER();
1699:Source/queue.c **** 				}
1700:Source/queue.c **** 
1701:Source/queue.c **** 				taskEXIT_CRITICAL();
 1656              		.loc 1 1701 0
ARM GAS  C:\Users\Emil\AppData\Local\Temp\ccX3pjTY.s 			page 64


 1657 0060 FFF7FEFF 		bl	vPortExitCritical
1702:Source/queue.c **** 				return pdPASS;
 1658              		.loc 1 1702 0
 1659 0064 0123     		movs	r3, #1
 1660 0066 69E0     		b	.L112
 1661              	.L100:
1703:Source/queue.c **** 			}
1704:Source/queue.c **** 			else
1705:Source/queue.c **** 			{
1706:Source/queue.c **** 				if( xTicksToWait == ( TickType_t ) 0 )
 1662              		.loc 1 1706 0
 1663 0068 7B68     		ldr	r3, [r7, #4]
 1664 006a 002B     		cmp	r3, #0
 1665 006c 03D1     		bne	.L103
1707:Source/queue.c **** 				{
1708:Source/queue.c **** 					/* The queue was empty and no block time is specified (or
1709:Source/queue.c **** 					the block time has expired) so leave now. */
1710:Source/queue.c **** 					taskEXIT_CRITICAL();
 1666              		.loc 1 1710 0
 1667 006e FFF7FEFF 		bl	vPortExitCritical
1711:Source/queue.c **** 					traceQUEUE_PEEK_FAILED( pxQueue );
1712:Source/queue.c **** 					return errQUEUE_EMPTY;
 1668              		.loc 1 1712 0
 1669 0072 0023     		movs	r3, #0
 1670 0074 62E0     		b	.L112
 1671              	.L103:
1713:Source/queue.c **** 				}
1714:Source/queue.c **** 				else if( xEntryTimeSet == pdFALSE )
 1672              		.loc 1 1714 0
 1673 0076 7B6A     		ldr	r3, [r7, #36]
 1674 0078 002B     		cmp	r3, #0
 1675 007a 06D1     		bne	.L104
1715:Source/queue.c **** 				{
1716:Source/queue.c **** 					/* The queue was empty and a block time was specified so
1717:Source/queue.c **** 					configure the timeout structure ready to enter the blocked
1718:Source/queue.c **** 					state. */
1719:Source/queue.c **** 					vTaskInternalSetTimeOutState( &xTimeOut );
 1676              		.loc 1 1719 0
 1677 007c 07F11003 		add	r3, r7, #16
 1678 0080 1846     		mov	r0, r3
 1679 0082 FFF7FEFF 		bl	vTaskInternalSetTimeOutState
1720:Source/queue.c **** 					xEntryTimeSet = pdTRUE;
 1680              		.loc 1 1720 0
 1681 0086 0123     		movs	r3, #1
 1682 0088 7B62     		str	r3, [r7, #36]
 1683              	.L104:
 1684              	.LBE37:
1721:Source/queue.c **** 				}
1722:Source/queue.c **** 				else
1723:Source/queue.c **** 				{
1724:Source/queue.c **** 					/* Entry time was already set. */
1725:Source/queue.c **** 					mtCOVERAGE_TEST_MARKER();
1726:Source/queue.c **** 				}
1727:Source/queue.c **** 			}
1728:Source/queue.c **** 		}
1729:Source/queue.c **** 		taskEXIT_CRITICAL();
 1685              		.loc 1 1729 0
ARM GAS  C:\Users\Emil\AppData\Local\Temp\ccX3pjTY.s 			page 65


 1686 008a FFF7FEFF 		bl	vPortExitCritical
1730:Source/queue.c **** 
1731:Source/queue.c **** 		/* Interrupts and other tasks can send to and receive from the queue
1732:Source/queue.c **** 		now the critical section has been exited. */
1733:Source/queue.c **** 
1734:Source/queue.c **** 		vTaskSuspendAll();
 1687              		.loc 1 1734 0
 1688 008e FFF7FEFF 		bl	vTaskSuspendAll
1735:Source/queue.c **** 		prvLockQueue( pxQueue );
 1689              		.loc 1 1735 0
 1690 0092 FFF7FEFF 		bl	vPortEnterCritical
 1691 0096 3B6A     		ldr	r3, [r7, #32]
 1692 0098 93F84430 		ldrb	r3, [r3, #68]
 1693 009c 5BB2     		sxtb	r3, r3
 1694 009e B3F1FF3F 		cmp	r3, #-1
 1695 00a2 03D1     		bne	.L105
 1696              		.loc 1 1735 0 is_stmt 0 discriminator 1
 1697 00a4 3B6A     		ldr	r3, [r7, #32]
 1698 00a6 0022     		movs	r2, #0
 1699 00a8 83F84420 		strb	r2, [r3, #68]
 1700              	.L105:
 1701              		.loc 1 1735 0 discriminator 3
 1702 00ac 3B6A     		ldr	r3, [r7, #32]
 1703 00ae 93F84530 		ldrb	r3, [r3, #69]
 1704 00b2 5BB2     		sxtb	r3, r3
 1705 00b4 B3F1FF3F 		cmp	r3, #-1
 1706 00b8 03D1     		bne	.L106
 1707              		.loc 1 1735 0 discriminator 4
 1708 00ba 3B6A     		ldr	r3, [r7, #32]
 1709 00bc 0022     		movs	r2, #0
 1710 00be 83F84520 		strb	r2, [r3, #69]
 1711              	.L106:
 1712              		.loc 1 1735 0 discriminator 6
 1713 00c2 FFF7FEFF 		bl	vPortExitCritical
1736:Source/queue.c **** 
1737:Source/queue.c **** 		/* Update the timeout state to see if it has expired yet. */
1738:Source/queue.c **** 		if( xTaskCheckForTimeOut( &xTimeOut, &xTicksToWait ) == pdFALSE )
 1714              		.loc 1 1738 0 is_stmt 1 discriminator 6
 1715 00c6 3A1D     		adds	r2, r7, #4
 1716 00c8 07F11003 		add	r3, r7, #16
 1717 00cc 1146     		mov	r1, r2
 1718 00ce 1846     		mov	r0, r3
 1719 00d0 FFF7FEFF 		bl	xTaskCheckForTimeOut
 1720 00d4 0346     		mov	r3, r0
 1721 00d6 002B     		cmp	r3, #0
 1722 00d8 23D1     		bne	.L107
1739:Source/queue.c **** 		{
1740:Source/queue.c **** 			/* Timeout has not expired yet, check to see if there is data in the
1741:Source/queue.c **** 			queue now, and if not enter the Blocked state to wait for data. */
1742:Source/queue.c **** 			if( prvIsQueueEmpty( pxQueue ) != pdFALSE )
 1723              		.loc 1 1742 0
 1724 00da 386A     		ldr	r0, [r7, #32]
 1725 00dc FFF7FEFF 		bl	prvIsQueueEmpty
 1726 00e0 0346     		mov	r3, r0
 1727 00e2 002B     		cmp	r3, #0
 1728 00e4 17D0     		beq	.L108
1743:Source/queue.c **** 			{
ARM GAS  C:\Users\Emil\AppData\Local\Temp\ccX3pjTY.s 			page 66


1744:Source/queue.c **** 				traceBLOCKING_ON_QUEUE_PEEK( pxQueue );
1745:Source/queue.c **** 				vTaskPlaceOnEventList( &( pxQueue->xTasksWaitingToReceive ), xTicksToWait );
 1729              		.loc 1 1745 0
 1730 00e6 3B6A     		ldr	r3, [r7, #32]
 1731 00e8 2433     		adds	r3, r3, #36
 1732 00ea 7A68     		ldr	r2, [r7, #4]
 1733 00ec 1146     		mov	r1, r2
 1734 00ee 1846     		mov	r0, r3
 1735 00f0 FFF7FEFF 		bl	vTaskPlaceOnEventList
1746:Source/queue.c **** 				prvUnlockQueue( pxQueue );
 1736              		.loc 1 1746 0
 1737 00f4 386A     		ldr	r0, [r7, #32]
 1738 00f6 FFF7FEFF 		bl	prvUnlockQueue
1747:Source/queue.c **** 				if( xTaskResumeAll() == pdFALSE )
 1739              		.loc 1 1747 0
 1740 00fa FFF7FEFF 		bl	xTaskResumeAll
 1741 00fe 0346     		mov	r3, r0
 1742 0100 002B     		cmp	r3, #0
 1743 0102 87D1     		bne	.L111
1748:Source/queue.c **** 				{
1749:Source/queue.c **** 					portYIELD_WITHIN_API();
 1744              		.loc 1 1749 0
 1745 0104 0F4B     		ldr	r3, .L113
 1746 0106 4FF08052 		mov	r2, #268435456
 1747 010a 1A60     		str	r2, [r3]
 1748              		.syntax unified
 1749              	@ 1749 "Source\queue.c" 1
 1750 010c BFF34F8F 		dsb
 1751              	@ 0 "" 2
 1752              	@ 1749 "Source\queue.c" 1
 1753 0110 BFF36F8F 		isb
 1754              	@ 0 "" 2
 1755              		.thumb
 1756              		.syntax unified
 1757 0114 7EE7     		b	.L111
 1758              	.L108:
1750:Source/queue.c **** 				}
1751:Source/queue.c **** 				else
1752:Source/queue.c **** 				{
1753:Source/queue.c **** 					mtCOVERAGE_TEST_MARKER();
1754:Source/queue.c **** 				}
1755:Source/queue.c **** 			}
1756:Source/queue.c **** 			else
1757:Source/queue.c **** 			{
1758:Source/queue.c **** 				/* There is data in the queue now, so don't enter the blocked
1759:Source/queue.c **** 				state, instead return to try and obtain the data. */
1760:Source/queue.c **** 				prvUnlockQueue( pxQueue );
 1759              		.loc 1 1760 0
 1760 0116 386A     		ldr	r0, [r7, #32]
 1761 0118 FFF7FEFF 		bl	prvUnlockQueue
1761:Source/queue.c **** 				( void ) xTaskResumeAll();
 1762              		.loc 1 1761 0
 1763 011c FFF7FEFF 		bl	xTaskResumeAll
 1764 0120 78E7     		b	.L111
 1765              	.L107:
1762:Source/queue.c **** 			}
1763:Source/queue.c **** 		}
ARM GAS  C:\Users\Emil\AppData\Local\Temp\ccX3pjTY.s 			page 67


1764:Source/queue.c **** 		else
1765:Source/queue.c **** 		{
1766:Source/queue.c **** 			/* The timeout has expired.  If there is still no data in the queue
1767:Source/queue.c **** 			exit, otherwise go back and try to read the data again. */
1768:Source/queue.c **** 			prvUnlockQueue( pxQueue );
 1766              		.loc 1 1768 0
 1767 0122 386A     		ldr	r0, [r7, #32]
 1768 0124 FFF7FEFF 		bl	prvUnlockQueue
1769:Source/queue.c **** 			( void ) xTaskResumeAll();
 1769              		.loc 1 1769 0
 1770 0128 FFF7FEFF 		bl	xTaskResumeAll
1770:Source/queue.c **** 
1771:Source/queue.c **** 			if( prvIsQueueEmpty( pxQueue ) != pdFALSE )
 1771              		.loc 1 1771 0
 1772 012c 386A     		ldr	r0, [r7, #32]
 1773 012e FFF7FEFF 		bl	prvIsQueueEmpty
 1774 0132 0346     		mov	r3, r0
 1775 0134 002B     		cmp	r3, #0
 1776 0136 3FF46DAF 		beq	.L111
1772:Source/queue.c **** 			{
1773:Source/queue.c **** 				traceQUEUE_PEEK_FAILED( pxQueue );
1774:Source/queue.c **** 				return errQUEUE_EMPTY;
 1777              		.loc 1 1774 0
 1778 013a 0023     		movs	r3, #0
 1779              	.L112:
1775:Source/queue.c **** 			}
1776:Source/queue.c **** 			else
1777:Source/queue.c **** 			{
1778:Source/queue.c **** 				mtCOVERAGE_TEST_MARKER();
1779:Source/queue.c **** 			}
1780:Source/queue.c **** 		}
1781:Source/queue.c **** 	} /*lint -restore */
1782:Source/queue.c **** }
 1780              		.loc 1 1782 0 discriminator 3
 1781 013c 1846     		mov	r0, r3
 1782 013e 2837     		adds	r7, r7, #40
 1783              		.cfi_def_cfa_offset 8
 1784 0140 BD46     		mov	sp, r7
 1785              		.cfi_def_cfa_register 13
 1786              		@ sp needed
 1787 0142 80BD     		pop	{r7, pc}
 1788              	.L114:
 1789              		.align	2
 1790              	.L113:
 1791 0144 04ED00E0 		.word	-536810236
 1792              		.cfi_endproc
 1793              	.LFE81:
 1794              		.size	xQueuePeek, .-xQueuePeek
 1795              		.section	.text.xQueueReceiveFromISR,"ax",%progbits
 1796              		.align	2
 1797              		.global	xQueueReceiveFromISR
 1798              		.thumb
 1799              		.thumb_func
 1800              		.type	xQueueReceiveFromISR, %function
 1801              	xQueueReceiveFromISR:
 1802              	.LFB82:
1783:Source/queue.c **** /*-----------------------------------------------------------*/
ARM GAS  C:\Users\Emil\AppData\Local\Temp\ccX3pjTY.s 			page 68


1784:Source/queue.c **** 
1785:Source/queue.c **** BaseType_t xQueueReceiveFromISR( QueueHandle_t xQueue, void * const pvBuffer, BaseType_t * const px
1786:Source/queue.c **** {
 1803              		.loc 1 1786 0
 1804              		.cfi_startproc
 1805              		@ args = 0, pretend = 0, frame = 48
 1806              		@ frame_needed = 1, uses_anonymous_args = 0
 1807 0000 80B5     		push	{r7, lr}
 1808              		.cfi_def_cfa_offset 8
 1809              		.cfi_offset 7, -8
 1810              		.cfi_offset 14, -4
 1811 0002 8CB0     		sub	sp, sp, #48
 1812              		.cfi_def_cfa_offset 56
 1813 0004 00AF     		add	r7, sp, #0
 1814              		.cfi_def_cfa_register 7
 1815 0006 F860     		str	r0, [r7, #12]
 1816 0008 B960     		str	r1, [r7, #8]
 1817 000a 7A60     		str	r2, [r7, #4]
1787:Source/queue.c **** BaseType_t xReturn;
1788:Source/queue.c **** UBaseType_t uxSavedInterruptStatus;
1789:Source/queue.c **** Queue_t * const pxQueue = xQueue;
 1818              		.loc 1 1789 0
 1819 000c FB68     		ldr	r3, [r7, #12]
 1820 000e BB62     		str	r3, [r7, #40]
 1821              	.LBB38:
 1822              	.LBB39:
 213:.\Source\portable\GCC\ARM_CM3/portmacro.h **** 	(
 1823              		.loc 2 213 0
 1824              		.syntax unified
 1825              	@ 213 ".\Source\portable\GCC\ARM_CM3/portmacro.h" 1
 1826 0010 EFF31182 			mrs r2, basepri											
 1827 0014 4FF0A003 		mov r3, #160												
 1828 0018 83F31188 		msr basepri, r3											
 1829 001c BFF36F8F 		isb														
 1830 0020 BFF34F8F 		dsb														
 1831              	
 1832              	@ 0 "" 2
 1833              		.thumb
 1834              		.syntax unified
 1835 0024 7A61     		str	r2, [r7, #20]
 1836 0026 3B61     		str	r3, [r7, #16]
 225:.\Source\portable\GCC\ARM_CM3/portmacro.h **** }
 1837              		.loc 2 225 0
 1838 0028 7B69     		ldr	r3, [r7, #20]
 1839              	.LBE39:
 1840              	.LBE38:
1790:Source/queue.c **** 
1791:Source/queue.c **** 	configASSERT( pxQueue );
1792:Source/queue.c **** 	configASSERT( !( ( pvBuffer == NULL ) && ( pxQueue->uxItemSize != ( UBaseType_t ) 0U ) ) );
1793:Source/queue.c **** 
1794:Source/queue.c **** 	/* RTOS ports that support interrupt nesting have the concept of a maximum
1795:Source/queue.c **** 	system call (or maximum API call) interrupt priority.  Interrupts that are
1796:Source/queue.c **** 	above the maximum system call priority are kept permanently enabled, even
1797:Source/queue.c **** 	when the RTOS kernel is in a critical section, but cannot make any calls to
1798:Source/queue.c **** 	FreeRTOS API functions.  If configASSERT() is defined in FreeRTOSConfig.h
1799:Source/queue.c **** 	then portASSERT_IF_INTERRUPT_PRIORITY_INVALID() will result in an assertion
1800:Source/queue.c **** 	failure if a FreeRTOS API function is called from an interrupt that has been
ARM GAS  C:\Users\Emil\AppData\Local\Temp\ccX3pjTY.s 			page 69


1801:Source/queue.c **** 	assigned a priority above the configured maximum system call priority.
1802:Source/queue.c **** 	Only FreeRTOS functions that end in FromISR can be called from interrupts
1803:Source/queue.c **** 	that have been assigned a priority at or (logically) below the maximum
1804:Source/queue.c **** 	system call	interrupt priority.  FreeRTOS maintains a separate interrupt
1805:Source/queue.c **** 	safe API to ensure interrupt entry is as fast and as simple as possible.
1806:Source/queue.c **** 	More information (albeit Cortex-M specific) is provided on the following
1807:Source/queue.c **** 	link: http://www.freertos.org/RTOS-Cortex-M3-M4.html */
1808:Source/queue.c **** 	portASSERT_IF_INTERRUPT_PRIORITY_INVALID();
1809:Source/queue.c **** 
1810:Source/queue.c **** 	uxSavedInterruptStatus = portSET_INTERRUPT_MASK_FROM_ISR();
 1841              		.loc 1 1810 0
 1842 002a 3B62     		str	r3, [r7, #32]
 1843              	.LBB40:
1811:Source/queue.c **** 	{
1812:Source/queue.c **** 		const UBaseType_t uxMessagesWaiting = pxQueue->uxMessagesWaiting;
 1844              		.loc 1 1812 0
 1845 002c BB6A     		ldr	r3, [r7, #40]
 1846 002e 9B6B     		ldr	r3, [r3, #56]
 1847 0030 FB61     		str	r3, [r7, #28]
1813:Source/queue.c **** 
1814:Source/queue.c **** 		/* Cannot block in an ISR, so check there is data available. */
1815:Source/queue.c **** 		if( uxMessagesWaiting > ( UBaseType_t ) 0 )
 1848              		.loc 1 1815 0
 1849 0032 FB69     		ldr	r3, [r7, #28]
 1850 0034 002B     		cmp	r3, #0
 1851 0036 2DD0     		beq	.L117
 1852              	.LBB41:
1816:Source/queue.c **** 		{
1817:Source/queue.c **** 			const int8_t cRxLock = pxQueue->cRxLock;
 1853              		.loc 1 1817 0
 1854 0038 BB6A     		ldr	r3, [r7, #40]
 1855 003a 93F84430 		ldrb	r3, [r3, #68]
 1856 003e FB76     		strb	r3, [r7, #27]
1818:Source/queue.c **** 
1819:Source/queue.c **** 			traceQUEUE_RECEIVE_FROM_ISR( pxQueue );
1820:Source/queue.c **** 
1821:Source/queue.c **** 			prvCopyDataFromQueue( pxQueue, pvBuffer );
 1857              		.loc 1 1821 0
 1858 0040 B968     		ldr	r1, [r7, #8]
 1859 0042 B86A     		ldr	r0, [r7, #40]
 1860 0044 FFF7FEFF 		bl	prvCopyDataFromQueue
1822:Source/queue.c **** 			pxQueue->uxMessagesWaiting = uxMessagesWaiting - ( UBaseType_t ) 1;
 1861              		.loc 1 1822 0
 1862 0048 FB69     		ldr	r3, [r7, #28]
 1863 004a 5A1E     		subs	r2, r3, #1
 1864 004c BB6A     		ldr	r3, [r7, #40]
 1865 004e 9A63     		str	r2, [r3, #56]
1823:Source/queue.c **** 
1824:Source/queue.c **** 			/* If the queue is locked the event list will not be modified.
1825:Source/queue.c **** 			Instead update the lock count so the task that unlocks the queue
1826:Source/queue.c **** 			will know that an ISR has removed data while the queue was
1827:Source/queue.c **** 			locked. */
1828:Source/queue.c **** 			if( cRxLock == queueUNLOCKED )
 1866              		.loc 1 1828 0
 1867 0050 97F91B30 		ldrsb	r3, [r7, #27]
 1868 0054 B3F1FF3F 		cmp	r3, #-1
 1869 0058 12D1     		bne	.L118
ARM GAS  C:\Users\Emil\AppData\Local\Temp\ccX3pjTY.s 			page 70


1829:Source/queue.c **** 			{
1830:Source/queue.c **** 				if( listLIST_IS_EMPTY( &( pxQueue->xTasksWaitingToSend ) ) == pdFALSE )
 1870              		.loc 1 1830 0
 1871 005a BB6A     		ldr	r3, [r7, #40]
 1872 005c 1B69     		ldr	r3, [r3, #16]
 1873 005e 002B     		cmp	r3, #0
 1874 0060 15D0     		beq	.L119
1831:Source/queue.c **** 				{
1832:Source/queue.c **** 					if( xTaskRemoveFromEventList( &( pxQueue->xTasksWaitingToSend ) ) != pdFALSE )
 1875              		.loc 1 1832 0
 1876 0062 BB6A     		ldr	r3, [r7, #40]
 1877 0064 1033     		adds	r3, r3, #16
 1878 0066 1846     		mov	r0, r3
 1879 0068 FFF7FEFF 		bl	xTaskRemoveFromEventList
 1880 006c 0346     		mov	r3, r0
 1881 006e 002B     		cmp	r3, #0
 1882 0070 0DD0     		beq	.L119
1833:Source/queue.c **** 					{
1834:Source/queue.c **** 						/* The task waiting has a higher priority than us so
1835:Source/queue.c **** 						force a context switch. */
1836:Source/queue.c **** 						if( pxHigherPriorityTaskWoken != NULL )
 1883              		.loc 1 1836 0
 1884 0072 7B68     		ldr	r3, [r7, #4]
 1885 0074 002B     		cmp	r3, #0
 1886 0076 0AD0     		beq	.L119
1837:Source/queue.c **** 						{
1838:Source/queue.c **** 							*pxHigherPriorityTaskWoken = pdTRUE;
 1887              		.loc 1 1838 0
 1888 0078 7B68     		ldr	r3, [r7, #4]
 1889 007a 0122     		movs	r2, #1
 1890 007c 1A60     		str	r2, [r3]
 1891 007e 06E0     		b	.L119
 1892              	.L118:
1839:Source/queue.c **** 						}
1840:Source/queue.c **** 						else
1841:Source/queue.c **** 						{
1842:Source/queue.c **** 							mtCOVERAGE_TEST_MARKER();
1843:Source/queue.c **** 						}
1844:Source/queue.c **** 					}
1845:Source/queue.c **** 					else
1846:Source/queue.c **** 					{
1847:Source/queue.c **** 						mtCOVERAGE_TEST_MARKER();
1848:Source/queue.c **** 					}
1849:Source/queue.c **** 				}
1850:Source/queue.c **** 				else
1851:Source/queue.c **** 				{
1852:Source/queue.c **** 					mtCOVERAGE_TEST_MARKER();
1853:Source/queue.c **** 				}
1854:Source/queue.c **** 			}
1855:Source/queue.c **** 			else
1856:Source/queue.c **** 			{
1857:Source/queue.c **** 				/* Increment the lock count so the task that unlocks the queue
1858:Source/queue.c **** 				knows that data was removed while it was locked. */
1859:Source/queue.c **** 				pxQueue->cRxLock = ( int8_t ) ( cRxLock + 1 );
 1893              		.loc 1 1859 0
 1894 0080 FB7E     		ldrb	r3, [r7, #27]	@ zero_extendqisi2
 1895 0082 0133     		adds	r3, r3, #1
ARM GAS  C:\Users\Emil\AppData\Local\Temp\ccX3pjTY.s 			page 71


 1896 0084 DBB2     		uxtb	r3, r3
 1897 0086 5AB2     		sxtb	r2, r3
 1898 0088 BB6A     		ldr	r3, [r7, #40]
 1899 008a 83F84420 		strb	r2, [r3, #68]
 1900              	.L119:
1860:Source/queue.c **** 			}
1861:Source/queue.c **** 
1862:Source/queue.c **** 			xReturn = pdPASS;
 1901              		.loc 1 1862 0
 1902 008e 0123     		movs	r3, #1
 1903 0090 FB62     		str	r3, [r7, #44]
 1904              	.LBE41:
 1905 0092 01E0     		b	.L120
 1906              	.L117:
1863:Source/queue.c **** 		}
1864:Source/queue.c **** 		else
1865:Source/queue.c **** 		{
1866:Source/queue.c **** 			xReturn = pdFAIL;
 1907              		.loc 1 1866 0
 1908 0094 0023     		movs	r3, #0
 1909 0096 FB62     		str	r3, [r7, #44]
 1910              	.L120:
 1911 0098 3B6A     		ldr	r3, [r7, #32]
 1912 009a 7B62     		str	r3, [r7, #36]
 1913              	.LBE40:
 1914              	.LBB42:
 1915              	.LBB43:
 1916              		.loc 2 231 0
 1917 009c 7B6A     		ldr	r3, [r7, #36]
 1918              		.syntax unified
 1919              	@ 231 ".\Source\portable\GCC\ARM_CM3/portmacro.h" 1
 1920 009e 83F31188 			msr basepri, r3	
 1921              	@ 0 "" 2
 1922              		.thumb
 1923              		.syntax unified
 1924              	.LBE43:
 1925              	.LBE42:
1867:Source/queue.c **** 			traceQUEUE_RECEIVE_FROM_ISR_FAILED( pxQueue );
1868:Source/queue.c **** 		}
1869:Source/queue.c **** 	}
1870:Source/queue.c **** 	portCLEAR_INTERRUPT_MASK_FROM_ISR( uxSavedInterruptStatus );
1871:Source/queue.c **** 
1872:Source/queue.c **** 	return xReturn;
 1926              		.loc 1 1872 0
 1927 00a2 FB6A     		ldr	r3, [r7, #44]
1873:Source/queue.c **** }
 1928              		.loc 1 1873 0
 1929 00a4 1846     		mov	r0, r3
 1930 00a6 3037     		adds	r7, r7, #48
 1931              		.cfi_def_cfa_offset 8
 1932 00a8 BD46     		mov	sp, r7
 1933              		.cfi_def_cfa_register 13
 1934              		@ sp needed
 1935 00aa 80BD     		pop	{r7, pc}
 1936              		.cfi_endproc
 1937              	.LFE82:
 1938              		.size	xQueueReceiveFromISR, .-xQueueReceiveFromISR
ARM GAS  C:\Users\Emil\AppData\Local\Temp\ccX3pjTY.s 			page 72


 1939              		.section	.text.xQueuePeekFromISR,"ax",%progbits
 1940              		.align	2
 1941              		.global	xQueuePeekFromISR
 1942              		.thumb
 1943              		.thumb_func
 1944              		.type	xQueuePeekFromISR, %function
 1945              	xQueuePeekFromISR:
 1946              	.LFB83:
1874:Source/queue.c **** /*-----------------------------------------------------------*/
1875:Source/queue.c **** 
1876:Source/queue.c **** BaseType_t xQueuePeekFromISR( QueueHandle_t xQueue,  void * const pvBuffer )
1877:Source/queue.c **** {
 1947              		.loc 1 1877 0
 1948              		.cfi_startproc
 1949              		@ args = 0, pretend = 0, frame = 40
 1950              		@ frame_needed = 1, uses_anonymous_args = 0
 1951 0000 80B5     		push	{r7, lr}
 1952              		.cfi_def_cfa_offset 8
 1953              		.cfi_offset 7, -8
 1954              		.cfi_offset 14, -4
 1955 0002 8AB0     		sub	sp, sp, #40
 1956              		.cfi_def_cfa_offset 48
 1957 0004 00AF     		add	r7, sp, #0
 1958              		.cfi_def_cfa_register 7
 1959 0006 7860     		str	r0, [r7, #4]
 1960 0008 3960     		str	r1, [r7]
1878:Source/queue.c **** BaseType_t xReturn;
1879:Source/queue.c **** UBaseType_t uxSavedInterruptStatus;
1880:Source/queue.c **** int8_t *pcOriginalReadPosition;
1881:Source/queue.c **** Queue_t * const pxQueue = xQueue;
 1961              		.loc 1 1881 0
 1962 000a 7B68     		ldr	r3, [r7, #4]
 1963 000c 3B62     		str	r3, [r7, #32]
 1964              	.LBB44:
 1965              	.LBB45:
 213:.\Source\portable\GCC\ARM_CM3/portmacro.h **** 	(
 1966              		.loc 2 213 0
 1967              		.syntax unified
 1968              	@ 213 ".\Source\portable\GCC\ARM_CM3/portmacro.h" 1
 1969 000e EFF31182 			mrs r2, basepri											
 1970 0012 4FF0A003 		mov r3, #160												
 1971 0016 83F31188 		msr basepri, r3											
 1972 001a BFF36F8F 		isb														
 1973 001e BFF34F8F 		dsb														
 1974              	
 1975              	@ 0 "" 2
 1976              		.thumb
 1977              		.syntax unified
 1978 0022 3A61     		str	r2, [r7, #16]
 1979 0024 FB60     		str	r3, [r7, #12]
 225:.\Source\portable\GCC\ARM_CM3/portmacro.h **** }
 1980              		.loc 2 225 0
 1981 0026 3B69     		ldr	r3, [r7, #16]
 1982              	.LBE45:
 1983              	.LBE44:
1882:Source/queue.c **** 
1883:Source/queue.c **** 	configASSERT( pxQueue );
ARM GAS  C:\Users\Emil\AppData\Local\Temp\ccX3pjTY.s 			page 73


1884:Source/queue.c **** 	configASSERT( !( ( pvBuffer == NULL ) && ( pxQueue->uxItemSize != ( UBaseType_t ) 0U ) ) );
1885:Source/queue.c **** 	configASSERT( pxQueue->uxItemSize != 0 ); /* Can't peek a semaphore. */
1886:Source/queue.c **** 
1887:Source/queue.c **** 	/* RTOS ports that support interrupt nesting have the concept of a maximum
1888:Source/queue.c **** 	system call (or maximum API call) interrupt priority.  Interrupts that are
1889:Source/queue.c **** 	above the maximum system call priority are kept permanently enabled, even
1890:Source/queue.c **** 	when the RTOS kernel is in a critical section, but cannot make any calls to
1891:Source/queue.c **** 	FreeRTOS API functions.  If configASSERT() is defined in FreeRTOSConfig.h
1892:Source/queue.c **** 	then portASSERT_IF_INTERRUPT_PRIORITY_INVALID() will result in an assertion
1893:Source/queue.c **** 	failure if a FreeRTOS API function is called from an interrupt that has been
1894:Source/queue.c **** 	assigned a priority above the configured maximum system call priority.
1895:Source/queue.c **** 	Only FreeRTOS functions that end in FromISR can be called from interrupts
1896:Source/queue.c **** 	that have been assigned a priority at or (logically) below the maximum
1897:Source/queue.c **** 	system call	interrupt priority.  FreeRTOS maintains a separate interrupt
1898:Source/queue.c **** 	safe API to ensure interrupt entry is as fast and as simple as possible.
1899:Source/queue.c **** 	More information (albeit Cortex-M specific) is provided on the following
1900:Source/queue.c **** 	link: http://www.freertos.org/RTOS-Cortex-M3-M4.html */
1901:Source/queue.c **** 	portASSERT_IF_INTERRUPT_PRIORITY_INVALID();
1902:Source/queue.c **** 
1903:Source/queue.c **** 	uxSavedInterruptStatus = portSET_INTERRUPT_MASK_FROM_ISR();
 1984              		.loc 1 1903 0
 1985 0028 BB61     		str	r3, [r7, #24]
1904:Source/queue.c **** 	{
1905:Source/queue.c **** 		/* Cannot block in an ISR, so check there is data available. */
1906:Source/queue.c **** 		if( pxQueue->uxMessagesWaiting > ( UBaseType_t ) 0 )
 1986              		.loc 1 1906 0
 1987 002a 3B6A     		ldr	r3, [r7, #32]
 1988 002c 9B6B     		ldr	r3, [r3, #56]
 1989 002e 002B     		cmp	r3, #0
 1990 0030 0CD0     		beq	.L124
1907:Source/queue.c **** 		{
1908:Source/queue.c **** 			traceQUEUE_PEEK_FROM_ISR( pxQueue );
1909:Source/queue.c **** 
1910:Source/queue.c **** 			/* Remember the read position so it can be reset as nothing is
1911:Source/queue.c **** 			actually being removed from the queue. */
1912:Source/queue.c **** 			pcOriginalReadPosition = pxQueue->u.xQueue.pcReadFrom;
 1991              		.loc 1 1912 0
 1992 0032 3B6A     		ldr	r3, [r7, #32]
 1993 0034 DB68     		ldr	r3, [r3, #12]
 1994 0036 7B61     		str	r3, [r7, #20]
1913:Source/queue.c **** 			prvCopyDataFromQueue( pxQueue, pvBuffer );
 1995              		.loc 1 1913 0
 1996 0038 3968     		ldr	r1, [r7]
 1997 003a 386A     		ldr	r0, [r7, #32]
 1998 003c FFF7FEFF 		bl	prvCopyDataFromQueue
1914:Source/queue.c **** 			pxQueue->u.xQueue.pcReadFrom = pcOriginalReadPosition;
 1999              		.loc 1 1914 0
 2000 0040 3B6A     		ldr	r3, [r7, #32]
 2001 0042 7A69     		ldr	r2, [r7, #20]
 2002 0044 DA60     		str	r2, [r3, #12]
1915:Source/queue.c **** 
1916:Source/queue.c **** 			xReturn = pdPASS;
 2003              		.loc 1 1916 0
 2004 0046 0123     		movs	r3, #1
 2005 0048 7B62     		str	r3, [r7, #36]
 2006 004a 01E0     		b	.L125
 2007              	.L124:
ARM GAS  C:\Users\Emil\AppData\Local\Temp\ccX3pjTY.s 			page 74


1917:Source/queue.c **** 		}
1918:Source/queue.c **** 		else
1919:Source/queue.c **** 		{
1920:Source/queue.c **** 			xReturn = pdFAIL;
 2008              		.loc 1 1920 0
 2009 004c 0023     		movs	r3, #0
 2010 004e 7B62     		str	r3, [r7, #36]
 2011              	.L125:
 2012 0050 BB69     		ldr	r3, [r7, #24]
 2013 0052 FB61     		str	r3, [r7, #28]
 2014              	.LBB46:
 2015              	.LBB47:
 2016              		.loc 2 231 0
 2017 0054 FB69     		ldr	r3, [r7, #28]
 2018              		.syntax unified
 2019              	@ 231 ".\Source\portable\GCC\ARM_CM3/portmacro.h" 1
 2020 0056 83F31188 			msr basepri, r3	
 2021              	@ 0 "" 2
 2022              		.thumb
 2023              		.syntax unified
 2024              	.LBE47:
 2025              	.LBE46:
1921:Source/queue.c **** 			traceQUEUE_PEEK_FROM_ISR_FAILED( pxQueue );
1922:Source/queue.c **** 		}
1923:Source/queue.c **** 	}
1924:Source/queue.c **** 	portCLEAR_INTERRUPT_MASK_FROM_ISR( uxSavedInterruptStatus );
1925:Source/queue.c **** 
1926:Source/queue.c **** 	return xReturn;
 2026              		.loc 1 1926 0
 2027 005a 7B6A     		ldr	r3, [r7, #36]
1927:Source/queue.c **** }
 2028              		.loc 1 1927 0
 2029 005c 1846     		mov	r0, r3
 2030 005e 2837     		adds	r7, r7, #40
 2031              		.cfi_def_cfa_offset 8
 2032 0060 BD46     		mov	sp, r7
 2033              		.cfi_def_cfa_register 13
 2034              		@ sp needed
 2035 0062 80BD     		pop	{r7, pc}
 2036              		.cfi_endproc
 2037              	.LFE83:
 2038              		.size	xQueuePeekFromISR, .-xQueuePeekFromISR
 2039              		.section	.text.uxQueueMessagesWaiting,"ax",%progbits
 2040              		.align	2
 2041              		.global	uxQueueMessagesWaiting
 2042              		.thumb
 2043              		.thumb_func
 2044              		.type	uxQueueMessagesWaiting, %function
 2045              	uxQueueMessagesWaiting:
 2046              	.LFB84:
1928:Source/queue.c **** /*-----------------------------------------------------------*/
1929:Source/queue.c **** 
1930:Source/queue.c **** UBaseType_t uxQueueMessagesWaiting( const QueueHandle_t xQueue )
1931:Source/queue.c **** {
 2047              		.loc 1 1931 0
 2048              		.cfi_startproc
 2049              		@ args = 0, pretend = 0, frame = 16
ARM GAS  C:\Users\Emil\AppData\Local\Temp\ccX3pjTY.s 			page 75


 2050              		@ frame_needed = 1, uses_anonymous_args = 0
 2051 0000 80B5     		push	{r7, lr}
 2052              		.cfi_def_cfa_offset 8
 2053              		.cfi_offset 7, -8
 2054              		.cfi_offset 14, -4
 2055 0002 84B0     		sub	sp, sp, #16
 2056              		.cfi_def_cfa_offset 24
 2057 0004 00AF     		add	r7, sp, #0
 2058              		.cfi_def_cfa_register 7
 2059 0006 7860     		str	r0, [r7, #4]
1932:Source/queue.c **** UBaseType_t uxReturn;
1933:Source/queue.c **** 
1934:Source/queue.c **** 	configASSERT( xQueue );
1935:Source/queue.c **** 
1936:Source/queue.c **** 	taskENTER_CRITICAL();
 2060              		.loc 1 1936 0
 2061 0008 FFF7FEFF 		bl	vPortEnterCritical
1937:Source/queue.c **** 	{
1938:Source/queue.c **** 		uxReturn = ( ( Queue_t * ) xQueue )->uxMessagesWaiting;
 2062              		.loc 1 1938 0
 2063 000c 7B68     		ldr	r3, [r7, #4]
 2064 000e 9B6B     		ldr	r3, [r3, #56]
 2065 0010 FB60     		str	r3, [r7, #12]
1939:Source/queue.c **** 	}
1940:Source/queue.c **** 	taskEXIT_CRITICAL();
 2066              		.loc 1 1940 0
 2067 0012 FFF7FEFF 		bl	vPortExitCritical
1941:Source/queue.c **** 
1942:Source/queue.c **** 	return uxReturn;
 2068              		.loc 1 1942 0
 2069 0016 FB68     		ldr	r3, [r7, #12]
1943:Source/queue.c **** } /*lint !e818 Pointer cannot be declared const as xQueue is a typedef not pointer. */
 2070              		.loc 1 1943 0
 2071 0018 1846     		mov	r0, r3
 2072 001a 1037     		adds	r7, r7, #16
 2073              		.cfi_def_cfa_offset 8
 2074 001c BD46     		mov	sp, r7
 2075              		.cfi_def_cfa_register 13
 2076              		@ sp needed
 2077 001e 80BD     		pop	{r7, pc}
 2078              		.cfi_endproc
 2079              	.LFE84:
 2080              		.size	uxQueueMessagesWaiting, .-uxQueueMessagesWaiting
 2081              		.section	.text.uxQueueSpacesAvailable,"ax",%progbits
 2082              		.align	2
 2083              		.global	uxQueueSpacesAvailable
 2084              		.thumb
 2085              		.thumb_func
 2086              		.type	uxQueueSpacesAvailable, %function
 2087              	uxQueueSpacesAvailable:
 2088              	.LFB85:
1944:Source/queue.c **** /*-----------------------------------------------------------*/
1945:Source/queue.c **** 
1946:Source/queue.c **** UBaseType_t uxQueueSpacesAvailable( const QueueHandle_t xQueue )
1947:Source/queue.c **** {
 2089              		.loc 1 1947 0
 2090              		.cfi_startproc
ARM GAS  C:\Users\Emil\AppData\Local\Temp\ccX3pjTY.s 			page 76


 2091              		@ args = 0, pretend = 0, frame = 16
 2092              		@ frame_needed = 1, uses_anonymous_args = 0
 2093 0000 80B5     		push	{r7, lr}
 2094              		.cfi_def_cfa_offset 8
 2095              		.cfi_offset 7, -8
 2096              		.cfi_offset 14, -4
 2097 0002 84B0     		sub	sp, sp, #16
 2098              		.cfi_def_cfa_offset 24
 2099 0004 00AF     		add	r7, sp, #0
 2100              		.cfi_def_cfa_register 7
 2101 0006 7860     		str	r0, [r7, #4]
1948:Source/queue.c **** UBaseType_t uxReturn;
1949:Source/queue.c **** Queue_t * const pxQueue = xQueue;
 2102              		.loc 1 1949 0
 2103 0008 7B68     		ldr	r3, [r7, #4]
 2104 000a FB60     		str	r3, [r7, #12]
1950:Source/queue.c **** 
1951:Source/queue.c **** 	configASSERT( pxQueue );
1952:Source/queue.c **** 
1953:Source/queue.c **** 	taskENTER_CRITICAL();
 2105              		.loc 1 1953 0
 2106 000c FFF7FEFF 		bl	vPortEnterCritical
1954:Source/queue.c **** 	{
1955:Source/queue.c **** 		uxReturn = pxQueue->uxLength - pxQueue->uxMessagesWaiting;
 2107              		.loc 1 1955 0
 2108 0010 FB68     		ldr	r3, [r7, #12]
 2109 0012 DA6B     		ldr	r2, [r3, #60]
 2110 0014 FB68     		ldr	r3, [r7, #12]
 2111 0016 9B6B     		ldr	r3, [r3, #56]
 2112 0018 D31A     		subs	r3, r2, r3
 2113 001a BB60     		str	r3, [r7, #8]
1956:Source/queue.c **** 	}
1957:Source/queue.c **** 	taskEXIT_CRITICAL();
 2114              		.loc 1 1957 0
 2115 001c FFF7FEFF 		bl	vPortExitCritical
1958:Source/queue.c **** 
1959:Source/queue.c **** 	return uxReturn;
 2116              		.loc 1 1959 0
 2117 0020 BB68     		ldr	r3, [r7, #8]
1960:Source/queue.c **** } /*lint !e818 Pointer cannot be declared const as xQueue is a typedef not pointer. */
 2118              		.loc 1 1960 0
 2119 0022 1846     		mov	r0, r3
 2120 0024 1037     		adds	r7, r7, #16
 2121              		.cfi_def_cfa_offset 8
 2122 0026 BD46     		mov	sp, r7
 2123              		.cfi_def_cfa_register 13
 2124              		@ sp needed
 2125 0028 80BD     		pop	{r7, pc}
 2126              		.cfi_endproc
 2127              	.LFE85:
 2128              		.size	uxQueueSpacesAvailable, .-uxQueueSpacesAvailable
 2129 002a 00BF     		.section	.text.uxQueueMessagesWaitingFromISR,"ax",%progbits
 2130              		.align	2
 2131              		.global	uxQueueMessagesWaitingFromISR
 2132              		.thumb
 2133              		.thumb_func
 2134              		.type	uxQueueMessagesWaitingFromISR, %function
ARM GAS  C:\Users\Emil\AppData\Local\Temp\ccX3pjTY.s 			page 77


 2135              	uxQueueMessagesWaitingFromISR:
 2136              	.LFB86:
1961:Source/queue.c **** /*-----------------------------------------------------------*/
1962:Source/queue.c **** 
1963:Source/queue.c **** UBaseType_t uxQueueMessagesWaitingFromISR( const QueueHandle_t xQueue )
1964:Source/queue.c **** {
 2137              		.loc 1 1964 0
 2138              		.cfi_startproc
 2139              		@ args = 0, pretend = 0, frame = 16
 2140              		@ frame_needed = 1, uses_anonymous_args = 0
 2141              		@ link register save eliminated.
 2142 0000 80B4     		push	{r7}
 2143              		.cfi_def_cfa_offset 4
 2144              		.cfi_offset 7, -4
 2145 0002 85B0     		sub	sp, sp, #20
 2146              		.cfi_def_cfa_offset 24
 2147 0004 00AF     		add	r7, sp, #0
 2148              		.cfi_def_cfa_register 7
 2149 0006 7860     		str	r0, [r7, #4]
1965:Source/queue.c **** UBaseType_t uxReturn;
1966:Source/queue.c **** Queue_t * const pxQueue = xQueue;
 2150              		.loc 1 1966 0
 2151 0008 7B68     		ldr	r3, [r7, #4]
 2152 000a FB60     		str	r3, [r7, #12]
1967:Source/queue.c **** 
1968:Source/queue.c **** 	configASSERT( pxQueue );
1969:Source/queue.c **** 	uxReturn = pxQueue->uxMessagesWaiting;
 2153              		.loc 1 1969 0
 2154 000c FB68     		ldr	r3, [r7, #12]
 2155 000e 9B6B     		ldr	r3, [r3, #56]
 2156 0010 BB60     		str	r3, [r7, #8]
1970:Source/queue.c **** 
1971:Source/queue.c **** 	return uxReturn;
 2157              		.loc 1 1971 0
 2158 0012 BB68     		ldr	r3, [r7, #8]
1972:Source/queue.c **** } /*lint !e818 Pointer cannot be declared const as xQueue is a typedef not pointer. */
 2159              		.loc 1 1972 0
 2160 0014 1846     		mov	r0, r3
 2161 0016 1437     		adds	r7, r7, #20
 2162              		.cfi_def_cfa_offset 4
 2163 0018 BD46     		mov	sp, r7
 2164              		.cfi_def_cfa_register 13
 2165              		@ sp needed
 2166 001a 80BC     		pop	{r7}
 2167              		.cfi_restore 7
 2168              		.cfi_def_cfa_offset 0
 2169 001c 7047     		bx	lr
 2170              		.cfi_endproc
 2171              	.LFE86:
 2172              		.size	uxQueueMessagesWaitingFromISR, .-uxQueueMessagesWaitingFromISR
 2173 001e 00BF     		.section	.text.vQueueDelete,"ax",%progbits
 2174              		.align	2
 2175              		.global	vQueueDelete
 2176              		.thumb
 2177              		.thumb_func
 2178              		.type	vQueueDelete, %function
 2179              	vQueueDelete:
ARM GAS  C:\Users\Emil\AppData\Local\Temp\ccX3pjTY.s 			page 78


 2180              	.LFB87:
1973:Source/queue.c **** /*-----------------------------------------------------------*/
1974:Source/queue.c **** 
1975:Source/queue.c **** void vQueueDelete( QueueHandle_t xQueue )
1976:Source/queue.c **** {
 2181              		.loc 1 1976 0
 2182              		.cfi_startproc
 2183              		@ args = 0, pretend = 0, frame = 16
 2184              		@ frame_needed = 1, uses_anonymous_args = 0
 2185 0000 80B5     		push	{r7, lr}
 2186              		.cfi_def_cfa_offset 8
 2187              		.cfi_offset 7, -8
 2188              		.cfi_offset 14, -4
 2189 0002 84B0     		sub	sp, sp, #16
 2190              		.cfi_def_cfa_offset 24
 2191 0004 00AF     		add	r7, sp, #0
 2192              		.cfi_def_cfa_register 7
 2193 0006 7860     		str	r0, [r7, #4]
1977:Source/queue.c **** Queue_t * const pxQueue = xQueue;
 2194              		.loc 1 1977 0
 2195 0008 7B68     		ldr	r3, [r7, #4]
 2196 000a FB60     		str	r3, [r7, #12]
1978:Source/queue.c **** 
1979:Source/queue.c **** 	configASSERT( pxQueue );
1980:Source/queue.c **** 	traceQUEUE_DELETE( pxQueue );
1981:Source/queue.c **** 
1982:Source/queue.c **** 	#if ( configQUEUE_REGISTRY_SIZE > 0 )
1983:Source/queue.c **** 	{
1984:Source/queue.c **** 		vQueueUnregisterQueue( pxQueue );
 2197              		.loc 1 1984 0
 2198 000c F868     		ldr	r0, [r7, #12]
 2199 000e FFF7FEFF 		bl	vQueueUnregisterQueue
1985:Source/queue.c **** 	}
1986:Source/queue.c **** 	#endif
1987:Source/queue.c **** 
1988:Source/queue.c **** 	#if( ( configSUPPORT_DYNAMIC_ALLOCATION == 1 ) && ( configSUPPORT_STATIC_ALLOCATION == 0 ) )
1989:Source/queue.c **** 	{
1990:Source/queue.c **** 		/* The queue can only have been allocated dynamically - free it
1991:Source/queue.c **** 		again. */
1992:Source/queue.c **** 		vPortFree( pxQueue );
 2200              		.loc 1 1992 0
 2201 0012 F868     		ldr	r0, [r7, #12]
 2202 0014 FFF7FEFF 		bl	vPortFree
1993:Source/queue.c **** 	}
1994:Source/queue.c **** 	#elif( ( configSUPPORT_DYNAMIC_ALLOCATION == 1 ) && ( configSUPPORT_STATIC_ALLOCATION == 1 ) )
1995:Source/queue.c **** 	{
1996:Source/queue.c **** 		/* The queue could have been allocated statically or dynamically, so
1997:Source/queue.c **** 		check before attempting to free the memory. */
1998:Source/queue.c **** 		if( pxQueue->ucStaticallyAllocated == ( uint8_t ) pdFALSE )
1999:Source/queue.c **** 		{
2000:Source/queue.c **** 			vPortFree( pxQueue );
2001:Source/queue.c **** 		}
2002:Source/queue.c **** 		else
2003:Source/queue.c **** 		{
2004:Source/queue.c **** 			mtCOVERAGE_TEST_MARKER();
2005:Source/queue.c **** 		}
2006:Source/queue.c **** 	}
ARM GAS  C:\Users\Emil\AppData\Local\Temp\ccX3pjTY.s 			page 79


2007:Source/queue.c **** 	#else
2008:Source/queue.c **** 	{
2009:Source/queue.c **** 		/* The queue must have been statically allocated, so is not going to be
2010:Source/queue.c **** 		deleted.  Avoid compiler warnings about the unused parameter. */
2011:Source/queue.c **** 		( void ) pxQueue;
2012:Source/queue.c **** 	}
2013:Source/queue.c **** 	#endif /* configSUPPORT_DYNAMIC_ALLOCATION */
2014:Source/queue.c **** }
 2203              		.loc 1 2014 0
 2204 0018 00BF     		nop
 2205 001a 1037     		adds	r7, r7, #16
 2206              		.cfi_def_cfa_offset 8
 2207 001c BD46     		mov	sp, r7
 2208              		.cfi_def_cfa_register 13
 2209              		@ sp needed
 2210 001e 80BD     		pop	{r7, pc}
 2211              		.cfi_endproc
 2212              	.LFE87:
 2213              		.size	vQueueDelete, .-vQueueDelete
 2214              		.section	.text.prvGetDisinheritPriorityAfterTimeout,"ax",%progbits
 2215              		.align	2
 2216              		.thumb
 2217              		.thumb_func
 2218              		.type	prvGetDisinheritPriorityAfterTimeout, %function
 2219              	prvGetDisinheritPriorityAfterTimeout:
 2220              	.LFB88:
2015:Source/queue.c **** /*-----------------------------------------------------------*/
2016:Source/queue.c **** 
2017:Source/queue.c **** #if ( configUSE_TRACE_FACILITY == 1 )
2018:Source/queue.c **** 
2019:Source/queue.c **** 	UBaseType_t uxQueueGetQueueNumber( QueueHandle_t xQueue )
2020:Source/queue.c **** 	{
2021:Source/queue.c **** 		return ( ( Queue_t * ) xQueue )->uxQueueNumber;
2022:Source/queue.c **** 	}
2023:Source/queue.c **** 
2024:Source/queue.c **** #endif /* configUSE_TRACE_FACILITY */
2025:Source/queue.c **** /*-----------------------------------------------------------*/
2026:Source/queue.c **** 
2027:Source/queue.c **** #if ( configUSE_TRACE_FACILITY == 1 )
2028:Source/queue.c **** 
2029:Source/queue.c **** 	void vQueueSetQueueNumber( QueueHandle_t xQueue, UBaseType_t uxQueueNumber )
2030:Source/queue.c **** 	{
2031:Source/queue.c **** 		( ( Queue_t * ) xQueue )->uxQueueNumber = uxQueueNumber;
2032:Source/queue.c **** 	}
2033:Source/queue.c **** 
2034:Source/queue.c **** #endif /* configUSE_TRACE_FACILITY */
2035:Source/queue.c **** /*-----------------------------------------------------------*/
2036:Source/queue.c **** 
2037:Source/queue.c **** #if ( configUSE_TRACE_FACILITY == 1 )
2038:Source/queue.c **** 
2039:Source/queue.c **** 	uint8_t ucQueueGetQueueType( QueueHandle_t xQueue )
2040:Source/queue.c **** 	{
2041:Source/queue.c **** 		return ( ( Queue_t * ) xQueue )->ucQueueType;
2042:Source/queue.c **** 	}
2043:Source/queue.c **** 
2044:Source/queue.c **** #endif /* configUSE_TRACE_FACILITY */
2045:Source/queue.c **** /*-----------------------------------------------------------*/
ARM GAS  C:\Users\Emil\AppData\Local\Temp\ccX3pjTY.s 			page 80


2046:Source/queue.c **** 
2047:Source/queue.c **** #if( configUSE_MUTEXES == 1 )
2048:Source/queue.c **** 
2049:Source/queue.c **** 	static UBaseType_t prvGetDisinheritPriorityAfterTimeout( const Queue_t * const pxQueue )
2050:Source/queue.c **** 	{
 2221              		.loc 1 2050 0
 2222              		.cfi_startproc
 2223              		@ args = 0, pretend = 0, frame = 16
 2224              		@ frame_needed = 1, uses_anonymous_args = 0
 2225              		@ link register save eliminated.
 2226 0000 80B4     		push	{r7}
 2227              		.cfi_def_cfa_offset 4
 2228              		.cfi_offset 7, -4
 2229 0002 85B0     		sub	sp, sp, #20
 2230              		.cfi_def_cfa_offset 24
 2231 0004 00AF     		add	r7, sp, #0
 2232              		.cfi_def_cfa_register 7
 2233 0006 7860     		str	r0, [r7, #4]
2051:Source/queue.c **** 	UBaseType_t uxHighestPriorityOfWaitingTasks;
2052:Source/queue.c **** 
2053:Source/queue.c **** 		/* If a task waiting for a mutex causes the mutex holder to inherit a
2054:Source/queue.c **** 		priority, but the waiting task times out, then the holder should
2055:Source/queue.c **** 		disinherit the priority - but only down to the highest priority of any
2056:Source/queue.c **** 		other tasks that are waiting for the same mutex.  For this purpose,
2057:Source/queue.c **** 		return the priority of the highest priority task that is waiting for the
2058:Source/queue.c **** 		mutex. */
2059:Source/queue.c **** 		if( listCURRENT_LIST_LENGTH( &( pxQueue->xTasksWaitingToReceive ) ) > 0U )
 2234              		.loc 1 2059 0
 2235 0008 7B68     		ldr	r3, [r7, #4]
 2236 000a 5B6A     		ldr	r3, [r3, #36]
 2237 000c 002B     		cmp	r3, #0
 2238 000e 06D0     		beq	.L135
2060:Source/queue.c **** 		{
2061:Source/queue.c **** 			uxHighestPriorityOfWaitingTasks = ( UBaseType_t ) configMAX_PRIORITIES - ( UBaseType_t ) listGET
 2239              		.loc 1 2061 0
 2240 0010 7B68     		ldr	r3, [r7, #4]
 2241 0012 1B6B     		ldr	r3, [r3, #48]
 2242 0014 1B68     		ldr	r3, [r3]
 2243 0016 C3F10503 		rsb	r3, r3, #5
 2244 001a FB60     		str	r3, [r7, #12]
 2245 001c 01E0     		b	.L136
 2246              	.L135:
2062:Source/queue.c **** 		}
2063:Source/queue.c **** 		else
2064:Source/queue.c **** 		{
2065:Source/queue.c **** 			uxHighestPriorityOfWaitingTasks = tskIDLE_PRIORITY;
 2247              		.loc 1 2065 0
 2248 001e 0023     		movs	r3, #0
 2249 0020 FB60     		str	r3, [r7, #12]
 2250              	.L136:
2066:Source/queue.c **** 		}
2067:Source/queue.c **** 
2068:Source/queue.c **** 		return uxHighestPriorityOfWaitingTasks;
 2251              		.loc 1 2068 0
 2252 0022 FB68     		ldr	r3, [r7, #12]
2069:Source/queue.c **** 	}
 2253              		.loc 1 2069 0
ARM GAS  C:\Users\Emil\AppData\Local\Temp\ccX3pjTY.s 			page 81


 2254 0024 1846     		mov	r0, r3
 2255 0026 1437     		adds	r7, r7, #20
 2256              		.cfi_def_cfa_offset 4
 2257 0028 BD46     		mov	sp, r7
 2258              		.cfi_def_cfa_register 13
 2259              		@ sp needed
 2260 002a 80BC     		pop	{r7}
 2261              		.cfi_restore 7
 2262              		.cfi_def_cfa_offset 0
 2263 002c 7047     		bx	lr
 2264              		.cfi_endproc
 2265              	.LFE88:
 2266              		.size	prvGetDisinheritPriorityAfterTimeout, .-prvGetDisinheritPriorityAfterTimeout
 2267 002e 00BF     		.section	.text.prvCopyDataToQueue,"ax",%progbits
 2268              		.align	2
 2269              		.thumb
 2270              		.thumb_func
 2271              		.type	prvCopyDataToQueue, %function
 2272              	prvCopyDataToQueue:
 2273              	.LFB89:
2070:Source/queue.c **** 
2071:Source/queue.c **** #endif /* configUSE_MUTEXES */
2072:Source/queue.c **** /*-----------------------------------------------------------*/
2073:Source/queue.c **** 
2074:Source/queue.c **** static BaseType_t prvCopyDataToQueue( Queue_t * const pxQueue, const void *pvItemToQueue, const Bas
2075:Source/queue.c **** {
 2274              		.loc 1 2075 0
 2275              		.cfi_startproc
 2276              		@ args = 0, pretend = 0, frame = 24
 2277              		@ frame_needed = 1, uses_anonymous_args = 0
 2278 0000 80B5     		push	{r7, lr}
 2279              		.cfi_def_cfa_offset 8
 2280              		.cfi_offset 7, -8
 2281              		.cfi_offset 14, -4
 2282 0002 86B0     		sub	sp, sp, #24
 2283              		.cfi_def_cfa_offset 32
 2284 0004 00AF     		add	r7, sp, #0
 2285              		.cfi_def_cfa_register 7
 2286 0006 F860     		str	r0, [r7, #12]
 2287 0008 B960     		str	r1, [r7, #8]
 2288 000a 7A60     		str	r2, [r7, #4]
2076:Source/queue.c **** BaseType_t xReturn = pdFALSE;
 2289              		.loc 1 2076 0
 2290 000c 0023     		movs	r3, #0
 2291 000e 7B61     		str	r3, [r7, #20]
2077:Source/queue.c **** UBaseType_t uxMessagesWaiting;
2078:Source/queue.c **** 
2079:Source/queue.c **** 	/* This function is called from a critical section. */
2080:Source/queue.c **** 
2081:Source/queue.c **** 	uxMessagesWaiting = pxQueue->uxMessagesWaiting;
 2292              		.loc 1 2081 0
 2293 0010 FB68     		ldr	r3, [r7, #12]
 2294 0012 9B6B     		ldr	r3, [r3, #56]
 2295 0014 3B61     		str	r3, [r7, #16]
2082:Source/queue.c **** 
2083:Source/queue.c **** 	if( pxQueue->uxItemSize == ( UBaseType_t ) 0 )
 2296              		.loc 1 2083 0
ARM GAS  C:\Users\Emil\AppData\Local\Temp\ccX3pjTY.s 			page 82


 2297 0016 FB68     		ldr	r3, [r7, #12]
 2298 0018 1B6C     		ldr	r3, [r3, #64]
 2299 001a 002B     		cmp	r3, #0
 2300 001c 0DD1     		bne	.L139
2084:Source/queue.c **** 	{
2085:Source/queue.c **** 		#if ( configUSE_MUTEXES == 1 )
2086:Source/queue.c **** 		{
2087:Source/queue.c **** 			if( pxQueue->uxQueueType == queueQUEUE_IS_MUTEX )
 2301              		.loc 1 2087 0
 2302 001e FB68     		ldr	r3, [r7, #12]
 2303 0020 1B68     		ldr	r3, [r3]
 2304 0022 002B     		cmp	r3, #0
 2305 0024 4DD1     		bne	.L140
2088:Source/queue.c **** 			{
2089:Source/queue.c **** 				/* The mutex is no longer being held. */
2090:Source/queue.c **** 				xReturn = xTaskPriorityDisinherit( pxQueue->u.xSemaphore.xMutexHolder );
 2306              		.loc 1 2090 0
 2307 0026 FB68     		ldr	r3, [r7, #12]
 2308 0028 9B68     		ldr	r3, [r3, #8]
 2309 002a 1846     		mov	r0, r3
 2310 002c FFF7FEFF 		bl	xTaskPriorityDisinherit
 2311 0030 7861     		str	r0, [r7, #20]
2091:Source/queue.c **** 				pxQueue->u.xSemaphore.xMutexHolder = NULL;
 2312              		.loc 1 2091 0
 2313 0032 FB68     		ldr	r3, [r7, #12]
 2314 0034 0022     		movs	r2, #0
 2315 0036 9A60     		str	r2, [r3, #8]
 2316 0038 43E0     		b	.L140
 2317              	.L139:
2092:Source/queue.c **** 			}
2093:Source/queue.c **** 			else
2094:Source/queue.c **** 			{
2095:Source/queue.c **** 				mtCOVERAGE_TEST_MARKER();
2096:Source/queue.c **** 			}
2097:Source/queue.c **** 		}
2098:Source/queue.c **** 		#endif /* configUSE_MUTEXES */
2099:Source/queue.c **** 	}
2100:Source/queue.c **** 	else if( xPosition == queueSEND_TO_BACK )
 2318              		.loc 1 2100 0
 2319 003a 7B68     		ldr	r3, [r7, #4]
 2320 003c 002B     		cmp	r3, #0
 2321 003e 19D1     		bne	.L141
2101:Source/queue.c **** 	{
2102:Source/queue.c **** 		( void ) memcpy( ( void * ) pxQueue->pcWriteTo, pvItemToQueue, ( size_t ) pxQueue->uxItemSize ); 
 2322              		.loc 1 2102 0
 2323 0040 FB68     		ldr	r3, [r7, #12]
 2324 0042 5868     		ldr	r0, [r3, #4]
 2325 0044 FB68     		ldr	r3, [r7, #12]
 2326 0046 1B6C     		ldr	r3, [r3, #64]
 2327 0048 1A46     		mov	r2, r3
 2328 004a B968     		ldr	r1, [r7, #8]
 2329 004c FFF7FEFF 		bl	memcpy
2103:Source/queue.c **** 		pxQueue->pcWriteTo += pxQueue->uxItemSize; /*lint !e9016 Pointer arithmetic on char types ok, esp
 2330              		.loc 1 2103 0
 2331 0050 FB68     		ldr	r3, [r7, #12]
 2332 0052 5A68     		ldr	r2, [r3, #4]
 2333 0054 FB68     		ldr	r3, [r7, #12]
ARM GAS  C:\Users\Emil\AppData\Local\Temp\ccX3pjTY.s 			page 83


 2334 0056 1B6C     		ldr	r3, [r3, #64]
 2335 0058 1A44     		add	r2, r2, r3
 2336 005a FB68     		ldr	r3, [r7, #12]
 2337 005c 5A60     		str	r2, [r3, #4]
2104:Source/queue.c **** 		if( pxQueue->pcWriteTo >= pxQueue->u.xQueue.pcTail ) /*lint !e946 MISRA exception justified as co
 2338              		.loc 1 2104 0
 2339 005e FB68     		ldr	r3, [r7, #12]
 2340 0060 5A68     		ldr	r2, [r3, #4]
 2341 0062 FB68     		ldr	r3, [r7, #12]
 2342 0064 9B68     		ldr	r3, [r3, #8]
 2343 0066 9A42     		cmp	r2, r3
 2344 0068 2BD3     		bcc	.L140
2105:Source/queue.c **** 		{
2106:Source/queue.c **** 			pxQueue->pcWriteTo = pxQueue->pcHead;
 2345              		.loc 1 2106 0
 2346 006a FB68     		ldr	r3, [r7, #12]
 2347 006c 1A68     		ldr	r2, [r3]
 2348 006e FB68     		ldr	r3, [r7, #12]
 2349 0070 5A60     		str	r2, [r3, #4]
 2350 0072 26E0     		b	.L140
 2351              	.L141:
2107:Source/queue.c **** 		}
2108:Source/queue.c **** 		else
2109:Source/queue.c **** 		{
2110:Source/queue.c **** 			mtCOVERAGE_TEST_MARKER();
2111:Source/queue.c **** 		}
2112:Source/queue.c **** 	}
2113:Source/queue.c **** 	else
2114:Source/queue.c **** 	{
2115:Source/queue.c **** 		( void ) memcpy( ( void * ) pxQueue->u.xQueue.pcReadFrom, pvItemToQueue, ( size_t ) pxQueue->uxIt
 2352              		.loc 1 2115 0
 2353 0074 FB68     		ldr	r3, [r7, #12]
 2354 0076 D868     		ldr	r0, [r3, #12]
 2355 0078 FB68     		ldr	r3, [r7, #12]
 2356 007a 1B6C     		ldr	r3, [r3, #64]
 2357 007c 1A46     		mov	r2, r3
 2358 007e B968     		ldr	r1, [r7, #8]
 2359 0080 FFF7FEFF 		bl	memcpy
2116:Source/queue.c **** 		pxQueue->u.xQueue.pcReadFrom -= pxQueue->uxItemSize;
 2360              		.loc 1 2116 0
 2361 0084 FB68     		ldr	r3, [r7, #12]
 2362 0086 DA68     		ldr	r2, [r3, #12]
 2363 0088 FB68     		ldr	r3, [r7, #12]
 2364 008a 1B6C     		ldr	r3, [r3, #64]
 2365 008c 5B42     		negs	r3, r3
 2366 008e 1A44     		add	r2, r2, r3
 2367 0090 FB68     		ldr	r3, [r7, #12]
 2368 0092 DA60     		str	r2, [r3, #12]
2117:Source/queue.c **** 		if( pxQueue->u.xQueue.pcReadFrom < pxQueue->pcHead ) /*lint !e946 MISRA exception justified as co
 2369              		.loc 1 2117 0
 2370 0094 FB68     		ldr	r3, [r7, #12]
 2371 0096 DA68     		ldr	r2, [r3, #12]
 2372 0098 FB68     		ldr	r3, [r7, #12]
 2373 009a 1B68     		ldr	r3, [r3]
 2374 009c 9A42     		cmp	r2, r3
 2375 009e 07D2     		bcs	.L142
2118:Source/queue.c **** 		{
ARM GAS  C:\Users\Emil\AppData\Local\Temp\ccX3pjTY.s 			page 84


2119:Source/queue.c **** 			pxQueue->u.xQueue.pcReadFrom = ( pxQueue->u.xQueue.pcTail - pxQueue->uxItemSize );
 2376              		.loc 1 2119 0
 2377 00a0 FB68     		ldr	r3, [r7, #12]
 2378 00a2 9A68     		ldr	r2, [r3, #8]
 2379 00a4 FB68     		ldr	r3, [r7, #12]
 2380 00a6 1B6C     		ldr	r3, [r3, #64]
 2381 00a8 5B42     		negs	r3, r3
 2382 00aa 1A44     		add	r2, r2, r3
 2383 00ac FB68     		ldr	r3, [r7, #12]
 2384 00ae DA60     		str	r2, [r3, #12]
 2385              	.L142:
2120:Source/queue.c **** 		}
2121:Source/queue.c **** 		else
2122:Source/queue.c **** 		{
2123:Source/queue.c **** 			mtCOVERAGE_TEST_MARKER();
2124:Source/queue.c **** 		}
2125:Source/queue.c **** 
2126:Source/queue.c **** 		if( xPosition == queueOVERWRITE )
 2386              		.loc 1 2126 0
 2387 00b0 7B68     		ldr	r3, [r7, #4]
 2388 00b2 022B     		cmp	r3, #2
 2389 00b4 05D1     		bne	.L140
2127:Source/queue.c **** 		{
2128:Source/queue.c **** 			if( uxMessagesWaiting > ( UBaseType_t ) 0 )
 2390              		.loc 1 2128 0
 2391 00b6 3B69     		ldr	r3, [r7, #16]
 2392 00b8 002B     		cmp	r3, #0
 2393 00ba 02D0     		beq	.L140
2129:Source/queue.c **** 			{
2130:Source/queue.c **** 				/* An item is not being added but overwritten, so subtract
2131:Source/queue.c **** 				one from the recorded number of items in the queue so when
2132:Source/queue.c **** 				one is added again below the number of recorded items remains
2133:Source/queue.c **** 				correct. */
2134:Source/queue.c **** 				--uxMessagesWaiting;
 2394              		.loc 1 2134 0
 2395 00bc 3B69     		ldr	r3, [r7, #16]
 2396 00be 013B     		subs	r3, r3, #1
 2397 00c0 3B61     		str	r3, [r7, #16]
 2398              	.L140:
2135:Source/queue.c **** 			}
2136:Source/queue.c **** 			else
2137:Source/queue.c **** 			{
2138:Source/queue.c **** 				mtCOVERAGE_TEST_MARKER();
2139:Source/queue.c **** 			}
2140:Source/queue.c **** 		}
2141:Source/queue.c **** 		else
2142:Source/queue.c **** 		{
2143:Source/queue.c **** 			mtCOVERAGE_TEST_MARKER();
2144:Source/queue.c **** 		}
2145:Source/queue.c **** 	}
2146:Source/queue.c **** 
2147:Source/queue.c **** 	pxQueue->uxMessagesWaiting = uxMessagesWaiting + ( UBaseType_t ) 1;
 2399              		.loc 1 2147 0
 2400 00c2 3B69     		ldr	r3, [r7, #16]
 2401 00c4 5A1C     		adds	r2, r3, #1
 2402 00c6 FB68     		ldr	r3, [r7, #12]
 2403 00c8 9A63     		str	r2, [r3, #56]
ARM GAS  C:\Users\Emil\AppData\Local\Temp\ccX3pjTY.s 			page 85


2148:Source/queue.c **** 
2149:Source/queue.c **** 	return xReturn;
 2404              		.loc 1 2149 0
 2405 00ca 7B69     		ldr	r3, [r7, #20]
2150:Source/queue.c **** }
 2406              		.loc 1 2150 0
 2407 00cc 1846     		mov	r0, r3
 2408 00ce 1837     		adds	r7, r7, #24
 2409              		.cfi_def_cfa_offset 8
 2410 00d0 BD46     		mov	sp, r7
 2411              		.cfi_def_cfa_register 13
 2412              		@ sp needed
 2413 00d2 80BD     		pop	{r7, pc}
 2414              		.cfi_endproc
 2415              	.LFE89:
 2416              		.size	prvCopyDataToQueue, .-prvCopyDataToQueue
 2417              		.section	.text.prvCopyDataFromQueue,"ax",%progbits
 2418              		.align	2
 2419              		.thumb
 2420              		.thumb_func
 2421              		.type	prvCopyDataFromQueue, %function
 2422              	prvCopyDataFromQueue:
 2423              	.LFB90:
2151:Source/queue.c **** /*-----------------------------------------------------------*/
2152:Source/queue.c **** 
2153:Source/queue.c **** static void prvCopyDataFromQueue( Queue_t * const pxQueue, void * const pvBuffer )
2154:Source/queue.c **** {
 2424              		.loc 1 2154 0
 2425              		.cfi_startproc
 2426              		@ args = 0, pretend = 0, frame = 8
 2427              		@ frame_needed = 1, uses_anonymous_args = 0
 2428 0000 80B5     		push	{r7, lr}
 2429              		.cfi_def_cfa_offset 8
 2430              		.cfi_offset 7, -8
 2431              		.cfi_offset 14, -4
 2432 0002 82B0     		sub	sp, sp, #8
 2433              		.cfi_def_cfa_offset 16
 2434 0004 00AF     		add	r7, sp, #0
 2435              		.cfi_def_cfa_register 7
 2436 0006 7860     		str	r0, [r7, #4]
 2437 0008 3960     		str	r1, [r7]
2155:Source/queue.c **** 	if( pxQueue->uxItemSize != ( UBaseType_t ) 0 )
 2438              		.loc 1 2155 0
 2439 000a 7B68     		ldr	r3, [r7, #4]
 2440 000c 1B6C     		ldr	r3, [r3, #64]
 2441 000e 002B     		cmp	r3, #0
 2442 0010 18D0     		beq	.L147
2156:Source/queue.c **** 	{
2157:Source/queue.c **** 		pxQueue->u.xQueue.pcReadFrom += pxQueue->uxItemSize; /*lint !e9016 Pointer arithmetic on char typ
 2443              		.loc 1 2157 0
 2444 0012 7B68     		ldr	r3, [r7, #4]
 2445 0014 DA68     		ldr	r2, [r3, #12]
 2446 0016 7B68     		ldr	r3, [r7, #4]
 2447 0018 1B6C     		ldr	r3, [r3, #64]
 2448 001a 1A44     		add	r2, r2, r3
 2449 001c 7B68     		ldr	r3, [r7, #4]
 2450 001e DA60     		str	r2, [r3, #12]
ARM GAS  C:\Users\Emil\AppData\Local\Temp\ccX3pjTY.s 			page 86


2158:Source/queue.c **** 		if( pxQueue->u.xQueue.pcReadFrom >= pxQueue->u.xQueue.pcTail ) /*lint !e946 MISRA exception justi
 2451              		.loc 1 2158 0
 2452 0020 7B68     		ldr	r3, [r7, #4]
 2453 0022 DA68     		ldr	r2, [r3, #12]
 2454 0024 7B68     		ldr	r3, [r7, #4]
 2455 0026 9B68     		ldr	r3, [r3, #8]
 2456 0028 9A42     		cmp	r2, r3
 2457 002a 03D3     		bcc	.L146
2159:Source/queue.c **** 		{
2160:Source/queue.c **** 			pxQueue->u.xQueue.pcReadFrom = pxQueue->pcHead;
 2458              		.loc 1 2160 0
 2459 002c 7B68     		ldr	r3, [r7, #4]
 2460 002e 1A68     		ldr	r2, [r3]
 2461 0030 7B68     		ldr	r3, [r7, #4]
 2462 0032 DA60     		str	r2, [r3, #12]
 2463              	.L146:
2161:Source/queue.c **** 		}
2162:Source/queue.c **** 		else
2163:Source/queue.c **** 		{
2164:Source/queue.c **** 			mtCOVERAGE_TEST_MARKER();
2165:Source/queue.c **** 		}
2166:Source/queue.c **** 		( void ) memcpy( ( void * ) pvBuffer, ( void * ) pxQueue->u.xQueue.pcReadFrom, ( size_t ) pxQueue
 2464              		.loc 1 2166 0
 2465 0034 7B68     		ldr	r3, [r7, #4]
 2466 0036 D968     		ldr	r1, [r3, #12]
 2467 0038 7B68     		ldr	r3, [r7, #4]
 2468 003a 1B6C     		ldr	r3, [r3, #64]
 2469 003c 1A46     		mov	r2, r3
 2470 003e 3868     		ldr	r0, [r7]
 2471 0040 FFF7FEFF 		bl	memcpy
 2472              	.L147:
2167:Source/queue.c **** 	}
2168:Source/queue.c **** }
 2473              		.loc 1 2168 0
 2474 0044 00BF     		nop
 2475 0046 0837     		adds	r7, r7, #8
 2476              		.cfi_def_cfa_offset 8
 2477 0048 BD46     		mov	sp, r7
 2478              		.cfi_def_cfa_register 13
 2479              		@ sp needed
 2480 004a 80BD     		pop	{r7, pc}
 2481              		.cfi_endproc
 2482              	.LFE90:
 2483              		.size	prvCopyDataFromQueue, .-prvCopyDataFromQueue
 2484              		.section	.text.prvUnlockQueue,"ax",%progbits
 2485              		.align	2
 2486              		.thumb
 2487              		.thumb_func
 2488              		.type	prvUnlockQueue, %function
 2489              	prvUnlockQueue:
 2490              	.LFB91:
2169:Source/queue.c **** /*-----------------------------------------------------------*/
2170:Source/queue.c **** 
2171:Source/queue.c **** static void prvUnlockQueue( Queue_t * const pxQueue )
2172:Source/queue.c **** {
 2491              		.loc 1 2172 0
 2492              		.cfi_startproc
ARM GAS  C:\Users\Emil\AppData\Local\Temp\ccX3pjTY.s 			page 87


 2493              		@ args = 0, pretend = 0, frame = 16
 2494              		@ frame_needed = 1, uses_anonymous_args = 0
 2495 0000 80B5     		push	{r7, lr}
 2496              		.cfi_def_cfa_offset 8
 2497              		.cfi_offset 7, -8
 2498              		.cfi_offset 14, -4
 2499 0002 84B0     		sub	sp, sp, #16
 2500              		.cfi_def_cfa_offset 24
 2501 0004 00AF     		add	r7, sp, #0
 2502              		.cfi_def_cfa_register 7
 2503 0006 7860     		str	r0, [r7, #4]
2173:Source/queue.c **** 	/* THIS FUNCTION MUST BE CALLED WITH THE SCHEDULER SUSPENDED. */
2174:Source/queue.c **** 
2175:Source/queue.c **** 	/* The lock counts contains the number of extra data items placed or
2176:Source/queue.c **** 	removed from the queue while the queue was locked.  When a queue is
2177:Source/queue.c **** 	locked items can be added or removed, but the event lists cannot be
2178:Source/queue.c **** 	updated. */
2179:Source/queue.c **** 	taskENTER_CRITICAL();
 2504              		.loc 1 2179 0
 2505 0008 FFF7FEFF 		bl	vPortEnterCritical
 2506              	.LBB48:
2180:Source/queue.c **** 	{
2181:Source/queue.c **** 		int8_t cTxLock = pxQueue->cTxLock;
 2507              		.loc 1 2181 0
 2508 000c 7B68     		ldr	r3, [r7, #4]
 2509 000e 93F84530 		ldrb	r3, [r3, #69]
 2510 0012 FB73     		strb	r3, [r7, #15]
2182:Source/queue.c **** 
2183:Source/queue.c **** 		/* See if data was added to the queue while it was locked. */
2184:Source/queue.c **** 		while( cTxLock > queueLOCKED_UNMODIFIED )
 2511              		.loc 1 2184 0
 2512 0014 11E0     		b	.L149
 2513              	.L153:
2185:Source/queue.c **** 		{
2186:Source/queue.c **** 			/* Data was posted while the queue was locked.  Are any tasks
2187:Source/queue.c **** 			blocked waiting for data to become available? */
2188:Source/queue.c **** 			#if ( configUSE_QUEUE_SETS == 1 )
2189:Source/queue.c **** 			{
2190:Source/queue.c **** 				if( pxQueue->pxQueueSetContainer != NULL )
2191:Source/queue.c **** 				{
2192:Source/queue.c **** 					if( prvNotifyQueueSetContainer( pxQueue ) != pdFALSE )
2193:Source/queue.c **** 					{
2194:Source/queue.c **** 						/* The queue is a member of a queue set, and posting to
2195:Source/queue.c **** 						the queue set caused a higher priority task to unblock.
2196:Source/queue.c **** 						A context switch is required. */
2197:Source/queue.c **** 						vTaskMissedYield();
2198:Source/queue.c **** 					}
2199:Source/queue.c **** 					else
2200:Source/queue.c **** 					{
2201:Source/queue.c **** 						mtCOVERAGE_TEST_MARKER();
2202:Source/queue.c **** 					}
2203:Source/queue.c **** 				}
2204:Source/queue.c **** 				else
2205:Source/queue.c **** 				{
2206:Source/queue.c **** 					/* Tasks that are removed from the event list will get
2207:Source/queue.c **** 					added to the pending ready list as the scheduler is still
2208:Source/queue.c **** 					suspended. */
ARM GAS  C:\Users\Emil\AppData\Local\Temp\ccX3pjTY.s 			page 88


2209:Source/queue.c **** 					if( listLIST_IS_EMPTY( &( pxQueue->xTasksWaitingToReceive ) ) == pdFALSE )
2210:Source/queue.c **** 					{
2211:Source/queue.c **** 						if( xTaskRemoveFromEventList( &( pxQueue->xTasksWaitingToReceive ) ) != pdFALSE )
2212:Source/queue.c **** 						{
2213:Source/queue.c **** 							/* The task waiting has a higher priority so record that a
2214:Source/queue.c **** 							context	switch is required. */
2215:Source/queue.c **** 							vTaskMissedYield();
2216:Source/queue.c **** 						}
2217:Source/queue.c **** 						else
2218:Source/queue.c **** 						{
2219:Source/queue.c **** 							mtCOVERAGE_TEST_MARKER();
2220:Source/queue.c **** 						}
2221:Source/queue.c **** 					}
2222:Source/queue.c **** 					else
2223:Source/queue.c **** 					{
2224:Source/queue.c **** 						break;
2225:Source/queue.c **** 					}
2226:Source/queue.c **** 				}
2227:Source/queue.c **** 			}
2228:Source/queue.c **** 			#else /* configUSE_QUEUE_SETS */
2229:Source/queue.c **** 			{
2230:Source/queue.c **** 				/* Tasks that are removed from the event list will get added to
2231:Source/queue.c **** 				the pending ready list as the scheduler is still suspended. */
2232:Source/queue.c **** 				if( listLIST_IS_EMPTY( &( pxQueue->xTasksWaitingToReceive ) ) == pdFALSE )
 2514              		.loc 1 2232 0
 2515 0016 7B68     		ldr	r3, [r7, #4]
 2516 0018 5B6A     		ldr	r3, [r3, #36]
 2517 001a 002B     		cmp	r3, #0
 2518 001c 12D0     		beq	.L159
2233:Source/queue.c **** 				{
2234:Source/queue.c **** 					if( xTaskRemoveFromEventList( &( pxQueue->xTasksWaitingToReceive ) ) != pdFALSE )
 2519              		.loc 1 2234 0
 2520 001e 7B68     		ldr	r3, [r7, #4]
 2521 0020 2433     		adds	r3, r3, #36
 2522 0022 1846     		mov	r0, r3
 2523 0024 FFF7FEFF 		bl	xTaskRemoveFromEventList
 2524 0028 0346     		mov	r3, r0
 2525 002a 002B     		cmp	r3, #0
 2526 002c 01D0     		beq	.L151
2235:Source/queue.c **** 					{
2236:Source/queue.c **** 						/* The task waiting has a higher priority so record that
2237:Source/queue.c **** 						a context switch is required. */
2238:Source/queue.c **** 						vTaskMissedYield();
 2527              		.loc 1 2238 0
 2528 002e FFF7FEFF 		bl	vTaskMissedYield
 2529              	.L151:
2239:Source/queue.c **** 					}
2240:Source/queue.c **** 					else
2241:Source/queue.c **** 					{
2242:Source/queue.c **** 						mtCOVERAGE_TEST_MARKER();
2243:Source/queue.c **** 					}
2244:Source/queue.c **** 				}
2245:Source/queue.c **** 				else
2246:Source/queue.c **** 				{
2247:Source/queue.c **** 					break;
2248:Source/queue.c **** 				}
2249:Source/queue.c **** 			}
ARM GAS  C:\Users\Emil\AppData\Local\Temp\ccX3pjTY.s 			page 89


2250:Source/queue.c **** 			#endif /* configUSE_QUEUE_SETS */
2251:Source/queue.c **** 
2252:Source/queue.c **** 			--cTxLock;
 2530              		.loc 1 2252 0
 2531 0032 FB7B     		ldrb	r3, [r7, #15]	@ zero_extendqisi2
 2532 0034 013B     		subs	r3, r3, #1
