ARM GAS  C:\Users\mag94\AppData\Local\Temp\ccNaFjuk.s 			page 1


   1              		.syntax unified
   2              		.cpu cortex-m3
   3              		.fpu softvfp
   4              		.eabi_attribute 20, 1
   5              		.eabi_attribute 21, 1
   6              		.eabi_attribute 23, 3
   7              		.eabi_attribute 24, 1
   8              		.eabi_attribute 25, 1
   9              		.eabi_attribute 26, 1
  10              		.eabi_attribute 30, 6
  11              		.eabi_attribute 34, 1
  12              		.eabi_attribute 18, 4
  13              		.thumb
  14              		.syntax unified
  15              		.file	"SCD30_v2.c"
  16              		.text
  17              	.Ltext0:
  18              		.cfi_sections	.debug_frame
  19              		.comm	DS18x8_Sensor,32,4
  20              		.comm	DS18x8_DataReady,1,1
  21              		.global	devAddr
  22              		.data
  23              		.type	devAddr, %object
  24              		.size	devAddr, 1
  25              	devAddr:
  26 0000 61       		.byte	97
  27              		.section	.text.SCD30_initialize,"ax",%progbits
  28              		.align	2
  29              		.global	SCD30_initialize
  30              		.thumb
  31              		.thumb_func
  32              		.type	SCD30_initialize, %function
  33              	SCD30_initialize:
  34              	.LFB63:
  35              		.file 1 "SCD30_v2.c"
   1:SCD30_v2.c    **** /* ========================================
   2:SCD30_v2.c    ****  *
   3:SCD30_v2.c    ****  * Copyright YOUR COMPANY, THE YEAR
   4:SCD30_v2.c    ****  * All Rights Reserved
   5:SCD30_v2.c    ****  * UNPUBLISHED, LICENSED SOFTWARE.
   6:SCD30_v2.c    ****  *
   7:SCD30_v2.c    ****  * CONFIDENTIAL AND PROPRIETARY INFORMATION
   8:SCD30_v2.c    ****  * WHICH IS THE PROPERTY OF your company.
   9:SCD30_v2.c    ****  *
  10:SCD30_v2.c    ****  * ========================================
  11:SCD30_v2.c    **** */
  12:SCD30_v2.c    **** #include "project.h"
  13:SCD30_v2.c    **** #include "SCD30_v2.h"
  14:SCD30_v2.c    **** 
  15:SCD30_v2.c    **** 
  16:SCD30_v2.c    ****      uint8_t devAddr = SCD30_I2C_ADDRESS;
  17:SCD30_v2.c    **** 
  18:SCD30_v2.c    **** 
  19:SCD30_v2.c    **** void SCD30_initialize(void) {
  36              		.loc 1 19 0
  37              		.cfi_startproc
  38              		@ args = 0, pretend = 0, frame = 0
ARM GAS  C:\Users\mag94\AppData\Local\Temp\ccNaFjuk.s 			page 2


  39              		@ frame_needed = 1, uses_anonymous_args = 0
  40 0000 80B5     		push	{r7, lr}
  41              		.cfi_def_cfa_offset 8
  42              		.cfi_offset 7, -8
  43              		.cfi_offset 14, -4
  44 0002 00AF     		add	r7, sp, #0
  45              		.cfi_def_cfa_register 7
  20:SCD30_v2.c    ****     //Set temperature offset。
  21:SCD30_v2.c    ****     //setTemperatureOffset(0);
  22:SCD30_v2.c    **** 
  23:SCD30_v2.c    ****     SCD30_setMeasurementInterval(2); // 2 seconds between measurements
  46              		.loc 1 23 0
  47 0004 0220     		movs	r0, #2
  48 0006 FFF7FEFF 		bl	SCD30_setMeasurementInterval
  24:SCD30_v2.c    ****     SCD30_startPeriodicMeasurment(); // start periodic measuments
  49              		.loc 1 24 0
  50 000a FFF7FEFF 		bl	SCD30_startPeriodicMeasurment
  25:SCD30_v2.c    **** 
  26:SCD30_v2.c    ****     //setAutoSelfCalibration(true); // Enable auto-self-calibration
  27:SCD30_v2.c    **** }
  51              		.loc 1 27 0
  52 000e 00BF     		nop
  53 0010 80BD     		pop	{r7, pc}
  54              		.cfi_endproc
  55              	.LFE63:
  56              		.size	SCD30_initialize, .-SCD30_initialize
  57 0012 00BF     		.section	.text.SCD30_setTemperatureOffset,"ax",%progbits
  58              		.align	2
  59              		.global	SCD30_setTemperatureOffset
  60              		.thumb
  61              		.thumb_func
  62              		.type	SCD30_setTemperatureOffset, %function
  63              	SCD30_setTemperatureOffset:
  64              	.LFB64:
  28:SCD30_v2.c    **** 
  29:SCD30_v2.c    **** 
  30:SCD30_v2.c    **** void SCD30_setTemperatureOffset(uint16_t offset) {
  65              		.loc 1 30 0
  66              		.cfi_startproc
  67              		@ args = 0, pretend = 0, frame = 8
  68              		@ frame_needed = 1, uses_anonymous_args = 0
  69 0000 80B5     		push	{r7, lr}
  70              		.cfi_def_cfa_offset 8
  71              		.cfi_offset 7, -8
  72              		.cfi_offset 14, -4
  73 0002 82B0     		sub	sp, sp, #8
  74              		.cfi_def_cfa_offset 16
  75 0004 00AF     		add	r7, sp, #0
  76              		.cfi_def_cfa_register 7
  77 0006 0346     		mov	r3, r0
  78 0008 FB80     		strh	r3, [r7, #6]	@ movhi
  31:SCD30_v2.c    ****     SCD30_writeCommandWithArguments(SCD30_SET_TEMP_OFFSET, offset);
  79              		.loc 1 31 0
  80 000a FB88     		ldrh	r3, [r7, #6]
  81 000c 1946     		mov	r1, r3
  82 000e 45F20340 		movw	r0, #21507
  83 0012 FFF7FEFF 		bl	SCD30_writeCommandWithArguments
ARM GAS  C:\Users\mag94\AppData\Local\Temp\ccNaFjuk.s 			page 3


  32:SCD30_v2.c    **** }
  84              		.loc 1 32 0
  85 0016 00BF     		nop
  86 0018 0837     		adds	r7, r7, #8
  87              		.cfi_def_cfa_offset 8
  88 001a BD46     		mov	sp, r7
  89              		.cfi_def_cfa_register 13
  90              		@ sp needed
  91 001c 80BD     		pop	{r7, pc}
  92              		.cfi_endproc
  93              	.LFE64:
  94              		.size	SCD30_setTemperatureOffset, .-SCD30_setTemperatureOffset
  95 001e 00BF     		.section	.text.SCD30_isAvailable,"ax",%progbits
  96              		.align	2
  97              		.global	SCD30_isAvailable
  98              		.thumb
  99              		.thumb_func
 100              		.type	SCD30_isAvailable, %function
 101              	SCD30_isAvailable:
 102              	.LFB65:
  33:SCD30_v2.c    **** 
  34:SCD30_v2.c    **** _Bool SCD30_isAvailable(void) {
 103              		.loc 1 34 0
 104              		.cfi_startproc
 105              		@ args = 0, pretend = 0, frame = 0
 106              		@ frame_needed = 1, uses_anonymous_args = 0
 107 0000 80B5     		push	{r7, lr}
 108              		.cfi_def_cfa_offset 8
 109              		.cfi_offset 7, -8
 110              		.cfi_offset 14, -4
 111 0002 00AF     		add	r7, sp, #0
 112              		.cfi_def_cfa_register 7
  35:SCD30_v2.c    ****     return SCD30_readRegister(SCD30_GET_DATA_READY);
 113              		.loc 1 35 0
 114 0004 40F20220 		movw	r0, #514
 115 0008 FFF7FEFF 		bl	SCD30_readRegister
 116 000c 0346     		mov	r3, r0
 117 000e 002B     		cmp	r3, #0
 118 0010 14BF     		ite	ne
 119 0012 0123     		movne	r3, #1
 120 0014 0023     		moveq	r3, #0
 121 0016 DBB2     		uxtb	r3, r3
  36:SCD30_v2.c    **** }
 122              		.loc 1 36 0
 123 0018 1846     		mov	r0, r3
 124 001a 80BD     		pop	{r7, pc}
 125              		.cfi_endproc
 126              	.LFE65:
 127              		.size	SCD30_isAvailable, .-SCD30_isAvailable
 128              		.section	.text.SCD30_setAutoSelfCalibration,"ax",%progbits
 129              		.align	2
 130              		.global	SCD30_setAutoSelfCalibration
 131              		.thumb
 132              		.thumb_func
 133              		.type	SCD30_setAutoSelfCalibration, %function
 134              	SCD30_setAutoSelfCalibration:
 135              	.LFB66:
ARM GAS  C:\Users\mag94\AppData\Local\Temp\ccNaFjuk.s 			page 4


  37:SCD30_v2.c    **** 
  38:SCD30_v2.c    **** void SCD30_setAutoSelfCalibration(_Bool enable) {
 136              		.loc 1 38 0
 137              		.cfi_startproc
 138              		@ args = 0, pretend = 0, frame = 8
 139              		@ frame_needed = 1, uses_anonymous_args = 0
 140 0000 80B5     		push	{r7, lr}
 141              		.cfi_def_cfa_offset 8
 142              		.cfi_offset 7, -8
 143              		.cfi_offset 14, -4
 144 0002 82B0     		sub	sp, sp, #8
 145              		.cfi_def_cfa_offset 16
 146 0004 00AF     		add	r7, sp, #0
 147              		.cfi_def_cfa_register 7
 148 0006 0346     		mov	r3, r0
 149 0008 FB71     		strb	r3, [r7, #7]
  39:SCD30_v2.c    ****     if (enable) {
 150              		.loc 1 39 0
 151 000a FB79     		ldrb	r3, [r7, #7]	@ zero_extendqisi2
 152 000c 002B     		cmp	r3, #0
 153 000e 05D0     		beq	.L6
  40:SCD30_v2.c    ****         SCD30_writeCommandWithArguments(SCD30_AUTOMATIC_SELF_CALIBRATION, 1);    //Activate continu
 154              		.loc 1 40 0
 155 0010 0121     		movs	r1, #1
 156 0012 45F20630 		movw	r0, #21254
 157 0016 FFF7FEFF 		bl	SCD30_writeCommandWithArguments
  41:SCD30_v2.c    ****     } else {
  42:SCD30_v2.c    ****         SCD30_writeCommandWithArguments(SCD30_AUTOMATIC_SELF_CALIBRATION, 0);    //Deactivate conti
  43:SCD30_v2.c    ****     }
  44:SCD30_v2.c    **** }
 158              		.loc 1 44 0
 159 001a 04E0     		b	.L8
 160              	.L6:
  42:SCD30_v2.c    ****     }
 161              		.loc 1 42 0
 162 001c 0021     		movs	r1, #0
 163 001e 45F20630 		movw	r0, #21254
 164 0022 FFF7FEFF 		bl	SCD30_writeCommandWithArguments
 165              	.L8:
 166              		.loc 1 44 0
 167 0026 00BF     		nop
 168 0028 0837     		adds	r7, r7, #8
 169              		.cfi_def_cfa_offset 8
 170 002a BD46     		mov	sp, r7
 171              		.cfi_def_cfa_register 13
 172              		@ sp needed
 173 002c 80BD     		pop	{r7, pc}
 174              		.cfi_endproc
 175              	.LFE66:
 176              		.size	SCD30_setAutoSelfCalibration, .-SCD30_setAutoSelfCalibration
 177 002e 00BF     		.section	.text.SCD30_setMeasurementInterval,"ax",%progbits
 178              		.align	2
 179              		.global	SCD30_setMeasurementInterval
 180              		.thumb
 181              		.thumb_func
 182              		.type	SCD30_setMeasurementInterval, %function
 183              	SCD30_setMeasurementInterval:
ARM GAS  C:\Users\mag94\AppData\Local\Temp\ccNaFjuk.s 			page 5


 184              	.LFB67:
  45:SCD30_v2.c    **** 
  46:SCD30_v2.c    **** void SCD30_setMeasurementInterval(uint16_t interval) {
 185              		.loc 1 46 0
 186              		.cfi_startproc
 187              		@ args = 0, pretend = 0, frame = 8
 188              		@ frame_needed = 1, uses_anonymous_args = 0
 189 0000 80B5     		push	{r7, lr}
 190              		.cfi_def_cfa_offset 8
 191              		.cfi_offset 7, -8
 192              		.cfi_offset 14, -4
 193 0002 82B0     		sub	sp, sp, #8
 194              		.cfi_def_cfa_offset 16
 195 0004 00AF     		add	r7, sp, #0
 196              		.cfi_def_cfa_register 7
 197 0006 0346     		mov	r3, r0
 198 0008 FB80     		strh	r3, [r7, #6]	@ movhi
  47:SCD30_v2.c    ****     SCD30_writeCommandWithArguments(SCD30_SET_MEASUREMENT_INTERVAL, interval);
 199              		.loc 1 47 0
 200 000a FB88     		ldrh	r3, [r7, #6]
 201 000c 1946     		mov	r1, r3
 202 000e 4FF48C40 		mov	r0, #17920
 203 0012 FFF7FEFF 		bl	SCD30_writeCommandWithArguments
  48:SCD30_v2.c    **** }
 204              		.loc 1 48 0
 205 0016 00BF     		nop
 206 0018 0837     		adds	r7, r7, #8
 207              		.cfi_def_cfa_offset 8
 208 001a BD46     		mov	sp, r7
 209              		.cfi_def_cfa_register 13
 210              		@ sp needed
 211 001c 80BD     		pop	{r7, pc}
 212              		.cfi_endproc
 213              	.LFE67:
 214              		.size	SCD30_setMeasurementInterval, .-SCD30_setMeasurementInterval
 215 001e 00BF     		.section	.text.SCD30_startPeriodicMeasurment,"ax",%progbits
 216              		.align	2
 217              		.global	SCD30_startPeriodicMeasurment
 218              		.thumb
 219              		.thumb_func
 220              		.type	SCD30_startPeriodicMeasurment, %function
 221              	SCD30_startPeriodicMeasurment:
 222              	.LFB68:
  49:SCD30_v2.c    **** 
  50:SCD30_v2.c    **** void SCD30_startPeriodicMeasurment(void) {
 223              		.loc 1 50 0
 224              		.cfi_startproc
 225              		@ args = 0, pretend = 0, frame = 0
 226              		@ frame_needed = 1, uses_anonymous_args = 0
 227 0000 80B5     		push	{r7, lr}
 228              		.cfi_def_cfa_offset 8
 229              		.cfi_offset 7, -8
 230              		.cfi_offset 14, -4
 231 0002 00AF     		add	r7, sp, #0
 232              		.cfi_def_cfa_register 7
  51:SCD30_v2.c    ****     SCD30_writeCommandWithArguments(SCD30_CONTINUOUS_MEASUREMENT, 0x0000);
 233              		.loc 1 51 0
ARM GAS  C:\Users\mag94\AppData\Local\Temp\ccNaFjuk.s 			page 6


 234 0004 0021     		movs	r1, #0
 235 0006 1020     		movs	r0, #16
 236 0008 FFF7FEFF 		bl	SCD30_writeCommandWithArguments
  52:SCD30_v2.c    **** }
 237              		.loc 1 52 0
 238 000c 00BF     		nop
 239 000e 80BD     		pop	{r7, pc}
 240              		.cfi_endproc
 241              	.LFE68:
 242              		.size	SCD30_startPeriodicMeasurment, .-SCD30_startPeriodicMeasurment
 243              		.section	.text.SCD30_stopMeasurement,"ax",%progbits
 244              		.align	2
 245              		.global	SCD30_stopMeasurement
 246              		.thumb
 247              		.thumb_func
 248              		.type	SCD30_stopMeasurement, %function
 249              	SCD30_stopMeasurement:
 250              	.LFB69:
  53:SCD30_v2.c    **** 
  54:SCD30_v2.c    **** void SCD30_stopMeasurement(void) {
 251              		.loc 1 54 0
 252              		.cfi_startproc
 253              		@ args = 0, pretend = 0, frame = 0
 254              		@ frame_needed = 1, uses_anonymous_args = 0
 255 0000 80B5     		push	{r7, lr}
 256              		.cfi_def_cfa_offset 8
 257              		.cfi_offset 7, -8
 258              		.cfi_offset 14, -4
 259 0002 00AF     		add	r7, sp, #0
 260              		.cfi_def_cfa_register 7
  55:SCD30_v2.c    ****    SCD30_writeCommand(SCD30_STOP_MEASUREMENT);
 261              		.loc 1 55 0
 262 0004 4FF48270 		mov	r0, #260
 263 0008 FFF7FEFF 		bl	SCD30_writeCommand
  56:SCD30_v2.c    **** }
 264              		.loc 1 56 0
 265 000c 00BF     		nop
 266 000e 80BD     		pop	{r7, pc}
 267              		.cfi_endproc
 268              	.LFE69:
 269              		.size	SCD30_stopMeasurement, .-SCD30_stopMeasurement
 270              		.section	.text.SCD30_getCarbonDioxideConcentration,"ax",%progbits
 271              		.align	2
 272              		.global	SCD30_getCarbonDioxideConcentration
 273              		.thumb
 274              		.thumb_func
 275              		.type	SCD30_getCarbonDioxideConcentration, %function
 276              	SCD30_getCarbonDioxideConcentration:
 277              	.LFB70:
  57:SCD30_v2.c    **** 
  58:SCD30_v2.c    **** void SCD30_getCarbonDioxideConcentration(float* result) {
 278              		.loc 1 58 0
 279              		.cfi_startproc
 280              		@ args = 0, pretend = 0, frame = 56
 281              		@ frame_needed = 1, uses_anonymous_args = 0
 282 0000 80B5     		push	{r7, lr}
 283              		.cfi_def_cfa_offset 8
ARM GAS  C:\Users\mag94\AppData\Local\Temp\ccNaFjuk.s 			page 7


 284              		.cfi_offset 7, -8
 285              		.cfi_offset 14, -4
 286 0002 8EB0     		sub	sp, sp, #56
 287              		.cfi_def_cfa_offset 64
 288 0004 00AF     		add	r7, sp, #0
 289              		.cfi_def_cfa_register 7
 290 0006 7860     		str	r0, [r7, #4]
  59:SCD30_v2.c    ****     uint8_t buf[18] = { 0 };
 291              		.loc 1 59 0
 292 0008 07F11803 		add	r3, r7, #24
 293 000c 0022     		movs	r2, #0
 294 000e 1A60     		str	r2, [r3]
 295 0010 5A60     		str	r2, [r3, #4]
 296 0012 9A60     		str	r2, [r3, #8]
 297 0014 DA60     		str	r2, [r3, #12]
 298 0016 1A82     		strh	r2, [r3, #16]	@ movhi
  60:SCD30_v2.c    ****     uint32_t co2U32 = 0;
 299              		.loc 1 60 0
 300 0018 0023     		movs	r3, #0
 301 001a 7B61     		str	r3, [r7, #20]
  61:SCD30_v2.c    ****     uint32_t tempU32 = 0;
 302              		.loc 1 61 0
 303 001c 0023     		movs	r3, #0
 304 001e 3B61     		str	r3, [r7, #16]
  62:SCD30_v2.c    ****     uint32_t humU32 = 0;
 305              		.loc 1 62 0
 306 0020 0023     		movs	r3, #0
 307 0022 FB60     		str	r3, [r7, #12]
  63:SCD30_v2.c    ****     float co2Concentration = 0;
 308              		.loc 1 63 0
 309 0024 4FF00003 		mov	r3, #0
 310 0028 7B63     		str	r3, [r7, #52]	@ float
  64:SCD30_v2.c    ****     float temperature = 0;
 311              		.loc 1 64 0
 312 002a 4FF00003 		mov	r3, #0
 313 002e 3B63     		str	r3, [r7, #48]	@ float
  65:SCD30_v2.c    ****     float humidity = 0;
 314              		.loc 1 65 0
 315 0030 4FF00003 		mov	r3, #0
 316 0034 FB62     		str	r3, [r7, #44]	@ float
  66:SCD30_v2.c    **** 
  67:SCD30_v2.c    ****     SCD30_writeCommand(SCD30_READ_MEASUREMENT);
 317              		.loc 1 67 0
 318 0036 4FF44070 		mov	r0, #768
 319 003a FFF7FEFF 		bl	SCD30_writeCommand
  68:SCD30_v2.c    ****     SCD30_readBuffer(buf, 18);
 320              		.loc 1 68 0
 321 003e 07F11803 		add	r3, r7, #24
 322 0042 1221     		movs	r1, #18
 323 0044 1846     		mov	r0, r3
 324 0046 FFF7FEFF 		bl	SCD30_readBuffer
  69:SCD30_v2.c    **** 
  70:SCD30_v2.c    ****     co2U32 = (uint32_t)((((uint32_t)buf[0]) << 24) | (((uint32_t)buf[1]) << 16) |
 325              		.loc 1 70 0
 326 004a 3B7E     		ldrb	r3, [r7, #24]	@ zero_extendqisi2
 327 004c 1A06     		lsls	r2, r3, #24
 328 004e 7B7E     		ldrb	r3, [r7, #25]	@ zero_extendqisi2
ARM GAS  C:\Users\mag94\AppData\Local\Temp\ccNaFjuk.s 			page 8


 329 0050 1B04     		lsls	r3, r3, #16
 330 0052 1A43     		orrs	r2, r2, r3
  71:SCD30_v2.c    ****                         (((uint32_t)buf[3]) << 8) | ((uint32_t)buf[4]));
 331              		.loc 1 71 0
 332 0054 FB7E     		ldrb	r3, [r7, #27]	@ zero_extendqisi2
 333 0056 1B02     		lsls	r3, r3, #8
  70:SCD30_v2.c    ****                         (((uint32_t)buf[3]) << 8) | ((uint32_t)buf[4]));
 334              		.loc 1 70 0
 335 0058 1343     		orrs	r3, r3, r2
 336              		.loc 1 71 0
 337 005a 3A7F     		ldrb	r2, [r7, #28]	@ zero_extendqisi2
  70:SCD30_v2.c    ****                         (((uint32_t)buf[3]) << 8) | ((uint32_t)buf[4]));
 338              		.loc 1 70 0
 339 005c 1343     		orrs	r3, r3, r2
 340 005e 7B61     		str	r3, [r7, #20]
  72:SCD30_v2.c    **** 
  73:SCD30_v2.c    ****     tempU32 = (uint32_t)((((uint32_t)buf[6]) << 24) | (((uint32_t)buf[7]) << 16) |
 341              		.loc 1 73 0
 342 0060 BB7F     		ldrb	r3, [r7, #30]	@ zero_extendqisi2
 343 0062 1A06     		lsls	r2, r3, #24
 344 0064 FB7F     		ldrb	r3, [r7, #31]	@ zero_extendqisi2
 345 0066 1B04     		lsls	r3, r3, #16
 346 0068 1A43     		orrs	r2, r2, r3
  74:SCD30_v2.c    ****                          (((uint32_t)buf[9]) << 8) | ((uint32_t)buf[10]));
 347              		.loc 1 74 0
 348 006a 97F82130 		ldrb	r3, [r7, #33]	@ zero_extendqisi2
 349 006e 1B02     		lsls	r3, r3, #8
  73:SCD30_v2.c    ****                          (((uint32_t)buf[9]) << 8) | ((uint32_t)buf[10]));
 350              		.loc 1 73 0
 351 0070 1343     		orrs	r3, r3, r2
 352              		.loc 1 74 0
 353 0072 97F82220 		ldrb	r2, [r7, #34]	@ zero_extendqisi2
  73:SCD30_v2.c    ****                          (((uint32_t)buf[9]) << 8) | ((uint32_t)buf[10]));
 354              		.loc 1 73 0
 355 0076 1343     		orrs	r3, r3, r2
 356 0078 3B61     		str	r3, [r7, #16]
  75:SCD30_v2.c    **** 
  76:SCD30_v2.c    ****     humU32 = (uint32_t)((((uint32_t)buf[12]) << 24) | (((uint32_t)buf[13]) << 16) |
 357              		.loc 1 76 0
 358 007a 97F82430 		ldrb	r3, [r7, #36]	@ zero_extendqisi2
 359 007e 1A06     		lsls	r2, r3, #24
 360 0080 97F82530 		ldrb	r3, [r7, #37]	@ zero_extendqisi2
 361 0084 1B04     		lsls	r3, r3, #16
 362 0086 1A43     		orrs	r2, r2, r3
  77:SCD30_v2.c    ****                         (((uint32_t)buf[15]) << 8) | ((uint32_t)buf[16]));
 363              		.loc 1 77 0
 364 0088 97F82730 		ldrb	r3, [r7, #39]	@ zero_extendqisi2
 365 008c 1B02     		lsls	r3, r3, #8
  76:SCD30_v2.c    ****                         (((uint32_t)buf[15]) << 8) | ((uint32_t)buf[16]));
 366              		.loc 1 76 0
 367 008e 1343     		orrs	r3, r3, r2
 368              		.loc 1 77 0
 369 0090 97F82820 		ldrb	r2, [r7, #40]	@ zero_extendqisi2
  76:SCD30_v2.c    ****                         (((uint32_t)buf[15]) << 8) | ((uint32_t)buf[16]));
 370              		.loc 1 76 0
 371 0094 1343     		orrs	r3, r3, r2
 372 0096 FB60     		str	r3, [r7, #12]
ARM GAS  C:\Users\mag94\AppData\Local\Temp\ccNaFjuk.s 			page 9


  78:SCD30_v2.c    **** 
  79:SCD30_v2.c    ****     memcpy(&result[0], &co2U32, sizeof(co2Concentration));
 373              		.loc 1 79 0
 374 0098 07F11403 		add	r3, r7, #20
 375 009c 0422     		movs	r2, #4
 376 009e 1946     		mov	r1, r3
 377 00a0 7868     		ldr	r0, [r7, #4]
 378 00a2 FFF7FEFF 		bl	memcpy
  80:SCD30_v2.c    ****     memcpy(&result[1], &tempU32, sizeof(temperature));
 379              		.loc 1 80 0
 380 00a6 7B68     		ldr	r3, [r7, #4]
 381 00a8 0433     		adds	r3, r3, #4
 382 00aa 07F11001 		add	r1, r7, #16
 383 00ae 0422     		movs	r2, #4
 384 00b0 1846     		mov	r0, r3
 385 00b2 FFF7FEFF 		bl	memcpy
  81:SCD30_v2.c    ****     memcpy(&result[2], &humU32, sizeof(humidity));
 386              		.loc 1 81 0
 387 00b6 7B68     		ldr	r3, [r7, #4]
 388 00b8 0833     		adds	r3, r3, #8
 389 00ba 07F10C01 		add	r1, r7, #12
 390 00be 0422     		movs	r2, #4
 391 00c0 1846     		mov	r0, r3
 392 00c2 FFF7FEFF 		bl	memcpy
  82:SCD30_v2.c    **** 
  83:SCD30_v2.c    **** }
 393              		.loc 1 83 0
 394 00c6 00BF     		nop
 395 00c8 3837     		adds	r7, r7, #56
 396              		.cfi_def_cfa_offset 8
 397 00ca BD46     		mov	sp, r7
 398              		.cfi_def_cfa_register 13
 399              		@ sp needed
 400 00cc 80BD     		pop	{r7, pc}
 401              		.cfi_endproc
 402              	.LFE70:
 403              		.size	SCD30_getCarbonDioxideConcentration, .-SCD30_getCarbonDioxideConcentration
 404 00ce 00BF     		.section	.text.SCD30_writeCommand,"ax",%progbits
 405              		.align	2
 406              		.global	SCD30_writeCommand
 407              		.thumb
 408              		.thumb_func
 409              		.type	SCD30_writeCommand, %function
 410              	SCD30_writeCommand:
 411              	.LFB71:
  84:SCD30_v2.c    **** 
  85:SCD30_v2.c    **** void SCD30_writeCommand(uint16_t command) {
 412              		.loc 1 85 0
 413              		.cfi_startproc
 414              		@ args = 0, pretend = 0, frame = 16
 415              		@ frame_needed = 1, uses_anonymous_args = 0
 416 0000 80B5     		push	{r7, lr}
 417              		.cfi_def_cfa_offset 8
 418              		.cfi_offset 7, -8
 419              		.cfi_offset 14, -4
 420 0002 84B0     		sub	sp, sp, #16
 421              		.cfi_def_cfa_offset 24
ARM GAS  C:\Users\mag94\AppData\Local\Temp\ccNaFjuk.s 			page 10


 422 0004 00AF     		add	r7, sp, #0
 423              		.cfi_def_cfa_register 7
 424 0006 0346     		mov	r3, r0
 425 0008 FB80     		strh	r3, [r7, #6]	@ movhi
  86:SCD30_v2.c    ****     uint8_t buf [2];
  87:SCD30_v2.c    ****     buf[0] = command >> 8;
 426              		.loc 1 87 0
 427 000a FB88     		ldrh	r3, [r7, #6]
 428 000c 1B0A     		lsrs	r3, r3, #8
 429 000e 9BB2     		uxth	r3, r3
 430 0010 DBB2     		uxtb	r3, r3
 431 0012 3B73     		strb	r3, [r7, #12]
  88:SCD30_v2.c    ****     buf[1] = command;
 432              		.loc 1 88 0
 433 0014 FB88     		ldrh	r3, [r7, #6]	@ movhi
 434 0016 DBB2     		uxtb	r3, r3
 435 0018 7B73     		strb	r3, [r7, #13]
  89:SCD30_v2.c    ****     
  90:SCD30_v2.c    ****     I2C_1_MasterWriteBuf(SCD30_I2C_ADDRESS, buf, 2, I2C_1_MODE_COMPLETE_XFER);
 436              		.loc 1 90 0
 437 001a 07F10C01 		add	r1, r7, #12
 438 001e 0023     		movs	r3, #0
 439 0020 0222     		movs	r2, #2
 440 0022 6120     		movs	r0, #97
 441 0024 FFF7FEFF 		bl	I2C_1_MasterWriteBuf
 442              	.L16:
  91:SCD30_v2.c    ****     for(;;){
  92:SCD30_v2.c    ****             if(0u != (I2C_1_MasterStatus() & I2C_1_MSTAT_WR_CMPLT))
 443              		.loc 1 92 0
 444 0028 FFF7FEFF 		bl	I2C_1_MasterStatus
 445 002c 0346     		mov	r3, r0
 446 002e 03F00203 		and	r3, r3, #2
 447 0032 002B     		cmp	r3, #0
 448 0034 00D1     		bne	.L18
  93:SCD30_v2.c    ****                 {
  94:SCD30_v2.c    ****                 break;
  95:SCD30_v2.c    ****                 }
  96:SCD30_v2.c    ****             }
 449              		.loc 1 96 0
 450 0036 F7E7     		b	.L16
 451              	.L18:
  94:SCD30_v2.c    ****                 }
 452              		.loc 1 94 0
 453 0038 00BF     		nop
  97:SCD30_v2.c    ****          //         UART_PutHexInt(command);             UART_PutString("Command Written");       U
  98:SCD30_v2.c    **** I2C_1_MasterClearStatus();
 454              		.loc 1 98 0
 455 003a FFF7FEFF 		bl	I2C_1_MasterClearStatus
  99:SCD30_v2.c    **** }
 456              		.loc 1 99 0
 457 003e 00BF     		nop
 458 0040 1037     		adds	r7, r7, #16
 459              		.cfi_def_cfa_offset 8
 460 0042 BD46     		mov	sp, r7
 461              		.cfi_def_cfa_register 13
 462              		@ sp needed
 463 0044 80BD     		pop	{r7, pc}
ARM GAS  C:\Users\mag94\AppData\Local\Temp\ccNaFjuk.s 			page 11


 464              		.cfi_endproc
 465              	.LFE71:
 466              		.size	SCD30_writeCommand, .-SCD30_writeCommand
 467 0046 00BF     		.section	.text.SCD30_writeCommandWithArguments,"ax",%progbits
 468              		.align	2
 469              		.global	SCD30_writeCommandWithArguments
 470              		.thumb
 471              		.thumb_func
 472              		.type	SCD30_writeCommandWithArguments, %function
 473              	SCD30_writeCommandWithArguments:
 474              	.LFB72:
 100:SCD30_v2.c    **** 
 101:SCD30_v2.c    **** void SCD30_writeCommandWithArguments(uint16_t command, uint16_t arguments) {
 475              		.loc 1 101 0
 476              		.cfi_startproc
 477              		@ args = 0, pretend = 0, frame = 8
 478              		@ frame_needed = 1, uses_anonymous_args = 0
 479 0000 80B5     		push	{r7, lr}
 480              		.cfi_def_cfa_offset 8
 481              		.cfi_offset 7, -8
 482              		.cfi_offset 14, -4
 483 0002 82B0     		sub	sp, sp, #8
 484              		.cfi_def_cfa_offset 16
 485 0004 00AF     		add	r7, sp, #0
 486              		.cfi_def_cfa_register 7
 487 0006 0346     		mov	r3, r0
 488 0008 0A46     		mov	r2, r1
 489 000a FB80     		strh	r3, [r7, #6]	@ movhi
 490 000c 1346     		mov	r3, r2	@ movhi
 491 000e BB80     		strh	r3, [r7, #4]	@ movhi
 102:SCD30_v2.c    ****     static uint8_t checkSum, buf[5] = { 0 };
 103:SCD30_v2.c    **** 
 104:SCD30_v2.c    ****     buf[0] = command >> 8;
 492              		.loc 1 104 0
 493 0010 FB88     		ldrh	r3, [r7, #6]
 494 0012 1B0A     		lsrs	r3, r3, #8
 495 0014 9BB2     		uxth	r3, r3
 496 0016 DAB2     		uxtb	r2, r3
 497 0018 114B     		ldr	r3, .L20
 498 001a 1A70     		strb	r2, [r3]
 105:SCD30_v2.c    ****     buf[1] = command;
 499              		.loc 1 105 0
 500 001c FB88     		ldrh	r3, [r7, #6]	@ movhi
 501 001e DAB2     		uxtb	r2, r3
 502 0020 0F4B     		ldr	r3, .L20
 503 0022 5A70     		strb	r2, [r3, #1]
 106:SCD30_v2.c    ****     buf[2] = arguments >> 8;
 504              		.loc 1 106 0
 505 0024 BB88     		ldrh	r3, [r7, #4]
 506 0026 1B0A     		lsrs	r3, r3, #8
 507 0028 9BB2     		uxth	r3, r3
 508 002a DAB2     		uxtb	r2, r3
 509 002c 0C4B     		ldr	r3, .L20
 510 002e 9A70     		strb	r2, [r3, #2]
 107:SCD30_v2.c    ****     buf[3] = arguments;
 511              		.loc 1 107 0
 512 0030 BB88     		ldrh	r3, [r7, #4]	@ movhi
ARM GAS  C:\Users\mag94\AppData\Local\Temp\ccNaFjuk.s 			page 12


 513 0032 DAB2     		uxtb	r2, r3
 514 0034 0A4B     		ldr	r3, .L20
 515 0036 DA70     		strb	r2, [r3, #3]
 108:SCD30_v2.c    ****     checkSum = SCD30_calculateCrc(&buf[2], 2);
 516              		.loc 1 108 0
 517 0038 0221     		movs	r1, #2
 518 003a 0A48     		ldr	r0, .L20+4
 519 003c FFF7FEFF 		bl	SCD30_calculateCrc
 520 0040 0346     		mov	r3, r0
 521 0042 1A46     		mov	r2, r3
 522 0044 084B     		ldr	r3, .L20+8
 523 0046 1A70     		strb	r2, [r3]
 109:SCD30_v2.c    ****     buf[4] = checkSum;
 524              		.loc 1 109 0
 525 0048 074B     		ldr	r3, .L20+8
 526 004a 1A78     		ldrb	r2, [r3]	@ zero_extendqisi2
 527 004c 044B     		ldr	r3, .L20
 528 004e 1A71     		strb	r2, [r3, #4]
 110:SCD30_v2.c    ****                                              //   for(int k = 0; k <= 4; )
 111:SCD30_v2.c    ****     SCD30_writeBuffer(buf, 5);
 529              		.loc 1 111 0
 530 0050 0521     		movs	r1, #5
 531 0052 0348     		ldr	r0, .L20
 532 0054 FFF7FEFF 		bl	SCD30_writeBuffer
 112:SCD30_v2.c    **** }
 533              		.loc 1 112 0
 534 0058 00BF     		nop
 535 005a 0837     		adds	r7, r7, #8
 536              		.cfi_def_cfa_offset 8
 537 005c BD46     		mov	sp, r7
 538              		.cfi_def_cfa_register 13
 539              		@ sp needed
 540 005e 80BD     		pop	{r7, pc}
 541              	.L21:
 542              		.align	2
 543              	.L20:
 544 0060 00000000 		.word	buf.6169
 545 0064 02000000 		.word	buf.6169+2
 546 0068 05000000 		.word	checkSum.6168
 547              		.cfi_endproc
 548              	.LFE72:
 549              		.size	SCD30_writeCommandWithArguments, .-SCD30_writeCommandWithArguments
 550              		.section	.text.SCD30_readRegister,"ax",%progbits
 551              		.align	2
 552              		.global	SCD30_readRegister
 553              		.thumb
 554              		.thumb_func
 555              		.type	SCD30_readRegister, %function
 556              	SCD30_readRegister:
 557              	.LFB73:
 113:SCD30_v2.c    **** 
 114:SCD30_v2.c    **** uint16_t SCD30_readRegister(uint16_t command) {
 558              		.loc 1 114 0
 559              		.cfi_startproc
 560              		@ args = 0, pretend = 0, frame = 16
 561              		@ frame_needed = 1, uses_anonymous_args = 0
 562 0000 80B5     		push	{r7, lr}
ARM GAS  C:\Users\mag94\AppData\Local\Temp\ccNaFjuk.s 			page 13


 563              		.cfi_def_cfa_offset 8
 564              		.cfi_offset 7, -8
 565              		.cfi_offset 14, -4
 566 0002 84B0     		sub	sp, sp, #16
 567              		.cfi_def_cfa_offset 24
 568 0004 00AF     		add	r7, sp, #0
 569              		.cfi_def_cfa_register 7
 570 0006 0346     		mov	r3, r0
 571 0008 FB80     		strh	r3, [r7, #6]	@ movhi
 115:SCD30_v2.c    ****     uint8_t buf[3] = { 0 };
 572              		.loc 1 115 0
 573 000a 07F10C03 		add	r3, r7, #12
 574 000e 0021     		movs	r1, #0
 575 0010 0A46     		mov	r2, r1	@ movhi
 576 0012 1A80     		strh	r2, [r3]	@ movhi
 577 0014 0A46     		mov	r2, r1
 578 0016 9A70     		strb	r2, [r3, #2]
 116:SCD30_v2.c    **** 
 117:SCD30_v2.c    ****     SCD30_writeCommand(command);
 579              		.loc 1 117 0
 580 0018 FB88     		ldrh	r3, [r7, #6]
 581 001a 1846     		mov	r0, r3
 582 001c FFF7FEFF 		bl	SCD30_writeCommand
 118:SCD30_v2.c    ****     SCD30_readBuffer(buf, 3);
 583              		.loc 1 118 0
 584 0020 07F10C03 		add	r3, r7, #12
 585 0024 0321     		movs	r1, #3
 586 0026 1846     		mov	r0, r3
 587 0028 FFF7FEFF 		bl	SCD30_readBuffer
 119:SCD30_v2.c    **** 
 120:SCD30_v2.c    ****     return ((((uint16_t)buf[0]) << 8) | buf[1]);
 588              		.loc 1 120 0
 589 002c 3B7B     		ldrb	r3, [r7, #12]	@ zero_extendqisi2
 590 002e 1B02     		lsls	r3, r3, #8
 591 0030 1AB2     		sxth	r2, r3
 592 0032 7B7B     		ldrb	r3, [r7, #13]	@ zero_extendqisi2
 593 0034 1BB2     		sxth	r3, r3
 594 0036 1343     		orrs	r3, r3, r2
 595 0038 1BB2     		sxth	r3, r3
 596 003a 9BB2     		uxth	r3, r3
 121:SCD30_v2.c    **** }
 597              		.loc 1 121 0
 598 003c 1846     		mov	r0, r3
 599 003e 1037     		adds	r7, r7, #16
 600              		.cfi_def_cfa_offset 8
 601 0040 BD46     		mov	sp, r7
 602              		.cfi_def_cfa_register 13
 603              		@ sp needed
 604 0042 80BD     		pop	{r7, pc}
 605              		.cfi_endproc
 606              	.LFE73:
 607              		.size	SCD30_readRegister, .-SCD30_readRegister
 608              		.section	.text.SCD30_writeBuffer,"ax",%progbits
 609              		.align	2
 610              		.global	SCD30_writeBuffer
 611              		.thumb
 612              		.thumb_func
ARM GAS  C:\Users\mag94\AppData\Local\Temp\ccNaFjuk.s 			page 14


 613              		.type	SCD30_writeBuffer, %function
 614              	SCD30_writeBuffer:
 615              	.LFB74:
 122:SCD30_v2.c    **** 
 123:SCD30_v2.c    **** void SCD30_writeBuffer(uint8_t* data, uint8_t len) 
 124:SCD30_v2.c    **** {
 616              		.loc 1 124 0
 617              		.cfi_startproc
 618              		@ args = 0, pretend = 0, frame = 16
 619              		@ frame_needed = 1, uses_anonymous_args = 0
 620 0000 80B5     		push	{r7, lr}
 621              		.cfi_def_cfa_offset 8
 622              		.cfi_offset 7, -8
 623              		.cfi_offset 14, -4
 624 0002 84B0     		sub	sp, sp, #16
 625              		.cfi_def_cfa_offset 24
 626 0004 00AF     		add	r7, sp, #0
 627              		.cfi_def_cfa_register 7
 628 0006 7860     		str	r0, [r7, #4]
 629 0008 0B46     		mov	r3, r1
 630 000a FB70     		strb	r3, [r7, #3]
 125:SCD30_v2.c    ****  //   I2C_1_MasterClearStatus();
 126:SCD30_v2.c    ****     uint8_t status = I2C_1_MasterWriteBuf(SCD30_I2C_ADDRESS, data, len, I2C_1_MODE_COMPLETE_XFER);
 631              		.loc 1 126 0
 632 000c FA78     		ldrb	r2, [r7, #3]	@ zero_extendqisi2
 633 000e 0023     		movs	r3, #0
 634 0010 7968     		ldr	r1, [r7, #4]
 635 0012 6120     		movs	r0, #97
 636 0014 FFF7FEFF 		bl	I2C_1_MasterWriteBuf
 637 0018 0346     		mov	r3, r0
 638 001a FB73     		strb	r3, [r7, #15]
 127:SCD30_v2.c    ****     uint8_t masterstatus = I2C_1_MasterStatus();  
 639              		.loc 1 127 0
 640 001c FFF7FEFF 		bl	I2C_1_MasterStatus
 641 0020 0346     		mov	r3, r0
 642 0022 BB73     		strb	r3, [r7, #14]
 128:SCD30_v2.c    ****     if(status == I2C_1_MSTR_NO_ERROR)
 643              		.loc 1 128 0
 644 0024 FB7B     		ldrb	r3, [r7, #15]	@ zero_extendqisi2
 645 0026 002B     		cmp	r3, #0
 646 0028 0CD1     		bne	.L29
 647              	.L27:
 129:SCD30_v2.c    ****     {
 130:SCD30_v2.c    ****         for(;;)
 131:SCD30_v2.c    ****         {
 132:SCD30_v2.c    ****             status = I2C_1_MasterStatus();
 648              		.loc 1 132 0
 649 002a FFF7FEFF 		bl	I2C_1_MasterStatus
 650 002e 0346     		mov	r3, r0
 651 0030 FB73     		strb	r3, [r7, #15]
 133:SCD30_v2.c    ****             if(0 !=(I2C_1_MasterStatus() & I2C_1_MSTAT_WR_CMPLT))
 652              		.loc 1 133 0
 653 0032 FFF7FEFF 		bl	I2C_1_MasterStatus
 654 0036 0346     		mov	r3, r0
 655 0038 03F00203 		and	r3, r3, #2
 656 003c 002B     		cmp	r3, #0
 657 003e 00D1     		bne	.L30
ARM GAS  C:\Users\mag94\AppData\Local\Temp\ccNaFjuk.s 			page 15


 134:SCD30_v2.c    ****             {
 135:SCD30_v2.c    ****                 break;
 136:SCD30_v2.c    ****             }
 137:SCD30_v2.c    ****         }
 658              		.loc 1 137 0
 659 0040 F3E7     		b	.L27
 660              	.L30:
 135:SCD30_v2.c    ****             }
 661              		.loc 1 135 0
 662 0042 00BF     		nop
 663              	.L29:
 138:SCD30_v2.c    ****     }
 139:SCD30_v2.c    **** /*   
 140:SCD30_v2.c    **** UART_PutString("Data Written:");
 141:SCD30_v2.c    **** UART_PutString("\n");
 142:SCD30_v2.c    **** for (int k=0; k<len; k++)
 143:SCD30_v2.c    **** {
 144:SCD30_v2.c    ****     UART_PutHexByte(data[k]);
 145:SCD30_v2.c    **** }
 146:SCD30_v2.c    **** UART_PutString("\n");
 147:SCD30_v2.c    **** */
 148:SCD30_v2.c    **** 
 149:SCD30_v2.c    **** }
 664              		.loc 1 149 0
 665 0044 00BF     		nop
 666 0046 1037     		adds	r7, r7, #16
 667              		.cfi_def_cfa_offset 8
 668 0048 BD46     		mov	sp, r7
 669              		.cfi_def_cfa_register 13
 670              		@ sp needed
 671 004a 80BD     		pop	{r7, pc}
 672              		.cfi_endproc
 673              	.LFE74:
 674              		.size	SCD30_writeBuffer, .-SCD30_writeBuffer
 675              		.section	.text.SCD30_readBuffer,"ax",%progbits
 676              		.align	2
 677              		.global	SCD30_readBuffer
 678              		.thumb
 679              		.thumb_func
 680              		.type	SCD30_readBuffer, %function
 681              	SCD30_readBuffer:
 682              	.LFB75:
 150:SCD30_v2.c    **** 
 151:SCD30_v2.c    **** void SCD30_readBuffer(uint8_t* data, uint8_t len) 
 152:SCD30_v2.c    **** {
 683              		.loc 1 152 0
 684              		.cfi_startproc
 685              		@ args = 0, pretend = 0, frame = 8
 686              		@ frame_needed = 1, uses_anonymous_args = 0
 687 0000 80B5     		push	{r7, lr}
 688              		.cfi_def_cfa_offset 8
 689              		.cfi_offset 7, -8
 690              		.cfi_offset 14, -4
 691 0002 82B0     		sub	sp, sp, #8
 692              		.cfi_def_cfa_offset 16
 693 0004 00AF     		add	r7, sp, #0
 694              		.cfi_def_cfa_register 7
ARM GAS  C:\Users\mag94\AppData\Local\Temp\ccNaFjuk.s 			page 16


 695 0006 7860     		str	r0, [r7, #4]
 696 0008 0B46     		mov	r3, r1
 697 000a FB70     		strb	r3, [r7, #3]
 153:SCD30_v2.c    ****     CyDelay(50);
 698              		.loc 1 153 0
 699 000c 3220     		movs	r0, #50
 700 000e FFF7FEFF 		bl	CyDelay
 154:SCD30_v2.c    ****     
 155:SCD30_v2.c    ****     I2C_1_MasterReadBuf(SCD30_I2C_ADDRESS, data, len, I2C_1_MODE_COMPLETE_XFER);
 701              		.loc 1 155 0
 702 0012 FA78     		ldrb	r2, [r7, #3]	@ zero_extendqisi2
 703 0014 0023     		movs	r3, #0
 704 0016 7968     		ldr	r1, [r7, #4]
 705 0018 6120     		movs	r0, #97
 706 001a FFF7FEFF 		bl	I2C_1_MasterReadBuf
 707              	.L34:
 156:SCD30_v2.c    ****     for(;;){
 157:SCD30_v2.c    ****             if(0u != (I2C_1_MasterStatus() & I2C_1_MSTAT_RD_CMPLT)){
 708              		.loc 1 157 0
 709 001e FFF7FEFF 		bl	I2C_1_MasterStatus
 710 0022 0346     		mov	r3, r0
 711 0024 03F00103 		and	r3, r3, #1
 712 0028 002B     		cmp	r3, #0
 713 002a 00D1     		bne	.L36
 158:SCD30_v2.c    ****                 break;
 159:SCD30_v2.c    ****                 }
 160:SCD30_v2.c    ****             }
 714              		.loc 1 160 0
 715 002c F7E7     		b	.L34
 716              	.L36:
 158:SCD30_v2.c    ****                 break;
 717              		.loc 1 158 0
 718 002e 00BF     		nop
 161:SCD30_v2.c    **** /*
 162:SCD30_v2.c    **** UART_PutString("Data Read:");
 163:SCD30_v2.c    **** UART_PutString("\n");
 164:SCD30_v2.c    **** for(int k=0; k<len; k++)
 165:SCD30_v2.c    **** {
 166:SCD30_v2.c    ****     UART_PutHexByte(data[k]);
 167:SCD30_v2.c    **** }
 168:SCD30_v2.c    **** UART_PutString("\n");
 169:SCD30_v2.c    **** */
 170:SCD30_v2.c    **** I2C_1_MasterClearStatus();
 719              		.loc 1 170 0
 720 0030 FFF7FEFF 		bl	I2C_1_MasterClearStatus
 171:SCD30_v2.c    **** }
 721              		.loc 1 171 0
 722 0034 00BF     		nop
 723 0036 0837     		adds	r7, r7, #8
 724              		.cfi_def_cfa_offset 8
 725 0038 BD46     		mov	sp, r7
 726              		.cfi_def_cfa_register 13
 727              		@ sp needed
 728 003a 80BD     		pop	{r7, pc}
 729              		.cfi_endproc
 730              	.LFE75:
 731              		.size	SCD30_readBuffer, .-SCD30_readBuffer
ARM GAS  C:\Users\mag94\AppData\Local\Temp\ccNaFjuk.s 			page 17


 732              		.section	.text.SCD30_calculateCrc,"ax",%progbits
 733              		.align	2
 734              		.global	SCD30_calculateCrc
 735              		.thumb
 736              		.thumb_func
 737              		.type	SCD30_calculateCrc, %function
 738              	SCD30_calculateCrc:
 739              	.LFB76:
 172:SCD30_v2.c    **** 
 173:SCD30_v2.c    **** 
 174:SCD30_v2.c    **** 
 175:SCD30_v2.c    **** uint8_t SCD30_calculateCrc(uint8_t data[], uint8_t len) {
 740              		.loc 1 175 0
 741              		.cfi_startproc
 742              		@ args = 0, pretend = 0, frame = 16
 743              		@ frame_needed = 1, uses_anonymous_args = 0
 744              		@ link register save eliminated.
 745 0000 80B4     		push	{r7}
 746              		.cfi_def_cfa_offset 4
 747              		.cfi_offset 7, -4
 748 0002 85B0     		sub	sp, sp, #20
 749              		.cfi_def_cfa_offset 24
 750 0004 00AF     		add	r7, sp, #0
 751              		.cfi_def_cfa_register 7
 752 0006 7860     		str	r0, [r7, #4]
 753 0008 0B46     		mov	r3, r1
 754 000a FB70     		strb	r3, [r7, #3]
 176:SCD30_v2.c    ****     uint8_t bit, byteCtr, crc = 0xff;
 755              		.loc 1 176 0
 756 000c FF23     		movs	r3, #255
 757 000e 7B73     		strb	r3, [r7, #13]
 177:SCD30_v2.c    **** 
 178:SCD30_v2.c    ****     // calculates 8-Bit checksum with given polynomial
 179:SCD30_v2.c    ****     for (byteCtr = 0; byteCtr < len; byteCtr ++) {
 758              		.loc 1 179 0
 759 0010 0023     		movs	r3, #0
 760 0012 BB73     		strb	r3, [r7, #14]
 761 0014 20E0     		b	.L38
 762              	.L43:
 180:SCD30_v2.c    ****         crc ^= (data[byteCtr]);
 763              		.loc 1 180 0
 764 0016 BB7B     		ldrb	r3, [r7, #14]	@ zero_extendqisi2
 765 0018 7A68     		ldr	r2, [r7, #4]
 766 001a 1344     		add	r3, r3, r2
 767 001c 1A78     		ldrb	r2, [r3]	@ zero_extendqisi2
 768 001e 7B7B     		ldrb	r3, [r7, #13]
 769 0020 5340     		eors	r3, r3, r2
 770 0022 7B73     		strb	r3, [r7, #13]
 181:SCD30_v2.c    **** 
 182:SCD30_v2.c    ****         for (bit = 8; bit > 0; -- bit) {
 771              		.loc 1 182 0
 772 0024 0823     		movs	r3, #8
 773 0026 FB73     		strb	r3, [r7, #15]
 774 0028 10E0     		b	.L39
 775              	.L42:
 183:SCD30_v2.c    ****             if (crc & 0x80) {
 776              		.loc 1 183 0
ARM GAS  C:\Users\mag94\AppData\Local\Temp\ccNaFjuk.s 			page 18


 777 002a 97F90D30 		ldrsb	r3, [r7, #13]
 778 002e 002B     		cmp	r3, #0
 779 0030 06DA     		bge	.L40
 184:SCD30_v2.c    ****                 crc = (crc << 1) ^ SCD30_POLYNOMIAL;
 780              		.loc 1 184 0
 781 0032 7B7B     		ldrb	r3, [r7, #13]
 782 0034 5B00     		lsls	r3, r3, #1
 783 0036 DBB2     		uxtb	r3, r3
 784 0038 83F03103 		eor	r3, r3, #49
 785 003c 7B73     		strb	r3, [r7, #13]
 786 003e 02E0     		b	.L41
 787              	.L40:
 185:SCD30_v2.c    ****             } else {
 186:SCD30_v2.c    ****                 crc = (crc << 1);
 788              		.loc 1 186 0
 789 0040 7B7B     		ldrb	r3, [r7, #13]
 790 0042 5B00     		lsls	r3, r3, #1
 791 0044 7B73     		strb	r3, [r7, #13]
 792              	.L41:
 182:SCD30_v2.c    ****             if (crc & 0x80) {
 793              		.loc 1 182 0 discriminator 2
 794 0046 FB7B     		ldrb	r3, [r7, #15]
 795 0048 013B     		subs	r3, r3, #1
 796 004a FB73     		strb	r3, [r7, #15]
 797              	.L39:
 182:SCD30_v2.c    ****             if (crc & 0x80) {
 798              		.loc 1 182 0 is_stmt 0 discriminator 1
 799 004c FB7B     		ldrb	r3, [r7, #15]	@ zero_extendqisi2
 800 004e 002B     		cmp	r3, #0
 801 0050 EBD1     		bne	.L42
 179:SCD30_v2.c    ****         crc ^= (data[byteCtr]);
 802              		.loc 1 179 0 is_stmt 1 discriminator 2
 803 0052 BB7B     		ldrb	r3, [r7, #14]	@ zero_extendqisi2
 804 0054 0133     		adds	r3, r3, #1
 805 0056 BB73     		strb	r3, [r7, #14]
 806              	.L38:
 179:SCD30_v2.c    ****         crc ^= (data[byteCtr]);
 807              		.loc 1 179 0 is_stmt 0 discriminator 1
 808 0058 BA7B     		ldrb	r2, [r7, #14]	@ zero_extendqisi2
 809 005a FB78     		ldrb	r3, [r7, #3]	@ zero_extendqisi2
 810 005c 9A42     		cmp	r2, r3
 811 005e DAD3     		bcc	.L43
 187:SCD30_v2.c    ****             }
 188:SCD30_v2.c    ****         }
 189:SCD30_v2.c    ****     }
 190:SCD30_v2.c    **** 
 191:SCD30_v2.c    ****     return crc;
 812              		.loc 1 191 0 is_stmt 1
 813 0060 7B7B     		ldrb	r3, [r7, #13]	@ zero_extendqisi2
 192:SCD30_v2.c    **** }
 814              		.loc 1 192 0
 815 0062 1846     		mov	r0, r3
 816 0064 1437     		adds	r7, r7, #20
 817              		.cfi_def_cfa_offset 4
 818 0066 BD46     		mov	sp, r7
 819              		.cfi_def_cfa_register 13
 820              		@ sp needed
ARM GAS  C:\Users\mag94\AppData\Local\Temp\ccNaFjuk.s 			page 19


 821 0068 80BC     		pop	{r7}
 822              		.cfi_restore 7
 823              		.cfi_def_cfa_offset 0
 824 006a 7047     		bx	lr
 825              		.cfi_endproc
 826              	.LFE76:
 827              		.size	SCD30_calculateCrc, .-SCD30_calculateCrc
 828              		.bss
 829              		.align	2
 830              	buf.6169:
 831 0000 00000000 		.space	5
 831      00
 832              	checkSum.6168:
 833 0005 00       		.space	1
 834              		.text
 835              	.Letext0:
 836              		.file 2 "c:\\program files (x86)\\cypress\\psoc creator\\4.3\\psoc creator\\import\\gnu\\arm\\5.4.
 837              		.file 3 "c:\\program files (x86)\\cypress\\psoc creator\\4.3\\psoc creator\\import\\gnu\\arm\\5.4.
 838              		.file 4 "Generated_Source\\PSoC5/cytypes.h"
 839              		.file 5 "Generated_Source\\PSoC5/DS18x8.h"
 840              		.file 6 "Generated_Source\\PSoC5/core_cm3.h"