ARM GAS  C:\Users\Gusta\AppData\Local\Temp\ccX8cHGx.s 			page 1


   1              		.syntax unified
   2              		.cpu cortex-m3
   3              		.fpu softvfp
   4              		.eabi_attribute 20, 1
   5              		.eabi_attribute 21, 1
   6              		.eabi_attribute 23, 3
   7              		.eabi_attribute 24, 1
   8              		.eabi_attribute 25, 1
   9              		.eabi_attribute 26, 1
  10              		.eabi_attribute 30, 6
  11              		.eabi_attribute 34, 1
  12              		.eabi_attribute 18, 4
  13              		.thumb
  14              		.syntax unified
  15              		.file	"SCD30.c"
  16              		.text
  17              	.Ltext0:
  18              		.cfi_sections	.debug_frame
  19              		.comm	DS18x8_Sensor,32,4
  20              		.comm	DS18x8_DataReady,1,1
  21              		.global	devAddr
  22              		.data
  23              		.type	devAddr, %object
  24              		.size	devAddr, 1
  25              	devAddr:
  26 0000 61       		.byte	97
  27              		.section	.text.SCD30_initialize,"ax",%progbits
  28              		.align	2
  29              		.global	SCD30_initialize
  30              		.thumb
  31              		.thumb_func
  32              		.type	SCD30_initialize, %function
  33              	SCD30_initialize:
  34              	.LFB63:
  35              		.file 1 "..\\..\\SCD30\\SCD30.cydsn\\SCD30.c"
   1:..\..\SCD30\SCD30.cydsn/SCD30.c **** /* ========================================
   2:..\..\SCD30\SCD30.cydsn/SCD30.c ****  *
   3:..\..\SCD30\SCD30.cydsn/SCD30.c ****  * Copyright YOUR COMPANY, THE YEAR
   4:..\..\SCD30\SCD30.cydsn/SCD30.c ****  * All Rights Reserved
   5:..\..\SCD30\SCD30.cydsn/SCD30.c ****  * UNPUBLISHED, LICENSED SOFTWARE.
   6:..\..\SCD30\SCD30.cydsn/SCD30.c ****  *
   7:..\..\SCD30\SCD30.cydsn/SCD30.c ****  * CONFIDENTIAL AND PROPRIETARY INFORMATION
   8:..\..\SCD30\SCD30.cydsn/SCD30.c ****  * WHICH IS THE PROPERTY OF your company.
   9:..\..\SCD30\SCD30.cydsn/SCD30.c ****  *
  10:..\..\SCD30\SCD30.cydsn/SCD30.c ****  * ========================================
  11:..\..\SCD30\SCD30.cydsn/SCD30.c **** */
  12:..\..\SCD30\SCD30.cydsn/SCD30.c **** #include "project.h"
  13:..\..\SCD30\SCD30.cydsn/SCD30.c **** #include "SCD30.h"
  14:..\..\SCD30\SCD30.cydsn/SCD30.c **** 
  15:..\..\SCD30\SCD30.cydsn/SCD30.c **** 
  16:..\..\SCD30\SCD30.cydsn/SCD30.c ****      uint8_t devAddr = SCD30_I2C_ADDRESS;
  17:..\..\SCD30\SCD30.cydsn/SCD30.c **** 
  18:..\..\SCD30\SCD30.cydsn/SCD30.c **** 
  19:..\..\SCD30\SCD30.cydsn/SCD30.c **** void SCD30_initialize(void) {
  36              		.loc 1 19 0
  37              		.cfi_startproc
  38              		@ args = 0, pretend = 0, frame = 0
ARM GAS  C:\Users\Gusta\AppData\Local\Temp\ccX8cHGx.s 			page 2


  39              		@ frame_needed = 1, uses_anonymous_args = 0
  40 0000 80B5     		push	{r7, lr}
  41              		.cfi_def_cfa_offset 8
  42              		.cfi_offset 7, -8
  43              		.cfi_offset 14, -4
  44 0002 00AF     		add	r7, sp, #0
  45              		.cfi_def_cfa_register 7
  20:..\..\SCD30\SCD30.cydsn/SCD30.c ****     //Set temperature offset。
  21:..\..\SCD30\SCD30.cydsn/SCD30.c ****     //setTemperatureOffset(0);
  22:..\..\SCD30\SCD30.cydsn/SCD30.c **** 
  23:..\..\SCD30\SCD30.cydsn/SCD30.c ****     SCD30_setMeasurementInterval(2); // 2 seconds between measurements
  46              		.loc 1 23 0
  47 0004 0220     		movs	r0, #2
  48 0006 FFF7FEFF 		bl	SCD30_setMeasurementInterval
  24:..\..\SCD30\SCD30.cydsn/SCD30.c ****     SCD30_startPeriodicMeasurment(); // start periodic measuments
  49              		.loc 1 24 0
  50 000a FFF7FEFF 		bl	SCD30_startPeriodicMeasurment
  25:..\..\SCD30\SCD30.cydsn/SCD30.c **** 
  26:..\..\SCD30\SCD30.cydsn/SCD30.c ****     //setAutoSelfCalibration(true); // Enable auto-self-calibration
  27:..\..\SCD30\SCD30.cydsn/SCD30.c **** }
  51              		.loc 1 27 0
  52 000e 00BF     		nop
  53 0010 80BD     		pop	{r7, pc}
  54              		.cfi_endproc
  55              	.LFE63:
  56              		.size	SCD30_initialize, .-SCD30_initialize
  57 0012 00BF     		.section	.text.SCD30_setTemperatureOffset,"ax",%progbits
  58              		.align	2
  59              		.global	SCD30_setTemperatureOffset
  60              		.thumb
  61              		.thumb_func
  62              		.type	SCD30_setTemperatureOffset, %function
  63              	SCD30_setTemperatureOffset:
  64              	.LFB64:
  28:..\..\SCD30\SCD30.cydsn/SCD30.c **** 
  29:..\..\SCD30\SCD30.cydsn/SCD30.c **** 
  30:..\..\SCD30\SCD30.cydsn/SCD30.c **** void SCD30_setTemperatureOffset(uint16_t offset) {
  65              		.loc 1 30 0
  66              		.cfi_startproc
  67              		@ args = 0, pretend = 0, frame = 8
  68              		@ frame_needed = 1, uses_anonymous_args = 0
  69 0000 80B5     		push	{r7, lr}
  70              		.cfi_def_cfa_offset 8
  71              		.cfi_offset 7, -8
  72              		.cfi_offset 14, -4
  73 0002 82B0     		sub	sp, sp, #8
  74              		.cfi_def_cfa_offset 16
  75 0004 00AF     		add	r7, sp, #0
  76              		.cfi_def_cfa_register 7
  77 0006 0346     		mov	r3, r0
  78 0008 FB80     		strh	r3, [r7, #6]	@ movhi
  31:..\..\SCD30\SCD30.cydsn/SCD30.c ****     SCD30_writeCommandWithArguments(SCD30_SET_TEMP_OFFSET, offset);
  79              		.loc 1 31 0
  80 000a FB88     		ldrh	r3, [r7, #6]
  81 000c 1946     		mov	r1, r3
  82 000e 45F20340 		movw	r0, #21507
  83 0012 FFF7FEFF 		bl	SCD30_writeCommandWithArguments
ARM GAS  C:\Users\Gusta\AppData\Local\Temp\ccX8cHGx.s 			page 3


  32:..\..\SCD30\SCD30.cydsn/SCD30.c **** }
  84              		.loc 1 32 0
  85 0016 00BF     		nop
  86 0018 0837     		adds	r7, r7, #8
  87              		.cfi_def_cfa_offset 8
  88 001a BD46     		mov	sp, r7
  89              		.cfi_def_cfa_register 13
  90              		@ sp needed
  91 001c 80BD     		pop	{r7, pc}
  92              		.cfi_endproc
  93              	.LFE64:
  94              		.size	SCD30_setTemperatureOffset, .-SCD30_setTemperatureOffset
  95 001e 00BF     		.section	.text.SCD30_isAvailable,"ax",%progbits
  96              		.align	2
  97              		.global	SCD30_isAvailable
  98              		.thumb
  99              		.thumb_func
 100              		.type	SCD30_isAvailable, %function
 101              	SCD30_isAvailable:
 102              	.LFB65:
  33:..\..\SCD30\SCD30.cydsn/SCD30.c **** 
  34:..\..\SCD30\SCD30.cydsn/SCD30.c **** _Bool SCD30_isAvailable(void) {
 103              		.loc 1 34 0
 104              		.cfi_startproc
 105              		@ args = 0, pretend = 0, frame = 0
 106              		@ frame_needed = 1, uses_anonymous_args = 0
 107 0000 80B5     		push	{r7, lr}
 108              		.cfi_def_cfa_offset 8
 109              		.cfi_offset 7, -8
 110              		.cfi_offset 14, -4
 111 0002 00AF     		add	r7, sp, #0
 112              		.cfi_def_cfa_register 7
  35:..\..\SCD30\SCD30.cydsn/SCD30.c ****     return SCD30_readRegister(SCD30_GET_DATA_READY);
 113              		.loc 1 35 0
 114 0004 40F20220 		movw	r0, #514
 115 0008 FFF7FEFF 		bl	SCD30_readRegister
 116 000c 0346     		mov	r3, r0
 117 000e 002B     		cmp	r3, #0
 118 0010 14BF     		ite	ne
 119 0012 0123     		movne	r3, #1
 120 0014 0023     		moveq	r3, #0
 121 0016 DBB2     		uxtb	r3, r3
  36:..\..\SCD30\SCD30.cydsn/SCD30.c **** }
 122              		.loc 1 36 0
 123 0018 1846     		mov	r0, r3
 124 001a 80BD     		pop	{r7, pc}
 125              		.cfi_endproc
 126              	.LFE65:
 127              		.size	SCD30_isAvailable, .-SCD30_isAvailable
 128              		.section	.text.SCD30_setAutoSelfCalibration,"ax",%progbits
 129              		.align	2
 130              		.global	SCD30_setAutoSelfCalibration
 131              		.thumb
 132              		.thumb_func
 133              		.type	SCD30_setAutoSelfCalibration, %function
 134              	SCD30_setAutoSelfCalibration:
 135              	.LFB66:
ARM GAS  C:\Users\Gusta\AppData\Local\Temp\ccX8cHGx.s 			page 4


  37:..\..\SCD30\SCD30.cydsn/SCD30.c **** 
  38:..\..\SCD30\SCD30.cydsn/SCD30.c **** void SCD30_setAutoSelfCalibration(_Bool enable) {
 136              		.loc 1 38 0
 137              		.cfi_startproc
 138              		@ args = 0, pretend = 0, frame = 8
 139              		@ frame_needed = 1, uses_anonymous_args = 0
 140 0000 80B5     		push	{r7, lr}
 141              		.cfi_def_cfa_offset 8
 142              		.cfi_offset 7, -8
 143              		.cfi_offset 14, -4
 144 0002 82B0     		sub	sp, sp, #8
 145              		.cfi_def_cfa_offset 16
 146 0004 00AF     		add	r7, sp, #0
 147              		.cfi_def_cfa_register 7
 148 0006 0346     		mov	r3, r0
 149 0008 FB71     		strb	r3, [r7, #7]
  39:..\..\SCD30\SCD30.cydsn/SCD30.c ****     if (enable) {
 150              		.loc 1 39 0
 151 000a FB79     		ldrb	r3, [r7, #7]	@ zero_extendqisi2
 152 000c 002B     		cmp	r3, #0
 153 000e 05D0     		beq	.L6
  40:..\..\SCD30\SCD30.cydsn/SCD30.c ****         SCD30_writeCommandWithArguments(SCD30_AUTOMATIC_SELF_CALIBRATION, 1);    //Activate continu
 154              		.loc 1 40 0
 155 0010 0121     		movs	r1, #1
 156 0012 45F20630 		movw	r0, #21254
 157 0016 FFF7FEFF 		bl	SCD30_writeCommandWithArguments
  41:..\..\SCD30\SCD30.cydsn/SCD30.c ****     } else {
  42:..\..\SCD30\SCD30.cydsn/SCD30.c ****         SCD30_writeCommandWithArguments(SCD30_AUTOMATIC_SELF_CALIBRATION, 0);    //Deactivate conti
  43:..\..\SCD30\SCD30.cydsn/SCD30.c ****     }
  44:..\..\SCD30\SCD30.cydsn/SCD30.c **** }
 158              		.loc 1 44 0
 159 001a 04E0     		b	.L8
 160              	.L6:
  42:..\..\SCD30\SCD30.cydsn/SCD30.c ****     }
 161              		.loc 1 42 0
 162 001c 0021     		movs	r1, #0
 163 001e 45F20630 		movw	r0, #21254
 164 0022 FFF7FEFF 		bl	SCD30_writeCommandWithArguments
 165              	.L8:
 166              		.loc 1 44 0
 167 0026 00BF     		nop
 168 0028 0837     		adds	r7, r7, #8
 169              		.cfi_def_cfa_offset 8
 170 002a BD46     		mov	sp, r7
 171              		.cfi_def_cfa_register 13
 172              		@ sp needed
 173 002c 80BD     		pop	{r7, pc}
 174              		.cfi_endproc
 175              	.LFE66:
 176              		.size	SCD30_setAutoSelfCalibration, .-SCD30_setAutoSelfCalibration
 177 002e 00BF     		.section	.text.SCD30_setMeasurementInterval,"ax",%progbits
 178              		.align	2
 179              		.global	SCD30_setMeasurementInterval
 180              		.thumb
 181              		.thumb_func
 182              		.type	SCD30_setMeasurementInterval, %function
 183              	SCD30_setMeasurementInterval:
ARM GAS  C:\Users\Gusta\AppData\Local\Temp\ccX8cHGx.s 			page 5


 184              	.LFB67:
  45:..\..\SCD30\SCD30.cydsn/SCD30.c **** 
  46:..\..\SCD30\SCD30.cydsn/SCD30.c **** void SCD30_setMeasurementInterval(uint16_t interval) {
 185              		.loc 1 46 0
 186              		.cfi_startproc
 187              		@ args = 0, pretend = 0, frame = 8
 188              		@ frame_needed = 1, uses_anonymous_args = 0
 189 0000 80B5     		push	{r7, lr}
 190              		.cfi_def_cfa_offset 8
 191              		.cfi_offset 7, -8
 192              		.cfi_offset 14, -4
 193 0002 82B0     		sub	sp, sp, #8
 194              		.cfi_def_cfa_offset 16
 195 0004 00AF     		add	r7, sp, #0
 196              		.cfi_def_cfa_register 7
 197 0006 0346     		mov	r3, r0
 198 0008 FB80     		strh	r3, [r7, #6]	@ movhi
  47:..\..\SCD30\SCD30.cydsn/SCD30.c ****     SCD30_writeCommandWithArguments(SCD30_SET_MEASUREMENT_INTERVAL, interval);
 199              		.loc 1 47 0
 200 000a FB88     		ldrh	r3, [r7, #6]
 201 000c 1946     		mov	r1, r3
 202 000e 4FF48C40 		mov	r0, #17920
 203 0012 FFF7FEFF 		bl	SCD30_writeCommandWithArguments
  48:..\..\SCD30\SCD30.cydsn/SCD30.c **** }
 204              		.loc 1 48 0
 205 0016 00BF     		nop
 206 0018 0837     		adds	r7, r7, #8
 207              		.cfi_def_cfa_offset 8
 208 001a BD46     		mov	sp, r7
 209              		.cfi_def_cfa_register 13
 210              		@ sp needed
 211 001c 80BD     		pop	{r7, pc}
 212              		.cfi_endproc
 213              	.LFE67:
 214              		.size	SCD30_setMeasurementInterval, .-SCD30_setMeasurementInterval
 215 001e 00BF     		.section	.text.SCD30_startPeriodicMeasurment,"ax",%progbits
 216              		.align	2
 217              		.global	SCD30_startPeriodicMeasurment
 218              		.thumb
 219              		.thumb_func
 220              		.type	SCD30_startPeriodicMeasurment, %function
 221              	SCD30_startPeriodicMeasurment:
 222              	.LFB68:
  49:..\..\SCD30\SCD30.cydsn/SCD30.c **** 
  50:..\..\SCD30\SCD30.cydsn/SCD30.c **** void SCD30_startPeriodicMeasurment(void) {
 223              		.loc 1 50 0
 224              		.cfi_startproc
 225              		@ args = 0, pretend = 0, frame = 0
 226              		@ frame_needed = 1, uses_anonymous_args = 0
 227 0000 80B5     		push	{r7, lr}
 228              		.cfi_def_cfa_offset 8
 229              		.cfi_offset 7, -8
 230              		.cfi_offset 14, -4
 231 0002 00AF     		add	r7, sp, #0
 232              		.cfi_def_cfa_register 7
  51:..\..\SCD30\SCD30.cydsn/SCD30.c ****     SCD30_writeCommandWithArguments(SCD30_CONTINUOUS_MEASUREMENT, 0x0000);
 233              		.loc 1 51 0
ARM GAS  C:\Users\Gusta\AppData\Local\Temp\ccX8cHGx.s 			page 6


 234 0004 0021     		movs	r1, #0
 235 0006 1020     		movs	r0, #16
 236 0008 FFF7FEFF 		bl	SCD30_writeCommandWithArguments
  52:..\..\SCD30\SCD30.cydsn/SCD30.c **** }
 237              		.loc 1 52 0
 238 000c 00BF     		nop
 239 000e 80BD     		pop	{r7, pc}
 240              		.cfi_endproc
 241              	.LFE68:
 242              		.size	SCD30_startPeriodicMeasurment, .-SCD30_startPeriodicMeasurment
 243              		.section	.text.SCD30_stopMeasurement,"ax",%progbits
 244              		.align	2
 245              		.global	SCD30_stopMeasurement
 246              		.thumb
 247              		.thumb_func
 248              		.type	SCD30_stopMeasurement, %function
 249              	SCD30_stopMeasurement:
 250              	.LFB69:
  53:..\..\SCD30\SCD30.cydsn/SCD30.c **** 
  54:..\..\SCD30\SCD30.cydsn/SCD30.c **** void SCD30_stopMeasurement(void) {
 251              		.loc 1 54 0
 252              		.cfi_startproc
 253              		@ args = 0, pretend = 0, frame = 0
 254              		@ frame_needed = 1, uses_anonymous_args = 0
 255 0000 80B5     		push	{r7, lr}
 256              		.cfi_def_cfa_offset 8
 257              		.cfi_offset 7, -8
 258              		.cfi_offset 14, -4
 259 0002 00AF     		add	r7, sp, #0
 260              		.cfi_def_cfa_register 7
  55:..\..\SCD30\SCD30.cydsn/SCD30.c ****    SCD30_writeCommand(SCD30_STOP_MEASUREMENT);
 261              		.loc 1 55 0
 262 0004 4FF48270 		mov	r0, #260
 263 0008 FFF7FEFF 		bl	SCD30_writeCommand
  56:..\..\SCD30\SCD30.cydsn/SCD30.c **** }
 264              		.loc 1 56 0
 265 000c 00BF     		nop
 266 000e 80BD     		pop	{r7, pc}
 267              		.cfi_endproc
 268              	.LFE69:
 269              		.size	SCD30_stopMeasurement, .-SCD30_stopMeasurement
 270              		.section	.text.SCD30_getCarbonDioxideConcentration,"ax",%progbits
 271              		.align	2
 272              		.global	SCD30_getCarbonDioxideConcentration
 273              		.thumb
 274              		.thumb_func
 275              		.type	SCD30_getCarbonDioxideConcentration, %function
 276              	SCD30_getCarbonDioxideConcentration:
 277              	.LFB70:
  57:..\..\SCD30\SCD30.cydsn/SCD30.c **** 
  58:..\..\SCD30\SCD30.cydsn/SCD30.c **** void SCD30_getCarbonDioxideConcentration(float* result) {
 278              		.loc 1 58 0
 279              		.cfi_startproc
 280              		@ args = 0, pretend = 0, frame = 56
 281              		@ frame_needed = 1, uses_anonymous_args = 0
 282 0000 80B5     		push	{r7, lr}
 283              		.cfi_def_cfa_offset 8
ARM GAS  C:\Users\Gusta\AppData\Local\Temp\ccX8cHGx.s 			page 7


 284              		.cfi_offset 7, -8
 285              		.cfi_offset 14, -4
 286 0002 8EB0     		sub	sp, sp, #56
 287              		.cfi_def_cfa_offset 64
 288 0004 00AF     		add	r7, sp, #0
 289              		.cfi_def_cfa_register 7
 290 0006 7860     		str	r0, [r7, #4]
  59:..\..\SCD30\SCD30.cydsn/SCD30.c ****     uint8_t buf[18] = { 0 };
 291              		.loc 1 59 0
 292 0008 07F11803 		add	r3, r7, #24
 293 000c 0022     		movs	r2, #0
 294 000e 1A60     		str	r2, [r3]
 295 0010 5A60     		str	r2, [r3, #4]
 296 0012 9A60     		str	r2, [r3, #8]
 297 0014 DA60     		str	r2, [r3, #12]
 298 0016 1A82     		strh	r2, [r3, #16]	@ movhi
  60:..\..\SCD30\SCD30.cydsn/SCD30.c ****     uint32_t co2U32 = 0;
 299              		.loc 1 60 0
 300 0018 0023     		movs	r3, #0
 301 001a 7B61     		str	r3, [r7, #20]
  61:..\..\SCD30\SCD30.cydsn/SCD30.c ****     uint32_t tempU32 = 0;
 302              		.loc 1 61 0
 303 001c 0023     		movs	r3, #0
 304 001e 3B61     		str	r3, [r7, #16]
  62:..\..\SCD30\SCD30.cydsn/SCD30.c ****     uint32_t humU32 = 0;
 305              		.loc 1 62 0
 306 0020 0023     		movs	r3, #0
 307 0022 FB60     		str	r3, [r7, #12]
  63:..\..\SCD30\SCD30.cydsn/SCD30.c ****     float co2Concentration = 0;
 308              		.loc 1 63 0
 309 0024 4FF00003 		mov	r3, #0
 310 0028 7B63     		str	r3, [r7, #52]	@ float
  64:..\..\SCD30\SCD30.cydsn/SCD30.c ****     float temperature = 0;
 311              		.loc 1 64 0
 312 002a 4FF00003 		mov	r3, #0
 313 002e 3B63     		str	r3, [r7, #48]	@ float
  65:..\..\SCD30\SCD30.cydsn/SCD30.c ****     float humidity = 0;
 314              		.loc 1 65 0
 315 0030 4FF00003 		mov	r3, #0
 316 0034 FB62     		str	r3, [r7, #44]	@ float
  66:..\..\SCD30\SCD30.cydsn/SCD30.c **** 
  67:..\..\SCD30\SCD30.cydsn/SCD30.c ****     SCD30_writeCommand(SCD30_READ_MEASUREMENT);
 317              		.loc 1 67 0
 318 0036 4FF44070 		mov	r0, #768
 319 003a FFF7FEFF 		bl	SCD30_writeCommand
  68:..\..\SCD30\SCD30.cydsn/SCD30.c ****     SCD30_readBuffer(buf, 18);
 320              		.loc 1 68 0
 321 003e 07F11803 		add	r3, r7, #24
 322 0042 1221     		movs	r1, #18
 323 0044 1846     		mov	r0, r3
 324 0046 FFF7FEFF 		bl	SCD30_readBuffer
  69:..\..\SCD30\SCD30.cydsn/SCD30.c **** 
  70:..\..\SCD30\SCD30.cydsn/SCD30.c ****     co2U32 = (uint32_t)((((uint32_t)buf[0]) << 24) | (((uint32_t)buf[1]) << 16) |
 325              		.loc 1 70 0
 326 004a 3B7E     		ldrb	r3, [r7, #24]	@ zero_extendqisi2
 327 004c 1A06     		lsls	r2, r3, #24
 328 004e 7B7E     		ldrb	r3, [r7, #25]	@ zero_extendqisi2
ARM GAS  C:\Users\Gusta\AppData\Local\Temp\ccX8cHGx.s 			page 8


 329 0050 1B04     		lsls	r3, r3, #16
 330 0052 1A43     		orrs	r2, r2, r3
  71:..\..\SCD30\SCD30.cydsn/SCD30.c ****                         (((uint32_t)buf[3]) << 8) | ((uint32_t)buf[4]));
 331              		.loc 1 71 0
 332 0054 FB7E     		ldrb	r3, [r7, #27]	@ zero_extendqisi2
 333 0056 1B02     		lsls	r3, r3, #8
  70:..\..\SCD30\SCD30.cydsn/SCD30.c ****                         (((uint32_t)buf[3]) << 8) | ((uint32_t)buf[4]));
 334              		.loc 1 70 0
 335 0058 1343     		orrs	r3, r3, r2
 336              		.loc 1 71 0
 337 005a 3A7F     		ldrb	r2, [r7, #28]	@ zero_extendqisi2
  70:..\..\SCD30\SCD30.cydsn/SCD30.c ****                         (((uint32_t)buf[3]) << 8) | ((uint32_t)buf[4]));
 338              		.loc 1 70 0
 339 005c 1343     		orrs	r3, r3, r2
 340 005e 7B61     		str	r3, [r7, #20]
  72:..\..\SCD30\SCD30.cydsn/SCD30.c **** 
  73:..\..\SCD30\SCD30.cydsn/SCD30.c ****     tempU32 = (uint32_t)((((uint32_t)buf[6]) << 24) | (((uint32_t)buf[7]) << 16) |
 341              		.loc 1 73 0
 342 0060 BB7F     		ldrb	r3, [r7, #30]	@ zero_extendqisi2
 343 0062 1A06     		lsls	r2, r3, #24
 344 0064 FB7F     		ldrb	r3, [r7, #31]	@ zero_extendqisi2
 345 0066 1B04     		lsls	r3, r3, #16
 346 0068 1A43     		orrs	r2, r2, r3
  74:..\..\SCD30\SCD30.cydsn/SCD30.c ****                          (((uint32_t)buf[9]) << 8) | ((uint32_t)buf[10]));
 347              		.loc 1 74 0
 348 006a 97F82130 		ldrb	r3, [r7, #33]	@ zero_extendqisi2
 349 006e 1B02     		lsls	r3, r3, #8
  73:..\..\SCD30\SCD30.cydsn/SCD30.c ****                          (((uint32_t)buf[9]) << 8) | ((uint32_t)buf[10]));
 350              		.loc 1 73 0
 351 0070 1343     		orrs	r3, r3, r2
 352              		.loc 1 74 0
 353 0072 97F82220 		ldrb	r2, [r7, #34]	@ zero_extendqisi2
  73:..\..\SCD30\SCD30.cydsn/SCD30.c ****                          (((uint32_t)buf[9]) << 8) | ((uint32_t)buf[10]));
 354              		.loc 1 73 0
 355 0076 1343     		orrs	r3, r3, r2
 356 0078 3B61     		str	r3, [r7, #16]
  75:..\..\SCD30\SCD30.cydsn/SCD30.c **** 
  76:..\..\SCD30\SCD30.cydsn/SCD30.c ****     humU32 = (uint32_t)((((uint32_t)buf[12]) << 24) | (((uint32_t)buf[13]) << 16) |
 357              		.loc 1 76 0
 358 007a 97F82430 		ldrb	r3, [r7, #36]	@ zero_extendqisi2
 359 007e 1A06     		lsls	r2, r3, #24
 360 0080 97F82530 		ldrb	r3, [r7, #37]	@ zero_extendqisi2
 361 0084 1B04     		lsls	r3, r3, #16
 362 0086 1A43     		orrs	r2, r2, r3
  77:..\..\SCD30\SCD30.cydsn/SCD30.c ****                         (((uint32_t)buf[15]) << 8) | ((uint32_t)buf[16]));
 363              		.loc 1 77 0
 364 0088 97F82730 		ldrb	r3, [r7, #39]	@ zero_extendqisi2
 365 008c 1B02     		lsls	r3, r3, #8
  76:..\..\SCD30\SCD30.cydsn/SCD30.c ****                         (((uint32_t)buf[15]) << 8) | ((uint32_t)buf[16]));
 366              		.loc 1 76 0
 367 008e 1343     		orrs	r3, r3, r2
 368              		.loc 1 77 0
 369 0090 97F82820 		ldrb	r2, [r7, #40]	@ zero_extendqisi2
  76:..\..\SCD30\SCD30.cydsn/SCD30.c ****                         (((uint32_t)buf[15]) << 8) | ((uint32_t)buf[16]));
 370              		.loc 1 76 0
 371 0094 1343     		orrs	r3, r3, r2
 372 0096 FB60     		str	r3, [r7, #12]
ARM GAS  C:\Users\Gusta\AppData\Local\Temp\ccX8cHGx.s 			page 9


  78:..\..\SCD30\SCD30.cydsn/SCD30.c **** 
  79:..\..\SCD30\SCD30.cydsn/SCD30.c ****     memcpy(&result[0], &co2U32, sizeof(co2Concentration));
 373              		.loc 1 79 0
 374 0098 07F11403 		add	r3, r7, #20
 375 009c 0422     		movs	r2, #4
 376 009e 1946     		mov	r1, r3
 377 00a0 7868     		ldr	r0, [r7, #4]
 378 00a2 FFF7FEFF 		bl	memcpy
  80:..\..\SCD30\SCD30.cydsn/SCD30.c ****     memcpy(&result[1], &tempU32, sizeof(temperature));
 379              		.loc 1 80 0
 380 00a6 7B68     		ldr	r3, [r7, #4]
 381 00a8 0433     		adds	r3, r3, #4
 382 00aa 07F11001 		add	r1, r7, #16
 383 00ae 0422     		movs	r2, #4
 384 00b0 1846     		mov	r0, r3
 385 00b2 FFF7FEFF 		bl	memcpy
  81:..\..\SCD30\SCD30.cydsn/SCD30.c ****     memcpy(&result[2], &humU32, sizeof(humidity));
 386              		.loc 1 81 0
 387 00b6 7B68     		ldr	r3, [r7, #4]
 388 00b8 0833     		adds	r3, r3, #8
 389 00ba 07F10C01 		add	r1, r7, #12
 390 00be 0422     		movs	r2, #4
 391 00c0 1846     		mov	r0, r3
 392 00c2 FFF7FEFF 		bl	memcpy
  82:..\..\SCD30\SCD30.cydsn/SCD30.c **** 
  83:..\..\SCD30\SCD30.cydsn/SCD30.c **** }
 393              		.loc 1 83 0
 394 00c6 00BF     		nop
 395 00c8 3837     		adds	r7, r7, #56
 396              		.cfi_def_cfa_offset 8
 397 00ca BD46     		mov	sp, r7
 398              		.cfi_def_cfa_register 13
 399              		@ sp needed
 400 00cc 80BD     		pop	{r7, pc}
 401              		.cfi_endproc
 402              	.LFE70:
 403              		.size	SCD30_getCarbonDioxideConcentration, .-SCD30_getCarbonDioxideConcentration
 404 00ce 00BF     		.section	.text.SCD30_writeCommand,"ax",%progbits
 405              		.align	2
 406              		.global	SCD30_writeCommand
 407              		.thumb
 408              		.thumb_func
 409              		.type	SCD30_writeCommand, %function
 410              	SCD30_writeCommand:
 411              	.LFB71:
  84:..\..\SCD30\SCD30.cydsn/SCD30.c **** 
  85:..\..\SCD30\SCD30.cydsn/SCD30.c **** void SCD30_writeCommand(uint16_t command) {
 412              		.loc 1 85 0
 413              		.cfi_startproc
 414              		@ args = 0, pretend = 0, frame = 16
 415              		@ frame_needed = 1, uses_anonymous_args = 0
 416 0000 80B5     		push	{r7, lr}
 417              		.cfi_def_cfa_offset 8
 418              		.cfi_offset 7, -8
 419              		.cfi_offset 14, -4
 420 0002 84B0     		sub	sp, sp, #16
 421              		.cfi_def_cfa_offset 24
ARM GAS  C:\Users\Gusta\AppData\Local\Temp\ccX8cHGx.s 			page 10


 422 0004 00AF     		add	r7, sp, #0
 423              		.cfi_def_cfa_register 7
 424 0006 0346     		mov	r3, r0
 425 0008 FB80     		strh	r3, [r7, #6]	@ movhi
  86:..\..\SCD30\SCD30.cydsn/SCD30.c ****     uint8_t buf [2];
  87:..\..\SCD30\SCD30.cydsn/SCD30.c ****     buf[0] = command >> 8;
 426              		.loc 1 87 0
 427 000a FB88     		ldrh	r3, [r7, #6]
 428 000c 1B0A     		lsrs	r3, r3, #8
 429 000e 9BB2     		uxth	r3, r3
 430 0010 DBB2     		uxtb	r3, r3
 431 0012 3B73     		strb	r3, [r7, #12]
  88:..\..\SCD30\SCD30.cydsn/SCD30.c ****     buf[1] = command;
 432              		.loc 1 88 0
 433 0014 FB88     		ldrh	r3, [r7, #6]	@ movhi
 434 0016 DBB2     		uxtb	r3, r3
 435 0018 7B73     		strb	r3, [r7, #13]
  89:..\..\SCD30\SCD30.cydsn/SCD30.c ****     
  90:..\..\SCD30\SCD30.cydsn/SCD30.c ****     I2C_MasterWriteBuf(SCD30_I2C_ADDRESS, buf, 2, I2C_MODE_COMPLETE_XFER);
 436              		.loc 1 90 0
 437 001a 07F10C01 		add	r1, r7, #12
 438 001e 0023     		movs	r3, #0
 439 0020 0222     		movs	r2, #2
 440 0022 6120     		movs	r0, #97
 441 0024 FFF7FEFF 		bl	I2C_MasterWriteBuf
 442              	.L16:
  91:..\..\SCD30\SCD30.cydsn/SCD30.c ****     for(;;){
  92:..\..\SCD30\SCD30.cydsn/SCD30.c ****             if(0u != (I2C_MasterStatus() & I2C_MSTAT_WR_CMPLT))
 443              		.loc 1 92 0
 444 0028 FFF7FEFF 		bl	I2C_MasterStatus
 445 002c 0346     		mov	r3, r0
 446 002e 03F00203 		and	r3, r3, #2
 447 0032 002B     		cmp	r3, #0
 448 0034 00D1     		bne	.L18
  93:..\..\SCD30\SCD30.cydsn/SCD30.c ****                 {
  94:..\..\SCD30\SCD30.cydsn/SCD30.c ****                 break;
  95:..\..\SCD30\SCD30.cydsn/SCD30.c ****                 }
  96:..\..\SCD30\SCD30.cydsn/SCD30.c ****             }
 449              		.loc 1 96 0
 450 0036 F7E7     		b	.L16
 451              	.L18:
  94:..\..\SCD30\SCD30.cydsn/SCD30.c ****                 }
 452              		.loc 1 94 0
 453 0038 00BF     		nop
  97:..\..\SCD30\SCD30.cydsn/SCD30.c ****          //         UART_PutHexInt(command);             UART_PutString("Command Written");       U
  98:..\..\SCD30\SCD30.cydsn/SCD30.c **** I2C_MasterClearStatus();
 454              		.loc 1 98 0
 455 003a FFF7FEFF 		bl	I2C_MasterClearStatus
  99:..\..\SCD30\SCD30.cydsn/SCD30.c **** }
 456              		.loc 1 99 0
 457 003e 00BF     		nop
 458 0040 1037     		adds	r7, r7, #16
 459              		.cfi_def_cfa_offset 8
 460 0042 BD46     		mov	sp, r7
 461              		.cfi_def_cfa_register 13
 462              		@ sp needed
 463 0044 80BD     		pop	{r7, pc}
ARM GAS  C:\Users\Gusta\AppData\Local\Temp\ccX8cHGx.s 			page 11


 464              		.cfi_endproc
 465              	.LFE71:
 466              		.size	SCD30_writeCommand, .-SCD30_writeCommand
 467 0046 00BF     		.section	.text.SCD30_writeCommandWithArguments,"ax",%progbits
 468              		.align	2
 469              		.global	SCD30_writeCommandWithArguments
 470              		.thumb
 471              		.thumb_func
 472              		.type	SCD30_writeCommandWithArguments, %function
 473              	SCD30_writeCommandWithArguments:
 474              	.LFB72:
 100:..\..\SCD30\SCD30.cydsn/SCD30.c **** 
 101:..\..\SCD30\SCD30.cydsn/SCD30.c **** void SCD30_writeCommandWithArguments(uint16_t command, uint16_t arguments) {
 475              		.loc 1 101 0
 476              		.cfi_startproc
 477              		@ args = 0, pretend = 0, frame = 16
 478              		@ frame_needed = 1, uses_anonymous_args = 0
 479 0000 80B5     		push	{r7, lr}
 480              		.cfi_def_cfa_offset 8
 481              		.cfi_offset 7, -8
 482              		.cfi_offset 14, -4
 483 0002 84B0     		sub	sp, sp, #16
 484              		.cfi_def_cfa_offset 24
 485 0004 00AF     		add	r7, sp, #0
 486              		.cfi_def_cfa_register 7
 487 0006 0346     		mov	r3, r0
 488 0008 0A46     		mov	r2, r1
 489 000a FB80     		strh	r3, [r7, #6]	@ movhi
 490 000c 1346     		mov	r3, r2	@ movhi
 491 000e BB80     		strh	r3, [r7, #4]	@ movhi
 102:..\..\SCD30\SCD30.cydsn/SCD30.c ****     uint8_t checkSum, buf[5] = { 0 };
 492              		.loc 1 102 0
 493 0010 07F10803 		add	r3, r7, #8
 494 0014 0022     		movs	r2, #0
 495 0016 1A60     		str	r2, [r3]
 496 0018 1A71     		strb	r2, [r3, #4]
 103:..\..\SCD30\SCD30.cydsn/SCD30.c **** 
 104:..\..\SCD30\SCD30.cydsn/SCD30.c ****     buf[0] = command >> 8;
 497              		.loc 1 104 0
 498 001a FB88     		ldrh	r3, [r7, #6]
 499 001c 1B0A     		lsrs	r3, r3, #8
 500 001e 9BB2     		uxth	r3, r3
 501 0020 DBB2     		uxtb	r3, r3
 502 0022 3B72     		strb	r3, [r7, #8]
 105:..\..\SCD30\SCD30.cydsn/SCD30.c ****     buf[1] = command;
 503              		.loc 1 105 0
 504 0024 FB88     		ldrh	r3, [r7, #6]	@ movhi
 505 0026 DBB2     		uxtb	r3, r3
 506 0028 7B72     		strb	r3, [r7, #9]
 106:..\..\SCD30\SCD30.cydsn/SCD30.c ****     buf[2] = arguments >> 8;
 507              		.loc 1 106 0
 508 002a BB88     		ldrh	r3, [r7, #4]
 509 002c 1B0A     		lsrs	r3, r3, #8
 510 002e 9BB2     		uxth	r3, r3
 511 0030 DBB2     		uxtb	r3, r3
 512 0032 BB72     		strb	r3, [r7, #10]
 107:..\..\SCD30\SCD30.cydsn/SCD30.c ****     buf[3] = arguments;
ARM GAS  C:\Users\Gusta\AppData\Local\Temp\ccX8cHGx.s 			page 12


 513              		.loc 1 107 0
 514 0034 BB88     		ldrh	r3, [r7, #4]	@ movhi
 515 0036 DBB2     		uxtb	r3, r3
 516 0038 FB72     		strb	r3, [r7, #11]
 108:..\..\SCD30\SCD30.cydsn/SCD30.c ****     checkSum = SCD30_calculateCrc(&buf[2], 2);
 517              		.loc 1 108 0
 518 003a 07F10803 		add	r3, r7, #8
 519 003e 0233     		adds	r3, r3, #2
 520 0040 0221     		movs	r1, #2
 521 0042 1846     		mov	r0, r3
 522 0044 FFF7FEFF 		bl	SCD30_calculateCrc
 523 0048 0346     		mov	r3, r0
 524 004a FB73     		strb	r3, [r7, #15]
 109:..\..\SCD30\SCD30.cydsn/SCD30.c ****     buf[4] = checkSum;
 525              		.loc 1 109 0
 526 004c FB7B     		ldrb	r3, [r7, #15]
 527 004e 3B73     		strb	r3, [r7, #12]
 110:..\..\SCD30\SCD30.cydsn/SCD30.c ****                                              //   for(int k = 0; k <= 4; )
 111:..\..\SCD30\SCD30.cydsn/SCD30.c ****     SCD30_writeBuffer(buf, 5);
 528              		.loc 1 111 0
 529 0050 07F10803 		add	r3, r7, #8
 530 0054 0521     		movs	r1, #5
 531 0056 1846     		mov	r0, r3
 532 0058 FFF7FEFF 		bl	SCD30_writeBuffer
 112:..\..\SCD30\SCD30.cydsn/SCD30.c **** }
 533              		.loc 1 112 0
 534 005c 00BF     		nop
 535 005e 1037     		adds	r7, r7, #16
 536              		.cfi_def_cfa_offset 8
 537 0060 BD46     		mov	sp, r7
 538              		.cfi_def_cfa_register 13
 539              		@ sp needed
 540 0062 80BD     		pop	{r7, pc}
 541              		.cfi_endproc
 542              	.LFE72:
 543              		.size	SCD30_writeCommandWithArguments, .-SCD30_writeCommandWithArguments
 544              		.section	.text.SCD30_readRegister,"ax",%progbits
 545              		.align	2
 546              		.global	SCD30_readRegister
 547              		.thumb
 548              		.thumb_func
 549              		.type	SCD30_readRegister, %function
 550              	SCD30_readRegister:
 551              	.LFB73:
 113:..\..\SCD30\SCD30.cydsn/SCD30.c **** 
 114:..\..\SCD30\SCD30.cydsn/SCD30.c **** uint16_t SCD30_readRegister(uint16_t command) {
 552              		.loc 1 114 0
 553              		.cfi_startproc
 554              		@ args = 0, pretend = 0, frame = 16
 555              		@ frame_needed = 1, uses_anonymous_args = 0
 556 0000 80B5     		push	{r7, lr}
 557              		.cfi_def_cfa_offset 8
 558              		.cfi_offset 7, -8
 559              		.cfi_offset 14, -4
 560 0002 84B0     		sub	sp, sp, #16
 561              		.cfi_def_cfa_offset 24
 562 0004 00AF     		add	r7, sp, #0
ARM GAS  C:\Users\Gusta\AppData\Local\Temp\ccX8cHGx.s 			page 13


 563              		.cfi_def_cfa_register 7
 564 0006 0346     		mov	r3, r0
 565 0008 FB80     		strh	r3, [r7, #6]	@ movhi
 115:..\..\SCD30\SCD30.cydsn/SCD30.c ****     uint8_t buf[3] = { 0 };
 566              		.loc 1 115 0
 567 000a 07F10C03 		add	r3, r7, #12
 568 000e 0021     		movs	r1, #0
 569 0010 0A46     		mov	r2, r1	@ movhi
 570 0012 1A80     		strh	r2, [r3]	@ movhi
 571 0014 0A46     		mov	r2, r1
 572 0016 9A70     		strb	r2, [r3, #2]
 116:..\..\SCD30\SCD30.cydsn/SCD30.c **** 
 117:..\..\SCD30\SCD30.cydsn/SCD30.c ****     SCD30_writeCommand(command);
 573              		.loc 1 117 0
 574 0018 FB88     		ldrh	r3, [r7, #6]
 575 001a 1846     		mov	r0, r3
 576 001c FFF7FEFF 		bl	SCD30_writeCommand
 118:..\..\SCD30\SCD30.cydsn/SCD30.c ****     SCD30_readBuffer(buf, 3);
 577              		.loc 1 118 0
 578 0020 07F10C03 		add	r3, r7, #12
 579 0024 0321     		movs	r1, #3
 580 0026 1846     		mov	r0, r3
 581 0028 FFF7FEFF 		bl	SCD30_readBuffer
 119:..\..\SCD30\SCD30.cydsn/SCD30.c **** 
 120:..\..\SCD30\SCD30.cydsn/SCD30.c ****     return ((((uint16_t)buf[0]) << 8) | buf[1]);
 582              		.loc 1 120 0
 583 002c 3B7B     		ldrb	r3, [r7, #12]	@ zero_extendqisi2
 584 002e 1B02     		lsls	r3, r3, #8
 585 0030 1AB2     		sxth	r2, r3
 586 0032 7B7B     		ldrb	r3, [r7, #13]	@ zero_extendqisi2
 587 0034 1BB2     		sxth	r3, r3
 588 0036 1343     		orrs	r3, r3, r2
 589 0038 1BB2     		sxth	r3, r3
 590 003a 9BB2     		uxth	r3, r3
 121:..\..\SCD30\SCD30.cydsn/SCD30.c **** }
 591              		.loc 1 121 0
 592 003c 1846     		mov	r0, r3
 593 003e 1037     		adds	r7, r7, #16
 594              		.cfi_def_cfa_offset 8
 595 0040 BD46     		mov	sp, r7
 596              		.cfi_def_cfa_register 13
 597              		@ sp needed
 598 0042 80BD     		pop	{r7, pc}
 599              		.cfi_endproc
 600              	.LFE73:
 601              		.size	SCD30_readRegister, .-SCD30_readRegister
 602              		.section	.text.SCD30_writeBuffer,"ax",%progbits
 603              		.align	2
 604              		.global	SCD30_writeBuffer
 605              		.thumb
 606              		.thumb_func
 607              		.type	SCD30_writeBuffer, %function
 608              	SCD30_writeBuffer:
 609              	.LFB74:
 122:..\..\SCD30\SCD30.cydsn/SCD30.c **** 
 123:..\..\SCD30\SCD30.cydsn/SCD30.c **** void SCD30_writeBuffer(uint8_t* data, uint8_t len) 
 124:..\..\SCD30\SCD30.cydsn/SCD30.c **** {
ARM GAS  C:\Users\Gusta\AppData\Local\Temp\ccX8cHGx.s 			page 14


 610              		.loc 1 124 0
 611              		.cfi_startproc
 612              		@ args = 0, pretend = 0, frame = 8
 613              		@ frame_needed = 1, uses_anonymous_args = 0
 614 0000 80B5     		push	{r7, lr}
 615              		.cfi_def_cfa_offset 8
 616              		.cfi_offset 7, -8
 617              		.cfi_offset 14, -4
 618 0002 82B0     		sub	sp, sp, #8
 619              		.cfi_def_cfa_offset 16
 620 0004 00AF     		add	r7, sp, #0
 621              		.cfi_def_cfa_register 7
 622 0006 7860     		str	r0, [r7, #4]
 623 0008 0B46     		mov	r3, r1
 624 000a FB70     		strb	r3, [r7, #3]
 125:..\..\SCD30\SCD30.cydsn/SCD30.c ****     I2C_MasterWriteBuf(SCD30_I2C_ADDRESS, data, len, I2C_MODE_COMPLETE_XFER);
 625              		.loc 1 125 0
 626 000c FA78     		ldrb	r2, [r7, #3]	@ zero_extendqisi2
 627 000e 0023     		movs	r3, #0
 628 0010 7968     		ldr	r1, [r7, #4]
 629 0012 6120     		movs	r0, #97
 630 0014 FFF7FEFF 		bl	I2C_MasterWriteBuf
 631              	.L25:
 126:..\..\SCD30\SCD30.cydsn/SCD30.c ****     for(;;){
 127:..\..\SCD30\SCD30.cydsn/SCD30.c ****             if(0u != (I2C_MasterStatus() & I2C_MSTAT_WR_CMPLT))
 632              		.loc 1 127 0
 633 0018 FFF7FEFF 		bl	I2C_MasterStatus
 634 001c 0346     		mov	r3, r0
 635 001e 03F00203 		and	r3, r3, #2
 636 0022 002B     		cmp	r3, #0
 637 0024 00D1     		bne	.L27
 128:..\..\SCD30\SCD30.cydsn/SCD30.c ****                 {
 129:..\..\SCD30\SCD30.cydsn/SCD30.c ****                 break;
 130:..\..\SCD30\SCD30.cydsn/SCD30.c ****                 }
 131:..\..\SCD30\SCD30.cydsn/SCD30.c ****             }  
 638              		.loc 1 131 0
 639 0026 F7E7     		b	.L25
 640              	.L27:
 129:..\..\SCD30\SCD30.cydsn/SCD30.c ****                 }
 641              		.loc 1 129 0
 642 0028 00BF     		nop
 132:..\..\SCD30\SCD30.cydsn/SCD30.c **** /*   
 133:..\..\SCD30\SCD30.cydsn/SCD30.c **** UART_PutString("Data Written:");
 134:..\..\SCD30\SCD30.cydsn/SCD30.c **** UART_PutString("\n");
 135:..\..\SCD30\SCD30.cydsn/SCD30.c **** for (int k=0; k<len; k++)
 136:..\..\SCD30\SCD30.cydsn/SCD30.c **** {
 137:..\..\SCD30\SCD30.cydsn/SCD30.c ****     UART_PutHexByte(data[k]);
 138:..\..\SCD30\SCD30.cydsn/SCD30.c **** }
 139:..\..\SCD30\SCD30.cydsn/SCD30.c **** UART_PutString("\n");
 140:..\..\SCD30\SCD30.cydsn/SCD30.c **** */
 141:..\..\SCD30\SCD30.cydsn/SCD30.c **** I2C_MasterClearStatus();
 643              		.loc 1 141 0
 644 002a FFF7FEFF 		bl	I2C_MasterClearStatus
 142:..\..\SCD30\SCD30.cydsn/SCD30.c **** }
 645              		.loc 1 142 0
 646 002e 00BF     		nop
 647 0030 0837     		adds	r7, r7, #8
ARM GAS  C:\Users\Gusta\AppData\Local\Temp\ccX8cHGx.s 			page 15


 648              		.cfi_def_cfa_offset 8
 649 0032 BD46     		mov	sp, r7
 650              		.cfi_def_cfa_register 13
 651              		@ sp needed
 652 0034 80BD     		pop	{r7, pc}
 653              		.cfi_endproc
 654              	.LFE74:
 655              		.size	SCD30_writeBuffer, .-SCD30_writeBuffer
 656 0036 00BF     		.section	.text.SCD30_readBuffer,"ax",%progbits
 657              		.align	2
 658              		.global	SCD30_readBuffer
 659              		.thumb
 660              		.thumb_func
 661              		.type	SCD30_readBuffer, %function
 662              	SCD30_readBuffer:
 663              	.LFB75:
 143:..\..\SCD30\SCD30.cydsn/SCD30.c **** 
 144:..\..\SCD30\SCD30.cydsn/SCD30.c **** void SCD30_readBuffer(uint8_t* data, uint8_t len) 
 145:..\..\SCD30\SCD30.cydsn/SCD30.c **** {
 664              		.loc 1 145 0
 665              		.cfi_startproc
 666              		@ args = 0, pretend = 0, frame = 8
 667              		@ frame_needed = 1, uses_anonymous_args = 0
 668 0000 80B5     		push	{r7, lr}
 669              		.cfi_def_cfa_offset 8
 670              		.cfi_offset 7, -8
 671              		.cfi_offset 14, -4
 672 0002 82B0     		sub	sp, sp, #8
 673              		.cfi_def_cfa_offset 16
 674 0004 00AF     		add	r7, sp, #0
 675              		.cfi_def_cfa_register 7
 676 0006 7860     		str	r0, [r7, #4]
 677 0008 0B46     		mov	r3, r1
 678 000a FB70     		strb	r3, [r7, #3]
 146:..\..\SCD30\SCD30.cydsn/SCD30.c ****     CyDelay(50);
 679              		.loc 1 146 0
 680 000c 3220     		movs	r0, #50
 681 000e FFF7FEFF 		bl	CyDelay
 147:..\..\SCD30\SCD30.cydsn/SCD30.c ****     
 148:..\..\SCD30\SCD30.cydsn/SCD30.c ****     I2C_MasterReadBuf(SCD30_I2C_ADDRESS, data, len, I2C_MODE_COMPLETE_XFER);
 682              		.loc 1 148 0
 683 0012 FA78     		ldrb	r2, [r7, #3]	@ zero_extendqisi2
 684 0014 0023     		movs	r3, #0
 685 0016 7968     		ldr	r1, [r7, #4]
 686 0018 6120     		movs	r0, #97
 687 001a FFF7FEFF 		bl	I2C_MasterReadBuf
 688              	.L31:
 149:..\..\SCD30\SCD30.cydsn/SCD30.c ****     for(;;){
 150:..\..\SCD30\SCD30.cydsn/SCD30.c ****             if(0u != (I2C_MasterStatus() & I2C_MSTAT_RD_CMPLT)){
 689              		.loc 1 150 0
 690 001e FFF7FEFF 		bl	I2C_MasterStatus
 691 0022 0346     		mov	r3, r0
 692 0024 03F00103 		and	r3, r3, #1
 693 0028 002B     		cmp	r3, #0
 694 002a 00D1     		bne	.L33
 151:..\..\SCD30\SCD30.cydsn/SCD30.c ****                 break;
 152:..\..\SCD30\SCD30.cydsn/SCD30.c ****                 }
ARM GAS  C:\Users\Gusta\AppData\Local\Temp\ccX8cHGx.s 			page 16


 153:..\..\SCD30\SCD30.cydsn/SCD30.c ****             }
 695              		.loc 1 153 0
 696 002c F7E7     		b	.L31
 697              	.L33:
 151:..\..\SCD30\SCD30.cydsn/SCD30.c ****                 break;
 698              		.loc 1 151 0
 699 002e 00BF     		nop
 154:..\..\SCD30\SCD30.cydsn/SCD30.c **** /*
 155:..\..\SCD30\SCD30.cydsn/SCD30.c **** UART_PutString("Data Read:");
 156:..\..\SCD30\SCD30.cydsn/SCD30.c **** UART_PutString("\n");
 157:..\..\SCD30\SCD30.cydsn/SCD30.c **** for(int k=0; k<len; k++)
 158:..\..\SCD30\SCD30.cydsn/SCD30.c **** {
 159:..\..\SCD30\SCD30.cydsn/SCD30.c ****     UART_PutHexByte(data[k]);
 160:..\..\SCD30\SCD30.cydsn/SCD30.c **** }
 161:..\..\SCD30\SCD30.cydsn/SCD30.c **** UART_PutString("\n");
 162:..\..\SCD30\SCD30.cydsn/SCD30.c **** */
 163:..\..\SCD30\SCD30.cydsn/SCD30.c **** I2C_MasterClearStatus();
 700              		.loc 1 163 0
 701 0030 FFF7FEFF 		bl	I2C_MasterClearStatus
 164:..\..\SCD30\SCD30.cydsn/SCD30.c **** }
 702              		.loc 1 164 0
 703 0034 00BF     		nop
 704 0036 0837     		adds	r7, r7, #8
 705              		.cfi_def_cfa_offset 8
 706 0038 BD46     		mov	sp, r7
 707              		.cfi_def_cfa_register 13
 708              		@ sp needed
 709 003a 80BD     		pop	{r7, pc}
 710              		.cfi_endproc
 711              	.LFE75:
 712              		.size	SCD30_readBuffer, .-SCD30_readBuffer
 713              		.section	.text.SCD30_calculateCrc,"ax",%progbits
 714              		.align	2
 715              		.global	SCD30_calculateCrc
 716              		.thumb
 717              		.thumb_func
 718              		.type	SCD30_calculateCrc, %function
 719              	SCD30_calculateCrc:
 720              	.LFB76:
 165:..\..\SCD30\SCD30.cydsn/SCD30.c **** 
 166:..\..\SCD30\SCD30.cydsn/SCD30.c **** 
 167:..\..\SCD30\SCD30.cydsn/SCD30.c **** 
 168:..\..\SCD30\SCD30.cydsn/SCD30.c **** uint8_t SCD30_calculateCrc(uint8_t data[], uint8_t len) {
 721              		.loc 1 168 0
 722              		.cfi_startproc
 723              		@ args = 0, pretend = 0, frame = 16
 724              		@ frame_needed = 1, uses_anonymous_args = 0
 725              		@ link register save eliminated.
 726 0000 80B4     		push	{r7}
 727              		.cfi_def_cfa_offset 4
 728              		.cfi_offset 7, -4
 729 0002 85B0     		sub	sp, sp, #20
 730              		.cfi_def_cfa_offset 24
 731 0004 00AF     		add	r7, sp, #0
 732              		.cfi_def_cfa_register 7
 733 0006 7860     		str	r0, [r7, #4]
 734 0008 0B46     		mov	r3, r1
ARM GAS  C:\Users\Gusta\AppData\Local\Temp\ccX8cHGx.s 			page 17


 735 000a FB70     		strb	r3, [r7, #3]
 169:..\..\SCD30\SCD30.cydsn/SCD30.c ****     uint8_t bit, byteCtr, crc = 0xff;
 736              		.loc 1 169 0
 737 000c FF23     		movs	r3, #255
 738 000e 7B73     		strb	r3, [r7, #13]
 170:..\..\SCD30\SCD30.cydsn/SCD30.c **** 
 171:..\..\SCD30\SCD30.cydsn/SCD30.c ****     // calculates 8-Bit checksum with given polynomial
 172:..\..\SCD30\SCD30.cydsn/SCD30.c ****     for (byteCtr = 0; byteCtr < len; byteCtr ++) {
 739              		.loc 1 172 0
 740 0010 0023     		movs	r3, #0
 741 0012 BB73     		strb	r3, [r7, #14]
 742 0014 20E0     		b	.L35
 743              	.L40:
 173:..\..\SCD30\SCD30.cydsn/SCD30.c ****         crc ^= (data[byteCtr]);
 744              		.loc 1 173 0
 745 0016 BB7B     		ldrb	r3, [r7, #14]	@ zero_extendqisi2
 746 0018 7A68     		ldr	r2, [r7, #4]
 747 001a 1344     		add	r3, r3, r2
 748 001c 1A78     		ldrb	r2, [r3]	@ zero_extendqisi2
 749 001e 7B7B     		ldrb	r3, [r7, #13]
 750 0020 5340     		eors	r3, r3, r2
 751 0022 7B73     		strb	r3, [r7, #13]
 174:..\..\SCD30\SCD30.cydsn/SCD30.c **** 
 175:..\..\SCD30\SCD30.cydsn/SCD30.c ****         for (bit = 8; bit > 0; -- bit) {
 752              		.loc 1 175 0
 753 0024 0823     		movs	r3, #8
 754 0026 FB73     		strb	r3, [r7, #15]
 755 0028 10E0     		b	.L36
 756              	.L39:
 176:..\..\SCD30\SCD30.cydsn/SCD30.c ****             if (crc & 0x80) {
 757              		.loc 1 176 0
 758 002a 97F90D30 		ldrsb	r3, [r7, #13]
 759 002e 002B     		cmp	r3, #0
 760 0030 06DA     		bge	.L37
 177:..\..\SCD30\SCD30.cydsn/SCD30.c ****                 crc = (crc << 1) ^ SCD30_POLYNOMIAL;
 761              		.loc 1 177 0
 762 0032 7B7B     		ldrb	r3, [r7, #13]
 763 0034 5B00     		lsls	r3, r3, #1
 764 0036 DBB2     		uxtb	r3, r3
 765 0038 83F03103 		eor	r3, r3, #49
 766 003c 7B73     		strb	r3, [r7, #13]
 767 003e 02E0     		b	.L38
 768              	.L37:
 178:..\..\SCD30\SCD30.cydsn/SCD30.c ****             } else {
 179:..\..\SCD30\SCD30.cydsn/SCD30.c ****                 crc = (crc << 1);
 769              		.loc 1 179 0
 770 0040 7B7B     		ldrb	r3, [r7, #13]
 771 0042 5B00     		lsls	r3, r3, #1
 772 0044 7B73     		strb	r3, [r7, #13]
 773              	.L38:
 175:..\..\SCD30\SCD30.cydsn/SCD30.c ****             if (crc & 0x80) {
 774              		.loc 1 175 0 discriminator 2
 775 0046 FB7B     		ldrb	r3, [r7, #15]
 776 0048 013B     		subs	r3, r3, #1
 777 004a FB73     		strb	r3, [r7, #15]
 778              	.L36:
 175:..\..\SCD30\SCD30.cydsn/SCD30.c ****             if (crc & 0x80) {
ARM GAS  C:\Users\Gusta\AppData\Local\Temp\ccX8cHGx.s 			page 18


 779              		.loc 1 175 0 is_stmt 0 discriminator 1
 780 004c FB7B     		ldrb	r3, [r7, #15]	@ zero_extendqisi2
 781 004e 002B     		cmp	r3, #0
 782 0050 EBD1     		bne	.L39
 172:..\..\SCD30\SCD30.cydsn/SCD30.c ****         crc ^= (data[byteCtr]);
 783              		.loc 1 172 0 is_stmt 1 discriminator 2
 784 0052 BB7B     		ldrb	r3, [r7, #14]	@ zero_extendqisi2
 785 0054 0133     		adds	r3, r3, #1
 786 0056 BB73     		strb	r3, [r7, #14]
 787              	.L35:
 172:..\..\SCD30\SCD30.cydsn/SCD30.c ****         crc ^= (data[byteCtr]);
 788              		.loc 1 172 0 is_stmt 0 discriminator 1
 789 0058 BA7B     		ldrb	r2, [r7, #14]	@ zero_extendqisi2
 790 005a FB78     		ldrb	r3, [r7, #3]	@ zero_extendqisi2
 791 005c 9A42     		cmp	r2, r3
 792 005e DAD3     		bcc	.L40
 180:..\..\SCD30\SCD30.cydsn/SCD30.c ****             }
 181:..\..\SCD30\SCD30.cydsn/SCD30.c ****         }
 182:..\..\SCD30\SCD30.cydsn/SCD30.c ****     }
 183:..\..\SCD30\SCD30.cydsn/SCD30.c **** 
 184:..\..\SCD30\SCD30.cydsn/SCD30.c ****     return crc;
 793              		.loc 1 184 0 is_stmt 1
 794 0060 7B7B     		ldrb	r3, [r7, #13]	@ zero_extendqisi2
 185:..\..\SCD30\SCD30.cydsn/SCD30.c **** }
 795              		.loc 1 185 0
 796 0062 1846     		mov	r0, r3
 797 0064 1437     		adds	r7, r7, #20
 798              		.cfi_def_cfa_offset 4
 799 0066 BD46     		mov	sp, r7
 800              		.cfi_def_cfa_register 13
 801              		@ sp needed
 802 0068 80BC     		pop	{r7}
 803              		.cfi_restore 7
 804              		.cfi_def_cfa_offset 0
 805 006a 7047     		bx	lr
 806              		.cfi_endproc
 807              	.LFE76:
 808              		.size	SCD30_calculateCrc, .-SCD30_calculateCrc
 809              		.text
 810              	.Letext0:
 811              		.file 2 "c:\\program files (x86)\\cypress\\psoc creator\\4.3\\psoc creator\\import\\gnu\\arm\\5.4.
 812              		.file 3 "c:\\program files (x86)\\cypress\\psoc creator\\4.3\\psoc creator\\import\\gnu\\arm\\5.4.
 813              		.file 4 "Generated_Source\\PSoC5/cytypes.h"
 814              		.file 5 "Generated_Source\\PSoC5/DS18x8.h"
 815              		.file 6 "Generated_Source\\PSoC5/core_cm3.h"