ARM GAS  C:\Users\mag94\AppData\Local\Temp\ccMfuKyC.s 			page 1


   1              		.syntax unified
   2              		.cpu cortex-m3
   3              		.fpu softvfp
   4              		.eabi_attribute 20, 1
   5              		.eabi_attribute 21, 1
   6              		.eabi_attribute 23, 3
   7              		.eabi_attribute 24, 1
   8              		.eabi_attribute 25, 1
   9              		.eabi_attribute 26, 1
  10              		.eabi_attribute 30, 6
  11              		.eabi_attribute 34, 1
  12              		.eabi_attribute 18, 4
  13              		.thumb
  14              		.syntax unified
  15              		.file	"SW_UART_TEST_USB.c"
  16              		.text
  17              	.Ltext0:
  18              		.cfi_sections	.debug_frame
  19              		.global	SW_UART_TEST_USB_pinNumber
  20              		.data
  21              		.align	2
  22              		.type	SW_UART_TEST_USB_pinNumber, %object
  23              		.size	SW_UART_TEST_USB_pinNumber, 4
  24              	SW_UART_TEST_USB_pinNumber:
  25 0000 07000000 		.word	7
  26              		.global	SW_UART_TEST_USB_pinPortNumber
  27              		.align	2
  28              		.type	SW_UART_TEST_USB_pinPortNumber, %object
  29              		.size	SW_UART_TEST_USB_pinPortNumber, 4
  30              	SW_UART_TEST_USB_pinPortNumber:
  31 0004 0C000000 		.word	12
  32              		.global	SW_UART_TEST_USB_pinDrAdress
  33              		.align	2
  34              		.type	SW_UART_TEST_USB_pinDrAdress, %object
  35              		.size	SW_UART_TEST_USB_pinDrAdress, 4
  36              	SW_UART_TEST_USB_pinDrAdress:
  37 0008 67500040 		.word	1073762407
  38              		.section	.text.SW_UART_TEST_USB_Start,"ax",%progbits
  39              		.align	2
  40              		.global	SW_UART_TEST_USB_Start
  41              		.thumb
  42              		.thumb_func
  43              		.type	SW_UART_TEST_USB_Start, %function
  44              	SW_UART_TEST_USB_Start:
  45              	.LFB0:
  46              		.file 1 "Generated_Source\\PSoC5\\SW_UART_TEST_USB.c"
   1:Generated_Source\PSoC5/SW_UART_TEST_USB.c **** /*******************************************************************************
   2:Generated_Source\PSoC5/SW_UART_TEST_USB.c **** * File Name: SW_UART_TEST_USB.c
   3:Generated_Source\PSoC5/SW_UART_TEST_USB.c **** * Version 1.50
   4:Generated_Source\PSoC5/SW_UART_TEST_USB.c **** *
   5:Generated_Source\PSoC5/SW_UART_TEST_USB.c **** * Description:
   6:Generated_Source\PSoC5/SW_UART_TEST_USB.c **** *  This file provides the source code to the API for the Software Transmit UART.
   7:Generated_Source\PSoC5/SW_UART_TEST_USB.c **** *
   8:Generated_Source\PSoC5/SW_UART_TEST_USB.c **** ********************************************************************************
   9:Generated_Source\PSoC5/SW_UART_TEST_USB.c **** * Copyright 2013-2015, Cypress Semiconductor Corporation.  All rights reserved.
  10:Generated_Source\PSoC5/SW_UART_TEST_USB.c **** * You may use this file only in accordance with the license, terms, conditions,
  11:Generated_Source\PSoC5/SW_UART_TEST_USB.c **** * disclaimers, and limitations in the end user license agreement accompanying
ARM GAS  C:\Users\mag94\AppData\Local\Temp\ccMfuKyC.s 			page 2


  12:Generated_Source\PSoC5/SW_UART_TEST_USB.c **** * the software package with which this file was provided.
  13:Generated_Source\PSoC5/SW_UART_TEST_USB.c **** *******************************************************************************/
  14:Generated_Source\PSoC5/SW_UART_TEST_USB.c **** 
  15:Generated_Source\PSoC5/SW_UART_TEST_USB.c **** #include "SW_UART_TEST_USB_PVT.h"
  16:Generated_Source\PSoC5/SW_UART_TEST_USB.c **** 
  17:Generated_Source\PSoC5/SW_UART_TEST_USB.c **** #if(SW_UART_TEST_USB_PIN_STATIC_MODE == 1u)
  18:Generated_Source\PSoC5/SW_UART_TEST_USB.c ****     uint32 SW_UART_TEST_USB_pinNumber = SW_UART_TEST_USB_PIN_NUMBER;
  19:Generated_Source\PSoC5/SW_UART_TEST_USB.c ****     uint32 SW_UART_TEST_USB_pinPortNumber = SW_UART_TEST_USB_PIN_PORT_NUMBER;
  20:Generated_Source\PSoC5/SW_UART_TEST_USB.c ****     #if(CY_PSOC3)
  21:Generated_Source\PSoC5/SW_UART_TEST_USB.c ****         uint32 pdata SW_UART_TEST_USB_pinDrAdress = SW_UART_TEST_USB_PIN_DR;
  22:Generated_Source\PSoC5/SW_UART_TEST_USB.c ****     #else
  23:Generated_Source\PSoC5/SW_UART_TEST_USB.c ****         uint32 SW_UART_TEST_USB_pinDrAdress = SW_UART_TEST_USB_PIN_DR;
  24:Generated_Source\PSoC5/SW_UART_TEST_USB.c ****     #endif /* (CY_PSOC3) */
  25:Generated_Source\PSoC5/SW_UART_TEST_USB.c **** #else
  26:Generated_Source\PSoC5/SW_UART_TEST_USB.c ****     uint32 SW_UART_TEST_USB_pinNumber;
  27:Generated_Source\PSoC5/SW_UART_TEST_USB.c ****     uint32 SW_UART_TEST_USB_pinPortNumber;
  28:Generated_Source\PSoC5/SW_UART_TEST_USB.c ****     #if(CY_PSOC3)
  29:Generated_Source\PSoC5/SW_UART_TEST_USB.c ****         uint32 pdata SW_UART_TEST_USB_pinDrAdress;
  30:Generated_Source\PSoC5/SW_UART_TEST_USB.c ****     #else
  31:Generated_Source\PSoC5/SW_UART_TEST_USB.c ****         uint32 SW_UART_TEST_USB_pinDrAdress;
  32:Generated_Source\PSoC5/SW_UART_TEST_USB.c ****     #endif /* (CY_PSOC3) */
  33:Generated_Source\PSoC5/SW_UART_TEST_USB.c **** #endif /* (SW_UART_TEST_USB_PIN_STATIC_MODE == 1u) */
  34:Generated_Source\PSoC5/SW_UART_TEST_USB.c **** 
  35:Generated_Source\PSoC5/SW_UART_TEST_USB.c **** 
  36:Generated_Source\PSoC5/SW_UART_TEST_USB.c **** #if(SW_UART_TEST_USB_PIN_STATIC_MODE == 1u)
  37:Generated_Source\PSoC5/SW_UART_TEST_USB.c ****     /*******************************************************************************
  38:Generated_Source\PSoC5/SW_UART_TEST_USB.c ****     * Function Name: SW_UART_TEST_USB_Start
  39:Generated_Source\PSoC5/SW_UART_TEST_USB.c ****     ********************************************************************************
  40:Generated_Source\PSoC5/SW_UART_TEST_USB.c ****     *
  41:Generated_Source\PSoC5/SW_UART_TEST_USB.c ****     * Summary:
  42:Generated_Source\PSoC5/SW_UART_TEST_USB.c ****     *  Empty function. Included for consistency with other
  43:Generated_Source\PSoC5/SW_UART_TEST_USB.c ****     *  components. This API is not available when PinAssignmentMethod
  44:Generated_Source\PSoC5/SW_UART_TEST_USB.c ****     *  is set to Dynamic.
  45:Generated_Source\PSoC5/SW_UART_TEST_USB.c ****     *
  46:Generated_Source\PSoC5/SW_UART_TEST_USB.c ****     * Parameters:
  47:Generated_Source\PSoC5/SW_UART_TEST_USB.c ****     *  None
  48:Generated_Source\PSoC5/SW_UART_TEST_USB.c ****     *
  49:Generated_Source\PSoC5/SW_UART_TEST_USB.c ****     * Return:
  50:Generated_Source\PSoC5/SW_UART_TEST_USB.c ****     *  None
  51:Generated_Source\PSoC5/SW_UART_TEST_USB.c ****     *
  52:Generated_Source\PSoC5/SW_UART_TEST_USB.c ****     *******************************************************************************/
  53:Generated_Source\PSoC5/SW_UART_TEST_USB.c ****     void SW_UART_TEST_USB_Start(void) 
  54:Generated_Source\PSoC5/SW_UART_TEST_USB.c ****     {
  47              		.loc 1 54 0
  48              		.cfi_startproc
  49              		@ args = 0, pretend = 0, frame = 0
  50              		@ frame_needed = 1, uses_anonymous_args = 0
  51              		@ link register save eliminated.
  52 0000 80B4     		push	{r7}
  53              		.cfi_def_cfa_offset 4
  54              		.cfi_offset 7, -4
  55 0002 00AF     		add	r7, sp, #0
  56              		.cfi_def_cfa_register 7
  55:Generated_Source\PSoC5/SW_UART_TEST_USB.c **** 
  56:Generated_Source\PSoC5/SW_UART_TEST_USB.c ****     }
  57              		.loc 1 56 0
  58 0004 00BF     		nop
ARM GAS  C:\Users\mag94\AppData\Local\Temp\ccMfuKyC.s 			page 3


  59 0006 BD46     		mov	sp, r7
  60              		.cfi_def_cfa_register 13
  61              		@ sp needed
  62 0008 80BC     		pop	{r7}
  63              		.cfi_restore 7
  64              		.cfi_def_cfa_offset 0
  65 000a 7047     		bx	lr
  66              		.cfi_endproc
  67              	.LFE0:
  68              		.size	SW_UART_TEST_USB_Start, .-SW_UART_TEST_USB_Start
  69              		.section	.text.SW_UART_TEST_USB_Stop,"ax",%progbits
  70              		.align	2
  71              		.global	SW_UART_TEST_USB_Stop
  72              		.thumb
  73              		.thumb_func
  74              		.type	SW_UART_TEST_USB_Stop, %function
  75              	SW_UART_TEST_USB_Stop:
  76              	.LFB1:
  57:Generated_Source\PSoC5/SW_UART_TEST_USB.c **** #else
  58:Generated_Source\PSoC5/SW_UART_TEST_USB.c ****     /*******************************************************************************
  59:Generated_Source\PSoC5/SW_UART_TEST_USB.c ****     * Function Name: SW_UART_TEST_USB_StartEx
  60:Generated_Source\PSoC5/SW_UART_TEST_USB.c ****     ********************************************************************************
  61:Generated_Source\PSoC5/SW_UART_TEST_USB.c ****     *
  62:Generated_Source\PSoC5/SW_UART_TEST_USB.c ****     * Summary:
  63:Generated_Source\PSoC5/SW_UART_TEST_USB.c ****     *  Configures the SW Tx UART to use the pin specified
  64:Generated_Source\PSoC5/SW_UART_TEST_USB.c ****     *  by the parameters. This API is only available when
  65:Generated_Source\PSoC5/SW_UART_TEST_USB.c ****     *  PinAssignmentMethod is set to Dynamic.
  66:Generated_Source\PSoC5/SW_UART_TEST_USB.c ****     *
  67:Generated_Source\PSoC5/SW_UART_TEST_USB.c ****     * Parameters:
  68:Generated_Source\PSoC5/SW_UART_TEST_USB.c ****     *  port:  Port number for dynamic pin assignment
  69:Generated_Source\PSoC5/SW_UART_TEST_USB.c ****     *  pin:   Pin number for dynamic pin assignment
  70:Generated_Source\PSoC5/SW_UART_TEST_USB.c ****     *
  71:Generated_Source\PSoC5/SW_UART_TEST_USB.c ****     * Return:
  72:Generated_Source\PSoC5/SW_UART_TEST_USB.c ****     *  None
  73:Generated_Source\PSoC5/SW_UART_TEST_USB.c ****     *
  74:Generated_Source\PSoC5/SW_UART_TEST_USB.c ****     *******************************************************************************/
  75:Generated_Source\PSoC5/SW_UART_TEST_USB.c ****     void SW_UART_TEST_USB_StartEx(uint8 port, uint8 pin) 
  76:Generated_Source\PSoC5/SW_UART_TEST_USB.c ****     {
  77:Generated_Source\PSoC5/SW_UART_TEST_USB.c ****         uint32 portConfigAddr;
  78:Generated_Source\PSoC5/SW_UART_TEST_USB.c **** 
  79:Generated_Source\PSoC5/SW_UART_TEST_USB.c ****         #if (CY_PSOC4)
  80:Generated_Source\PSoC5/SW_UART_TEST_USB.c ****             uint32 portDataRegAddr;
  81:Generated_Source\PSoC5/SW_UART_TEST_USB.c ****         #endif /* (CY_PSOC4) */
  82:Generated_Source\PSoC5/SW_UART_TEST_USB.c **** 
  83:Generated_Source\PSoC5/SW_UART_TEST_USB.c ****         if ((pin <= SW_UART_TEST_USB_MAX_PIN_NUMBER) && (port <= SW_UART_TEST_USB_MAX_PORT_NUMBER))
  84:Generated_Source\PSoC5/SW_UART_TEST_USB.c ****         {
  85:Generated_Source\PSoC5/SW_UART_TEST_USB.c ****             #if (!CY_PSOC4)
  86:Generated_Source\PSoC5/SW_UART_TEST_USB.c ****                 portConfigAddr = SW_UART_TEST_USB_PORT_CNF_BASE;
  87:Generated_Source\PSoC5/SW_UART_TEST_USB.c ****                 portConfigAddr += ((uint32)port * (SW_UART_TEST_USB_MAX_PIN_NUMBER + 1u)) + pin;
  88:Generated_Source\PSoC5/SW_UART_TEST_USB.c ****                 CyPins_SetPinDriveMode(portConfigAddr, CY_PINS_DM_STRONG);
  89:Generated_Source\PSoC5/SW_UART_TEST_USB.c ****                 CyPins_SetPin(portConfigAddr);
  90:Generated_Source\PSoC5/SW_UART_TEST_USB.c ****                 SW_UART_TEST_USB_pinDrAdress = portConfigAddr;
  91:Generated_Source\PSoC5/SW_UART_TEST_USB.c ****             #else
  92:Generated_Source\PSoC5/SW_UART_TEST_USB.c ****                 portConfigAddr = SW_UART_TEST_USB_PORT_CNF_BASE + (SW_UART_TEST_USB_PORT_CNF_SIZE *
  93:Generated_Source\PSoC5/SW_UART_TEST_USB.c ****                                                                                 SW_UART_TEST_USB_PO
  94:Generated_Source\PSoC5/SW_UART_TEST_USB.c ****                 CY_SYS_PINS_SET_DRIVE_MODE(portConfigAddr, pin, CY_SYS_PINS_DM_STRONG);
  95:Generated_Source\PSoC5/SW_UART_TEST_USB.c ****                 portDataRegAddr = SW_UART_TEST_USB_PORT_CNF_BASE + (SW_UART_TEST_USB_PORT_CNF_SIZE 
ARM GAS  C:\Users\mag94\AppData\Local\Temp\ccMfuKyC.s 			page 4


  96:Generated_Source\PSoC5/SW_UART_TEST_USB.c ****                                                                                 SW_UART_TEST_USB_PO
  97:Generated_Source\PSoC5/SW_UART_TEST_USB.c ****                 CY_SYS_PINS_SET_PIN(portDataRegAddr, pin);
  98:Generated_Source\PSoC5/SW_UART_TEST_USB.c ****                 SW_UART_TEST_USB_pinDrAdress = portDataRegAddr;
  99:Generated_Source\PSoC5/SW_UART_TEST_USB.c ****             #endif /* (!CY_PSOC4) */
 100:Generated_Source\PSoC5/SW_UART_TEST_USB.c ****             SW_UART_TEST_USB_pinNumber = pin;
 101:Generated_Source\PSoC5/SW_UART_TEST_USB.c ****             SW_UART_TEST_USB_pinPortNumber = port;
 102:Generated_Source\PSoC5/SW_UART_TEST_USB.c ****         }
 103:Generated_Source\PSoC5/SW_UART_TEST_USB.c ****     }
 104:Generated_Source\PSoC5/SW_UART_TEST_USB.c **** #endif /* (SW_UART_TEST_USB_PIN_STATIC_MODE == 1u) */
 105:Generated_Source\PSoC5/SW_UART_TEST_USB.c **** 
 106:Generated_Source\PSoC5/SW_UART_TEST_USB.c **** 
 107:Generated_Source\PSoC5/SW_UART_TEST_USB.c **** /*******************************************************************************
 108:Generated_Source\PSoC5/SW_UART_TEST_USB.c **** * Function Name: SW_UART_TEST_USB_Stop
 109:Generated_Source\PSoC5/SW_UART_TEST_USB.c **** ********************************************************************************
 110:Generated_Source\PSoC5/SW_UART_TEST_USB.c **** *
 111:Generated_Source\PSoC5/SW_UART_TEST_USB.c **** * Summary:
 112:Generated_Source\PSoC5/SW_UART_TEST_USB.c **** *  Empty function. Included for consistency with other components.
 113:Generated_Source\PSoC5/SW_UART_TEST_USB.c **** *
 114:Generated_Source\PSoC5/SW_UART_TEST_USB.c **** * Parameters:
 115:Generated_Source\PSoC5/SW_UART_TEST_USB.c **** *  None
 116:Generated_Source\PSoC5/SW_UART_TEST_USB.c **** *
 117:Generated_Source\PSoC5/SW_UART_TEST_USB.c **** * Return:
 118:Generated_Source\PSoC5/SW_UART_TEST_USB.c **** *  None
 119:Generated_Source\PSoC5/SW_UART_TEST_USB.c **** *
 120:Generated_Source\PSoC5/SW_UART_TEST_USB.c **** *******************************************************************************/
 121:Generated_Source\PSoC5/SW_UART_TEST_USB.c **** void SW_UART_TEST_USB_Stop(void) 
 122:Generated_Source\PSoC5/SW_UART_TEST_USB.c **** {
  77              		.loc 1 122 0
  78              		.cfi_startproc
  79              		@ args = 0, pretend = 0, frame = 0
  80              		@ frame_needed = 1, uses_anonymous_args = 0
  81              		@ link register save eliminated.
  82 0000 80B4     		push	{r7}
  83              		.cfi_def_cfa_offset 4
  84              		.cfi_offset 7, -4
  85 0002 00AF     		add	r7, sp, #0
  86              		.cfi_def_cfa_register 7
 123:Generated_Source\PSoC5/SW_UART_TEST_USB.c **** 
 124:Generated_Source\PSoC5/SW_UART_TEST_USB.c **** }
  87              		.loc 1 124 0
  88 0004 00BF     		nop
  89 0006 BD46     		mov	sp, r7
  90              		.cfi_def_cfa_register 13
  91              		@ sp needed
  92 0008 80BC     		pop	{r7}
  93              		.cfi_restore 7
  94              		.cfi_def_cfa_offset 0
  95 000a 7047     		bx	lr
  96              		.cfi_endproc
  97              	.LFE1:
  98              		.size	SW_UART_TEST_USB_Stop, .-SW_UART_TEST_USB_Stop
  99              		.section	.text.SW_UART_TEST_USB_PutString,"ax",%progbits
 100              		.align	2
 101              		.global	SW_UART_TEST_USB_PutString
 102              		.thumb
 103              		.thumb_func
 104              		.type	SW_UART_TEST_USB_PutString, %function
ARM GAS  C:\Users\mag94\AppData\Local\Temp\ccMfuKyC.s 			page 5


 105              	SW_UART_TEST_USB_PutString:
 106              	.LFB2:
 125:Generated_Source\PSoC5/SW_UART_TEST_USB.c **** 
 126:Generated_Source\PSoC5/SW_UART_TEST_USB.c **** 
 127:Generated_Source\PSoC5/SW_UART_TEST_USB.c **** /*******************************************************************************
 128:Generated_Source\PSoC5/SW_UART_TEST_USB.c **** * Function Name: SW_UART_TEST_USB_PutString
 129:Generated_Source\PSoC5/SW_UART_TEST_USB.c **** ********************************************************************************
 130:Generated_Source\PSoC5/SW_UART_TEST_USB.c **** *
 131:Generated_Source\PSoC5/SW_UART_TEST_USB.c **** * Summary:
 132:Generated_Source\PSoC5/SW_UART_TEST_USB.c **** *  Sends a NULL terminated string via the Tx pin.
 133:Generated_Source\PSoC5/SW_UART_TEST_USB.c **** *
 134:Generated_Source\PSoC5/SW_UART_TEST_USB.c **** * Parameters:
 135:Generated_Source\PSoC5/SW_UART_TEST_USB.c **** *  string: Pointer to the null terminated string to send
 136:Generated_Source\PSoC5/SW_UART_TEST_USB.c **** *
 137:Generated_Source\PSoC5/SW_UART_TEST_USB.c **** * Return:
 138:Generated_Source\PSoC5/SW_UART_TEST_USB.c **** *  None
 139:Generated_Source\PSoC5/SW_UART_TEST_USB.c **** *
 140:Generated_Source\PSoC5/SW_UART_TEST_USB.c **** *******************************************************************************/
 141:Generated_Source\PSoC5/SW_UART_TEST_USB.c **** void SW_UART_TEST_USB_PutString(const char8 string[]) 
 142:Generated_Source\PSoC5/SW_UART_TEST_USB.c **** {
 107              		.loc 1 142 0
 108              		.cfi_startproc
 109              		@ args = 0, pretend = 0, frame = 16
 110              		@ frame_needed = 1, uses_anonymous_args = 0
 111 0000 80B5     		push	{r7, lr}
 112              		.cfi_def_cfa_offset 8
 113              		.cfi_offset 7, -8
 114              		.cfi_offset 14, -4
 115 0002 84B0     		sub	sp, sp, #16
 116              		.cfi_def_cfa_offset 24
 117 0004 00AF     		add	r7, sp, #0
 118              		.cfi_def_cfa_register 7
 119 0006 7860     		str	r0, [r7, #4]
 143:Generated_Source\PSoC5/SW_UART_TEST_USB.c ****     uint8 stringIndex = 1u;
 120              		.loc 1 143 0
 121 0008 0123     		movs	r3, #1
 122 000a FB73     		strb	r3, [r7, #15]
 144:Generated_Source\PSoC5/SW_UART_TEST_USB.c ****     char8 current = *string;
 123              		.loc 1 144 0
 124 000c 7B68     		ldr	r3, [r7, #4]
 125 000e 1B78     		ldrb	r3, [r3]
 126 0010 BB73     		strb	r3, [r7, #14]
 145:Generated_Source\PSoC5/SW_UART_TEST_USB.c **** 
 146:Generated_Source\PSoC5/SW_UART_TEST_USB.c ****     /* Until null is reached, print next character */
 147:Generated_Source\PSoC5/SW_UART_TEST_USB.c ****     while((char8) '\0' != current)
 127              		.loc 1 147 0
 128 0012 0BE0     		b	.L4
 129              	.L5:
 148:Generated_Source\PSoC5/SW_UART_TEST_USB.c ****     {
 149:Generated_Source\PSoC5/SW_UART_TEST_USB.c ****         SW_UART_TEST_USB_PutChar((uint8)current);
 130              		.loc 1 149 0
 131 0014 BB7B     		ldrb	r3, [r7, #14]	@ zero_extendqisi2
 132 0016 1846     		mov	r0, r3
 133 0018 FFF7FEFF 		bl	SW_UART_TEST_USB_PutChar
 150:Generated_Source\PSoC5/SW_UART_TEST_USB.c ****         current = string[stringIndex];
 134              		.loc 1 150 0
 135 001c FB7B     		ldrb	r3, [r7, #15]	@ zero_extendqisi2
ARM GAS  C:\Users\mag94\AppData\Local\Temp\ccMfuKyC.s 			page 6


 136 001e 7A68     		ldr	r2, [r7, #4]
 137 0020 1344     		add	r3, r3, r2
 138 0022 1B78     		ldrb	r3, [r3]
 139 0024 BB73     		strb	r3, [r7, #14]
 151:Generated_Source\PSoC5/SW_UART_TEST_USB.c ****         stringIndex++;
 140              		.loc 1 151 0
 141 0026 FB7B     		ldrb	r3, [r7, #15]	@ zero_extendqisi2
 142 0028 0133     		adds	r3, r3, #1
 143 002a FB73     		strb	r3, [r7, #15]
 144              	.L4:
 147:Generated_Source\PSoC5/SW_UART_TEST_USB.c ****     {
 145              		.loc 1 147 0
 146 002c BB7B     		ldrb	r3, [r7, #14]	@ zero_extendqisi2
 147 002e 002B     		cmp	r3, #0
 148 0030 F0D1     		bne	.L5
 152:Generated_Source\PSoC5/SW_UART_TEST_USB.c ****     }
 153:Generated_Source\PSoC5/SW_UART_TEST_USB.c **** }
 149              		.loc 1 153 0
 150 0032 00BF     		nop
 151 0034 1037     		adds	r7, r7, #16
 152              		.cfi_def_cfa_offset 8
 153 0036 BD46     		mov	sp, r7
 154              		.cfi_def_cfa_register 13
 155              		@ sp needed
 156 0038 80BD     		pop	{r7, pc}
 157              		.cfi_endproc
 158              	.LFE2:
 159              		.size	SW_UART_TEST_USB_PutString, .-SW_UART_TEST_USB_PutString
 160 003a 00BF     		.section	.text.SW_UART_TEST_USB_PutArray,"ax",%progbits
 161              		.align	2
 162              		.global	SW_UART_TEST_USB_PutArray
 163              		.thumb
 164              		.thumb_func
 165              		.type	SW_UART_TEST_USB_PutArray, %function
 166              	SW_UART_TEST_USB_PutArray:
 167              	.LFB3:
 154:Generated_Source\PSoC5/SW_UART_TEST_USB.c **** 
 155:Generated_Source\PSoC5/SW_UART_TEST_USB.c **** 
 156:Generated_Source\PSoC5/SW_UART_TEST_USB.c **** /*******************************************************************************
 157:Generated_Source\PSoC5/SW_UART_TEST_USB.c **** * Function Name: SW_UART_TEST_USB_PutArray
 158:Generated_Source\PSoC5/SW_UART_TEST_USB.c **** ********************************************************************************
 159:Generated_Source\PSoC5/SW_UART_TEST_USB.c **** *
 160:Generated_Source\PSoC5/SW_UART_TEST_USB.c **** * Summary:
 161:Generated_Source\PSoC5/SW_UART_TEST_USB.c **** *  Sends byteCount bytes from a memory array via the Tx pin.
 162:Generated_Source\PSoC5/SW_UART_TEST_USB.c **** *
 163:Generated_Source\PSoC5/SW_UART_TEST_USB.c **** * Parameters:
 164:Generated_Source\PSoC5/SW_UART_TEST_USB.c **** *  data: Pointer to the memory array
 165:Generated_Source\PSoC5/SW_UART_TEST_USB.c **** *  byteCount: Number of bytes to be transmitted
 166:Generated_Source\PSoC5/SW_UART_TEST_USB.c **** *
 167:Generated_Source\PSoC5/SW_UART_TEST_USB.c **** * Return:
 168:Generated_Source\PSoC5/SW_UART_TEST_USB.c **** *  None
 169:Generated_Source\PSoC5/SW_UART_TEST_USB.c **** *
 170:Generated_Source\PSoC5/SW_UART_TEST_USB.c **** *******************************************************************************/
 171:Generated_Source\PSoC5/SW_UART_TEST_USB.c **** void SW_UART_TEST_USB_PutArray(const uint8 array[], uint32 byteCount) 
 172:Generated_Source\PSoC5/SW_UART_TEST_USB.c **** {
 168              		.loc 1 172 0
 169              		.cfi_startproc
ARM GAS  C:\Users\mag94\AppData\Local\Temp\ccMfuKyC.s 			page 7


 170              		@ args = 0, pretend = 0, frame = 16
 171              		@ frame_needed = 1, uses_anonymous_args = 0
 172 0000 80B5     		push	{r7, lr}
 173              		.cfi_def_cfa_offset 8
 174              		.cfi_offset 7, -8
 175              		.cfi_offset 14, -4
 176 0002 84B0     		sub	sp, sp, #16
 177              		.cfi_def_cfa_offset 24
 178 0004 00AF     		add	r7, sp, #0
 179              		.cfi_def_cfa_register 7
 180 0006 7860     		str	r0, [r7, #4]
 181 0008 3960     		str	r1, [r7]
 173:Generated_Source\PSoC5/SW_UART_TEST_USB.c ****     uint32 arrayIndex;
 174:Generated_Source\PSoC5/SW_UART_TEST_USB.c **** 
 175:Generated_Source\PSoC5/SW_UART_TEST_USB.c ****     for (arrayIndex = 0u; arrayIndex < byteCount; arrayIndex++)
 182              		.loc 1 175 0
 183 000a 0023     		movs	r3, #0
 184 000c FB60     		str	r3, [r7, #12]
 185 000e 09E0     		b	.L7
 186              	.L8:
 176:Generated_Source\PSoC5/SW_UART_TEST_USB.c ****     {
 177:Generated_Source\PSoC5/SW_UART_TEST_USB.c ****         SW_UART_TEST_USB_PutChar(array[arrayIndex]);
 187              		.loc 1 177 0 discriminator 3
 188 0010 7A68     		ldr	r2, [r7, #4]
 189 0012 FB68     		ldr	r3, [r7, #12]
 190 0014 1344     		add	r3, r3, r2
 191 0016 1B78     		ldrb	r3, [r3]	@ zero_extendqisi2
 192 0018 1846     		mov	r0, r3
 193 001a FFF7FEFF 		bl	SW_UART_TEST_USB_PutChar
 175:Generated_Source\PSoC5/SW_UART_TEST_USB.c ****     {
 194              		.loc 1 175 0 discriminator 3
 195 001e FB68     		ldr	r3, [r7, #12]
 196 0020 0133     		adds	r3, r3, #1
 197 0022 FB60     		str	r3, [r7, #12]
 198              	.L7:
 175:Generated_Source\PSoC5/SW_UART_TEST_USB.c ****     {
 199              		.loc 1 175 0 is_stmt 0 discriminator 1
 200 0024 FA68     		ldr	r2, [r7, #12]
 201 0026 3B68     		ldr	r3, [r7]
 202 0028 9A42     		cmp	r2, r3
 203 002a F1D3     		bcc	.L8
 178:Generated_Source\PSoC5/SW_UART_TEST_USB.c ****     }
 179:Generated_Source\PSoC5/SW_UART_TEST_USB.c **** }
 204              		.loc 1 179 0 is_stmt 1
 205 002c 00BF     		nop
 206 002e 1037     		adds	r7, r7, #16
 207              		.cfi_def_cfa_offset 8
 208 0030 BD46     		mov	sp, r7
 209              		.cfi_def_cfa_register 13
 210              		@ sp needed
 211 0032 80BD     		pop	{r7, pc}
 212              		.cfi_endproc
 213              	.LFE3:
 214              		.size	SW_UART_TEST_USB_PutArray, .-SW_UART_TEST_USB_PutArray
 215              		.section	.text.SW_UART_TEST_USB_PutHexByte,"ax",%progbits
 216              		.align	2
 217              		.global	SW_UART_TEST_USB_PutHexByte
ARM GAS  C:\Users\mag94\AppData\Local\Temp\ccMfuKyC.s 			page 8


 218              		.thumb
 219              		.thumb_func
 220              		.type	SW_UART_TEST_USB_PutHexByte, %function
 221              	SW_UART_TEST_USB_PutHexByte:
 222              	.LFB4:
 180:Generated_Source\PSoC5/SW_UART_TEST_USB.c **** 
 181:Generated_Source\PSoC5/SW_UART_TEST_USB.c **** 
 182:Generated_Source\PSoC5/SW_UART_TEST_USB.c **** /*******************************************************************************
 183:Generated_Source\PSoC5/SW_UART_TEST_USB.c **** * Function Name: SW_UART_TEST_USB_PutHexByte
 184:Generated_Source\PSoC5/SW_UART_TEST_USB.c **** ********************************************************************************
 185:Generated_Source\PSoC5/SW_UART_TEST_USB.c **** *
 186:Generated_Source\PSoC5/SW_UART_TEST_USB.c **** * Summary:
 187:Generated_Source\PSoC5/SW_UART_TEST_USB.c **** *  Sends a byte in Hex representation (two characters, uppercase for A-F) via
 188:Generated_Source\PSoC5/SW_UART_TEST_USB.c **** *  the Tx pin.
 189:Generated_Source\PSoC5/SW_UART_TEST_USB.c **** *
 190:Generated_Source\PSoC5/SW_UART_TEST_USB.c **** * Parameters:
 191:Generated_Source\PSoC5/SW_UART_TEST_USB.c **** *  TxHexByte: The byte to be converted to ASCII characters and
 192:Generated_Source\PSoC5/SW_UART_TEST_USB.c **** *             sent via the Tx pin.
 193:Generated_Source\PSoC5/SW_UART_TEST_USB.c **** *
 194:Generated_Source\PSoC5/SW_UART_TEST_USB.c **** * Return:
 195:Generated_Source\PSoC5/SW_UART_TEST_USB.c **** *  None
 196:Generated_Source\PSoC5/SW_UART_TEST_USB.c **** *
 197:Generated_Source\PSoC5/SW_UART_TEST_USB.c **** *******************************************************************************/
 198:Generated_Source\PSoC5/SW_UART_TEST_USB.c **** void SW_UART_TEST_USB_PutHexByte(uint8 txHexByte) 
 199:Generated_Source\PSoC5/SW_UART_TEST_USB.c **** {
 223              		.loc 1 199 0
 224              		.cfi_startproc
 225              		@ args = 0, pretend = 0, frame = 8
 226              		@ frame_needed = 1, uses_anonymous_args = 0
 227 0000 80B5     		push	{r7, lr}
 228              		.cfi_def_cfa_offset 8
 229              		.cfi_offset 7, -8
 230              		.cfi_offset 14, -4
 231 0002 82B0     		sub	sp, sp, #8
 232              		.cfi_def_cfa_offset 16
 233 0004 00AF     		add	r7, sp, #0
 234              		.cfi_def_cfa_register 7
 235 0006 0346     		mov	r3, r0
 236 0008 FB71     		strb	r3, [r7, #7]
 200:Generated_Source\PSoC5/SW_UART_TEST_USB.c ****     static char8 const CYCODE SW_UART_TEST_USB_hex[] = "0123456789ABCDEF";
 201:Generated_Source\PSoC5/SW_UART_TEST_USB.c **** 
 202:Generated_Source\PSoC5/SW_UART_TEST_USB.c ****     SW_UART_TEST_USB_PutChar((uint8) SW_UART_TEST_USB_hex[txHexByte >> SW_UART_TEST_USB_BYTE_UPPER_
 237              		.loc 1 202 0
 238 000a FB79     		ldrb	r3, [r7, #7]	@ zero_extendqisi2
 239 000c 1B09     		lsrs	r3, r3, #4
 240 000e DBB2     		uxtb	r3, r3
 241 0010 1A46     		mov	r2, r3
 242 0012 084B     		ldr	r3, .L10
 243 0014 9B5C     		ldrb	r3, [r3, r2]	@ zero_extendqisi2
 244 0016 1846     		mov	r0, r3
 245 0018 FFF7FEFF 		bl	SW_UART_TEST_USB_PutChar
 203:Generated_Source\PSoC5/SW_UART_TEST_USB.c ****     SW_UART_TEST_USB_PutChar((uint8) SW_UART_TEST_USB_hex[txHexByte & SW_UART_TEST_USB_BYTE_LOWER_N
 246              		.loc 1 203 0
 247 001c FB79     		ldrb	r3, [r7, #7]	@ zero_extendqisi2
 248 001e 03F00F03 		and	r3, r3, #15
 249 0022 044A     		ldr	r2, .L10
 250 0024 D35C     		ldrb	r3, [r2, r3]	@ zero_extendqisi2
ARM GAS  C:\Users\mag94\AppData\Local\Temp\ccMfuKyC.s 			page 9


 251 0026 1846     		mov	r0, r3
 252 0028 FFF7FEFF 		bl	SW_UART_TEST_USB_PutChar
 204:Generated_Source\PSoC5/SW_UART_TEST_USB.c **** }
 253              		.loc 1 204 0
 254 002c 00BF     		nop
 255 002e 0837     		adds	r7, r7, #8
 256              		.cfi_def_cfa_offset 8
 257 0030 BD46     		mov	sp, r7
 258              		.cfi_def_cfa_register 13
 259              		@ sp needed
 260 0032 80BD     		pop	{r7, pc}
 261              	.L11:
 262              		.align	2
 263              	.L10:
 264 0034 00000000 		.word	SW_UART_TEST_USB_hex.4274
 265              		.cfi_endproc
 266              	.LFE4:
 267              		.size	SW_UART_TEST_USB_PutHexByte, .-SW_UART_TEST_USB_PutHexByte
 268              		.section	.text.SW_UART_TEST_USB_PutHexInt,"ax",%progbits
 269              		.align	2
 270              		.global	SW_UART_TEST_USB_PutHexInt
 271              		.thumb
 272              		.thumb_func
 273              		.type	SW_UART_TEST_USB_PutHexInt, %function
 274              	SW_UART_TEST_USB_PutHexInt:
 275              	.LFB5:
 205:Generated_Source\PSoC5/SW_UART_TEST_USB.c **** 
 206:Generated_Source\PSoC5/SW_UART_TEST_USB.c **** 
 207:Generated_Source\PSoC5/SW_UART_TEST_USB.c **** /*******************************************************************************
 208:Generated_Source\PSoC5/SW_UART_TEST_USB.c **** * Function Name: SW_UART_TEST_USB_PutHexInt
 209:Generated_Source\PSoC5/SW_UART_TEST_USB.c **** ********************************************************************************
 210:Generated_Source\PSoC5/SW_UART_TEST_USB.c **** *
 211:Generated_Source\PSoC5/SW_UART_TEST_USB.c **** * Summary:
 212:Generated_Source\PSoC5/SW_UART_TEST_USB.c **** *  Sends a 16-bit unsigned integer in Hex representation (four characters,
 213:Generated_Source\PSoC5/SW_UART_TEST_USB.c **** *  uppercase for A-F) via the Tx pin.
 214:Generated_Source\PSoC5/SW_UART_TEST_USB.c **** *
 215:Generated_Source\PSoC5/SW_UART_TEST_USB.c **** * Parameters:
 216:Generated_Source\PSoC5/SW_UART_TEST_USB.c **** *  TxHexInt: The uint16 to be converted to ASCII characters and sent via
 217:Generated_Source\PSoC5/SW_UART_TEST_USB.c **** *            the Tx pin.
 218:Generated_Source\PSoC5/SW_UART_TEST_USB.c **** *
 219:Generated_Source\PSoC5/SW_UART_TEST_USB.c **** * Return:
 220:Generated_Source\PSoC5/SW_UART_TEST_USB.c **** *  None
 221:Generated_Source\PSoC5/SW_UART_TEST_USB.c **** *
 222:Generated_Source\PSoC5/SW_UART_TEST_USB.c **** *******************************************************************************/
 223:Generated_Source\PSoC5/SW_UART_TEST_USB.c **** void SW_UART_TEST_USB_PutHexInt(uint16 txHexInt) 
 224:Generated_Source\PSoC5/SW_UART_TEST_USB.c **** {
 276              		.loc 1 224 0
 277              		.cfi_startproc
 278              		@ args = 0, pretend = 0, frame = 8
 279              		@ frame_needed = 1, uses_anonymous_args = 0
 280 0000 80B5     		push	{r7, lr}
 281              		.cfi_def_cfa_offset 8
 282              		.cfi_offset 7, -8
 283              		.cfi_offset 14, -4
 284 0002 82B0     		sub	sp, sp, #8
 285              		.cfi_def_cfa_offset 16
 286 0004 00AF     		add	r7, sp, #0
ARM GAS  C:\Users\mag94\AppData\Local\Temp\ccMfuKyC.s 			page 10


 287              		.cfi_def_cfa_register 7
 288 0006 0346     		mov	r3, r0
 289 0008 FB80     		strh	r3, [r7, #6]	@ movhi
 225:Generated_Source\PSoC5/SW_UART_TEST_USB.c ****     SW_UART_TEST_USB_PutHexByte((uint8)(txHexInt >> SW_UART_TEST_USB_U16_UPPER_BYTE_SHIFT));
 290              		.loc 1 225 0
 291 000a FB88     		ldrh	r3, [r7, #6]
 292 000c 1B0A     		lsrs	r3, r3, #8
 293 000e 9BB2     		uxth	r3, r3
 294 0010 DBB2     		uxtb	r3, r3
 295 0012 1846     		mov	r0, r3
 296 0014 FFF7FEFF 		bl	SW_UART_TEST_USB_PutHexByte
 226:Generated_Source\PSoC5/SW_UART_TEST_USB.c ****     SW_UART_TEST_USB_PutHexByte((uint8)(txHexInt & SW_UART_TEST_USB_U16_LOWER_BYTE_MASK));
 297              		.loc 1 226 0
 298 0018 FB88     		ldrh	r3, [r7, #6]	@ movhi
 299 001a DBB2     		uxtb	r3, r3
 300 001c 1846     		mov	r0, r3
 301 001e FFF7FEFF 		bl	SW_UART_TEST_USB_PutHexByte
 227:Generated_Source\PSoC5/SW_UART_TEST_USB.c **** }
 302              		.loc 1 227 0
 303 0022 00BF     		nop
 304 0024 0837     		adds	r7, r7, #8
 305              		.cfi_def_cfa_offset 8
 306 0026 BD46     		mov	sp, r7
 307              		.cfi_def_cfa_register 13
 308              		@ sp needed
 309 0028 80BD     		pop	{r7, pc}
 310              		.cfi_endproc
 311              	.LFE5:
 312              		.size	SW_UART_TEST_USB_PutHexInt, .-SW_UART_TEST_USB_PutHexInt
 313 002a 00BF     		.section	.text.SW_UART_TEST_USB_PutCRLF,"ax",%progbits
 314              		.align	2
 315              		.global	SW_UART_TEST_USB_PutCRLF
 316              		.thumb
 317              		.thumb_func
 318              		.type	SW_UART_TEST_USB_PutCRLF, %function
 319              	SW_UART_TEST_USB_PutCRLF:
 320              	.LFB6:
 228:Generated_Source\PSoC5/SW_UART_TEST_USB.c **** 
 229:Generated_Source\PSoC5/SW_UART_TEST_USB.c **** 
 230:Generated_Source\PSoC5/SW_UART_TEST_USB.c **** /*******************************************************************************
 231:Generated_Source\PSoC5/SW_UART_TEST_USB.c **** * Function Name: SW_UART_TEST_USB_PutCRLF
 232:Generated_Source\PSoC5/SW_UART_TEST_USB.c **** ********************************************************************************
 233:Generated_Source\PSoC5/SW_UART_TEST_USB.c **** *
 234:Generated_Source\PSoC5/SW_UART_TEST_USB.c **** * Summary:
 235:Generated_Source\PSoC5/SW_UART_TEST_USB.c **** *  Sends a carriage return (0x0D) and a line feed (0x0A) via the Tx pin.
 236:Generated_Source\PSoC5/SW_UART_TEST_USB.c **** *
 237:Generated_Source\PSoC5/SW_UART_TEST_USB.c **** * Parameters:
 238:Generated_Source\PSoC5/SW_UART_TEST_USB.c **** *  None
 239:Generated_Source\PSoC5/SW_UART_TEST_USB.c **** *
 240:Generated_Source\PSoC5/SW_UART_TEST_USB.c **** * Return:
 241:Generated_Source\PSoC5/SW_UART_TEST_USB.c **** *  None
 242:Generated_Source\PSoC5/SW_UART_TEST_USB.c **** *
 243:Generated_Source\PSoC5/SW_UART_TEST_USB.c **** *******************************************************************************/
 244:Generated_Source\PSoC5/SW_UART_TEST_USB.c **** void SW_UART_TEST_USB_PutCRLF(void) 
 245:Generated_Source\PSoC5/SW_UART_TEST_USB.c **** {
 321              		.loc 1 245 0
 322              		.cfi_startproc
ARM GAS  C:\Users\mag94\AppData\Local\Temp\ccMfuKyC.s 			page 11


 323              		@ args = 0, pretend = 0, frame = 0
 324              		@ frame_needed = 1, uses_anonymous_args = 0
 325 0000 80B5     		push	{r7, lr}
 326              		.cfi_def_cfa_offset 8
 327              		.cfi_offset 7, -8
 328              		.cfi_offset 14, -4
 329 0002 00AF     		add	r7, sp, #0
 330              		.cfi_def_cfa_register 7
 246:Generated_Source\PSoC5/SW_UART_TEST_USB.c ****     SW_UART_TEST_USB_PutChar(0x0Du);
 331              		.loc 1 246 0
 332 0004 0D20     		movs	r0, #13
 333 0006 FFF7FEFF 		bl	SW_UART_TEST_USB_PutChar
 247:Generated_Source\PSoC5/SW_UART_TEST_USB.c ****     SW_UART_TEST_USB_PutChar(0x0Au);
 334              		.loc 1 247 0
 335 000a 0A20     		movs	r0, #10
 336 000c FFF7FEFF 		bl	SW_UART_TEST_USB_PutChar
 248:Generated_Source\PSoC5/SW_UART_TEST_USB.c **** }
 337              		.loc 1 248 0
 338 0010 00BF     		nop
 339 0012 80BD     		pop	{r7, pc}
 340              		.cfi_endproc
 341              	.LFE6:
 342              		.size	SW_UART_TEST_USB_PutCRLF, .-SW_UART_TEST_USB_PutCRLF
 343              		.section	.rodata
 344              		.align	2
 345              		.type	SW_UART_TEST_USB_hex.4274, %object
 346              		.size	SW_UART_TEST_USB_hex.4274, 17
 347              	SW_UART_TEST_USB_hex.4274:
 348 0000 30313233 		.ascii	"0123456789ABCDEF\000"
 348      34353637 
 348      38394142 
 348      43444546 
 348      00
 349              		.text
 350              	.Letext0:
 351              		.file 2 "Generated_Source\\PSoC5\\cytypes.h"