ARM GAS  C:\Users\mikke\AppData\Local\Temp\ccIUnQd7.s 			page 1


   1              		.syntax unified
   2              		.cpu cortex-m3
   3              		.fpu softvfp
   4              		.eabi_attribute 20, 1
   5              		.eabi_attribute 21, 1
   6              		.eabi_attribute 23, 3
   7              		.eabi_attribute 24, 1
   8              		.eabi_attribute 25, 1
   9              		.eabi_attribute 26, 1
  10              		.eabi_attribute 30, 6
  11              		.eabi_attribute 34, 1
  12              		.eabi_attribute 18, 4
  13              		.thumb
  14              		.syntax unified
  15              		.file	"tasks.c"
  16              		.text
  17              	.Ltext0:
  18              		.cfi_sections	.debug_frame
  19              		.global	pxCurrentTCB
  20              		.bss
  21              		.align	2
  22              		.type	pxCurrentTCB, %object
  23              		.size	pxCurrentTCB, 4
  24              	pxCurrentTCB:
  25 0000 00000000 		.space	4
  26              		.align	2
  27              	pxReadyTasksLists:
  28 0004 00000000 		.space	100
  28      00000000 
  28      00000000 
  28      00000000 
  28      00000000 
  29              		.align	2
  30              	xDelayedTaskList1:
  31 0068 00000000 		.space	20
  31      00000000 
  31      00000000 
  31      00000000 
  31      00000000 
  32              		.align	2
  33              	xDelayedTaskList2:
  34 007c 00000000 		.space	20
  34      00000000 
  34      00000000 
  34      00000000 
  34      00000000 
  35              		.align	2
  36              	pxDelayedTaskList:
  37 0090 00000000 		.space	4
  38              		.align	2
  39              	pxOverflowDelayedTaskList:
  40 0094 00000000 		.space	4
  41              		.align	2
  42              	xPendingReadyList:
  43 0098 00000000 		.space	20
  43      00000000 
  43      00000000 
ARM GAS  C:\Users\mikke\AppData\Local\Temp\ccIUnQd7.s 			page 2


  43      00000000 
  43      00000000 
  44              		.align	2
  45              	xTasksWaitingTermination:
  46 00ac 00000000 		.space	20
  46      00000000 
  46      00000000 
  46      00000000 
  46      00000000 
  47              		.align	2
  48              	uxDeletedTasksWaitingCleanUp:
  49 00c0 00000000 		.space	4
  50              		.align	2
  51              	xSuspendedTaskList:
  52 00c4 00000000 		.space	20
  52      00000000 
  52      00000000 
  52      00000000 
  52      00000000 
  53              		.align	2
  54              	uxCurrentNumberOfTasks:
  55 00d8 00000000 		.space	4
  56              		.align	2
  57              	xTickCount:
  58 00dc 00000000 		.space	4
  59              		.align	2
  60              	uxTopReadyPriority:
  61 00e0 00000000 		.space	4
  62              		.align	2
  63              	xSchedulerRunning:
  64 00e4 00000000 		.space	4
  65              		.align	2
  66              	xPendedTicks:
  67 00e8 00000000 		.space	4
  68              		.align	2
  69              	xYieldPending:
  70 00ec 00000000 		.space	4
  71              		.align	2
  72              	xNumOfOverflows:
  73 00f0 00000000 		.space	4
  74              		.align	2
  75              	uxTaskNumber:
  76 00f4 00000000 		.space	4
  77              		.align	2
  78              	xNextTaskUnblockTime:
  79 00f8 00000000 		.space	4
  80              		.align	2
  81              	xIdleTaskHandle:
  82 00fc 00000000 		.space	4
  83              		.align	2
  84              	uxSchedulerSuspended:
  85 0100 00000000 		.space	4
  86              		.section	.text.xTaskCreate,"ax",%progbits
  87              		.align	2
  88              		.global	xTaskCreate
  89              		.thumb
  90              		.thumb_func
ARM GAS  C:\Users\mikke\AppData\Local\Temp\ccIUnQd7.s 			page 3


  91              		.type	xTaskCreate, %function
  92              	xTaskCreate:
  93              	.LFB68:
  94              		.file 1 "Source\\tasks.c"
   1:Source/tasks.c **** /*
   2:Source/tasks.c ****  * FreeRTOS Kernel V10.3.1
   3:Source/tasks.c ****  * Copyright (C) 2020 Amazon.com, Inc. or its affiliates.  All Rights Reserved.
   4:Source/tasks.c ****  *
   5:Source/tasks.c ****  * Permission is hereby granted, free of charge, to any person obtaining a copy of
   6:Source/tasks.c ****  * this software and associated documentation files (the "Software"), to deal in
   7:Source/tasks.c ****  * the Software without restriction, including without limitation the rights to
   8:Source/tasks.c ****  * use, copy, modify, merge, publish, distribute, sublicense, and/or sell copies of
   9:Source/tasks.c ****  * the Software, and to permit persons to whom the Software is furnished to do so,
  10:Source/tasks.c ****  * subject to the following conditions:
  11:Source/tasks.c ****  *
  12:Source/tasks.c ****  * The above copyright notice and this permission notice shall be included in all
  13:Source/tasks.c ****  * copies or substantial portions of the Software.
  14:Source/tasks.c ****  *
  15:Source/tasks.c ****  * THE SOFTWARE IS PROVIDED "AS IS", WITHOUT WARRANTY OF ANY KIND, EXPRESS OR
  16:Source/tasks.c ****  * IMPLIED, INCLUDING BUT NOT LIMITED TO THE WARRANTIES OF MERCHANTABILITY, FITNESS
  17:Source/tasks.c ****  * FOR A PARTICULAR PURPOSE AND NONINFRINGEMENT. IN NO EVENT SHALL THE AUTHORS OR
  18:Source/tasks.c ****  * COPYRIGHT HOLDERS BE LIABLE FOR ANY CLAIM, DAMAGES OR OTHER LIABILITY, WHETHER
  19:Source/tasks.c ****  * IN AN ACTION OF CONTRACT, TORT OR OTHERWISE, ARISING FROM, OUT OF OR IN
  20:Source/tasks.c ****  * CONNECTION WITH THE SOFTWARE OR THE USE OR OTHER DEALINGS IN THE SOFTWARE.
  21:Source/tasks.c ****  *
  22:Source/tasks.c ****  * http://www.FreeRTOS.org
  23:Source/tasks.c ****  * http://aws.amazon.com/freertos
  24:Source/tasks.c ****  *
  25:Source/tasks.c ****  * 1 tab == 4 spaces!
  26:Source/tasks.c ****  */
  27:Source/tasks.c **** 
  28:Source/tasks.c **** /* Standard includes. */
  29:Source/tasks.c **** #include <stdlib.h>
  30:Source/tasks.c **** #include <string.h>
  31:Source/tasks.c **** 
  32:Source/tasks.c **** /* Defining MPU_WRAPPERS_INCLUDED_FROM_API_FILE prevents task.h from redefining
  33:Source/tasks.c **** all the API functions to use the MPU wrappers.  That should only be done when
  34:Source/tasks.c **** task.h is included from an application file. */
  35:Source/tasks.c **** #define MPU_WRAPPERS_INCLUDED_FROM_API_FILE
  36:Source/tasks.c **** 
  37:Source/tasks.c **** /* FreeRTOS includes. */
  38:Source/tasks.c **** #include "FreeRTOS.h"
  39:Source/tasks.c **** #include "task.h"
  40:Source/tasks.c **** #include "timers.h"
  41:Source/tasks.c **** #include "stack_macros.h"
  42:Source/tasks.c **** 
  43:Source/tasks.c **** /* Lint e9021, e961 and e750 are suppressed as a MISRA exception justified
  44:Source/tasks.c **** because the MPU ports require MPU_WRAPPERS_INCLUDED_FROM_API_FILE to be defined
  45:Source/tasks.c **** for the header files above, but not in this file, in order to generate the
  46:Source/tasks.c **** correct privileged Vs unprivileged linkage and placement. */
  47:Source/tasks.c **** #undef MPU_WRAPPERS_INCLUDED_FROM_API_FILE /*lint !e961 !e750 !e9021. */
  48:Source/tasks.c **** 
  49:Source/tasks.c **** /* Set configUSE_STATS_FORMATTING_FUNCTIONS to 2 to include the stats formatting
  50:Source/tasks.c **** functions but without including stdio.h here. */
  51:Source/tasks.c **** #if ( configUSE_STATS_FORMATTING_FUNCTIONS == 1 )
  52:Source/tasks.c **** 	/* At the bottom of this file are two optional functions that can be used
  53:Source/tasks.c **** 	to generate human readable text from the raw data generated by the
ARM GAS  C:\Users\mikke\AppData\Local\Temp\ccIUnQd7.s 			page 4


  54:Source/tasks.c **** 	uxTaskGetSystemState() function.  Note the formatting functions are provided
  55:Source/tasks.c **** 	for convenience only, and are NOT considered part of the kernel. */
  56:Source/tasks.c **** 	#include <stdio.h>
  57:Source/tasks.c **** #endif /* configUSE_STATS_FORMATTING_FUNCTIONS == 1 ) */
  58:Source/tasks.c **** 
  59:Source/tasks.c **** #if( configUSE_PREEMPTION == 0 )
  60:Source/tasks.c **** 	/* If the cooperative scheduler is being used then a yield should not be
  61:Source/tasks.c **** 	performed just because a higher priority task has been woken. */
  62:Source/tasks.c **** 	#define taskYIELD_IF_USING_PREEMPTION()
  63:Source/tasks.c **** #else
  64:Source/tasks.c **** 	#define taskYIELD_IF_USING_PREEMPTION() portYIELD_WITHIN_API()
  65:Source/tasks.c **** #endif
  66:Source/tasks.c **** 
  67:Source/tasks.c **** /* Values that can be assigned to the ucNotifyState member of the TCB. */
  68:Source/tasks.c **** #define taskNOT_WAITING_NOTIFICATION	( ( uint8_t ) 0 )
  69:Source/tasks.c **** #define taskWAITING_NOTIFICATION		( ( uint8_t ) 1 )
  70:Source/tasks.c **** #define taskNOTIFICATION_RECEIVED		( ( uint8_t ) 2 )
  71:Source/tasks.c **** 
  72:Source/tasks.c **** /*
  73:Source/tasks.c ****  * The value used to fill the stack of a task when the task is created.  This
  74:Source/tasks.c ****  * is used purely for checking the high water mark for tasks.
  75:Source/tasks.c ****  */
  76:Source/tasks.c **** #define tskSTACK_FILL_BYTE	( 0xa5U )
  77:Source/tasks.c **** 
  78:Source/tasks.c **** /* Bits used to recored how a task's stack and TCB were allocated. */
  79:Source/tasks.c **** #define tskDYNAMICALLY_ALLOCATED_STACK_AND_TCB 		( ( uint8_t ) 0 )
  80:Source/tasks.c **** #define tskSTATICALLY_ALLOCATED_STACK_ONLY 			( ( uint8_t ) 1 )
  81:Source/tasks.c **** #define tskSTATICALLY_ALLOCATED_STACK_AND_TCB		( ( uint8_t ) 2 )
  82:Source/tasks.c **** 
  83:Source/tasks.c **** /* If any of the following are set then task stacks are filled with a known
  84:Source/tasks.c **** value so the high water mark can be determined.  If none of the following are
  85:Source/tasks.c **** set then don't fill the stack so there is no unnecessary dependency on memset. */
  86:Source/tasks.c **** #if( ( configCHECK_FOR_STACK_OVERFLOW > 1 ) || ( configUSE_TRACE_FACILITY == 1 ) || ( INCLUDE_uxTas
  87:Source/tasks.c **** 	#define tskSET_NEW_STACKS_TO_KNOWN_VALUE	1
  88:Source/tasks.c **** #else
  89:Source/tasks.c **** 	#define tskSET_NEW_STACKS_TO_KNOWN_VALUE	0
  90:Source/tasks.c **** #endif
  91:Source/tasks.c **** 
  92:Source/tasks.c **** /*
  93:Source/tasks.c ****  * Macros used by vListTask to indicate which state a task is in.
  94:Source/tasks.c ****  */
  95:Source/tasks.c **** #define tskRUNNING_CHAR		( 'X' )
  96:Source/tasks.c **** #define tskBLOCKED_CHAR		( 'B' )
  97:Source/tasks.c **** #define tskREADY_CHAR		( 'R' )
  98:Source/tasks.c **** #define tskDELETED_CHAR		( 'D' )
  99:Source/tasks.c **** #define tskSUSPENDED_CHAR	( 'S' )
 100:Source/tasks.c **** 
 101:Source/tasks.c **** /*
 102:Source/tasks.c ****  * Some kernel aware debuggers require the data the debugger needs access to be
 103:Source/tasks.c ****  * global, rather than file scope.
 104:Source/tasks.c ****  */
 105:Source/tasks.c **** #ifdef portREMOVE_STATIC_QUALIFIER
 106:Source/tasks.c **** 	#define static
 107:Source/tasks.c **** #endif
 108:Source/tasks.c **** 
 109:Source/tasks.c **** /* The name allocated to the Idle task.  This can be overridden by defining
 110:Source/tasks.c **** configIDLE_TASK_NAME in FreeRTOSConfig.h. */
ARM GAS  C:\Users\mikke\AppData\Local\Temp\ccIUnQd7.s 			page 5


 111:Source/tasks.c **** #ifndef configIDLE_TASK_NAME
 112:Source/tasks.c **** 	#define configIDLE_TASK_NAME "IDLE"
 113:Source/tasks.c **** #endif
 114:Source/tasks.c **** 
 115:Source/tasks.c **** #if ( configUSE_PORT_OPTIMISED_TASK_SELECTION == 0 )
 116:Source/tasks.c **** 
 117:Source/tasks.c **** 	/* If configUSE_PORT_OPTIMISED_TASK_SELECTION is 0 then task selection is
 118:Source/tasks.c **** 	performed in a generic way that is not optimised to any particular
 119:Source/tasks.c **** 	microcontroller architecture. */
 120:Source/tasks.c **** 
 121:Source/tasks.c **** 	/* uxTopReadyPriority holds the priority of the highest priority ready
 122:Source/tasks.c **** 	state task. */
 123:Source/tasks.c **** 	#define taskRECORD_READY_PRIORITY( uxPriority )														\
 124:Source/tasks.c **** 	{																									\
 125:Source/tasks.c **** 		if( ( uxPriority ) > uxTopReadyPriority )														\
 126:Source/tasks.c **** 		{																								\
 127:Source/tasks.c **** 			uxTopReadyPriority = ( uxPriority );														\
 128:Source/tasks.c **** 		}																								\
 129:Source/tasks.c **** 	} /* taskRECORD_READY_PRIORITY */
 130:Source/tasks.c **** 
 131:Source/tasks.c **** 	/*-----------------------------------------------------------*/
 132:Source/tasks.c **** 
 133:Source/tasks.c **** 	#define taskSELECT_HIGHEST_PRIORITY_TASK()															\
 134:Source/tasks.c **** 	{																									\
 135:Source/tasks.c **** 	UBaseType_t uxTopPriority = uxTopReadyPriority;														\
 136:Source/tasks.c **** 																										\
 137:Source/tasks.c **** 		/* Find the highest priority queue that contains ready tasks. */								\
 138:Source/tasks.c **** 		while( listLIST_IS_EMPTY( &( pxReadyTasksLists[ uxTopPriority ] ) ) )							\
 139:Source/tasks.c **** 		{																								\
 140:Source/tasks.c **** 			configASSERT( uxTopPriority );																\
 141:Source/tasks.c **** 			--uxTopPriority;																			\
 142:Source/tasks.c **** 		}																								\
 143:Source/tasks.c **** 																										\
 144:Source/tasks.c **** 		/* listGET_OWNER_OF_NEXT_ENTRY indexes through the list, so the tasks of						\
 145:Source/tasks.c **** 		the	same priority get an equal share of the processor time. */									\
 146:Source/tasks.c **** 		listGET_OWNER_OF_NEXT_ENTRY( pxCurrentTCB, &( pxReadyTasksLists[ uxTopPriority ] ) );			\
 147:Source/tasks.c **** 		uxTopReadyPriority = uxTopPriority;																\
 148:Source/tasks.c **** 	} /* taskSELECT_HIGHEST_PRIORITY_TASK */
 149:Source/tasks.c **** 
 150:Source/tasks.c **** 	/*-----------------------------------------------------------*/
 151:Source/tasks.c **** 
 152:Source/tasks.c **** 	/* Define away taskRESET_READY_PRIORITY() and portRESET_READY_PRIORITY() as
 153:Source/tasks.c **** 	they are only required when a port optimised method of task selection is
 154:Source/tasks.c **** 	being used. */
 155:Source/tasks.c **** 	#define taskRESET_READY_PRIORITY( uxPriority )
 156:Source/tasks.c **** 	#define portRESET_READY_PRIORITY( uxPriority, uxTopReadyPriority )
 157:Source/tasks.c **** 
 158:Source/tasks.c **** #else /* configUSE_PORT_OPTIMISED_TASK_SELECTION */
 159:Source/tasks.c **** 
 160:Source/tasks.c **** 	/* If configUSE_PORT_OPTIMISED_TASK_SELECTION is 1 then task selection is
 161:Source/tasks.c **** 	performed in a way that is tailored to the particular microcontroller
 162:Source/tasks.c **** 	architecture being used. */
 163:Source/tasks.c **** 
 164:Source/tasks.c **** 	/* A port optimised version is provided.  Call the port defined macros. */
 165:Source/tasks.c **** 	#define taskRECORD_READY_PRIORITY( uxPriority )	portRECORD_READY_PRIORITY( uxPriority, uxTopReadyP
 166:Source/tasks.c **** 
 167:Source/tasks.c **** 	/*-----------------------------------------------------------*/
ARM GAS  C:\Users\mikke\AppData\Local\Temp\ccIUnQd7.s 			page 6


 168:Source/tasks.c **** 
 169:Source/tasks.c **** 	#define taskSELECT_HIGHEST_PRIORITY_TASK()														\
 170:Source/tasks.c **** 	{																								\
 171:Source/tasks.c **** 	UBaseType_t uxTopPriority;																		\
 172:Source/tasks.c **** 																									\
 173:Source/tasks.c **** 		/* Find the highest priority list that contains ready tasks. */								\
 174:Source/tasks.c **** 		portGET_HIGHEST_PRIORITY( uxTopPriority, uxTopReadyPriority );								\
 175:Source/tasks.c **** 		configASSERT( listCURRENT_LIST_LENGTH( &( pxReadyTasksLists[ uxTopPriority ] ) ) > 0 );		\
 176:Source/tasks.c **** 		listGET_OWNER_OF_NEXT_ENTRY( pxCurrentTCB, &( pxReadyTasksLists[ uxTopPriority ] ) );		\
 177:Source/tasks.c **** 	} /* taskSELECT_HIGHEST_PRIORITY_TASK() */
 178:Source/tasks.c **** 
 179:Source/tasks.c **** 	/*-----------------------------------------------------------*/
 180:Source/tasks.c **** 
 181:Source/tasks.c **** 	/* A port optimised version is provided, call it only if the TCB being reset
 182:Source/tasks.c **** 	is being referenced from a ready list.  If it is referenced from a delayed
 183:Source/tasks.c **** 	or suspended list then it won't be in a ready list. */
 184:Source/tasks.c **** 	#define taskRESET_READY_PRIORITY( uxPriority )														\
 185:Source/tasks.c **** 	{																									\
 186:Source/tasks.c **** 		if( listCURRENT_LIST_LENGTH( &( pxReadyTasksLists[ ( uxPriority ) ] ) ) == ( UBaseType_t ) 0 )	\
 187:Source/tasks.c **** 		{																								\
 188:Source/tasks.c **** 			portRESET_READY_PRIORITY( ( uxPriority ), ( uxTopReadyPriority ) );							\
 189:Source/tasks.c **** 		}																								\
 190:Source/tasks.c **** 	}
 191:Source/tasks.c **** 
 192:Source/tasks.c **** #endif /* configUSE_PORT_OPTIMISED_TASK_SELECTION */
 193:Source/tasks.c **** 
 194:Source/tasks.c **** /*-----------------------------------------------------------*/
 195:Source/tasks.c **** 
 196:Source/tasks.c **** /* pxDelayedTaskList and pxOverflowDelayedTaskList are switched when the tick
 197:Source/tasks.c **** count overflows. */
 198:Source/tasks.c **** #define taskSWITCH_DELAYED_LISTS()																	\
 199:Source/tasks.c **** {																									\
 200:Source/tasks.c **** 	List_t *pxTemp;																					\
 201:Source/tasks.c **** 																									\
 202:Source/tasks.c **** 	/* The delayed tasks list should be empty when the lists are switched. */						\
 203:Source/tasks.c **** 	configASSERT( ( listLIST_IS_EMPTY( pxDelayedTaskList ) ) );										\
 204:Source/tasks.c **** 																									\
 205:Source/tasks.c **** 	pxTemp = pxDelayedTaskList;																		\
 206:Source/tasks.c **** 	pxDelayedTaskList = pxOverflowDelayedTaskList;													\
 207:Source/tasks.c **** 	pxOverflowDelayedTaskList = pxTemp;																\
 208:Source/tasks.c **** 	xNumOfOverflows++;																				\
 209:Source/tasks.c **** 	prvResetNextTaskUnblockTime();																	\
 210:Source/tasks.c **** }
 211:Source/tasks.c **** 
 212:Source/tasks.c **** /*-----------------------------------------------------------*/
 213:Source/tasks.c **** 
 214:Source/tasks.c **** /*
 215:Source/tasks.c ****  * Place the task represented by pxTCB into the appropriate ready list for
 216:Source/tasks.c ****  * the task.  It is inserted at the end of the list.
 217:Source/tasks.c ****  */
 218:Source/tasks.c **** #define prvAddTaskToReadyList( pxTCB )																\
 219:Source/tasks.c **** 	traceMOVED_TASK_TO_READY_STATE( pxTCB );														\
 220:Source/tasks.c **** 	taskRECORD_READY_PRIORITY( ( pxTCB )->uxPriority );												\
 221:Source/tasks.c **** 	vListInsertEnd( &( pxReadyTasksLists[ ( pxTCB )->uxPriority ] ), &( ( pxTCB )->xStateListItem ) );
 222:Source/tasks.c **** 	tracePOST_MOVED_TASK_TO_READY_STATE( pxTCB )
 223:Source/tasks.c **** /*-----------------------------------------------------------*/
 224:Source/tasks.c **** 
ARM GAS  C:\Users\mikke\AppData\Local\Temp\ccIUnQd7.s 			page 7


 225:Source/tasks.c **** /*
 226:Source/tasks.c ****  * Several functions take an TaskHandle_t parameter that can optionally be NULL,
 227:Source/tasks.c ****  * where NULL is used to indicate that the handle of the currently executing
 228:Source/tasks.c ****  * task should be used in place of the parameter.  This macro simply checks to
 229:Source/tasks.c ****  * see if the parameter is NULL and returns a pointer to the appropriate TCB.
 230:Source/tasks.c ****  */
 231:Source/tasks.c **** #define prvGetTCBFromHandle( pxHandle ) ( ( ( pxHandle ) == NULL ) ? pxCurrentTCB : ( pxHandle ) )
 232:Source/tasks.c **** 
 233:Source/tasks.c **** /* The item value of the event list item is normally used to hold the priority
 234:Source/tasks.c **** of the task to which it belongs (coded to allow it to be held in reverse
 235:Source/tasks.c **** priority order).  However, it is occasionally borrowed for other purposes.  It
 236:Source/tasks.c **** is important its value is not updated due to a task priority change while it is
 237:Source/tasks.c **** being used for another purpose.  The following bit definition is used to inform
 238:Source/tasks.c **** the scheduler that the value should not be changed - in which case it is the
 239:Source/tasks.c **** responsibility of whichever module is using the value to ensure it gets set back
 240:Source/tasks.c **** to its original value when it is released. */
 241:Source/tasks.c **** #if( configUSE_16_BIT_TICKS == 1 )
 242:Source/tasks.c **** 	#define taskEVENT_LIST_ITEM_VALUE_IN_USE	0x8000U
 243:Source/tasks.c **** #else
 244:Source/tasks.c **** 	#define taskEVENT_LIST_ITEM_VALUE_IN_USE	0x80000000UL
 245:Source/tasks.c **** #endif
 246:Source/tasks.c **** 
 247:Source/tasks.c **** /*
 248:Source/tasks.c ****  * Task control block.  A task control block (TCB) is allocated for each task,
 249:Source/tasks.c ****  * and stores task state information, including a pointer to the task's context
 250:Source/tasks.c ****  * (the task's run time environment, including register values)
 251:Source/tasks.c ****  */
 252:Source/tasks.c **** typedef struct tskTaskControlBlock 			/* The old naming convention is used to prevent breaking kern
 253:Source/tasks.c **** {
 254:Source/tasks.c **** 	volatile StackType_t	*pxTopOfStack;	/*< Points to the location of the last item placed on the task
 255:Source/tasks.c **** 
 256:Source/tasks.c **** 	#if ( portUSING_MPU_WRAPPERS == 1 )
 257:Source/tasks.c **** 		xMPU_SETTINGS	xMPUSettings;		/*< The MPU settings are defined as part of the port layer.  THIS MU
 258:Source/tasks.c **** 	#endif
 259:Source/tasks.c **** 
 260:Source/tasks.c **** 	ListItem_t			xStateListItem;	/*< The list that the state list item of a task is reference from den
 261:Source/tasks.c **** 	ListItem_t			xEventListItem;		/*< Used to reference a task from an event list. */
 262:Source/tasks.c **** 	UBaseType_t			uxPriority;			/*< The priority of the task.  0 is the lowest priority. */
 263:Source/tasks.c **** 	StackType_t			*pxStack;			/*< Points to the start of the stack. */
 264:Source/tasks.c **** 	char				pcTaskName[ configMAX_TASK_NAME_LEN ];/*< Descriptive name given to the task when created.
 265:Source/tasks.c **** 
 266:Source/tasks.c **** 	#if ( ( portSTACK_GROWTH > 0 ) || ( configRECORD_STACK_HIGH_ADDRESS == 1 ) )
 267:Source/tasks.c **** 		StackType_t		*pxEndOfStack;		/*< Points to the highest valid address for the stack. */
 268:Source/tasks.c **** 	#endif
 269:Source/tasks.c **** 
 270:Source/tasks.c **** 	#if ( portCRITICAL_NESTING_IN_TCB == 1 )
 271:Source/tasks.c **** 		UBaseType_t		uxCriticalNesting;	/*< Holds the critical section nesting depth for ports that do no
 272:Source/tasks.c **** 	#endif
 273:Source/tasks.c **** 
 274:Source/tasks.c **** 	#if ( configUSE_TRACE_FACILITY == 1 )
 275:Source/tasks.c **** 		UBaseType_t		uxTCBNumber;		/*< Stores a number that increments each time a TCB is created.  It al
 276:Source/tasks.c **** 		UBaseType_t		uxTaskNumber;		/*< Stores a number specifically for use by third party trace code. *
 277:Source/tasks.c **** 	#endif
 278:Source/tasks.c **** 
 279:Source/tasks.c **** 	#if ( configUSE_MUTEXES == 1 )
 280:Source/tasks.c **** 		UBaseType_t		uxBasePriority;		/*< The priority last assigned to the task - used by the priority i
 281:Source/tasks.c **** 		UBaseType_t		uxMutexesHeld;
ARM GAS  C:\Users\mikke\AppData\Local\Temp\ccIUnQd7.s 			page 8


 282:Source/tasks.c **** 	#endif
 283:Source/tasks.c **** 
 284:Source/tasks.c **** 	#if ( configUSE_APPLICATION_TASK_TAG == 1 )
 285:Source/tasks.c **** 		TaskHookFunction_t pxTaskTag;
 286:Source/tasks.c **** 	#endif
 287:Source/tasks.c **** 
 288:Source/tasks.c **** 	#if( configNUM_THREAD_LOCAL_STORAGE_POINTERS > 0 )
 289:Source/tasks.c **** 		void			*pvThreadLocalStoragePointers[ configNUM_THREAD_LOCAL_STORAGE_POINTERS ];
 290:Source/tasks.c **** 	#endif
 291:Source/tasks.c **** 
 292:Source/tasks.c **** 	#if( configGENERATE_RUN_TIME_STATS == 1 )
 293:Source/tasks.c **** 		uint32_t		ulRunTimeCounter;	/*< Stores the amount of time the task has spent in the Running state
 294:Source/tasks.c **** 	#endif
 295:Source/tasks.c **** 
 296:Source/tasks.c **** 	#if ( configUSE_NEWLIB_REENTRANT == 1 )
 297:Source/tasks.c **** 		/* Allocate a Newlib reent structure that is specific to this task.
 298:Source/tasks.c **** 		Note Newlib support has been included by popular demand, but is not
 299:Source/tasks.c **** 		used by the FreeRTOS maintainers themselves.  FreeRTOS is not
 300:Source/tasks.c **** 		responsible for resulting newlib operation.  User must be familiar with
 301:Source/tasks.c **** 		newlib and must provide system-wide implementations of the necessary
 302:Source/tasks.c **** 		stubs. Be warned that (at the time of writing) the current newlib design
 303:Source/tasks.c **** 		implements a system-wide malloc() that must be provided with locks.
 304:Source/tasks.c **** 
 305:Source/tasks.c **** 		See the third party link http://www.nadler.com/embedded/newlibAndFreeRTOS.html
 306:Source/tasks.c **** 		for additional information. */
 307:Source/tasks.c **** 		struct	_reent xNewLib_reent;
 308:Source/tasks.c **** 	#endif
 309:Source/tasks.c **** 
 310:Source/tasks.c **** 	#if( configUSE_TASK_NOTIFICATIONS == 1 )
 311:Source/tasks.c **** 		volatile uint32_t ulNotifiedValue;
 312:Source/tasks.c **** 		volatile uint8_t ucNotifyState;
 313:Source/tasks.c **** 	#endif
 314:Source/tasks.c **** 
 315:Source/tasks.c **** 	/* See the comments in FreeRTOS.h with the definition of
 316:Source/tasks.c **** 	tskSTATIC_AND_DYNAMIC_ALLOCATION_POSSIBLE. */
 317:Source/tasks.c **** 	#if( tskSTATIC_AND_DYNAMIC_ALLOCATION_POSSIBLE != 0 ) /*lint !e731 !e9029 Macro has been consolida
 318:Source/tasks.c **** 		uint8_t	ucStaticallyAllocated; 		/*< Set to pdTRUE if the task is a statically allocated to ensur
 319:Source/tasks.c **** 	#endif
 320:Source/tasks.c **** 
 321:Source/tasks.c **** 	#if( INCLUDE_xTaskAbortDelay == 1 )
 322:Source/tasks.c **** 		uint8_t ucDelayAborted;
 323:Source/tasks.c **** 	#endif
 324:Source/tasks.c **** 
 325:Source/tasks.c **** 	#if( configUSE_POSIX_ERRNO == 1 )
 326:Source/tasks.c **** 		int iTaskErrno;
 327:Source/tasks.c **** 	#endif
 328:Source/tasks.c **** 
 329:Source/tasks.c **** } tskTCB;
 330:Source/tasks.c **** 
 331:Source/tasks.c **** /* The old tskTCB name is maintained above then typedefed to the new TCB_t name
 332:Source/tasks.c **** below to enable the use of older kernel aware debuggers. */
 333:Source/tasks.c **** typedef tskTCB TCB_t;
 334:Source/tasks.c **** 
 335:Source/tasks.c **** /*lint -save -e956 A manual analysis and inspection has been used to determine
 336:Source/tasks.c **** which static variables must be declared volatile. */
 337:Source/tasks.c **** PRIVILEGED_DATA TCB_t * volatile pxCurrentTCB = NULL;
 338:Source/tasks.c **** 
ARM GAS  C:\Users\mikke\AppData\Local\Temp\ccIUnQd7.s 			page 9


 339:Source/tasks.c **** /* Lists for ready and blocked tasks. --------------------
 340:Source/tasks.c **** xDelayedTaskList1 and xDelayedTaskList2 could be move to function scople but
 341:Source/tasks.c **** doing so breaks some kernel aware debuggers and debuggers that rely on removing
 342:Source/tasks.c **** the static qualifier. */
 343:Source/tasks.c **** PRIVILEGED_DATA static List_t pxReadyTasksLists[ configMAX_PRIORITIES ];/*< Prioritised ready tasks
 344:Source/tasks.c **** PRIVILEGED_DATA static List_t xDelayedTaskList1;						/*< Delayed tasks. */
 345:Source/tasks.c **** PRIVILEGED_DATA static List_t xDelayedTaskList2;						/*< Delayed tasks (two lists are used - one f
 346:Source/tasks.c **** PRIVILEGED_DATA static List_t * volatile pxDelayedTaskList;				/*< Points to the delayed task list 
 347:Source/tasks.c **** PRIVILEGED_DATA static List_t * volatile pxOverflowDelayedTaskList;		/*< Points to the delayed task
 348:Source/tasks.c **** PRIVILEGED_DATA static List_t xPendingReadyList;						/*< Tasks that have been readied while the sc
 349:Source/tasks.c **** 
 350:Source/tasks.c **** #if( INCLUDE_vTaskDelete == 1 )
 351:Source/tasks.c **** 
 352:Source/tasks.c **** 	PRIVILEGED_DATA static List_t xTasksWaitingTermination;				/*< Tasks that have been deleted - but 
 353:Source/tasks.c **** 	PRIVILEGED_DATA static volatile UBaseType_t uxDeletedTasksWaitingCleanUp = ( UBaseType_t ) 0U;
 354:Source/tasks.c **** 
 355:Source/tasks.c **** #endif
 356:Source/tasks.c **** 
 357:Source/tasks.c **** #if ( INCLUDE_vTaskSuspend == 1 )
 358:Source/tasks.c **** 
 359:Source/tasks.c **** 	PRIVILEGED_DATA static List_t xSuspendedTaskList;					/*< Tasks that are currently suspended. */
 360:Source/tasks.c **** 
 361:Source/tasks.c **** #endif
 362:Source/tasks.c **** 
 363:Source/tasks.c **** /* Global POSIX errno. Its value is changed upon context switching to match
 364:Source/tasks.c **** the errno of the currently running task. */
 365:Source/tasks.c **** #if ( configUSE_POSIX_ERRNO == 1 )
 366:Source/tasks.c **** 	int FreeRTOS_errno = 0;
 367:Source/tasks.c **** #endif
 368:Source/tasks.c **** 
 369:Source/tasks.c **** /* Other file private variables. --------------------------------*/
 370:Source/tasks.c **** PRIVILEGED_DATA static volatile UBaseType_t uxCurrentNumberOfTasks 	= ( UBaseType_t ) 0U;
 371:Source/tasks.c **** PRIVILEGED_DATA static volatile TickType_t xTickCount 				= ( TickType_t ) configINITIAL_TICK_COUNT
 372:Source/tasks.c **** PRIVILEGED_DATA static volatile UBaseType_t uxTopReadyPriority 		= tskIDLE_PRIORITY;
 373:Source/tasks.c **** PRIVILEGED_DATA static volatile BaseType_t xSchedulerRunning 		= pdFALSE;
 374:Source/tasks.c **** PRIVILEGED_DATA static volatile TickType_t xPendedTicks 			= ( TickType_t ) 0U;
 375:Source/tasks.c **** PRIVILEGED_DATA static volatile BaseType_t xYieldPending 			= pdFALSE;
 376:Source/tasks.c **** PRIVILEGED_DATA static volatile BaseType_t xNumOfOverflows 			= ( BaseType_t ) 0;
 377:Source/tasks.c **** PRIVILEGED_DATA static UBaseType_t uxTaskNumber 					= ( UBaseType_t ) 0U;
 378:Source/tasks.c **** PRIVILEGED_DATA static volatile TickType_t xNextTaskUnblockTime		= ( TickType_t ) 0U; /* Initialise
 379:Source/tasks.c **** PRIVILEGED_DATA static TaskHandle_t xIdleTaskHandle					= NULL;			/*< Holds the handle of the idle 
 380:Source/tasks.c **** 
 381:Source/tasks.c **** /* Context switches are held pending while the scheduler is suspended.  Also,
 382:Source/tasks.c **** interrupts must not manipulate the xStateListItem of a TCB, or any of the
 383:Source/tasks.c **** lists the xStateListItem can be referenced from, if the scheduler is suspended.
 384:Source/tasks.c **** If an interrupt needs to unblock a task while the scheduler is suspended then it
 385:Source/tasks.c **** moves the task's event list item into the xPendingReadyList, ready for the
 386:Source/tasks.c **** kernel to move the task from the pending ready list into the real ready list
 387:Source/tasks.c **** when the scheduler is unsuspended.  The pending ready list itself can only be
 388:Source/tasks.c **** accessed from a critical section. */
 389:Source/tasks.c **** PRIVILEGED_DATA static volatile UBaseType_t uxSchedulerSuspended	= ( UBaseType_t ) pdFALSE;
 390:Source/tasks.c **** 
 391:Source/tasks.c **** #if ( configGENERATE_RUN_TIME_STATS == 1 )
 392:Source/tasks.c **** 
 393:Source/tasks.c **** 	/* Do not move these variables to function scope as doing so prevents the
 394:Source/tasks.c **** 	code working with debuggers that need to remove the static qualifier. */
 395:Source/tasks.c **** 	PRIVILEGED_DATA static uint32_t ulTaskSwitchedInTime = 0UL;	/*< Holds the value of a timer/counter
ARM GAS  C:\Users\mikke\AppData\Local\Temp\ccIUnQd7.s 			page 10


 396:Source/tasks.c **** 	PRIVILEGED_DATA static uint32_t ulTotalRunTime = 0UL;		/*< Holds the total amount of execution tim
 397:Source/tasks.c **** 
 398:Source/tasks.c **** #endif
 399:Source/tasks.c **** 
 400:Source/tasks.c **** /*lint -restore */
 401:Source/tasks.c **** 
 402:Source/tasks.c **** /*-----------------------------------------------------------*/
 403:Source/tasks.c **** 
 404:Source/tasks.c **** /* Callback function prototypes. --------------------------*/
 405:Source/tasks.c **** #if(  configCHECK_FOR_STACK_OVERFLOW > 0 )
 406:Source/tasks.c **** 
 407:Source/tasks.c **** 	extern void vApplicationStackOverflowHook( TaskHandle_t xTask, char *pcTaskName );
 408:Source/tasks.c **** 
 409:Source/tasks.c **** #endif
 410:Source/tasks.c **** 
 411:Source/tasks.c **** #if( configUSE_TICK_HOOK > 0 )
 412:Source/tasks.c **** 
 413:Source/tasks.c **** 	extern void vApplicationTickHook( void ); /*lint !e526 Symbol not defined as it is an application 
 414:Source/tasks.c **** 
 415:Source/tasks.c **** #endif
 416:Source/tasks.c **** 
 417:Source/tasks.c **** #if( configSUPPORT_STATIC_ALLOCATION == 1 )
 418:Source/tasks.c **** 
 419:Source/tasks.c **** 	extern void vApplicationGetIdleTaskMemory( StaticTask_t **ppxIdleTaskTCBBuffer, StackType_t **ppxI
 420:Source/tasks.c **** 
 421:Source/tasks.c **** #endif
 422:Source/tasks.c **** 
 423:Source/tasks.c **** /* File private functions. --------------------------------*/
 424:Source/tasks.c **** 
 425:Source/tasks.c **** /**
 426:Source/tasks.c ****  * Utility task that simply returns pdTRUE if the task referenced by xTask is
 427:Source/tasks.c ****  * currently in the Suspended state, or pdFALSE if the task referenced by xTask
 428:Source/tasks.c ****  * is in any other state.
 429:Source/tasks.c ****  */
 430:Source/tasks.c **** #if ( INCLUDE_vTaskSuspend == 1 )
 431:Source/tasks.c **** 
 432:Source/tasks.c **** 	static BaseType_t prvTaskIsTaskSuspended( const TaskHandle_t xTask ) PRIVILEGED_FUNCTION;
 433:Source/tasks.c **** 
 434:Source/tasks.c **** #endif /* INCLUDE_vTaskSuspend */
 435:Source/tasks.c **** 
 436:Source/tasks.c **** /*
 437:Source/tasks.c ****  * Utility to ready all the lists used by the scheduler.  This is called
 438:Source/tasks.c ****  * automatically upon the creation of the first task.
 439:Source/tasks.c ****  */
 440:Source/tasks.c **** static void prvInitialiseTaskLists( void ) PRIVILEGED_FUNCTION;
 441:Source/tasks.c **** 
 442:Source/tasks.c **** /*
 443:Source/tasks.c ****  * The idle task, which as all tasks is implemented as a never ending loop.
 444:Source/tasks.c ****  * The idle task is automatically created and added to the ready lists upon
 445:Source/tasks.c ****  * creation of the first user task.
 446:Source/tasks.c ****  *
 447:Source/tasks.c ****  * The portTASK_FUNCTION_PROTO() macro is used to allow port/compiler specific
 448:Source/tasks.c ****  * language extensions.  The equivalent prototype for this function is:
 449:Source/tasks.c ****  *
 450:Source/tasks.c ****  * void prvIdleTask( void *pvParameters );
 451:Source/tasks.c ****  *
 452:Source/tasks.c ****  */
ARM GAS  C:\Users\mikke\AppData\Local\Temp\ccIUnQd7.s 			page 11


 453:Source/tasks.c **** static portTASK_FUNCTION_PROTO( prvIdleTask, pvParameters );
 454:Source/tasks.c **** 
 455:Source/tasks.c **** /*
 456:Source/tasks.c ****  * Utility to free all memory allocated by the scheduler to hold a TCB,
 457:Source/tasks.c ****  * including the stack pointed to by the TCB.
 458:Source/tasks.c ****  *
 459:Source/tasks.c ****  * This does not free memory allocated by the task itself (i.e. memory
 460:Source/tasks.c ****  * allocated by calls to pvPortMalloc from within the tasks application code).
 461:Source/tasks.c ****  */
 462:Source/tasks.c **** #if ( INCLUDE_vTaskDelete == 1 )
 463:Source/tasks.c **** 
 464:Source/tasks.c **** 	static void prvDeleteTCB( TCB_t *pxTCB ) PRIVILEGED_FUNCTION;
 465:Source/tasks.c **** 
 466:Source/tasks.c **** #endif
 467:Source/tasks.c **** 
 468:Source/tasks.c **** /*
 469:Source/tasks.c ****  * Used only by the idle task.  This checks to see if anything has been placed
 470:Source/tasks.c ****  * in the list of tasks waiting to be deleted.  If so the task is cleaned up
 471:Source/tasks.c ****  * and its TCB deleted.
 472:Source/tasks.c ****  */
 473:Source/tasks.c **** static void prvCheckTasksWaitingTermination( void ) PRIVILEGED_FUNCTION;
 474:Source/tasks.c **** 
 475:Source/tasks.c **** /*
 476:Source/tasks.c ****  * The currently executing task is entering the Blocked state.  Add the task to
 477:Source/tasks.c ****  * either the current or the overflow delayed task list.
 478:Source/tasks.c ****  */
 479:Source/tasks.c **** static void prvAddCurrentTaskToDelayedList( TickType_t xTicksToWait, const BaseType_t xCanBlockInde
 480:Source/tasks.c **** 
 481:Source/tasks.c **** /*
 482:Source/tasks.c ****  * Fills an TaskStatus_t structure with information on each task that is
 483:Source/tasks.c ****  * referenced from the pxList list (which may be a ready list, a delayed list,
 484:Source/tasks.c ****  * a suspended list, etc.).
 485:Source/tasks.c ****  *
 486:Source/tasks.c ****  * THIS FUNCTION IS INTENDED FOR DEBUGGING ONLY, AND SHOULD NOT BE CALLED FROM
 487:Source/tasks.c ****  * NORMAL APPLICATION CODE.
 488:Source/tasks.c ****  */
 489:Source/tasks.c **** #if ( configUSE_TRACE_FACILITY == 1 )
 490:Source/tasks.c **** 
 491:Source/tasks.c **** 	static UBaseType_t prvListTasksWithinSingleList( TaskStatus_t *pxTaskStatusArray, List_t *pxList, 
 492:Source/tasks.c **** 
 493:Source/tasks.c **** #endif
 494:Source/tasks.c **** 
 495:Source/tasks.c **** /*
 496:Source/tasks.c ****  * Searches pxList for a task with name pcNameToQuery - returning a handle to
 497:Source/tasks.c ****  * the task if it is found, or NULL if the task is not found.
 498:Source/tasks.c ****  */
 499:Source/tasks.c **** #if ( INCLUDE_xTaskGetHandle == 1 )
 500:Source/tasks.c **** 
 501:Source/tasks.c **** 	static TCB_t *prvSearchForNameWithinSingleList( List_t *pxList, const char pcNameToQuery[] ) PRIVI
 502:Source/tasks.c **** 
 503:Source/tasks.c **** #endif
 504:Source/tasks.c **** 
 505:Source/tasks.c **** /*
 506:Source/tasks.c ****  * When a task is created, the stack of the task is filled with a known value.
 507:Source/tasks.c ****  * This function determines the 'high water mark' of the task stack by
 508:Source/tasks.c ****  * determining how much of the stack remains at the original preset value.
 509:Source/tasks.c ****  */
ARM GAS  C:\Users\mikke\AppData\Local\Temp\ccIUnQd7.s 			page 12


 510:Source/tasks.c **** #if ( ( configUSE_TRACE_FACILITY == 1 ) || ( INCLUDE_uxTaskGetStackHighWaterMark == 1 ) || ( INCLUD
 511:Source/tasks.c **** 
 512:Source/tasks.c **** 	static configSTACK_DEPTH_TYPE prvTaskCheckFreeStackSpace( const uint8_t * pucStackByte ) PRIVILEGE
 513:Source/tasks.c **** 
 514:Source/tasks.c **** #endif
 515:Source/tasks.c **** 
 516:Source/tasks.c **** /*
 517:Source/tasks.c ****  * Return the amount of time, in ticks, that will pass before the kernel will
 518:Source/tasks.c ****  * next move a task from the Blocked state to the Running state.
 519:Source/tasks.c ****  *
 520:Source/tasks.c ****  * This conditional compilation should use inequality to 0, not equality to 1.
 521:Source/tasks.c ****  * This is to ensure portSUPPRESS_TICKS_AND_SLEEP() can be called when user
 522:Source/tasks.c ****  * defined low power mode implementations require configUSE_TICKLESS_IDLE to be
 523:Source/tasks.c ****  * set to a value other than 1.
 524:Source/tasks.c ****  */
 525:Source/tasks.c **** #if ( configUSE_TICKLESS_IDLE != 0 )
 526:Source/tasks.c **** 
 527:Source/tasks.c **** 	static TickType_t prvGetExpectedIdleTime( void ) PRIVILEGED_FUNCTION;
 528:Source/tasks.c **** 
 529:Source/tasks.c **** #endif
 530:Source/tasks.c **** 
 531:Source/tasks.c **** /*
 532:Source/tasks.c ****  * Set xNextTaskUnblockTime to the time at which the next Blocked state task
 533:Source/tasks.c ****  * will exit the Blocked state.
 534:Source/tasks.c ****  */
 535:Source/tasks.c **** static void prvResetNextTaskUnblockTime( void );
 536:Source/tasks.c **** 
 537:Source/tasks.c **** #if ( ( configUSE_TRACE_FACILITY == 1 ) && ( configUSE_STATS_FORMATTING_FUNCTIONS > 0 ) )
 538:Source/tasks.c **** 
 539:Source/tasks.c **** 	/*
 540:Source/tasks.c **** 	 * Helper function used to pad task names with spaces when printing out
 541:Source/tasks.c **** 	 * human readable tables of task information.
 542:Source/tasks.c **** 	 */
 543:Source/tasks.c **** 	static char *prvWriteNameToBuffer( char *pcBuffer, const char *pcTaskName ) PRIVILEGED_FUNCTION;
 544:Source/tasks.c **** 
 545:Source/tasks.c **** #endif
 546:Source/tasks.c **** 
 547:Source/tasks.c **** /*
 548:Source/tasks.c ****  * Called after a Task_t structure has been allocated either statically or
 549:Source/tasks.c ****  * dynamically to fill in the structure's members.
 550:Source/tasks.c ****  */
 551:Source/tasks.c **** static void prvInitialiseNewTask( 	TaskFunction_t pxTaskCode,
 552:Source/tasks.c **** 									const char * const pcName, 		/*lint !e971 Unqualified char types are allowed for strings a
 553:Source/tasks.c **** 									const uint32_t ulStackDepth,
 554:Source/tasks.c **** 									void * const pvParameters,
 555:Source/tasks.c **** 									UBaseType_t uxPriority,
 556:Source/tasks.c **** 									TaskHandle_t * const pxCreatedTask,
 557:Source/tasks.c **** 									TCB_t *pxNewTCB,
 558:Source/tasks.c **** 									const MemoryRegion_t * const xRegions ) PRIVILEGED_FUNCTION;
 559:Source/tasks.c **** 
 560:Source/tasks.c **** /*
 561:Source/tasks.c ****  * Called after a new task has been created and initialised to place the task
 562:Source/tasks.c ****  * under the control of the scheduler.
 563:Source/tasks.c ****  */
 564:Source/tasks.c **** static void prvAddNewTaskToReadyList( TCB_t *pxNewTCB ) PRIVILEGED_FUNCTION;
 565:Source/tasks.c **** 
 566:Source/tasks.c **** /*
ARM GAS  C:\Users\mikke\AppData\Local\Temp\ccIUnQd7.s 			page 13


 567:Source/tasks.c ****  * freertos_tasks_c_additions_init() should only be called if the user definable
 568:Source/tasks.c ****  * macro FREERTOS_TASKS_C_ADDITIONS_INIT() is defined, as that is the only macro
 569:Source/tasks.c ****  * called by the function.
 570:Source/tasks.c ****  */
 571:Source/tasks.c **** #ifdef FREERTOS_TASKS_C_ADDITIONS_INIT
 572:Source/tasks.c **** 
 573:Source/tasks.c **** 	static void freertos_tasks_c_additions_init( void ) PRIVILEGED_FUNCTION;
 574:Source/tasks.c **** 
 575:Source/tasks.c **** #endif
 576:Source/tasks.c **** 
 577:Source/tasks.c **** /*-----------------------------------------------------------*/
 578:Source/tasks.c **** 
 579:Source/tasks.c **** #if( configSUPPORT_STATIC_ALLOCATION == 1 )
 580:Source/tasks.c **** 
 581:Source/tasks.c **** 	TaskHandle_t xTaskCreateStatic(	TaskFunction_t pxTaskCode,
 582:Source/tasks.c **** 									const char * const pcName,		/*lint !e971 Unqualified char types are allowed for strings an
 583:Source/tasks.c **** 									const uint32_t ulStackDepth,
 584:Source/tasks.c **** 									void * const pvParameters,
 585:Source/tasks.c **** 									UBaseType_t uxPriority,
 586:Source/tasks.c **** 									StackType_t * const puxStackBuffer,
 587:Source/tasks.c **** 									StaticTask_t * const pxTaskBuffer )
 588:Source/tasks.c **** 	{
 589:Source/tasks.c **** 	TCB_t *pxNewTCB;
 590:Source/tasks.c **** 	TaskHandle_t xReturn;
 591:Source/tasks.c **** 
 592:Source/tasks.c **** 		configASSERT( puxStackBuffer != NULL );
 593:Source/tasks.c **** 		configASSERT( pxTaskBuffer != NULL );
 594:Source/tasks.c **** 
 595:Source/tasks.c **** 		#if( configASSERT_DEFINED == 1 )
 596:Source/tasks.c **** 		{
 597:Source/tasks.c **** 			/* Sanity check that the size of the structure used to declare a
 598:Source/tasks.c **** 			variable of type StaticTask_t equals the size of the real task
 599:Source/tasks.c **** 			structure. */
 600:Source/tasks.c **** 			volatile size_t xSize = sizeof( StaticTask_t );
 601:Source/tasks.c **** 			configASSERT( xSize == sizeof( TCB_t ) );
 602:Source/tasks.c **** 			( void ) xSize; /* Prevent lint warning when configASSERT() is not used. */
 603:Source/tasks.c **** 		}
 604:Source/tasks.c **** 		#endif /* configASSERT_DEFINED */
 605:Source/tasks.c **** 
 606:Source/tasks.c **** 
 607:Source/tasks.c **** 		if( ( pxTaskBuffer != NULL ) && ( puxStackBuffer != NULL ) )
 608:Source/tasks.c **** 		{
 609:Source/tasks.c **** 			/* The memory used for the task's TCB and stack are passed into this
 610:Source/tasks.c **** 			function - use them. */
 611:Source/tasks.c **** 			pxNewTCB = ( TCB_t * ) pxTaskBuffer; /*lint !e740 !e9087 Unusual cast is ok as the structures ar
 612:Source/tasks.c **** 			pxNewTCB->pxStack = ( StackType_t * ) puxStackBuffer;
 613:Source/tasks.c **** 
 614:Source/tasks.c **** 			#if( tskSTATIC_AND_DYNAMIC_ALLOCATION_POSSIBLE != 0 ) /*lint !e731 !e9029 Macro has been consoli
 615:Source/tasks.c **** 			{
 616:Source/tasks.c **** 				/* Tasks can be created statically or dynamically, so note this
 617:Source/tasks.c **** 				task was created statically in case the task is later deleted. */
 618:Source/tasks.c **** 				pxNewTCB->ucStaticallyAllocated = tskSTATICALLY_ALLOCATED_STACK_AND_TCB;
 619:Source/tasks.c **** 			}
 620:Source/tasks.c **** 			#endif /* tskSTATIC_AND_DYNAMIC_ALLOCATION_POSSIBLE */
 621:Source/tasks.c **** 
 622:Source/tasks.c **** 			prvInitialiseNewTask( pxTaskCode, pcName, ulStackDepth, pvParameters, uxPriority, &xReturn, pxNe
 623:Source/tasks.c **** 			prvAddNewTaskToReadyList( pxNewTCB );
ARM GAS  C:\Users\mikke\AppData\Local\Temp\ccIUnQd7.s 			page 14


 624:Source/tasks.c **** 		}
 625:Source/tasks.c **** 		else
 626:Source/tasks.c **** 		{
 627:Source/tasks.c **** 			xReturn = NULL;
 628:Source/tasks.c **** 		}
 629:Source/tasks.c **** 
 630:Source/tasks.c **** 		return xReturn;
 631:Source/tasks.c **** 	}
 632:Source/tasks.c **** 
 633:Source/tasks.c **** #endif /* SUPPORT_STATIC_ALLOCATION */
 634:Source/tasks.c **** /*-----------------------------------------------------------*/
 635:Source/tasks.c **** 
 636:Source/tasks.c **** #if( ( portUSING_MPU_WRAPPERS == 1 ) && ( configSUPPORT_STATIC_ALLOCATION == 1 ) )
 637:Source/tasks.c **** 
 638:Source/tasks.c **** 	BaseType_t xTaskCreateRestrictedStatic( const TaskParameters_t * const pxTaskDefinition, TaskHandl
 639:Source/tasks.c **** 	{
 640:Source/tasks.c **** 	TCB_t *pxNewTCB;
 641:Source/tasks.c **** 	BaseType_t xReturn = errCOULD_NOT_ALLOCATE_REQUIRED_MEMORY;
 642:Source/tasks.c **** 
 643:Source/tasks.c **** 		configASSERT( pxTaskDefinition->puxStackBuffer != NULL );
 644:Source/tasks.c **** 		configASSERT( pxTaskDefinition->pxTaskBuffer != NULL );
 645:Source/tasks.c **** 
 646:Source/tasks.c **** 		if( ( pxTaskDefinition->puxStackBuffer != NULL ) && ( pxTaskDefinition->pxTaskBuffer != NULL ) )
 647:Source/tasks.c **** 		{
 648:Source/tasks.c **** 			/* Allocate space for the TCB.  Where the memory comes from depends
 649:Source/tasks.c **** 			on the implementation of the port malloc function and whether or
 650:Source/tasks.c **** 			not static allocation is being used. */
 651:Source/tasks.c **** 			pxNewTCB = ( TCB_t * ) pxTaskDefinition->pxTaskBuffer;
 652:Source/tasks.c **** 
 653:Source/tasks.c **** 			/* Store the stack location in the TCB. */
 654:Source/tasks.c **** 			pxNewTCB->pxStack = pxTaskDefinition->puxStackBuffer;
 655:Source/tasks.c **** 
 656:Source/tasks.c **** 			#if( tskSTATIC_AND_DYNAMIC_ALLOCATION_POSSIBLE != 0 )
 657:Source/tasks.c **** 			{
 658:Source/tasks.c **** 				/* Tasks can be created statically or dynamically, so note this
 659:Source/tasks.c **** 				task was created statically in case the task is later deleted. */
 660:Source/tasks.c **** 				pxNewTCB->ucStaticallyAllocated = tskSTATICALLY_ALLOCATED_STACK_AND_TCB;
 661:Source/tasks.c **** 			}
 662:Source/tasks.c **** 			#endif /* tskSTATIC_AND_DYNAMIC_ALLOCATION_POSSIBLE */
 663:Source/tasks.c **** 
 664:Source/tasks.c **** 			prvInitialiseNewTask(	pxTaskDefinition->pvTaskCode,
 665:Source/tasks.c **** 									pxTaskDefinition->pcName,
 666:Source/tasks.c **** 									( uint32_t ) pxTaskDefinition->usStackDepth,
 667:Source/tasks.c **** 									pxTaskDefinition->pvParameters,
 668:Source/tasks.c **** 									pxTaskDefinition->uxPriority,
 669:Source/tasks.c **** 									pxCreatedTask, pxNewTCB,
 670:Source/tasks.c **** 									pxTaskDefinition->xRegions );
 671:Source/tasks.c **** 
 672:Source/tasks.c **** 			prvAddNewTaskToReadyList( pxNewTCB );
 673:Source/tasks.c **** 			xReturn = pdPASS;
 674:Source/tasks.c **** 		}
 675:Source/tasks.c **** 
 676:Source/tasks.c **** 		return xReturn;
 677:Source/tasks.c **** 	}
 678:Source/tasks.c **** 
 679:Source/tasks.c **** #endif /* ( portUSING_MPU_WRAPPERS == 1 ) && ( configSUPPORT_STATIC_ALLOCATION == 1 ) */
 680:Source/tasks.c **** /*-----------------------------------------------------------*/
ARM GAS  C:\Users\mikke\AppData\Local\Temp\ccIUnQd7.s 			page 15


 681:Source/tasks.c **** 
 682:Source/tasks.c **** #if( ( portUSING_MPU_WRAPPERS == 1 ) && ( configSUPPORT_DYNAMIC_ALLOCATION == 1 ) )
 683:Source/tasks.c **** 
 684:Source/tasks.c **** 	BaseType_t xTaskCreateRestricted( const TaskParameters_t * const pxTaskDefinition, TaskHandle_t *p
 685:Source/tasks.c **** 	{
 686:Source/tasks.c **** 	TCB_t *pxNewTCB;
 687:Source/tasks.c **** 	BaseType_t xReturn = errCOULD_NOT_ALLOCATE_REQUIRED_MEMORY;
 688:Source/tasks.c **** 
 689:Source/tasks.c **** 		configASSERT( pxTaskDefinition->puxStackBuffer );
 690:Source/tasks.c **** 
 691:Source/tasks.c **** 		if( pxTaskDefinition->puxStackBuffer != NULL )
 692:Source/tasks.c **** 		{
 693:Source/tasks.c **** 			/* Allocate space for the TCB.  Where the memory comes from depends
 694:Source/tasks.c **** 			on the implementation of the port malloc function and whether or
 695:Source/tasks.c **** 			not static allocation is being used. */
 696:Source/tasks.c **** 			pxNewTCB = ( TCB_t * ) pvPortMalloc( sizeof( TCB_t ) );
 697:Source/tasks.c **** 
 698:Source/tasks.c **** 			if( pxNewTCB != NULL )
 699:Source/tasks.c **** 			{
 700:Source/tasks.c **** 				/* Store the stack location in the TCB. */
 701:Source/tasks.c **** 				pxNewTCB->pxStack = pxTaskDefinition->puxStackBuffer;
 702:Source/tasks.c **** 
 703:Source/tasks.c **** 				#if( tskSTATIC_AND_DYNAMIC_ALLOCATION_POSSIBLE != 0 )
 704:Source/tasks.c **** 				{
 705:Source/tasks.c **** 					/* Tasks can be created statically or dynamically, so note
 706:Source/tasks.c **** 					this task had a statically allocated stack in case it is
 707:Source/tasks.c **** 					later deleted.  The TCB was allocated dynamically. */
 708:Source/tasks.c **** 					pxNewTCB->ucStaticallyAllocated = tskSTATICALLY_ALLOCATED_STACK_ONLY;
 709:Source/tasks.c **** 				}
 710:Source/tasks.c **** 				#endif /* tskSTATIC_AND_DYNAMIC_ALLOCATION_POSSIBLE */
 711:Source/tasks.c **** 
 712:Source/tasks.c **** 				prvInitialiseNewTask(	pxTaskDefinition->pvTaskCode,
 713:Source/tasks.c **** 										pxTaskDefinition->pcName,
 714:Source/tasks.c **** 										( uint32_t ) pxTaskDefinition->usStackDepth,
 715:Source/tasks.c **** 										pxTaskDefinition->pvParameters,
 716:Source/tasks.c **** 										pxTaskDefinition->uxPriority,
 717:Source/tasks.c **** 										pxCreatedTask, pxNewTCB,
 718:Source/tasks.c **** 										pxTaskDefinition->xRegions );
 719:Source/tasks.c **** 
 720:Source/tasks.c **** 				prvAddNewTaskToReadyList( pxNewTCB );
 721:Source/tasks.c **** 				xReturn = pdPASS;
 722:Source/tasks.c **** 			}
 723:Source/tasks.c **** 		}
 724:Source/tasks.c **** 
 725:Source/tasks.c **** 		return xReturn;
 726:Source/tasks.c **** 	}
 727:Source/tasks.c **** 
 728:Source/tasks.c **** #endif /* portUSING_MPU_WRAPPERS */
 729:Source/tasks.c **** /*-----------------------------------------------------------*/
 730:Source/tasks.c **** 
 731:Source/tasks.c **** #if( configSUPPORT_DYNAMIC_ALLOCATION == 1 )
 732:Source/tasks.c **** 
 733:Source/tasks.c **** 	BaseType_t xTaskCreate(	TaskFunction_t pxTaskCode,
 734:Source/tasks.c **** 							const char * const pcName,		/*lint !e971 Unqualified char types are allowed for strings and 
 735:Source/tasks.c **** 							const configSTACK_DEPTH_TYPE usStackDepth,
 736:Source/tasks.c **** 							void * const pvParameters,
 737:Source/tasks.c **** 							UBaseType_t uxPriority,
ARM GAS  C:\Users\mikke\AppData\Local\Temp\ccIUnQd7.s 			page 16


 738:Source/tasks.c **** 							TaskHandle_t * const pxCreatedTask )
 739:Source/tasks.c **** 	{
  95              		.loc 1 739 0
  96              		.cfi_startproc
  97              		@ args = 8, pretend = 0, frame = 32
  98              		@ frame_needed = 1, uses_anonymous_args = 0
  99 0000 80B5     		push	{r7, lr}
 100              		.cfi_def_cfa_offset 8
 101              		.cfi_offset 7, -8
 102              		.cfi_offset 14, -4
 103 0002 8CB0     		sub	sp, sp, #48
 104              		.cfi_def_cfa_offset 56
 105 0004 04AF     		add	r7, sp, #16
 106              		.cfi_def_cfa 7, 40
 107 0006 F860     		str	r0, [r7, #12]
 108 0008 B960     		str	r1, [r7, #8]
 109 000a 3B60     		str	r3, [r7]
 110 000c 1346     		mov	r3, r2	@ movhi
 111 000e FB80     		strh	r3, [r7, #6]	@ movhi
 112              	.LBB27:
 740:Source/tasks.c **** 	TCB_t *pxNewTCB;
 741:Source/tasks.c **** 	BaseType_t xReturn;
 742:Source/tasks.c **** 
 743:Source/tasks.c **** 		/* If the stack grows down then allocate the stack then the TCB so the stack
 744:Source/tasks.c **** 		does not grow into the TCB.  Likewise if the stack grows up then allocate
 745:Source/tasks.c **** 		the TCB then the stack. */
 746:Source/tasks.c **** 		#if( portSTACK_GROWTH > 0 )
 747:Source/tasks.c **** 		{
 748:Source/tasks.c **** 			/* Allocate space for the TCB.  Where the memory comes from depends on
 749:Source/tasks.c **** 			the implementation of the port malloc function and whether or not static
 750:Source/tasks.c **** 			allocation is being used. */
 751:Source/tasks.c **** 			pxNewTCB = ( TCB_t * ) pvPortMalloc( sizeof( TCB_t ) );
 752:Source/tasks.c **** 
 753:Source/tasks.c **** 			if( pxNewTCB != NULL )
 754:Source/tasks.c **** 			{
 755:Source/tasks.c **** 				/* Allocate space for the stack used by the task being created.
 756:Source/tasks.c **** 				The base of the stack memory stored in the TCB so the task can
 757:Source/tasks.c **** 				be deleted later if required. */
 758:Source/tasks.c **** 				pxNewTCB->pxStack = ( StackType_t * ) pvPortMalloc( ( ( ( size_t ) usStackDepth ) * sizeof( Sta
 759:Source/tasks.c **** 
 760:Source/tasks.c **** 				if( pxNewTCB->pxStack == NULL )
 761:Source/tasks.c **** 				{
 762:Source/tasks.c **** 					/* Could not allocate the stack.  Delete the allocated TCB. */
 763:Source/tasks.c **** 					vPortFree( pxNewTCB );
 764:Source/tasks.c **** 					pxNewTCB = NULL;
 765:Source/tasks.c **** 				}
 766:Source/tasks.c **** 			}
 767:Source/tasks.c **** 		}
 768:Source/tasks.c **** 		#else /* portSTACK_GROWTH */
 769:Source/tasks.c **** 		{
 770:Source/tasks.c **** 		StackType_t *pxStack;
 771:Source/tasks.c **** 
 772:Source/tasks.c **** 			/* Allocate space for the stack used by the task being created. */
 773:Source/tasks.c **** 			pxStack = pvPortMalloc( ( ( ( size_t ) usStackDepth ) * sizeof( StackType_t ) ) ); /*lint !e9079
 113              		.loc 1 773 0
 114 0010 FB88     		ldrh	r3, [r7, #6]
 115 0012 9B00     		lsls	r3, r3, #2
ARM GAS  C:\Users\mikke\AppData\Local\Temp\ccIUnQd7.s 			page 17


 116 0014 1846     		mov	r0, r3
 117 0016 FFF7FEFF 		bl	pvPortMalloc
 118 001a 7861     		str	r0, [r7, #20]
 774:Source/tasks.c **** 
 775:Source/tasks.c **** 			if( pxStack != NULL )
 119              		.loc 1 775 0
 120 001c 7B69     		ldr	r3, [r7, #20]
 121 001e 002B     		cmp	r3, #0
 122 0020 0ED0     		beq	.L2
 776:Source/tasks.c **** 			{
 777:Source/tasks.c **** 				/* Allocate space for the TCB. */
 778:Source/tasks.c **** 				pxNewTCB = ( TCB_t * ) pvPortMalloc( sizeof( TCB_t ) ); /*lint !e9087 !e9079 All values returne
 123              		.loc 1 778 0
 124 0022 5020     		movs	r0, #80
 125 0024 FFF7FEFF 		bl	pvPortMalloc
 126 0028 F861     		str	r0, [r7, #28]
 779:Source/tasks.c **** 
 780:Source/tasks.c **** 				if( pxNewTCB != NULL )
 127              		.loc 1 780 0
 128 002a FB69     		ldr	r3, [r7, #28]
 129 002c 002B     		cmp	r3, #0
 130 002e 03D0     		beq	.L3
 781:Source/tasks.c **** 				{
 782:Source/tasks.c **** 					/* Store the stack location in the TCB. */
 783:Source/tasks.c **** 					pxNewTCB->pxStack = pxStack;
 131              		.loc 1 783 0
 132 0030 FB69     		ldr	r3, [r7, #28]
 133 0032 7A69     		ldr	r2, [r7, #20]
 134 0034 1A63     		str	r2, [r3, #48]
 135 0036 05E0     		b	.L5
 136              	.L3:
 784:Source/tasks.c **** 				}
 785:Source/tasks.c **** 				else
 786:Source/tasks.c **** 				{
 787:Source/tasks.c **** 					/* The stack cannot be used as the TCB was not created.  Free
 788:Source/tasks.c **** 					it again. */
 789:Source/tasks.c **** 					vPortFree( pxStack );
 137              		.loc 1 789 0
 138 0038 7869     		ldr	r0, [r7, #20]
 139 003a FFF7FEFF 		bl	vPortFree
 140 003e 01E0     		b	.L5
 141              	.L2:
 790:Source/tasks.c **** 				}
 791:Source/tasks.c **** 			}
 792:Source/tasks.c **** 			else
 793:Source/tasks.c **** 			{
 794:Source/tasks.c **** 				pxNewTCB = NULL;
 142              		.loc 1 794 0
 143 0040 0023     		movs	r3, #0
 144 0042 FB61     		str	r3, [r7, #28]
 145              	.L5:
 146              	.LBE27:
 795:Source/tasks.c **** 			}
 796:Source/tasks.c **** 		}
 797:Source/tasks.c **** 		#endif /* portSTACK_GROWTH */
 798:Source/tasks.c **** 
 799:Source/tasks.c **** 		if( pxNewTCB != NULL )
ARM GAS  C:\Users\mikke\AppData\Local\Temp\ccIUnQd7.s 			page 18


 147              		.loc 1 799 0
 148 0044 FB69     		ldr	r3, [r7, #28]
 149 0046 002B     		cmp	r3, #0
 150 0048 13D0     		beq	.L6
 800:Source/tasks.c **** 		{
 801:Source/tasks.c **** 			#if( tskSTATIC_AND_DYNAMIC_ALLOCATION_POSSIBLE != 0 ) /*lint !e9029 !e731 Macro has been consoli
 802:Source/tasks.c **** 			{
 803:Source/tasks.c **** 				/* Tasks can be created statically or dynamically, so note this
 804:Source/tasks.c **** 				task was created dynamically in case it is later deleted. */
 805:Source/tasks.c **** 				pxNewTCB->ucStaticallyAllocated = tskDYNAMICALLY_ALLOCATED_STACK_AND_TCB;
 806:Source/tasks.c **** 			}
 807:Source/tasks.c **** 			#endif /* tskSTATIC_AND_DYNAMIC_ALLOCATION_POSSIBLE */
 808:Source/tasks.c **** 
 809:Source/tasks.c **** 			prvInitialiseNewTask( pxTaskCode, pcName, ( uint32_t ) usStackDepth, pvParameters, uxPriority, p
 151              		.loc 1 809 0
 152 004a FA88     		ldrh	r2, [r7, #6]
 153 004c 0023     		movs	r3, #0
 154 004e 0393     		str	r3, [sp, #12]
 155 0050 FB69     		ldr	r3, [r7, #28]
 156 0052 0293     		str	r3, [sp, #8]
 157 0054 FB6A     		ldr	r3, [r7, #44]
 158 0056 0193     		str	r3, [sp, #4]
 159 0058 BB6A     		ldr	r3, [r7, #40]
 160 005a 0093     		str	r3, [sp]
 161 005c 3B68     		ldr	r3, [r7]
 162 005e B968     		ldr	r1, [r7, #8]
 163 0060 F868     		ldr	r0, [r7, #12]
 164 0062 FFF7FEFF 		bl	prvInitialiseNewTask
 810:Source/tasks.c **** 			prvAddNewTaskToReadyList( pxNewTCB );
 165              		.loc 1 810 0
 166 0066 F869     		ldr	r0, [r7, #28]
 167 0068 FFF7FEFF 		bl	prvAddNewTaskToReadyList
 811:Source/tasks.c **** 			xReturn = pdPASS;
 168              		.loc 1 811 0
 169 006c 0123     		movs	r3, #1
 170 006e BB61     		str	r3, [r7, #24]
 171 0070 02E0     		b	.L7
 172              	.L6:
 812:Source/tasks.c **** 		}
 813:Source/tasks.c **** 		else
 814:Source/tasks.c **** 		{
 815:Source/tasks.c **** 			xReturn = errCOULD_NOT_ALLOCATE_REQUIRED_MEMORY;
 173              		.loc 1 815 0
 174 0072 4FF0FF33 		mov	r3, #-1
 175 0076 BB61     		str	r3, [r7, #24]
 176              	.L7:
 816:Source/tasks.c **** 		}
 817:Source/tasks.c **** 
 818:Source/tasks.c **** 		return xReturn;
 177              		.loc 1 818 0
 178 0078 BB69     		ldr	r3, [r7, #24]
 819:Source/tasks.c **** 	}
 179              		.loc 1 819 0
 180 007a 1846     		mov	r0, r3
 181 007c 2037     		adds	r7, r7, #32
 182              		.cfi_def_cfa_offset 8
 183 007e BD46     		mov	sp, r7
ARM GAS  C:\Users\mikke\AppData\Local\Temp\ccIUnQd7.s 			page 19


 184              		.cfi_def_cfa_register 13
 185              		@ sp needed
 186 0080 80BD     		pop	{r7, pc}
 187              		.cfi_endproc
 188              	.LFE68:
 189              		.size	xTaskCreate, .-xTaskCreate
 190 0082 00BF     		.section	.text.prvInitialiseNewTask,"ax",%progbits
 191              		.align	2
 192              		.thumb
 193              		.thumb_func
 194              		.type	prvInitialiseNewTask, %function
 195              	prvInitialiseNewTask:
 196              	.LFB69:
 820:Source/tasks.c **** 
 821:Source/tasks.c **** #endif /* configSUPPORT_DYNAMIC_ALLOCATION */
 822:Source/tasks.c **** /*-----------------------------------------------------------*/
 823:Source/tasks.c **** 
 824:Source/tasks.c **** static void prvInitialiseNewTask( 	TaskFunction_t pxTaskCode,
 825:Source/tasks.c **** 									const char * const pcName,		/*lint !e971 Unqualified char types are allowed for strings an
 826:Source/tasks.c **** 									const uint32_t ulStackDepth,
 827:Source/tasks.c **** 									void * const pvParameters,
 828:Source/tasks.c **** 									UBaseType_t uxPriority,
 829:Source/tasks.c **** 									TaskHandle_t * const pxCreatedTask,
 830:Source/tasks.c **** 									TCB_t *pxNewTCB,
 831:Source/tasks.c **** 									const MemoryRegion_t * const xRegions )
 832:Source/tasks.c **** {
 197              		.loc 1 832 0
 198              		.cfi_startproc
 199              		@ args = 16, pretend = 0, frame = 24
 200              		@ frame_needed = 1, uses_anonymous_args = 0
 201 0000 80B5     		push	{r7, lr}
 202              		.cfi_def_cfa_offset 8
 203              		.cfi_offset 7, -8
 204              		.cfi_offset 14, -4
 205 0002 86B0     		sub	sp, sp, #24
 206              		.cfi_def_cfa_offset 32
 207 0004 00AF     		add	r7, sp, #0
 208              		.cfi_def_cfa_register 7
 209 0006 F860     		str	r0, [r7, #12]
 210 0008 B960     		str	r1, [r7, #8]
 211 000a 7A60     		str	r2, [r7, #4]
 212 000c 3B60     		str	r3, [r7]
 833:Source/tasks.c **** StackType_t *pxTopOfStack;
 834:Source/tasks.c **** UBaseType_t x;
 835:Source/tasks.c **** 
 836:Source/tasks.c **** 	#if( portUSING_MPU_WRAPPERS == 1 )
 837:Source/tasks.c **** 		/* Should the task be created in privileged mode? */
 838:Source/tasks.c **** 		BaseType_t xRunPrivileged;
 839:Source/tasks.c **** 		if( ( uxPriority & portPRIVILEGE_BIT ) != 0U )
 840:Source/tasks.c **** 		{
 841:Source/tasks.c **** 			xRunPrivileged = pdTRUE;
 842:Source/tasks.c **** 		}
 843:Source/tasks.c **** 		else
 844:Source/tasks.c **** 		{
 845:Source/tasks.c **** 			xRunPrivileged = pdFALSE;
 846:Source/tasks.c **** 		}
 847:Source/tasks.c **** 		uxPriority &= ~portPRIVILEGE_BIT;
ARM GAS  C:\Users\mikke\AppData\Local\Temp\ccIUnQd7.s 			page 20


 848:Source/tasks.c **** 	#endif /* portUSING_MPU_WRAPPERS == 1 */
 849:Source/tasks.c **** 
 850:Source/tasks.c **** 	/* Avoid dependency on memset() if it is not required. */
 851:Source/tasks.c **** 	#if( tskSET_NEW_STACKS_TO_KNOWN_VALUE == 1 )
 852:Source/tasks.c **** 	{
 853:Source/tasks.c **** 		/* Fill the stack with a known value to assist debugging. */
 854:Source/tasks.c **** 		( void ) memset( pxNewTCB->pxStack, ( int ) tskSTACK_FILL_BYTE, ( size_t ) ulStackDepth * sizeof(
 213              		.loc 1 854 0
 214 000e BB6A     		ldr	r3, [r7, #40]
 215 0010 186B     		ldr	r0, [r3, #48]
 216 0012 7B68     		ldr	r3, [r7, #4]
 217 0014 9B00     		lsls	r3, r3, #2
 218 0016 1A46     		mov	r2, r3
 219 0018 A521     		movs	r1, #165
 220 001a FFF7FEFF 		bl	memset
 855:Source/tasks.c **** 	}
 856:Source/tasks.c **** 	#endif /* tskSET_NEW_STACKS_TO_KNOWN_VALUE */
 857:Source/tasks.c **** 
 858:Source/tasks.c **** 	/* Calculate the top of stack address.  This depends on whether the stack
 859:Source/tasks.c **** 	grows from high memory to low (as per the 80x86) or vice versa.
 860:Source/tasks.c **** 	portSTACK_GROWTH is used to make the result positive or negative as required
 861:Source/tasks.c **** 	by the port. */
 862:Source/tasks.c **** 	#if( portSTACK_GROWTH < 0 )
 863:Source/tasks.c **** 	{
 864:Source/tasks.c **** 		pxTopOfStack = &( pxNewTCB->pxStack[ ulStackDepth - ( uint32_t ) 1 ] );
 221              		.loc 1 864 0
 222 001e BB6A     		ldr	r3, [r7, #40]
 223 0020 1A6B     		ldr	r2, [r3, #48]
 224 0022 7B68     		ldr	r3, [r7, #4]
 225 0024 03F18043 		add	r3, r3, #1073741824
 226 0028 013B     		subs	r3, r3, #1
 227 002a 9B00     		lsls	r3, r3, #2
 228 002c 1344     		add	r3, r3, r2
 229 002e 3B61     		str	r3, [r7, #16]
 865:Source/tasks.c **** 		pxTopOfStack = ( StackType_t * ) ( ( ( portPOINTER_SIZE_TYPE ) pxTopOfStack ) & ( ~( ( portPOINTE
 230              		.loc 1 865 0
 231 0030 3B69     		ldr	r3, [r7, #16]
 232 0032 23F00703 		bic	r3, r3, #7
 233 0036 3B61     		str	r3, [r7, #16]
 866:Source/tasks.c **** 
 867:Source/tasks.c **** 		/* Check the alignment of the calculated top of stack is correct. */
 868:Source/tasks.c **** 		configASSERT( ( ( ( portPOINTER_SIZE_TYPE ) pxTopOfStack & ( portPOINTER_SIZE_TYPE ) portBYTE_ALI
 869:Source/tasks.c **** 
 870:Source/tasks.c **** 		#if( configRECORD_STACK_HIGH_ADDRESS == 1 )
 871:Source/tasks.c **** 		{
 872:Source/tasks.c **** 			/* Also record the stack's high address, which may assist
 873:Source/tasks.c **** 			debugging. */
 874:Source/tasks.c **** 			pxNewTCB->pxEndOfStack = pxTopOfStack;
 875:Source/tasks.c **** 		}
 876:Source/tasks.c **** 		#endif /* configRECORD_STACK_HIGH_ADDRESS */
 877:Source/tasks.c **** 	}
 878:Source/tasks.c **** 	#else /* portSTACK_GROWTH */
 879:Source/tasks.c **** 	{
 880:Source/tasks.c **** 		pxTopOfStack = pxNewTCB->pxStack;
 881:Source/tasks.c **** 
 882:Source/tasks.c **** 		/* Check the alignment of the stack buffer is correct. */
 883:Source/tasks.c **** 		configASSERT( ( ( ( portPOINTER_SIZE_TYPE ) pxNewTCB->pxStack & ( portPOINTER_SIZE_TYPE ) portBYT
ARM GAS  C:\Users\mikke\AppData\Local\Temp\ccIUnQd7.s 			page 21


 884:Source/tasks.c **** 
 885:Source/tasks.c **** 		/* The other extreme of the stack space is required if stack checking is
 886:Source/tasks.c **** 		performed. */
 887:Source/tasks.c **** 		pxNewTCB->pxEndOfStack = pxNewTCB->pxStack + ( ulStackDepth - ( uint32_t ) 1 );
 888:Source/tasks.c **** 	}
 889:Source/tasks.c **** 	#endif /* portSTACK_GROWTH */
 890:Source/tasks.c **** 
 891:Source/tasks.c **** 	/* Store the task name in the TCB. */
 892:Source/tasks.c **** 	if( pcName != NULL )
 234              		.loc 1 892 0
 235 0038 BB68     		ldr	r3, [r7, #8]
 236 003a 002B     		cmp	r3, #0
 237 003c 1FD0     		beq	.L10
 893:Source/tasks.c **** 	{
 894:Source/tasks.c **** 		for( x = ( UBaseType_t ) 0; x < ( UBaseType_t ) configMAX_TASK_NAME_LEN; x++ )
 238              		.loc 1 894 0
 239 003e 0023     		movs	r3, #0
 240 0040 7B61     		str	r3, [r7, #20]
 241 0042 12E0     		b	.L11
 242              	.L14:
 895:Source/tasks.c **** 		{
 896:Source/tasks.c **** 			pxNewTCB->pcTaskName[ x ] = pcName[ x ];
 243              		.loc 1 896 0
 244 0044 BA68     		ldr	r2, [r7, #8]
 245 0046 7B69     		ldr	r3, [r7, #20]
 246 0048 1344     		add	r3, r3, r2
 247 004a 1978     		ldrb	r1, [r3]	@ zero_extendqisi2
 248 004c BA6A     		ldr	r2, [r7, #40]
 249 004e 7B69     		ldr	r3, [r7, #20]
 250 0050 1344     		add	r3, r3, r2
 251 0052 3433     		adds	r3, r3, #52
 252 0054 0A46     		mov	r2, r1
 253 0056 1A70     		strb	r2, [r3]
 897:Source/tasks.c **** 
 898:Source/tasks.c **** 			/* Don't copy all configMAX_TASK_NAME_LEN if the string is shorter than
 899:Source/tasks.c **** 			configMAX_TASK_NAME_LEN characters just in case the memory after the
 900:Source/tasks.c **** 			string is not accessible (extremely unlikely). */
 901:Source/tasks.c **** 			if( pcName[ x ] == ( char ) 0x00 )
 254              		.loc 1 901 0
 255 0058 BA68     		ldr	r2, [r7, #8]
 256 005a 7B69     		ldr	r3, [r7, #20]
 257 005c 1344     		add	r3, r3, r2
 258 005e 1B78     		ldrb	r3, [r3]	@ zero_extendqisi2
 259 0060 002B     		cmp	r3, #0
 260 0062 06D0     		beq	.L18
 894:Source/tasks.c **** 		{
 261              		.loc 1 894 0 discriminator 2
 262 0064 7B69     		ldr	r3, [r7, #20]
 263 0066 0133     		adds	r3, r3, #1
 264 0068 7B61     		str	r3, [r7, #20]
 265              	.L11:
 894:Source/tasks.c **** 		{
 266              		.loc 1 894 0 is_stmt 0 discriminator 1
 267 006a 7B69     		ldr	r3, [r7, #20]
 268 006c 0B2B     		cmp	r3, #11
 269 006e E9D9     		bls	.L14
 270 0070 00E0     		b	.L13
ARM GAS  C:\Users\mikke\AppData\Local\Temp\ccIUnQd7.s 			page 22


 271              	.L18:
 902:Source/tasks.c **** 			{
 903:Source/tasks.c **** 				break;
 272              		.loc 1 903 0 is_stmt 1
 273 0072 00BF     		nop
 274              	.L13:
 904:Source/tasks.c **** 			}
 905:Source/tasks.c **** 			else
 906:Source/tasks.c **** 			{
 907:Source/tasks.c **** 				mtCOVERAGE_TEST_MARKER();
 908:Source/tasks.c **** 			}
 909:Source/tasks.c **** 		}
 910:Source/tasks.c **** 
 911:Source/tasks.c **** 		/* Ensure the name string is terminated in the case that the string length
 912:Source/tasks.c **** 		was greater or equal to configMAX_TASK_NAME_LEN. */
 913:Source/tasks.c **** 		pxNewTCB->pcTaskName[ configMAX_TASK_NAME_LEN - 1 ] = '\0';
 275              		.loc 1 913 0
 276 0074 BB6A     		ldr	r3, [r7, #40]
 277 0076 0022     		movs	r2, #0
 278 0078 83F83F20 		strb	r2, [r3, #63]
 279 007c 03E0     		b	.L15
 280              	.L10:
 914:Source/tasks.c **** 	}
 915:Source/tasks.c **** 	else
 916:Source/tasks.c **** 	{
 917:Source/tasks.c **** 		/* The task has not been given a name, so just ensure there is a NULL
 918:Source/tasks.c **** 		terminator when it is read out. */
 919:Source/tasks.c **** 		pxNewTCB->pcTaskName[ 0 ] = 0x00;
 281              		.loc 1 919 0
 282 007e BB6A     		ldr	r3, [r7, #40]
 283 0080 0022     		movs	r2, #0
 284 0082 83F83420 		strb	r2, [r3, #52]
 285              	.L15:
 920:Source/tasks.c **** 	}
 921:Source/tasks.c **** 
 922:Source/tasks.c **** 	/* This is used as an array index so must ensure it's not too large.  First
 923:Source/tasks.c **** 	remove the privilege bit if one is present. */
 924:Source/tasks.c **** 	if( uxPriority >= ( UBaseType_t ) configMAX_PRIORITIES )
 286              		.loc 1 924 0
 287 0086 3B6A     		ldr	r3, [r7, #32]
 288 0088 042B     		cmp	r3, #4
 289 008a 01D9     		bls	.L16
 925:Source/tasks.c **** 	{
 926:Source/tasks.c **** 		uxPriority = ( UBaseType_t ) configMAX_PRIORITIES - ( UBaseType_t ) 1U;
 290              		.loc 1 926 0
 291 008c 0423     		movs	r3, #4
 292 008e 3B62     		str	r3, [r7, #32]
 293              	.L16:
 927:Source/tasks.c **** 	}
 928:Source/tasks.c **** 	else
 929:Source/tasks.c **** 	{
 930:Source/tasks.c **** 		mtCOVERAGE_TEST_MARKER();
 931:Source/tasks.c **** 	}
 932:Source/tasks.c **** 
 933:Source/tasks.c **** 	pxNewTCB->uxPriority = uxPriority;
 294              		.loc 1 933 0
 295 0090 BB6A     		ldr	r3, [r7, #40]
ARM GAS  C:\Users\mikke\AppData\Local\Temp\ccIUnQd7.s 			page 23


 296 0092 3A6A     		ldr	r2, [r7, #32]
 297 0094 DA62     		str	r2, [r3, #44]
 934:Source/tasks.c **** 	#if ( configUSE_MUTEXES == 1 )
 935:Source/tasks.c **** 	{
 936:Source/tasks.c **** 		pxNewTCB->uxBasePriority = uxPriority;
 298              		.loc 1 936 0
 299 0096 BB6A     		ldr	r3, [r7, #40]
 300 0098 3A6A     		ldr	r2, [r7, #32]
 301 009a 1A64     		str	r2, [r3, #64]
 937:Source/tasks.c **** 		pxNewTCB->uxMutexesHeld = 0;
 302              		.loc 1 937 0
 303 009c BB6A     		ldr	r3, [r7, #40]
 304 009e 0022     		movs	r2, #0
 305 00a0 5A64     		str	r2, [r3, #68]
 938:Source/tasks.c **** 	}
 939:Source/tasks.c **** 	#endif /* configUSE_MUTEXES */
 940:Source/tasks.c **** 
 941:Source/tasks.c **** 	vListInitialiseItem( &( pxNewTCB->xStateListItem ) );
 306              		.loc 1 941 0
 307 00a2 BB6A     		ldr	r3, [r7, #40]
 308 00a4 0433     		adds	r3, r3, #4
 309 00a6 1846     		mov	r0, r3
 310 00a8 FFF7FEFF 		bl	vListInitialiseItem
 942:Source/tasks.c **** 	vListInitialiseItem( &( pxNewTCB->xEventListItem ) );
 311              		.loc 1 942 0
 312 00ac BB6A     		ldr	r3, [r7, #40]
 313 00ae 1833     		adds	r3, r3, #24
 314 00b0 1846     		mov	r0, r3
 315 00b2 FFF7FEFF 		bl	vListInitialiseItem
 943:Source/tasks.c **** 
 944:Source/tasks.c **** 	/* Set the pxNewTCB as a link back from the ListItem_t.  This is so we can get
 945:Source/tasks.c **** 	back to	the containing TCB from a generic item in a list. */
 946:Source/tasks.c **** 	listSET_LIST_ITEM_OWNER( &( pxNewTCB->xStateListItem ), pxNewTCB );
 316              		.loc 1 946 0
 317 00b6 BB6A     		ldr	r3, [r7, #40]
 318 00b8 BA6A     		ldr	r2, [r7, #40]
 319 00ba 1A61     		str	r2, [r3, #16]
 947:Source/tasks.c **** 
 948:Source/tasks.c **** 	/* Event lists are always in priority order. */
 949:Source/tasks.c **** 	listSET_LIST_ITEM_VALUE( &( pxNewTCB->xEventListItem ), ( TickType_t ) configMAX_PRIORITIES - ( Ti
 320              		.loc 1 949 0
 321 00bc 3B6A     		ldr	r3, [r7, #32]
 322 00be C3F10502 		rsb	r2, r3, #5
 323 00c2 BB6A     		ldr	r3, [r7, #40]
 324 00c4 9A61     		str	r2, [r3, #24]
 950:Source/tasks.c **** 	listSET_LIST_ITEM_OWNER( &( pxNewTCB->xEventListItem ), pxNewTCB );
 325              		.loc 1 950 0
 326 00c6 BB6A     		ldr	r3, [r7, #40]
 327 00c8 BA6A     		ldr	r2, [r7, #40]
 328 00ca 5A62     		str	r2, [r3, #36]
 951:Source/tasks.c **** 
 952:Source/tasks.c **** 	#if ( portCRITICAL_NESTING_IN_TCB == 1 )
 953:Source/tasks.c **** 	{
 954:Source/tasks.c **** 		pxNewTCB->uxCriticalNesting = ( UBaseType_t ) 0U;
 955:Source/tasks.c **** 	}
 956:Source/tasks.c **** 	#endif /* portCRITICAL_NESTING_IN_TCB */
 957:Source/tasks.c **** 
ARM GAS  C:\Users\mikke\AppData\Local\Temp\ccIUnQd7.s 			page 24


 958:Source/tasks.c **** 	#if ( configUSE_APPLICATION_TASK_TAG == 1 )
 959:Source/tasks.c **** 	{
 960:Source/tasks.c **** 		pxNewTCB->pxTaskTag = NULL;
 961:Source/tasks.c **** 	}
 962:Source/tasks.c **** 	#endif /* configUSE_APPLICATION_TASK_TAG */
 963:Source/tasks.c **** 
 964:Source/tasks.c **** 	#if ( configGENERATE_RUN_TIME_STATS == 1 )
 965:Source/tasks.c **** 	{
 966:Source/tasks.c **** 		pxNewTCB->ulRunTimeCounter = 0UL;
 967:Source/tasks.c **** 	}
 968:Source/tasks.c **** 	#endif /* configGENERATE_RUN_TIME_STATS */
 969:Source/tasks.c **** 
 970:Source/tasks.c **** 	#if ( portUSING_MPU_WRAPPERS == 1 )
 971:Source/tasks.c **** 	{
 972:Source/tasks.c **** 		vPortStoreTaskMPUSettings( &( pxNewTCB->xMPUSettings ), xRegions, pxNewTCB->pxStack, ulStackDepth
 973:Source/tasks.c **** 	}
 974:Source/tasks.c **** 	#else
 975:Source/tasks.c **** 	{
 976:Source/tasks.c **** 		/* Avoid compiler warning about unreferenced parameter. */
 977:Source/tasks.c **** 		( void ) xRegions;
 978:Source/tasks.c **** 	}
 979:Source/tasks.c **** 	#endif
 980:Source/tasks.c **** 
 981:Source/tasks.c **** 	#if( configNUM_THREAD_LOCAL_STORAGE_POINTERS != 0 )
 982:Source/tasks.c **** 	{
 983:Source/tasks.c **** 		for( x = 0; x < ( UBaseType_t ) configNUM_THREAD_LOCAL_STORAGE_POINTERS; x++ )
 984:Source/tasks.c **** 		{
 985:Source/tasks.c **** 			pxNewTCB->pvThreadLocalStoragePointers[ x ] = NULL;
 986:Source/tasks.c **** 		}
 987:Source/tasks.c **** 	}
 988:Source/tasks.c **** 	#endif
 989:Source/tasks.c **** 
 990:Source/tasks.c **** 	#if ( configUSE_TASK_NOTIFICATIONS == 1 )
 991:Source/tasks.c **** 	{
 992:Source/tasks.c **** 		pxNewTCB->ulNotifiedValue = 0;
 329              		.loc 1 992 0
 330 00cc BB6A     		ldr	r3, [r7, #40]
 331 00ce 0022     		movs	r2, #0
 332 00d0 9A64     		str	r2, [r3, #72]
 993:Source/tasks.c **** 		pxNewTCB->ucNotifyState = taskNOT_WAITING_NOTIFICATION;
 333              		.loc 1 993 0
 334 00d2 BB6A     		ldr	r3, [r7, #40]
 335 00d4 0022     		movs	r2, #0
 336 00d6 83F84C20 		strb	r2, [r3, #76]
 994:Source/tasks.c **** 	}
 995:Source/tasks.c **** 	#endif
 996:Source/tasks.c **** 
 997:Source/tasks.c **** 	#if ( configUSE_NEWLIB_REENTRANT == 1 )
 998:Source/tasks.c **** 	{
 999:Source/tasks.c **** 		/* Initialise this task's Newlib reent structure.
1000:Source/tasks.c **** 		See the third party link http://www.nadler.com/embedded/newlibAndFreeRTOS.html
1001:Source/tasks.c **** 		for additional information. */
1002:Source/tasks.c **** 		_REENT_INIT_PTR( ( &( pxNewTCB->xNewLib_reent ) ) );
1003:Source/tasks.c **** 	}
1004:Source/tasks.c **** 	#endif
1005:Source/tasks.c **** 
1006:Source/tasks.c **** 	#if( INCLUDE_xTaskAbortDelay == 1 )
ARM GAS  C:\Users\mikke\AppData\Local\Temp\ccIUnQd7.s 			page 25


1007:Source/tasks.c **** 	{
1008:Source/tasks.c **** 		pxNewTCB->ucDelayAborted = pdFALSE;
1009:Source/tasks.c **** 	}
1010:Source/tasks.c **** 	#endif
1011:Source/tasks.c **** 
1012:Source/tasks.c **** 	/* Initialize the TCB stack to look as if the task was already running,
1013:Source/tasks.c **** 	but had been interrupted by the scheduler.  The return address is set
1014:Source/tasks.c **** 	to the start of the task function. Once the stack has been initialised
1015:Source/tasks.c **** 	the top of stack variable is updated. */
1016:Source/tasks.c **** 	#if( portUSING_MPU_WRAPPERS == 1 )
1017:Source/tasks.c **** 	{
1018:Source/tasks.c **** 		/* If the port has capability to detect stack overflow,
1019:Source/tasks.c **** 		pass the stack end address to the stack initialization
1020:Source/tasks.c **** 		function as well. */
1021:Source/tasks.c **** 		#if( portHAS_STACK_OVERFLOW_CHECKING == 1 )
1022:Source/tasks.c **** 		{
1023:Source/tasks.c **** 			#if( portSTACK_GROWTH < 0 )
1024:Source/tasks.c **** 			{
1025:Source/tasks.c **** 				pxNewTCB->pxTopOfStack = pxPortInitialiseStack( pxTopOfStack, pxNewTCB->pxStack, pxTaskCode, pv
1026:Source/tasks.c **** 			}
1027:Source/tasks.c **** 			#else /* portSTACK_GROWTH */
1028:Source/tasks.c **** 			{
1029:Source/tasks.c **** 				pxNewTCB->pxTopOfStack = pxPortInitialiseStack( pxTopOfStack, pxNewTCB->pxEndOfStack, pxTaskCod
1030:Source/tasks.c **** 			}
1031:Source/tasks.c **** 			#endif /* portSTACK_GROWTH */
1032:Source/tasks.c **** 		}
1033:Source/tasks.c **** 		#else /* portHAS_STACK_OVERFLOW_CHECKING */
1034:Source/tasks.c **** 		{
1035:Source/tasks.c **** 			pxNewTCB->pxTopOfStack = pxPortInitialiseStack( pxTopOfStack, pxTaskCode, pvParameters, xRunPriv
1036:Source/tasks.c **** 		}
1037:Source/tasks.c **** 		#endif /* portHAS_STACK_OVERFLOW_CHECKING */
1038:Source/tasks.c **** 	}
1039:Source/tasks.c **** 	#else /* portUSING_MPU_WRAPPERS */
1040:Source/tasks.c **** 	{
1041:Source/tasks.c **** 		/* If the port has capability to detect stack overflow,
1042:Source/tasks.c **** 		pass the stack end address to the stack initialization
1043:Source/tasks.c **** 		function as well. */
1044:Source/tasks.c **** 		#if( portHAS_STACK_OVERFLOW_CHECKING == 1 )
1045:Source/tasks.c **** 		{
1046:Source/tasks.c **** 			#if( portSTACK_GROWTH < 0 )
1047:Source/tasks.c **** 			{
1048:Source/tasks.c **** 				pxNewTCB->pxTopOfStack = pxPortInitialiseStack( pxTopOfStack, pxNewTCB->pxStack, pxTaskCode, pv
1049:Source/tasks.c **** 			}
1050:Source/tasks.c **** 			#else /* portSTACK_GROWTH */
1051:Source/tasks.c **** 			{
1052:Source/tasks.c **** 				pxNewTCB->pxTopOfStack = pxPortInitialiseStack( pxTopOfStack, pxNewTCB->pxEndOfStack, pxTaskCod
1053:Source/tasks.c **** 			}
1054:Source/tasks.c **** 			#endif /* portSTACK_GROWTH */
1055:Source/tasks.c **** 		}
1056:Source/tasks.c **** 		#else /* portHAS_STACK_OVERFLOW_CHECKING */
1057:Source/tasks.c **** 		{
1058:Source/tasks.c **** 			pxNewTCB->pxTopOfStack = pxPortInitialiseStack( pxTopOfStack, pxTaskCode, pvParameters );
 337              		.loc 1 1058 0
 338 00da 3A68     		ldr	r2, [r7]
 339 00dc F968     		ldr	r1, [r7, #12]
 340 00de 3869     		ldr	r0, [r7, #16]
 341 00e0 FFF7FEFF 		bl	pxPortInitialiseStack
ARM GAS  C:\Users\mikke\AppData\Local\Temp\ccIUnQd7.s 			page 26


 342 00e4 0246     		mov	r2, r0
 343 00e6 BB6A     		ldr	r3, [r7, #40]
 344 00e8 1A60     		str	r2, [r3]
1059:Source/tasks.c **** 		}
1060:Source/tasks.c **** 		#endif /* portHAS_STACK_OVERFLOW_CHECKING */
1061:Source/tasks.c **** 	}
1062:Source/tasks.c **** 	#endif /* portUSING_MPU_WRAPPERS */
1063:Source/tasks.c **** 
1064:Source/tasks.c **** 	if( pxCreatedTask != NULL )
 345              		.loc 1 1064 0
 346 00ea 7B6A     		ldr	r3, [r7, #36]
 347 00ec 002B     		cmp	r3, #0
 348 00ee 02D0     		beq	.L19
1065:Source/tasks.c **** 	{
1066:Source/tasks.c **** 		/* Pass the handle out in an anonymous way.  The handle can be used to
1067:Source/tasks.c **** 		change the created task's priority, delete the created task, etc.*/
1068:Source/tasks.c **** 		*pxCreatedTask = ( TaskHandle_t ) pxNewTCB;
 349              		.loc 1 1068 0
 350 00f0 7B6A     		ldr	r3, [r7, #36]
 351 00f2 BA6A     		ldr	r2, [r7, #40]
 352 00f4 1A60     		str	r2, [r3]
 353              	.L19:
1069:Source/tasks.c **** 	}
1070:Source/tasks.c **** 	else
1071:Source/tasks.c **** 	{
1072:Source/tasks.c **** 		mtCOVERAGE_TEST_MARKER();
1073:Source/tasks.c **** 	}
1074:Source/tasks.c **** }
 354              		.loc 1 1074 0
 355 00f6 00BF     		nop
 356 00f8 1837     		adds	r7, r7, #24
 357              		.cfi_def_cfa_offset 8
 358 00fa BD46     		mov	sp, r7
 359              		.cfi_def_cfa_register 13
 360              		@ sp needed
 361 00fc 80BD     		pop	{r7, pc}
 362              		.cfi_endproc
 363              	.LFE69:
 364              		.size	prvInitialiseNewTask, .-prvInitialiseNewTask
 365 00fe 00BF     		.section	.text.prvAddNewTaskToReadyList,"ax",%progbits
 366              		.align	2
 367              		.thumb
 368              		.thumb_func
 369              		.type	prvAddNewTaskToReadyList, %function
 370              	prvAddNewTaskToReadyList:
 371              	.LFB70:
1075:Source/tasks.c **** /*-----------------------------------------------------------*/
1076:Source/tasks.c **** 
1077:Source/tasks.c **** static void prvAddNewTaskToReadyList( TCB_t *pxNewTCB )
1078:Source/tasks.c **** {
 372              		.loc 1 1078 0
 373              		.cfi_startproc
 374              		@ args = 0, pretend = 0, frame = 8
 375              		@ frame_needed = 1, uses_anonymous_args = 0
 376 0000 80B5     		push	{r7, lr}
 377              		.cfi_def_cfa_offset 8
 378              		.cfi_offset 7, -8
ARM GAS  C:\Users\mikke\AppData\Local\Temp\ccIUnQd7.s 			page 27


 379              		.cfi_offset 14, -4
 380 0002 82B0     		sub	sp, sp, #8
 381              		.cfi_def_cfa_offset 16
 382 0004 00AF     		add	r7, sp, #0
 383              		.cfi_def_cfa_register 7
 384 0006 7860     		str	r0, [r7, #4]
1079:Source/tasks.c **** 	/* Ensure interrupts don't access the task lists while the lists are being
1080:Source/tasks.c **** 	updated. */
1081:Source/tasks.c **** 	taskENTER_CRITICAL();
 385              		.loc 1 1081 0
 386 0008 FFF7FEFF 		bl	vPortEnterCritical
1082:Source/tasks.c **** 	{
1083:Source/tasks.c **** 		uxCurrentNumberOfTasks++;
 387              		.loc 1 1083 0
 388 000c 2A4B     		ldr	r3, .L25
 389 000e 1B68     		ldr	r3, [r3]
 390 0010 0133     		adds	r3, r3, #1
 391 0012 294A     		ldr	r2, .L25
 392 0014 1360     		str	r3, [r2]
1084:Source/tasks.c **** 		if( pxCurrentTCB == NULL )
 393              		.loc 1 1084 0
 394 0016 294B     		ldr	r3, .L25+4
 395 0018 1B68     		ldr	r3, [r3]
 396 001a 002B     		cmp	r3, #0
 397 001c 09D1     		bne	.L21
1085:Source/tasks.c **** 		{
1086:Source/tasks.c **** 			/* There are no other tasks, or all the other tasks are in
1087:Source/tasks.c **** 			the suspended state - make this the current task. */
1088:Source/tasks.c **** 			pxCurrentTCB = pxNewTCB;
 398              		.loc 1 1088 0
 399 001e 274A     		ldr	r2, .L25+4
 400 0020 7B68     		ldr	r3, [r7, #4]
 401 0022 1360     		str	r3, [r2]
1089:Source/tasks.c **** 
1090:Source/tasks.c **** 			if( uxCurrentNumberOfTasks == ( UBaseType_t ) 1 )
 402              		.loc 1 1090 0
 403 0024 244B     		ldr	r3, .L25
 404 0026 1B68     		ldr	r3, [r3]
 405 0028 012B     		cmp	r3, #1
 406 002a 10D1     		bne	.L22
1091:Source/tasks.c **** 			{
1092:Source/tasks.c **** 				/* This is the first task to be created so do the preliminary
1093:Source/tasks.c **** 				initialisation required.  We will not recover if this call
1094:Source/tasks.c **** 				fails, but we will report the failure. */
1095:Source/tasks.c **** 				prvInitialiseTaskLists();
 407              		.loc 1 1095 0
 408 002c FFF7FEFF 		bl	prvInitialiseTaskLists
 409 0030 0DE0     		b	.L22
 410              	.L21:
1096:Source/tasks.c **** 			}
1097:Source/tasks.c **** 			else
1098:Source/tasks.c **** 			{
1099:Source/tasks.c **** 				mtCOVERAGE_TEST_MARKER();
1100:Source/tasks.c **** 			}
1101:Source/tasks.c **** 		}
1102:Source/tasks.c **** 		else
1103:Source/tasks.c **** 		{
ARM GAS  C:\Users\mikke\AppData\Local\Temp\ccIUnQd7.s 			page 28


1104:Source/tasks.c **** 			/* If the scheduler is not already running, make this task the
1105:Source/tasks.c **** 			current task if it is the highest priority task to be created
1106:Source/tasks.c **** 			so far. */
1107:Source/tasks.c **** 			if( xSchedulerRunning == pdFALSE )
 411              		.loc 1 1107 0
 412 0032 234B     		ldr	r3, .L25+8
 413 0034 1B68     		ldr	r3, [r3]
 414 0036 002B     		cmp	r3, #0
 415 0038 09D1     		bne	.L22
1108:Source/tasks.c **** 			{
1109:Source/tasks.c **** 				if( pxCurrentTCB->uxPriority <= pxNewTCB->uxPriority )
 416              		.loc 1 1109 0
 417 003a 204B     		ldr	r3, .L25+4
 418 003c 1B68     		ldr	r3, [r3]
 419 003e DA6A     		ldr	r2, [r3, #44]
 420 0040 7B68     		ldr	r3, [r7, #4]
 421 0042 DB6A     		ldr	r3, [r3, #44]
 422 0044 9A42     		cmp	r2, r3
 423 0046 02D8     		bhi	.L22
1110:Source/tasks.c **** 				{
1111:Source/tasks.c **** 					pxCurrentTCB = pxNewTCB;
 424              		.loc 1 1111 0
 425 0048 1C4A     		ldr	r2, .L25+4
 426 004a 7B68     		ldr	r3, [r7, #4]
 427 004c 1360     		str	r3, [r2]
 428              	.L22:
1112:Source/tasks.c **** 				}
1113:Source/tasks.c **** 				else
1114:Source/tasks.c **** 				{
1115:Source/tasks.c **** 					mtCOVERAGE_TEST_MARKER();
1116:Source/tasks.c **** 				}
1117:Source/tasks.c **** 			}
1118:Source/tasks.c **** 			else
1119:Source/tasks.c **** 			{
1120:Source/tasks.c **** 				mtCOVERAGE_TEST_MARKER();
1121:Source/tasks.c **** 			}
1122:Source/tasks.c **** 		}
1123:Source/tasks.c **** 
1124:Source/tasks.c **** 		uxTaskNumber++;
 429              		.loc 1 1124 0
 430 004e 1D4B     		ldr	r3, .L25+12
 431 0050 1B68     		ldr	r3, [r3]
 432 0052 0133     		adds	r3, r3, #1
 433 0054 1B4A     		ldr	r2, .L25+12
 434 0056 1360     		str	r3, [r2]
1125:Source/tasks.c **** 
1126:Source/tasks.c **** 		#if ( configUSE_TRACE_FACILITY == 1 )
1127:Source/tasks.c **** 		{
1128:Source/tasks.c **** 			/* Add a counter into the TCB for tracing only. */
1129:Source/tasks.c **** 			pxNewTCB->uxTCBNumber = uxTaskNumber;
1130:Source/tasks.c **** 		}
1131:Source/tasks.c **** 		#endif /* configUSE_TRACE_FACILITY */
1132:Source/tasks.c **** 		traceTASK_CREATE( pxNewTCB );
1133:Source/tasks.c **** 
1134:Source/tasks.c **** 		prvAddTaskToReadyList( pxNewTCB );
 435              		.loc 1 1134 0
 436 0058 7B68     		ldr	r3, [r7, #4]
ARM GAS  C:\Users\mikke\AppData\Local\Temp\ccIUnQd7.s 			page 29


 437 005a DB6A     		ldr	r3, [r3, #44]
 438 005c 0122     		movs	r2, #1
 439 005e 9A40     		lsls	r2, r2, r3
 440 0060 194B     		ldr	r3, .L25+16
 441 0062 1B68     		ldr	r3, [r3]
 442 0064 1343     		orrs	r3, r3, r2
 443 0066 184A     		ldr	r2, .L25+16
 444 0068 1360     		str	r3, [r2]
 445 006a 7B68     		ldr	r3, [r7, #4]
 446 006c DA6A     		ldr	r2, [r3, #44]
 447 006e 1346     		mov	r3, r2
 448 0070 9B00     		lsls	r3, r3, #2
 449 0072 1344     		add	r3, r3, r2
 450 0074 9B00     		lsls	r3, r3, #2
 451 0076 154A     		ldr	r2, .L25+20
 452 0078 1A44     		add	r2, r2, r3
 453 007a 7B68     		ldr	r3, [r7, #4]
 454 007c 0433     		adds	r3, r3, #4
 455 007e 1946     		mov	r1, r3
 456 0080 1046     		mov	r0, r2
 457 0082 FFF7FEFF 		bl	vListInsertEnd
1135:Source/tasks.c **** 
1136:Source/tasks.c **** 		portSETUP_TCB( pxNewTCB );
1137:Source/tasks.c **** 	}
1138:Source/tasks.c **** 	taskEXIT_CRITICAL();
 458              		.loc 1 1138 0
 459 0086 FFF7FEFF 		bl	vPortExitCritical
1139:Source/tasks.c **** 
1140:Source/tasks.c **** 	if( xSchedulerRunning != pdFALSE )
 460              		.loc 1 1140 0
 461 008a 0D4B     		ldr	r3, .L25+8
 462 008c 1B68     		ldr	r3, [r3]
 463 008e 002B     		cmp	r3, #0
 464 0090 0ED0     		beq	.L24
1141:Source/tasks.c **** 	{
1142:Source/tasks.c **** 		/* If the created task is of a higher priority than the current task
1143:Source/tasks.c **** 		then it should run now. */
1144:Source/tasks.c **** 		if( pxCurrentTCB->uxPriority < pxNewTCB->uxPriority )
 465              		.loc 1 1144 0
 466 0092 0A4B     		ldr	r3, .L25+4
 467 0094 1B68     		ldr	r3, [r3]
 468 0096 DA6A     		ldr	r2, [r3, #44]
 469 0098 7B68     		ldr	r3, [r7, #4]
 470 009a DB6A     		ldr	r3, [r3, #44]
 471 009c 9A42     		cmp	r2, r3
 472 009e 07D2     		bcs	.L24
1145:Source/tasks.c **** 		{
1146:Source/tasks.c **** 			taskYIELD_IF_USING_PREEMPTION();
 473              		.loc 1 1146 0
 474 00a0 0B4B     		ldr	r3, .L25+24
 475 00a2 4FF08052 		mov	r2, #268435456
 476 00a6 1A60     		str	r2, [r3]
 477              		.syntax unified
 478              	@ 1146 "Source\tasks.c" 1
 479 00a8 BFF34F8F 		dsb
 480              	@ 0 "" 2
 481              	@ 1146 "Source\tasks.c" 1
ARM GAS  C:\Users\mikke\AppData\Local\Temp\ccIUnQd7.s 			page 30


 482 00ac BFF36F8F 		isb
 483              	@ 0 "" 2
 484              		.thumb
 485              		.syntax unified
 486              	.L24:
1147:Source/tasks.c **** 		}
1148:Source/tasks.c **** 		else
1149:Source/tasks.c **** 		{
1150:Source/tasks.c **** 			mtCOVERAGE_TEST_MARKER();
1151:Source/tasks.c **** 		}
1152:Source/tasks.c **** 	}
1153:Source/tasks.c **** 	else
1154:Source/tasks.c **** 	{
1155:Source/tasks.c **** 		mtCOVERAGE_TEST_MARKER();
1156:Source/tasks.c **** 	}
1157:Source/tasks.c **** }
 487              		.loc 1 1157 0
 488 00b0 00BF     		nop
 489 00b2 0837     		adds	r7, r7, #8
 490              		.cfi_def_cfa_offset 8
 491 00b4 BD46     		mov	sp, r7
 492              		.cfi_def_cfa_register 13
 493              		@ sp needed
 494 00b6 80BD     		pop	{r7, pc}
 495              	.L26:
 496              		.align	2
 497              	.L25:
 498 00b8 D8000000 		.word	uxCurrentNumberOfTasks
 499 00bc 00000000 		.word	pxCurrentTCB
 500 00c0 E4000000 		.word	xSchedulerRunning
 501 00c4 F4000000 		.word	uxTaskNumber
 502 00c8 E0000000 		.word	uxTopReadyPriority
 503 00cc 04000000 		.word	pxReadyTasksLists
 504 00d0 04ED00E0 		.word	-536810236
 505              		.cfi_endproc
 506              	.LFE70:
 507              		.size	prvAddNewTaskToReadyList, .-prvAddNewTaskToReadyList
 508              		.section	.text.vTaskDelete,"ax",%progbits
 509              		.align	2
 510              		.global	vTaskDelete
 511              		.thumb
 512              		.thumb_func
 513              		.type	vTaskDelete, %function
 514              	vTaskDelete:
 515              	.LFB71:
1158:Source/tasks.c **** /*-----------------------------------------------------------*/
1159:Source/tasks.c **** 
1160:Source/tasks.c **** #if ( INCLUDE_vTaskDelete == 1 )
1161:Source/tasks.c **** 
1162:Source/tasks.c **** 	void vTaskDelete( TaskHandle_t xTaskToDelete )
1163:Source/tasks.c **** 	{
 516              		.loc 1 1163 0
 517              		.cfi_startproc
 518              		@ args = 0, pretend = 0, frame = 16
 519              		@ frame_needed = 1, uses_anonymous_args = 0
 520 0000 80B5     		push	{r7, lr}
 521              		.cfi_def_cfa_offset 8
ARM GAS  C:\Users\mikke\AppData\Local\Temp\ccIUnQd7.s 			page 31


 522              		.cfi_offset 7, -8
 523              		.cfi_offset 14, -4
 524 0002 84B0     		sub	sp, sp, #16
 525              		.cfi_def_cfa_offset 24
 526 0004 00AF     		add	r7, sp, #0
 527              		.cfi_def_cfa_register 7
 528 0006 7860     		str	r0, [r7, #4]
1164:Source/tasks.c **** 	TCB_t *pxTCB;
1165:Source/tasks.c **** 
1166:Source/tasks.c **** 		taskENTER_CRITICAL();
 529              		.loc 1 1166 0
 530 0008 FFF7FEFF 		bl	vPortEnterCritical
1167:Source/tasks.c **** 		{
1168:Source/tasks.c **** 			/* If null is passed in here then it is the calling task that is
1169:Source/tasks.c **** 			being deleted. */
1170:Source/tasks.c **** 			pxTCB = prvGetTCBFromHandle( xTaskToDelete );
 531              		.loc 1 1170 0
 532 000c 7B68     		ldr	r3, [r7, #4]
 533 000e 002B     		cmp	r3, #0
 534 0010 02D1     		bne	.L28
 535              		.loc 1 1170 0 is_stmt 0 discriminator 1
 536 0012 314B     		ldr	r3, .L37
 537 0014 1B68     		ldr	r3, [r3]
 538 0016 00E0     		b	.L29
 539              	.L28:
 540              		.loc 1 1170 0 discriminator 2
 541 0018 7B68     		ldr	r3, [r7, #4]
 542              	.L29:
 543              		.loc 1 1170 0 discriminator 4
 544 001a FB60     		str	r3, [r7, #12]
1171:Source/tasks.c **** 
1172:Source/tasks.c **** 			/* Remove task from the ready/delayed list. */
1173:Source/tasks.c **** 			if( uxListRemove( &( pxTCB->xStateListItem ) ) == ( UBaseType_t ) 0 )
 545              		.loc 1 1173 0 is_stmt 1 discriminator 4
 546 001c FB68     		ldr	r3, [r7, #12]
 547 001e 0433     		adds	r3, r3, #4
 548 0020 1846     		mov	r0, r3
 549 0022 FFF7FEFF 		bl	uxListRemove
 550 0026 0346     		mov	r3, r0
 551 0028 002B     		cmp	r3, #0
 552 002a 15D1     		bne	.L30
1174:Source/tasks.c **** 			{
1175:Source/tasks.c **** 				taskRESET_READY_PRIORITY( pxTCB->uxPriority );
 553              		.loc 1 1175 0
 554 002c FB68     		ldr	r3, [r7, #12]
 555 002e DA6A     		ldr	r2, [r3, #44]
 556 0030 2A49     		ldr	r1, .L37+4
 557 0032 1346     		mov	r3, r2
 558 0034 9B00     		lsls	r3, r3, #2
 559 0036 1344     		add	r3, r3, r2
 560 0038 9B00     		lsls	r3, r3, #2
 561 003a 0B44     		add	r3, r3, r1
 562 003c 1B68     		ldr	r3, [r3]
 563 003e 002B     		cmp	r3, #0
 564 0040 0AD1     		bne	.L30
 565              		.loc 1 1175 0 is_stmt 0 discriminator 1
 566 0042 FB68     		ldr	r3, [r7, #12]
ARM GAS  C:\Users\mikke\AppData\Local\Temp\ccIUnQd7.s 			page 32


 567 0044 DB6A     		ldr	r3, [r3, #44]
 568 0046 0122     		movs	r2, #1
 569 0048 02FA03F3 		lsl	r3, r2, r3
 570 004c DA43     		mvns	r2, r3
 571 004e 244B     		ldr	r3, .L37+8
 572 0050 1B68     		ldr	r3, [r3]
 573 0052 1340     		ands	r3, r3, r2
 574 0054 224A     		ldr	r2, .L37+8
 575 0056 1360     		str	r3, [r2]
 576              	.L30:
1176:Source/tasks.c **** 			}
1177:Source/tasks.c **** 			else
1178:Source/tasks.c **** 			{
1179:Source/tasks.c **** 				mtCOVERAGE_TEST_MARKER();
1180:Source/tasks.c **** 			}
1181:Source/tasks.c **** 
1182:Source/tasks.c **** 			/* Is the task waiting on an event also? */
1183:Source/tasks.c **** 			if( listLIST_ITEM_CONTAINER( &( pxTCB->xEventListItem ) ) != NULL )
 577              		.loc 1 1183 0 is_stmt 1
 578 0058 FB68     		ldr	r3, [r7, #12]
 579 005a 9B6A     		ldr	r3, [r3, #40]
 580 005c 002B     		cmp	r3, #0
 581 005e 04D0     		beq	.L32
1184:Source/tasks.c **** 			{
1185:Source/tasks.c **** 				( void ) uxListRemove( &( pxTCB->xEventListItem ) );
 582              		.loc 1 1185 0
 583 0060 FB68     		ldr	r3, [r7, #12]
 584 0062 1833     		adds	r3, r3, #24
 585 0064 1846     		mov	r0, r3
 586 0066 FFF7FEFF 		bl	uxListRemove
 587              	.L32:
1186:Source/tasks.c **** 			}
1187:Source/tasks.c **** 			else
1188:Source/tasks.c **** 			{
1189:Source/tasks.c **** 				mtCOVERAGE_TEST_MARKER();
1190:Source/tasks.c **** 			}
1191:Source/tasks.c **** 
1192:Source/tasks.c **** 			/* Increment the uxTaskNumber also so kernel aware debuggers can
1193:Source/tasks.c **** 			detect that the task lists need re-generating.  This is done before
1194:Source/tasks.c **** 			portPRE_TASK_DELETE_HOOK() as in the Windows port that macro will
1195:Source/tasks.c **** 			not return. */
1196:Source/tasks.c **** 			uxTaskNumber++;
 588              		.loc 1 1196 0
 589 006a 1E4B     		ldr	r3, .L37+12
 590 006c 1B68     		ldr	r3, [r3]
 591 006e 0133     		adds	r3, r3, #1
 592 0070 1C4A     		ldr	r2, .L37+12
 593 0072 1360     		str	r3, [r2]
1197:Source/tasks.c **** 
1198:Source/tasks.c **** 			if( pxTCB == pxCurrentTCB )
 594              		.loc 1 1198 0
 595 0074 184B     		ldr	r3, .L37
 596 0076 1B68     		ldr	r3, [r3]
 597 0078 FA68     		ldr	r2, [r7, #12]
 598 007a 9A42     		cmp	r2, r3
 599 007c 0BD1     		bne	.L33
1199:Source/tasks.c **** 			{
ARM GAS  C:\Users\mikke\AppData\Local\Temp\ccIUnQd7.s 			page 33


1200:Source/tasks.c **** 				/* A task is deleting itself.  This cannot complete within the
1201:Source/tasks.c **** 				task itself, as a context switch to another task is required.
1202:Source/tasks.c **** 				Place the task in the termination list.  The idle task will
1203:Source/tasks.c **** 				check the termination list and free up any memory allocated by
1204:Source/tasks.c **** 				the scheduler for the TCB and stack of the deleted task. */
1205:Source/tasks.c **** 				vListInsertEnd( &xTasksWaitingTermination, &( pxTCB->xStateListItem ) );
 600              		.loc 1 1205 0
 601 007e FB68     		ldr	r3, [r7, #12]
 602 0080 0433     		adds	r3, r3, #4
 603 0082 1946     		mov	r1, r3
 604 0084 1848     		ldr	r0, .L37+16
 605 0086 FFF7FEFF 		bl	vListInsertEnd
1206:Source/tasks.c **** 
1207:Source/tasks.c **** 				/* Increment the ucTasksDeleted variable so the idle task knows
1208:Source/tasks.c **** 				there is a task that has been deleted and that it should therefore
1209:Source/tasks.c **** 				check the xTasksWaitingTermination list. */
1210:Source/tasks.c **** 				++uxDeletedTasksWaitingCleanUp;
 606              		.loc 1 1210 0
 607 008a 184B     		ldr	r3, .L37+20
 608 008c 1B68     		ldr	r3, [r3]
 609 008e 0133     		adds	r3, r3, #1
 610 0090 164A     		ldr	r2, .L37+20
 611 0092 1360     		str	r3, [r2]
 612 0094 09E0     		b	.L34
 613              	.L33:
1211:Source/tasks.c **** 
1212:Source/tasks.c **** 				/* Call the delete hook before portPRE_TASK_DELETE_HOOK() as
1213:Source/tasks.c **** 				portPRE_TASK_DELETE_HOOK() does not return in the Win32 port. */
1214:Source/tasks.c **** 				traceTASK_DELETE( pxTCB );
1215:Source/tasks.c **** 
1216:Source/tasks.c **** 				/* The pre-delete hook is primarily for the Windows simulator,
1217:Source/tasks.c **** 				in which Windows specific clean up operations are performed,
1218:Source/tasks.c **** 				after which it is not possible to yield away from this task -
1219:Source/tasks.c **** 				hence xYieldPending is used to latch that a context switch is
1220:Source/tasks.c **** 				required. */
1221:Source/tasks.c **** 				portPRE_TASK_DELETE_HOOK( pxTCB, &xYieldPending );
1222:Source/tasks.c **** 			}
1223:Source/tasks.c **** 			else
1224:Source/tasks.c **** 			{
1225:Source/tasks.c **** 				--uxCurrentNumberOfTasks;
 614              		.loc 1 1225 0
 615 0096 164B     		ldr	r3, .L37+24
 616 0098 1B68     		ldr	r3, [r3]
 617 009a 013B     		subs	r3, r3, #1
 618 009c 144A     		ldr	r2, .L37+24
 619 009e 1360     		str	r3, [r2]
1226:Source/tasks.c **** 				traceTASK_DELETE( pxTCB );
1227:Source/tasks.c **** 				prvDeleteTCB( pxTCB );
 620              		.loc 1 1227 0
 621 00a0 F868     		ldr	r0, [r7, #12]
 622 00a2 FFF7FEFF 		bl	prvDeleteTCB
1228:Source/tasks.c **** 
1229:Source/tasks.c **** 				/* Reset the next expected unblock time in case it referred to
1230:Source/tasks.c **** 				the task that has just been deleted. */
1231:Source/tasks.c **** 				prvResetNextTaskUnblockTime();
 623              		.loc 1 1231 0
 624 00a6 FFF7FEFF 		bl	prvResetNextTaskUnblockTime
ARM GAS  C:\Users\mikke\AppData\Local\Temp\ccIUnQd7.s 			page 34


 625              	.L34:
1232:Source/tasks.c **** 			}
1233:Source/tasks.c **** 		}
1234:Source/tasks.c **** 		taskEXIT_CRITICAL();
 626              		.loc 1 1234 0
 627 00aa FFF7FEFF 		bl	vPortExitCritical
1235:Source/tasks.c **** 
1236:Source/tasks.c **** 		/* Force a reschedule if it is the currently running task that has just
1237:Source/tasks.c **** 		been deleted. */
1238:Source/tasks.c **** 		if( xSchedulerRunning != pdFALSE )
 628              		.loc 1 1238 0
 629 00ae 114B     		ldr	r3, .L37+28
 630 00b0 1B68     		ldr	r3, [r3]
 631 00b2 002B     		cmp	r3, #0
 632 00b4 0CD0     		beq	.L36
1239:Source/tasks.c **** 		{
1240:Source/tasks.c **** 			if( pxTCB == pxCurrentTCB )
 633              		.loc 1 1240 0
 634 00b6 084B     		ldr	r3, .L37
 635 00b8 1B68     		ldr	r3, [r3]
 636 00ba FA68     		ldr	r2, [r7, #12]
 637 00bc 9A42     		cmp	r2, r3
 638 00be 07D1     		bne	.L36
1241:Source/tasks.c **** 			{
1242:Source/tasks.c **** 				configASSERT( uxSchedulerSuspended == 0 );
1243:Source/tasks.c **** 				portYIELD_WITHIN_API();
 639              		.loc 1 1243 0
 640 00c0 0D4B     		ldr	r3, .L37+32
 641 00c2 4FF08052 		mov	r2, #268435456
 642 00c6 1A60     		str	r2, [r3]
 643              		.syntax unified
 644              	@ 1243 "Source\tasks.c" 1
 645 00c8 BFF34F8F 		dsb
 646              	@ 0 "" 2
 647              	@ 1243 "Source\tasks.c" 1
 648 00cc BFF36F8F 		isb
 649              	@ 0 "" 2
 650              		.thumb
 651              		.syntax unified
 652              	.L36:
1244:Source/tasks.c **** 			}
1245:Source/tasks.c **** 			else
1246:Source/tasks.c **** 			{
1247:Source/tasks.c **** 				mtCOVERAGE_TEST_MARKER();
1248:Source/tasks.c **** 			}
1249:Source/tasks.c **** 		}
1250:Source/tasks.c **** 	}
 653              		.loc 1 1250 0
 654 00d0 00BF     		nop
 655 00d2 1037     		adds	r7, r7, #16
 656              		.cfi_def_cfa_offset 8
 657 00d4 BD46     		mov	sp, r7
 658              		.cfi_def_cfa_register 13
 659              		@ sp needed
 660 00d6 80BD     		pop	{r7, pc}
 661              	.L38:
 662              		.align	2
ARM GAS  C:\Users\mikke\AppData\Local\Temp\ccIUnQd7.s 			page 35


 663              	.L37:
 664 00d8 00000000 		.word	pxCurrentTCB
 665 00dc 04000000 		.word	pxReadyTasksLists
 666 00e0 E0000000 		.word	uxTopReadyPriority
 667 00e4 F4000000 		.word	uxTaskNumber
 668 00e8 AC000000 		.word	xTasksWaitingTermination
 669 00ec C0000000 		.word	uxDeletedTasksWaitingCleanUp
 670 00f0 D8000000 		.word	uxCurrentNumberOfTasks
 671 00f4 E4000000 		.word	xSchedulerRunning
 672 00f8 04ED00E0 		.word	-536810236
 673              		.cfi_endproc
 674              	.LFE71:
 675              		.size	vTaskDelete, .-vTaskDelete
 676              		.section	.text.vTaskDelayUntil,"ax",%progbits
 677              		.align	2
 678              		.global	vTaskDelayUntil
 679              		.thumb
 680              		.thumb_func
 681              		.type	vTaskDelayUntil, %function
 682              	vTaskDelayUntil:
 683              	.LFB72:
1251:Source/tasks.c **** 
1252:Source/tasks.c **** #endif /* INCLUDE_vTaskDelete */
1253:Source/tasks.c **** /*-----------------------------------------------------------*/
1254:Source/tasks.c **** 
1255:Source/tasks.c **** #if ( INCLUDE_vTaskDelayUntil == 1 )
1256:Source/tasks.c **** 
1257:Source/tasks.c **** 	void vTaskDelayUntil( TickType_t * const pxPreviousWakeTime, const TickType_t xTimeIncrement )
1258:Source/tasks.c **** 	{
 684              		.loc 1 1258 0
 685              		.cfi_startproc
 686              		@ args = 0, pretend = 0, frame = 24
 687              		@ frame_needed = 1, uses_anonymous_args = 0
 688 0000 80B5     		push	{r7, lr}
 689              		.cfi_def_cfa_offset 8
 690              		.cfi_offset 7, -8
 691              		.cfi_offset 14, -4
 692 0002 86B0     		sub	sp, sp, #24
 693              		.cfi_def_cfa_offset 32
 694 0004 00AF     		add	r7, sp, #0
 695              		.cfi_def_cfa_register 7
 696 0006 7860     		str	r0, [r7, #4]
 697 0008 3960     		str	r1, [r7]
1259:Source/tasks.c **** 	TickType_t xTimeToWake;
1260:Source/tasks.c **** 	BaseType_t xAlreadyYielded, xShouldDelay = pdFALSE;
 698              		.loc 1 1260 0
 699 000a 0023     		movs	r3, #0
 700 000c 7B61     		str	r3, [r7, #20]
1261:Source/tasks.c **** 
1262:Source/tasks.c **** 		configASSERT( pxPreviousWakeTime );
1263:Source/tasks.c **** 		configASSERT( ( xTimeIncrement > 0U ) );
1264:Source/tasks.c **** 		configASSERT( uxSchedulerSuspended == 0 );
1265:Source/tasks.c **** 
1266:Source/tasks.c **** 		vTaskSuspendAll();
 701              		.loc 1 1266 0
 702 000e FFF7FEFF 		bl	vTaskSuspendAll
 703              	.LBB28:
ARM GAS  C:\Users\mikke\AppData\Local\Temp\ccIUnQd7.s 			page 36


1267:Source/tasks.c **** 		{
1268:Source/tasks.c **** 			/* Minor optimisation.  The tick count cannot change in this
1269:Source/tasks.c **** 			block. */
1270:Source/tasks.c **** 			const TickType_t xConstTickCount = xTickCount;
 704              		.loc 1 1270 0
 705 0012 214B     		ldr	r3, .L46
 706 0014 1B68     		ldr	r3, [r3]
 707 0016 3B61     		str	r3, [r7, #16]
1271:Source/tasks.c **** 
1272:Source/tasks.c **** 			/* Generate the tick time at which the task wants to wake. */
1273:Source/tasks.c **** 			xTimeToWake = *pxPreviousWakeTime + xTimeIncrement;
 708              		.loc 1 1273 0
 709 0018 7B68     		ldr	r3, [r7, #4]
 710 001a 1A68     		ldr	r2, [r3]
 711 001c 3B68     		ldr	r3, [r7]
 712 001e 1344     		add	r3, r3, r2
 713 0020 FB60     		str	r3, [r7, #12]
1274:Source/tasks.c **** 
1275:Source/tasks.c **** 			if( xConstTickCount < *pxPreviousWakeTime )
 714              		.loc 1 1275 0
 715 0022 7B68     		ldr	r3, [r7, #4]
 716 0024 1A68     		ldr	r2, [r3]
 717 0026 3B69     		ldr	r3, [r7, #16]
 718 0028 9A42     		cmp	r2, r3
 719 002a 0BD9     		bls	.L40
1276:Source/tasks.c **** 			{
1277:Source/tasks.c **** 				/* The tick count has overflowed since this function was
1278:Source/tasks.c **** 				lasted called.  In this case the only time we should ever
1279:Source/tasks.c **** 				actually delay is if the wake time has also	overflowed,
1280:Source/tasks.c **** 				and the wake time is greater than the tick time.  When this
1281:Source/tasks.c **** 				is the case it is as if neither time had overflowed. */
1282:Source/tasks.c **** 				if( ( xTimeToWake < *pxPreviousWakeTime ) && ( xTimeToWake > xConstTickCount ) )
 720              		.loc 1 1282 0
 721 002c 7B68     		ldr	r3, [r7, #4]
 722 002e 1A68     		ldr	r2, [r3]
 723 0030 FB68     		ldr	r3, [r7, #12]
 724 0032 9A42     		cmp	r2, r3
 725 0034 11D9     		bls	.L41
 726              		.loc 1 1282 0 is_stmt 0 discriminator 1
 727 0036 FA68     		ldr	r2, [r7, #12]
 728 0038 3B69     		ldr	r3, [r7, #16]
 729 003a 9A42     		cmp	r2, r3
 730 003c 0DD9     		bls	.L41
1283:Source/tasks.c **** 				{
1284:Source/tasks.c **** 					xShouldDelay = pdTRUE;
 731              		.loc 1 1284 0 is_stmt 1
 732 003e 0123     		movs	r3, #1
 733 0040 7B61     		str	r3, [r7, #20]
 734 0042 0AE0     		b	.L41
 735              	.L40:
1285:Source/tasks.c **** 				}
1286:Source/tasks.c **** 				else
1287:Source/tasks.c **** 				{
1288:Source/tasks.c **** 					mtCOVERAGE_TEST_MARKER();
1289:Source/tasks.c **** 				}
1290:Source/tasks.c **** 			}
1291:Source/tasks.c **** 			else
ARM GAS  C:\Users\mikke\AppData\Local\Temp\ccIUnQd7.s 			page 37


1292:Source/tasks.c **** 			{
1293:Source/tasks.c **** 				/* The tick time has not overflowed.  In this case we will
1294:Source/tasks.c **** 				delay if either the wake time has overflowed, and/or the
1295:Source/tasks.c **** 				tick time is less than the wake time. */
1296:Source/tasks.c **** 				if( ( xTimeToWake < *pxPreviousWakeTime ) || ( xTimeToWake > xConstTickCount ) )
 736              		.loc 1 1296 0
 737 0044 7B68     		ldr	r3, [r7, #4]
 738 0046 1A68     		ldr	r2, [r3]
 739 0048 FB68     		ldr	r3, [r7, #12]
 740 004a 9A42     		cmp	r2, r3
 741 004c 03D8     		bhi	.L42
 742              		.loc 1 1296 0 is_stmt 0 discriminator 1
 743 004e FA68     		ldr	r2, [r7, #12]
 744 0050 3B69     		ldr	r3, [r7, #16]
 745 0052 9A42     		cmp	r2, r3
 746 0054 01D9     		bls	.L41
 747              	.L42:
1297:Source/tasks.c **** 				{
1298:Source/tasks.c **** 					xShouldDelay = pdTRUE;
 748              		.loc 1 1298 0 is_stmt 1
 749 0056 0123     		movs	r3, #1
 750 0058 7B61     		str	r3, [r7, #20]
 751              	.L41:
1299:Source/tasks.c **** 				}
1300:Source/tasks.c **** 				else
1301:Source/tasks.c **** 				{
1302:Source/tasks.c **** 					mtCOVERAGE_TEST_MARKER();
1303:Source/tasks.c **** 				}
1304:Source/tasks.c **** 			}
1305:Source/tasks.c **** 
1306:Source/tasks.c **** 			/* Update the wake time ready for the next call. */
1307:Source/tasks.c **** 			*pxPreviousWakeTime = xTimeToWake;
 752              		.loc 1 1307 0
 753 005a 7B68     		ldr	r3, [r7, #4]
 754 005c FA68     		ldr	r2, [r7, #12]
 755 005e 1A60     		str	r2, [r3]
1308:Source/tasks.c **** 
1309:Source/tasks.c **** 			if( xShouldDelay != pdFALSE )
 756              		.loc 1 1309 0
 757 0060 7B69     		ldr	r3, [r7, #20]
 758 0062 002B     		cmp	r3, #0
 759 0064 06D0     		beq	.L43
1310:Source/tasks.c **** 			{
1311:Source/tasks.c **** 				traceTASK_DELAY_UNTIL( xTimeToWake );
1312:Source/tasks.c **** 
1313:Source/tasks.c **** 				/* prvAddCurrentTaskToDelayedList() needs the block time, not
1314:Source/tasks.c **** 				the time to wake, so subtract the current tick count. */
1315:Source/tasks.c **** 				prvAddCurrentTaskToDelayedList( xTimeToWake - xConstTickCount, pdFALSE );
 760              		.loc 1 1315 0
 761 0066 FA68     		ldr	r2, [r7, #12]
 762 0068 3B69     		ldr	r3, [r7, #16]
 763 006a D31A     		subs	r3, r2, r3
 764 006c 0021     		movs	r1, #0
 765 006e 1846     		mov	r0, r3
 766 0070 FFF7FEFF 		bl	prvAddCurrentTaskToDelayedList
 767              	.L43:
 768              	.LBE28:
ARM GAS  C:\Users\mikke\AppData\Local\Temp\ccIUnQd7.s 			page 38


1316:Source/tasks.c **** 			}
1317:Source/tasks.c **** 			else
1318:Source/tasks.c **** 			{
1319:Source/tasks.c **** 				mtCOVERAGE_TEST_MARKER();
1320:Source/tasks.c **** 			}
1321:Source/tasks.c **** 		}
1322:Source/tasks.c **** 		xAlreadyYielded = xTaskResumeAll();
 769              		.loc 1 1322 0
 770 0074 FFF7FEFF 		bl	xTaskResumeAll
 771 0078 B860     		str	r0, [r7, #8]
1323:Source/tasks.c **** 
1324:Source/tasks.c **** 		/* Force a reschedule if xTaskResumeAll has not already done so, we may
1325:Source/tasks.c **** 		have put ourselves to sleep. */
1326:Source/tasks.c **** 		if( xAlreadyYielded == pdFALSE )
 772              		.loc 1 1326 0
 773 007a BB68     		ldr	r3, [r7, #8]
 774 007c 002B     		cmp	r3, #0
 775 007e 07D1     		bne	.L45
1327:Source/tasks.c **** 		{
1328:Source/tasks.c **** 			portYIELD_WITHIN_API();
 776              		.loc 1 1328 0
 777 0080 064B     		ldr	r3, .L46+4
 778 0082 4FF08052 		mov	r2, #268435456
 779 0086 1A60     		str	r2, [r3]
 780              		.syntax unified
 781              	@ 1328 "Source\tasks.c" 1
 782 0088 BFF34F8F 		dsb
 783              	@ 0 "" 2
 784              	@ 1328 "Source\tasks.c" 1
 785 008c BFF36F8F 		isb
 786              	@ 0 "" 2
 787              		.thumb
 788              		.syntax unified
 789              	.L45:
1329:Source/tasks.c **** 		}
1330:Source/tasks.c **** 		else
1331:Source/tasks.c **** 		{
1332:Source/tasks.c **** 			mtCOVERAGE_TEST_MARKER();
1333:Source/tasks.c **** 		}
1334:Source/tasks.c **** 	}
 790              		.loc 1 1334 0
 791 0090 00BF     		nop
 792 0092 1837     		adds	r7, r7, #24
 793              		.cfi_def_cfa_offset 8
 794 0094 BD46     		mov	sp, r7
 795              		.cfi_def_cfa_register 13
 796              		@ sp needed
 797 0096 80BD     		pop	{r7, pc}
 798              	.L47:
 799              		.align	2
 800              	.L46:
 801 0098 DC000000 		.word	xTickCount
 802 009c 04ED00E0 		.word	-536810236
 803              		.cfi_endproc
 804              	.LFE72:
 805              		.size	vTaskDelayUntil, .-vTaskDelayUntil
 806              		.section	.text.vTaskDelay,"ax",%progbits
ARM GAS  C:\Users\mikke\AppData\Local\Temp\ccIUnQd7.s 			page 39


 807              		.align	2
 808              		.global	vTaskDelay
 809              		.thumb
 810              		.thumb_func
 811              		.type	vTaskDelay, %function
 812              	vTaskDelay:
 813              	.LFB73:
1335:Source/tasks.c **** 
1336:Source/tasks.c **** #endif /* INCLUDE_vTaskDelayUntil */
1337:Source/tasks.c **** /*-----------------------------------------------------------*/
1338:Source/tasks.c **** 
1339:Source/tasks.c **** #if ( INCLUDE_vTaskDelay == 1 )
1340:Source/tasks.c **** 
1341:Source/tasks.c **** 	void vTaskDelay( const TickType_t xTicksToDelay )
1342:Source/tasks.c **** 	{
 814              		.loc 1 1342 0
 815              		.cfi_startproc
 816              		@ args = 0, pretend = 0, frame = 16
 817              		@ frame_needed = 1, uses_anonymous_args = 0
 818 0000 80B5     		push	{r7, lr}
 819              		.cfi_def_cfa_offset 8
 820              		.cfi_offset 7, -8
 821              		.cfi_offset 14, -4
 822 0002 84B0     		sub	sp, sp, #16
 823              		.cfi_def_cfa_offset 24
 824 0004 00AF     		add	r7, sp, #0
 825              		.cfi_def_cfa_register 7
 826 0006 7860     		str	r0, [r7, #4]
1343:Source/tasks.c **** 	BaseType_t xAlreadyYielded = pdFALSE;
 827              		.loc 1 1343 0
 828 0008 0023     		movs	r3, #0
 829 000a FB60     		str	r3, [r7, #12]
1344:Source/tasks.c **** 
1345:Source/tasks.c **** 		/* A delay time of zero just forces a reschedule. */
1346:Source/tasks.c **** 		if( xTicksToDelay > ( TickType_t ) 0U )
 830              		.loc 1 1346 0
 831 000c 7B68     		ldr	r3, [r7, #4]
 832 000e 002B     		cmp	r3, #0
 833 0010 08D0     		beq	.L49
1347:Source/tasks.c **** 		{
1348:Source/tasks.c **** 			configASSERT( uxSchedulerSuspended == 0 );
1349:Source/tasks.c **** 			vTaskSuspendAll();
 834              		.loc 1 1349 0
 835 0012 FFF7FEFF 		bl	vTaskSuspendAll
1350:Source/tasks.c **** 			{
1351:Source/tasks.c **** 				traceTASK_DELAY();
1352:Source/tasks.c **** 
1353:Source/tasks.c **** 				/* A task that is removed from the event list while the
1354:Source/tasks.c **** 				scheduler is suspended will not get placed in the ready
1355:Source/tasks.c **** 				list or removed from the blocked list until the scheduler
1356:Source/tasks.c **** 				is resumed.
1357:Source/tasks.c **** 
1358:Source/tasks.c **** 				This task cannot be in an event list as it is the currently
1359:Source/tasks.c **** 				executing task. */
1360:Source/tasks.c **** 				prvAddCurrentTaskToDelayedList( xTicksToDelay, pdFALSE );
 836              		.loc 1 1360 0
 837 0016 0021     		movs	r1, #0
ARM GAS  C:\Users\mikke\AppData\Local\Temp\ccIUnQd7.s 			page 40


 838 0018 7868     		ldr	r0, [r7, #4]
 839 001a FFF7FEFF 		bl	prvAddCurrentTaskToDelayedList
1361:Source/tasks.c **** 			}
1362:Source/tasks.c **** 			xAlreadyYielded = xTaskResumeAll();
 840              		.loc 1 1362 0
 841 001e FFF7FEFF 		bl	xTaskResumeAll
 842 0022 F860     		str	r0, [r7, #12]
 843              	.L49:
1363:Source/tasks.c **** 		}
1364:Source/tasks.c **** 		else
1365:Source/tasks.c **** 		{
1366:Source/tasks.c **** 			mtCOVERAGE_TEST_MARKER();
1367:Source/tasks.c **** 		}
1368:Source/tasks.c **** 
1369:Source/tasks.c **** 		/* Force a reschedule if xTaskResumeAll has not already done so, we may
1370:Source/tasks.c **** 		have put ourselves to sleep. */
1371:Source/tasks.c **** 		if( xAlreadyYielded == pdFALSE )
 844              		.loc 1 1371 0
 845 0024 FB68     		ldr	r3, [r7, #12]
 846 0026 002B     		cmp	r3, #0
 847 0028 07D1     		bne	.L51
1372:Source/tasks.c **** 		{
1373:Source/tasks.c **** 			portYIELD_WITHIN_API();
 848              		.loc 1 1373 0
 849 002a 064B     		ldr	r3, .L52
 850 002c 4FF08052 		mov	r2, #268435456
 851 0030 1A60     		str	r2, [r3]
 852              		.syntax unified
 853              	@ 1373 "Source\tasks.c" 1
 854 0032 BFF34F8F 		dsb
 855              	@ 0 "" 2
 856              	@ 1373 "Source\tasks.c" 1
 857 0036 BFF36F8F 		isb
 858              	@ 0 "" 2
 859              		.thumb
 860              		.syntax unified
 861              	.L51:
1374:Source/tasks.c **** 		}
1375:Source/tasks.c **** 		else
1376:Source/tasks.c **** 		{
1377:Source/tasks.c **** 			mtCOVERAGE_TEST_MARKER();
1378:Source/tasks.c **** 		}
1379:Source/tasks.c **** 	}
 862              		.loc 1 1379 0
 863 003a 00BF     		nop
 864 003c 1037     		adds	r7, r7, #16
 865              		.cfi_def_cfa_offset 8
 866 003e BD46     		mov	sp, r7
 867              		.cfi_def_cfa_register 13
 868              		@ sp needed
 869 0040 80BD     		pop	{r7, pc}
 870              	.L53:
 871 0042 00BF     		.align	2
 872              	.L52:
 873 0044 04ED00E0 		.word	-536810236
 874              		.cfi_endproc
 875              	.LFE73:
ARM GAS  C:\Users\mikke\AppData\Local\Temp\ccIUnQd7.s 			page 41


 876              		.size	vTaskDelay, .-vTaskDelay
 877              		.section	.text.eTaskGetState,"ax",%progbits
 878              		.align	2
 879              		.global	eTaskGetState
 880              		.thumb
 881              		.thumb_func
 882              		.type	eTaskGetState, %function
 883              	eTaskGetState:
 884              	.LFB74:
1380:Source/tasks.c **** 
1381:Source/tasks.c **** #endif /* INCLUDE_vTaskDelay */
1382:Source/tasks.c **** /*-----------------------------------------------------------*/
1383:Source/tasks.c **** 
1384:Source/tasks.c **** #if( ( INCLUDE_eTaskGetState == 1 ) || ( configUSE_TRACE_FACILITY == 1 ) || ( INCLUDE_xTaskAbortDel
1385:Source/tasks.c **** 
1386:Source/tasks.c **** 	eTaskState eTaskGetState( TaskHandle_t xTask )
1387:Source/tasks.c **** 	{
 885              		.loc 1 1387 0
 886              		.cfi_startproc
 887              		@ args = 0, pretend = 0, frame = 32
 888              		@ frame_needed = 1, uses_anonymous_args = 0
 889 0000 80B5     		push	{r7, lr}
 890              		.cfi_def_cfa_offset 8
 891              		.cfi_offset 7, -8
 892              		.cfi_offset 14, -4
 893 0002 88B0     		sub	sp, sp, #32
 894              		.cfi_def_cfa_offset 40
 895 0004 00AF     		add	r7, sp, #0
 896              		.cfi_def_cfa_register 7
 897 0006 7860     		str	r0, [r7, #4]
1388:Source/tasks.c **** 	eTaskState eReturn;
1389:Source/tasks.c **** 	List_t const * pxStateList, *pxDelayedList, *pxOverflowedDelayedList;
1390:Source/tasks.c **** 	const TCB_t * const pxTCB = xTask;
 898              		.loc 1 1390 0
 899 0008 7B68     		ldr	r3, [r7, #4]
 900 000a BB61     		str	r3, [r7, #24]
1391:Source/tasks.c **** 
1392:Source/tasks.c **** 		configASSERT( pxTCB );
1393:Source/tasks.c **** 
1394:Source/tasks.c **** 		if( pxTCB == pxCurrentTCB )
 901              		.loc 1 1394 0
 902 000c 234B     		ldr	r3, .L67
 903 000e 1B68     		ldr	r3, [r3]
 904 0010 BA69     		ldr	r2, [r7, #24]
 905 0012 9A42     		cmp	r2, r3
 906 0014 02D1     		bne	.L55
1395:Source/tasks.c **** 		{
1396:Source/tasks.c **** 			/* The task calling this function is querying its own state. */
1397:Source/tasks.c **** 			eReturn = eRunning;
 907              		.loc 1 1397 0
 908 0016 0023     		movs	r3, #0
 909 0018 FB77     		strb	r3, [r7, #31]
 910 001a 3AE0     		b	.L56
 911              	.L55:
1398:Source/tasks.c **** 		}
1399:Source/tasks.c **** 		else
1400:Source/tasks.c **** 		{
ARM GAS  C:\Users\mikke\AppData\Local\Temp\ccIUnQd7.s 			page 42


1401:Source/tasks.c **** 			taskENTER_CRITICAL();
 912              		.loc 1 1401 0
 913 001c FFF7FEFF 		bl	vPortEnterCritical
1402:Source/tasks.c **** 			{
1403:Source/tasks.c **** 				pxStateList = listLIST_ITEM_CONTAINER( &( pxTCB->xStateListItem ) );
 914              		.loc 1 1403 0
 915 0020 BB69     		ldr	r3, [r7, #24]
 916 0022 5B69     		ldr	r3, [r3, #20]
 917 0024 7B61     		str	r3, [r7, #20]
1404:Source/tasks.c **** 				pxDelayedList = pxDelayedTaskList;
 918              		.loc 1 1404 0
 919 0026 1E4B     		ldr	r3, .L67+4
 920 0028 1B68     		ldr	r3, [r3]
 921 002a 3B61     		str	r3, [r7, #16]
1405:Source/tasks.c **** 				pxOverflowedDelayedList = pxOverflowDelayedTaskList;
 922              		.loc 1 1405 0
 923 002c 1D4B     		ldr	r3, .L67+8
 924 002e 1B68     		ldr	r3, [r3]
 925 0030 FB60     		str	r3, [r7, #12]
1406:Source/tasks.c **** 			}
1407:Source/tasks.c **** 			taskEXIT_CRITICAL();
 926              		.loc 1 1407 0
 927 0032 FFF7FEFF 		bl	vPortExitCritical
1408:Source/tasks.c **** 
1409:Source/tasks.c **** 			if( ( pxStateList == pxDelayedList ) || ( pxStateList == pxOverflowedDelayedList ) )
 928              		.loc 1 1409 0
 929 0036 7A69     		ldr	r2, [r7, #20]
 930 0038 3B69     		ldr	r3, [r7, #16]
 931 003a 9A42     		cmp	r2, r3
 932 003c 03D0     		beq	.L57
 933              		.loc 1 1409 0 is_stmt 0 discriminator 1
 934 003e 7A69     		ldr	r2, [r7, #20]
 935 0040 FB68     		ldr	r3, [r7, #12]
 936 0042 9A42     		cmp	r2, r3
 937 0044 02D1     		bne	.L58
 938              	.L57:
1410:Source/tasks.c **** 			{
1411:Source/tasks.c **** 				/* The task being queried is referenced from one of the Blocked
1412:Source/tasks.c **** 				lists. */
1413:Source/tasks.c **** 				eReturn = eBlocked;
 939              		.loc 1 1413 0 is_stmt 1
 940 0046 0223     		movs	r3, #2
 941 0048 FB77     		strb	r3, [r7, #31]
 942 004a 22E0     		b	.L56
 943              	.L58:
1414:Source/tasks.c **** 			}
1415:Source/tasks.c **** 
1416:Source/tasks.c **** 			#if ( INCLUDE_vTaskSuspend == 1 )
1417:Source/tasks.c **** 				else if( pxStateList == &xSuspendedTaskList )
 944              		.loc 1 1417 0
 945 004c 7B69     		ldr	r3, [r7, #20]
 946 004e 164A     		ldr	r2, .L67+12
 947 0050 9342     		cmp	r3, r2
 948 0052 12D1     		bne	.L59
1418:Source/tasks.c **** 				{
1419:Source/tasks.c **** 					/* The task being queried is referenced from the suspended
1420:Source/tasks.c **** 					list.  Is it genuinely suspended or is it blocked
ARM GAS  C:\Users\mikke\AppData\Local\Temp\ccIUnQd7.s 			page 43


1421:Source/tasks.c **** 					indefinitely? */
1422:Source/tasks.c **** 					if( listLIST_ITEM_CONTAINER( &( pxTCB->xEventListItem ) ) == NULL )
 949              		.loc 1 1422 0
 950 0054 BB69     		ldr	r3, [r7, #24]
 951 0056 9B6A     		ldr	r3, [r3, #40]
 952 0058 002B     		cmp	r3, #0
 953 005a 0BD1     		bne	.L60
1423:Source/tasks.c **** 					{
1424:Source/tasks.c **** 						#if( configUSE_TASK_NOTIFICATIONS == 1 )
1425:Source/tasks.c **** 						{
1426:Source/tasks.c **** 							/* The task does not appear on the event list item of
1427:Source/tasks.c **** 							and of the RTOS objects, but could still be in the
1428:Source/tasks.c **** 							blocked state if it is waiting on its notification
1429:Source/tasks.c **** 							rather than waiting on an object. */
1430:Source/tasks.c **** 							if( pxTCB->ucNotifyState == taskWAITING_NOTIFICATION )
 954              		.loc 1 1430 0
 955 005c BB69     		ldr	r3, [r7, #24]
 956 005e 93F84C30 		ldrb	r3, [r3, #76]
 957 0062 DBB2     		uxtb	r3, r3
 958 0064 012B     		cmp	r3, #1
 959 0066 02D1     		bne	.L61
1431:Source/tasks.c **** 							{
1432:Source/tasks.c **** 								eReturn = eBlocked;
 960              		.loc 1 1432 0
 961 0068 0223     		movs	r3, #2
 962 006a FB77     		strb	r3, [r7, #31]
 963 006c 11E0     		b	.L56
 964              	.L61:
1433:Source/tasks.c **** 							}
1434:Source/tasks.c **** 							else
1435:Source/tasks.c **** 							{
1436:Source/tasks.c **** 								eReturn = eSuspended;
 965              		.loc 1 1436 0
 966 006e 0323     		movs	r3, #3
 967 0070 FB77     		strb	r3, [r7, #31]
 968 0072 0EE0     		b	.L56
 969              	.L60:
1437:Source/tasks.c **** 							}
1438:Source/tasks.c **** 						}
1439:Source/tasks.c **** 						#else
1440:Source/tasks.c **** 						{
1441:Source/tasks.c **** 							eReturn = eSuspended;
1442:Source/tasks.c **** 						}
1443:Source/tasks.c **** 						#endif
1444:Source/tasks.c **** 					}
1445:Source/tasks.c **** 					else
1446:Source/tasks.c **** 					{
1447:Source/tasks.c **** 						eReturn = eBlocked;
 970              		.loc 1 1447 0
 971 0074 0223     		movs	r3, #2
 972 0076 FB77     		strb	r3, [r7, #31]
 973 0078 0BE0     		b	.L56
 974              	.L59:
1448:Source/tasks.c **** 					}
1449:Source/tasks.c **** 				}
1450:Source/tasks.c **** 			#endif
1451:Source/tasks.c **** 
ARM GAS  C:\Users\mikke\AppData\Local\Temp\ccIUnQd7.s 			page 44


1452:Source/tasks.c **** 			#if ( INCLUDE_vTaskDelete == 1 )
1453:Source/tasks.c **** 				else if( ( pxStateList == &xTasksWaitingTermination ) || ( pxStateList == NULL ) )
 975              		.loc 1 1453 0
 976 007a 7B69     		ldr	r3, [r7, #20]
 977 007c 0B4A     		ldr	r2, .L67+16
 978 007e 9342     		cmp	r3, r2
 979 0080 02D0     		beq	.L64
 980              		.loc 1 1453 0 is_stmt 0 discriminator 1
 981 0082 7B69     		ldr	r3, [r7, #20]
 982 0084 002B     		cmp	r3, #0
 983 0086 02D1     		bne	.L65
 984              	.L64:
1454:Source/tasks.c **** 				{
1455:Source/tasks.c **** 					/* The task being queried is referenced from the deleted
1456:Source/tasks.c **** 					tasks list, or it is not referenced from any lists at
1457:Source/tasks.c **** 					all. */
1458:Source/tasks.c **** 					eReturn = eDeleted;
 985              		.loc 1 1458 0 is_stmt 1
 986 0088 0423     		movs	r3, #4
 987 008a FB77     		strb	r3, [r7, #31]
 988 008c 01E0     		b	.L56
 989              	.L65:
1459:Source/tasks.c **** 				}
1460:Source/tasks.c **** 			#endif
1461:Source/tasks.c **** 
1462:Source/tasks.c **** 			else /*lint !e525 Negative indentation is intended to make use of pre-processor clearer. */
1463:Source/tasks.c **** 			{
1464:Source/tasks.c **** 				/* If the task is not in any other state, it must be in the
1465:Source/tasks.c **** 				Ready (including pending ready) state. */
1466:Source/tasks.c **** 				eReturn = eReady;
 990              		.loc 1 1466 0
 991 008e 0123     		movs	r3, #1
 992 0090 FB77     		strb	r3, [r7, #31]
 993              	.L56:
1467:Source/tasks.c **** 			}
1468:Source/tasks.c **** 		}
1469:Source/tasks.c **** 
1470:Source/tasks.c **** 		return eReturn;
 994              		.loc 1 1470 0
 995 0092 FB7F     		ldrb	r3, [r7, #31]	@ zero_extendqisi2
1471:Source/tasks.c **** 	} /*lint !e818 xTask cannot be a pointer to const because it is a typedef. */
 996              		.loc 1 1471 0
 997 0094 1846     		mov	r0, r3
 998 0096 2037     		adds	r7, r7, #32
 999              		.cfi_def_cfa_offset 8
 1000 0098 BD46     		mov	sp, r7
 1001              		.cfi_def_cfa_register 13
 1002              		@ sp needed
 1003 009a 80BD     		pop	{r7, pc}
 1004              	.L68:
 1005              		.align	2
 1006              	.L67:
 1007 009c 00000000 		.word	pxCurrentTCB
 1008 00a0 90000000 		.word	pxDelayedTaskList
 1009 00a4 94000000 		.word	pxOverflowDelayedTaskList
 1010 00a8 C4000000 		.word	xSuspendedTaskList
 1011 00ac AC000000 		.word	xTasksWaitingTermination
ARM GAS  C:\Users\mikke\AppData\Local\Temp\ccIUnQd7.s 			page 45


 1012              		.cfi_endproc
 1013              	.LFE74:
 1014              		.size	eTaskGetState, .-eTaskGetState
 1015              		.section	.text.uxTaskPriorityGet,"ax",%progbits
 1016              		.align	2
 1017              		.global	uxTaskPriorityGet
 1018              		.thumb
 1019              		.thumb_func
 1020              		.type	uxTaskPriorityGet, %function
 1021              	uxTaskPriorityGet:
 1022              	.LFB75:
1472:Source/tasks.c **** 
1473:Source/tasks.c **** #endif /* INCLUDE_eTaskGetState */
1474:Source/tasks.c **** /*-----------------------------------------------------------*/
1475:Source/tasks.c **** 
1476:Source/tasks.c **** #if ( INCLUDE_uxTaskPriorityGet == 1 )
1477:Source/tasks.c **** 
1478:Source/tasks.c **** 	UBaseType_t uxTaskPriorityGet( const TaskHandle_t xTask )
1479:Source/tasks.c **** 	{
 1023              		.loc 1 1479 0
 1024              		.cfi_startproc
 1025              		@ args = 0, pretend = 0, frame = 16
 1026              		@ frame_needed = 1, uses_anonymous_args = 0
 1027 0000 80B5     		push	{r7, lr}
 1028              		.cfi_def_cfa_offset 8
 1029              		.cfi_offset 7, -8
 1030              		.cfi_offset 14, -4
 1031 0002 84B0     		sub	sp, sp, #16
 1032              		.cfi_def_cfa_offset 24
 1033 0004 00AF     		add	r7, sp, #0
 1034              		.cfi_def_cfa_register 7
 1035 0006 7860     		str	r0, [r7, #4]
1480:Source/tasks.c **** 	TCB_t const *pxTCB;
1481:Source/tasks.c **** 	UBaseType_t uxReturn;
1482:Source/tasks.c **** 
1483:Source/tasks.c **** 		taskENTER_CRITICAL();
 1036              		.loc 1 1483 0
 1037 0008 FFF7FEFF 		bl	vPortEnterCritical
1484:Source/tasks.c **** 		{
1485:Source/tasks.c **** 			/* If null is passed in here then it is the priority of the task
1486:Source/tasks.c **** 			that called uxTaskPriorityGet() that is being queried. */
1487:Source/tasks.c **** 			pxTCB = prvGetTCBFromHandle( xTask );
 1038              		.loc 1 1487 0
 1039 000c 7B68     		ldr	r3, [r7, #4]
 1040 000e 002B     		cmp	r3, #0
 1041 0010 02D1     		bne	.L70
 1042              		.loc 1 1487 0 is_stmt 0 discriminator 1
 1043 0012 074B     		ldr	r3, .L73
 1044 0014 1B68     		ldr	r3, [r3]
 1045 0016 00E0     		b	.L71
 1046              	.L70:
 1047              		.loc 1 1487 0 discriminator 2
 1048 0018 7B68     		ldr	r3, [r7, #4]
 1049              	.L71:
 1050              		.loc 1 1487 0 discriminator 4
 1051 001a FB60     		str	r3, [r7, #12]
1488:Source/tasks.c **** 			uxReturn = pxTCB->uxPriority;
ARM GAS  C:\Users\mikke\AppData\Local\Temp\ccIUnQd7.s 			page 46


 1052              		.loc 1 1488 0 is_stmt 1 discriminator 4
 1053 001c FB68     		ldr	r3, [r7, #12]
 1054 001e DB6A     		ldr	r3, [r3, #44]
 1055 0020 BB60     		str	r3, [r7, #8]
1489:Source/tasks.c **** 		}
1490:Source/tasks.c **** 		taskEXIT_CRITICAL();
 1056              		.loc 1 1490 0 discriminator 4
 1057 0022 FFF7FEFF 		bl	vPortExitCritical
1491:Source/tasks.c **** 
1492:Source/tasks.c **** 		return uxReturn;
 1058              		.loc 1 1492 0 discriminator 4
 1059 0026 BB68     		ldr	r3, [r7, #8]
1493:Source/tasks.c **** 	}
 1060              		.loc 1 1493 0 discriminator 4
 1061 0028 1846     		mov	r0, r3
 1062 002a 1037     		adds	r7, r7, #16
 1063              		.cfi_def_cfa_offset 8
 1064 002c BD46     		mov	sp, r7
 1065              		.cfi_def_cfa_register 13
 1066              		@ sp needed
 1067 002e 80BD     		pop	{r7, pc}
 1068              	.L74:
 1069              		.align	2
 1070              	.L73:
 1071 0030 00000000 		.word	pxCurrentTCB
 1072              		.cfi_endproc
 1073              	.LFE75:
 1074              		.size	uxTaskPriorityGet, .-uxTaskPriorityGet
 1075              		.section	.text.uxTaskPriorityGetFromISR,"ax",%progbits
 1076              		.align	2
 1077              		.global	uxTaskPriorityGetFromISR
 1078              		.thumb
 1079              		.thumb_func
 1080              		.type	uxTaskPriorityGetFromISR, %function
 1081              	uxTaskPriorityGetFromISR:
 1082              	.LFB76:
1494:Source/tasks.c **** 
1495:Source/tasks.c **** #endif /* INCLUDE_uxTaskPriorityGet */
1496:Source/tasks.c **** /*-----------------------------------------------------------*/
1497:Source/tasks.c **** 
1498:Source/tasks.c **** #if ( INCLUDE_uxTaskPriorityGet == 1 )
1499:Source/tasks.c **** 
1500:Source/tasks.c **** 	UBaseType_t uxTaskPriorityGetFromISR( const TaskHandle_t xTask )
1501:Source/tasks.c **** 	{
 1083              		.loc 1 1501 0
 1084              		.cfi_startproc
 1085              		@ args = 0, pretend = 0, frame = 32
 1086              		@ frame_needed = 1, uses_anonymous_args = 0
 1087              		@ link register save eliminated.
 1088 0000 80B4     		push	{r7}
 1089              		.cfi_def_cfa_offset 4
 1090              		.cfi_offset 7, -4
 1091 0002 89B0     		sub	sp, sp, #36
 1092              		.cfi_def_cfa_offset 40
 1093 0004 00AF     		add	r7, sp, #0
 1094              		.cfi_def_cfa_register 7
 1095 0006 7860     		str	r0, [r7, #4]
ARM GAS  C:\Users\mikke\AppData\Local\Temp\ccIUnQd7.s 			page 47


 1096              	.LBB29:
 1097              	.LBB30:
 1098              		.file 2 ".\\Source\\portable\\GCC\\ARM_CM3/portmacro.h"
   1:.\Source\portable\GCC\ARM_CM3/portmacro.h **** /*
   2:.\Source\portable\GCC\ARM_CM3/portmacro.h ****  * FreeRTOS Kernel V10.3.1
   3:.\Source\portable\GCC\ARM_CM3/portmacro.h ****  * Copyright (C) 2020 Amazon.com, Inc. or its affiliates.  All Rights Reserved.
   4:.\Source\portable\GCC\ARM_CM3/portmacro.h ****  *
   5:.\Source\portable\GCC\ARM_CM3/portmacro.h ****  * Permission is hereby granted, free of charge, to any person obtaining a copy of
   6:.\Source\portable\GCC\ARM_CM3/portmacro.h ****  * this software and associated documentation files (the "Software"), to deal in
   7:.\Source\portable\GCC\ARM_CM3/portmacro.h ****  * the Software without restriction, including without limitation the rights to
   8:.\Source\portable\GCC\ARM_CM3/portmacro.h ****  * use, copy, modify, merge, publish, distribute, sublicense, and/or sell copies of
   9:.\Source\portable\GCC\ARM_CM3/portmacro.h ****  * the Software, and to permit persons to whom the Software is furnished to do so,
  10:.\Source\portable\GCC\ARM_CM3/portmacro.h ****  * subject to the following conditions:
  11:.\Source\portable\GCC\ARM_CM3/portmacro.h ****  *
  12:.\Source\portable\GCC\ARM_CM3/portmacro.h ****  * The above copyright notice and this permission notice shall be included in all
  13:.\Source\portable\GCC\ARM_CM3/portmacro.h ****  * copies or substantial portions of the Software.
  14:.\Source\portable\GCC\ARM_CM3/portmacro.h ****  *
  15:.\Source\portable\GCC\ARM_CM3/portmacro.h ****  * THE SOFTWARE IS PROVIDED "AS IS", WITHOUT WARRANTY OF ANY KIND, EXPRESS OR
  16:.\Source\portable\GCC\ARM_CM3/portmacro.h ****  * IMPLIED, INCLUDING BUT NOT LIMITED TO THE WARRANTIES OF MERCHANTABILITY, FITNESS
  17:.\Source\portable\GCC\ARM_CM3/portmacro.h ****  * FOR A PARTICULAR PURPOSE AND NONINFRINGEMENT. IN NO EVENT SHALL THE AUTHORS OR
  18:.\Source\portable\GCC\ARM_CM3/portmacro.h ****  * COPYRIGHT HOLDERS BE LIABLE FOR ANY CLAIM, DAMAGES OR OTHER LIABILITY, WHETHER
  19:.\Source\portable\GCC\ARM_CM3/portmacro.h ****  * IN AN ACTION OF CONTRACT, TORT OR OTHERWISE, ARISING FROM, OUT OF OR IN
  20:.\Source\portable\GCC\ARM_CM3/portmacro.h ****  * CONNECTION WITH THE SOFTWARE OR THE USE OR OTHER DEALINGS IN THE SOFTWARE.
  21:.\Source\portable\GCC\ARM_CM3/portmacro.h ****  *
  22:.\Source\portable\GCC\ARM_CM3/portmacro.h ****  * http://www.FreeRTOS.org
  23:.\Source\portable\GCC\ARM_CM3/portmacro.h ****  * http://aws.amazon.com/freertos
  24:.\Source\portable\GCC\ARM_CM3/portmacro.h ****  *
  25:.\Source\portable\GCC\ARM_CM3/portmacro.h ****  * 1 tab == 4 spaces!
  26:.\Source\portable\GCC\ARM_CM3/portmacro.h ****  */
  27:.\Source\portable\GCC\ARM_CM3/portmacro.h **** 
  28:.\Source\portable\GCC\ARM_CM3/portmacro.h **** 
  29:.\Source\portable\GCC\ARM_CM3/portmacro.h **** #ifndef PORTMACRO_H
  30:.\Source\portable\GCC\ARM_CM3/portmacro.h **** #define PORTMACRO_H
  31:.\Source\portable\GCC\ARM_CM3/portmacro.h **** 
  32:.\Source\portable\GCC\ARM_CM3/portmacro.h **** #ifdef __cplusplus
  33:.\Source\portable\GCC\ARM_CM3/portmacro.h **** extern "C" {
  34:.\Source\portable\GCC\ARM_CM3/portmacro.h **** #endif
  35:.\Source\portable\GCC\ARM_CM3/portmacro.h **** 
  36:.\Source\portable\GCC\ARM_CM3/portmacro.h **** /*-----------------------------------------------------------
  37:.\Source\portable\GCC\ARM_CM3/portmacro.h ****  * Port specific definitions.
  38:.\Source\portable\GCC\ARM_CM3/portmacro.h ****  *
  39:.\Source\portable\GCC\ARM_CM3/portmacro.h ****  * The settings in this file configure FreeRTOS correctly for the
  40:.\Source\portable\GCC\ARM_CM3/portmacro.h ****  * given hardware and compiler.
  41:.\Source\portable\GCC\ARM_CM3/portmacro.h ****  *
  42:.\Source\portable\GCC\ARM_CM3/portmacro.h ****  * These settings should not be altered.
  43:.\Source\portable\GCC\ARM_CM3/portmacro.h ****  *-----------------------------------------------------------
  44:.\Source\portable\GCC\ARM_CM3/portmacro.h ****  */
  45:.\Source\portable\GCC\ARM_CM3/portmacro.h **** 
  46:.\Source\portable\GCC\ARM_CM3/portmacro.h **** /* Type definitions. */
  47:.\Source\portable\GCC\ARM_CM3/portmacro.h **** #define portCHAR		char
  48:.\Source\portable\GCC\ARM_CM3/portmacro.h **** #define portFLOAT		float
  49:.\Source\portable\GCC\ARM_CM3/portmacro.h **** #define portDOUBLE		double
  50:.\Source\portable\GCC\ARM_CM3/portmacro.h **** #define portLONG		long
  51:.\Source\portable\GCC\ARM_CM3/portmacro.h **** #define portSHORT		short
  52:.\Source\portable\GCC\ARM_CM3/portmacro.h **** #define portSTACK_TYPE	uint32_t
  53:.\Source\portable\GCC\ARM_CM3/portmacro.h **** #define portBASE_TYPE	long
  54:.\Source\portable\GCC\ARM_CM3/portmacro.h **** 
ARM GAS  C:\Users\mikke\AppData\Local\Temp\ccIUnQd7.s 			page 48


  55:.\Source\portable\GCC\ARM_CM3/portmacro.h **** typedef portSTACK_TYPE StackType_t;
  56:.\Source\portable\GCC\ARM_CM3/portmacro.h **** typedef long BaseType_t;
  57:.\Source\portable\GCC\ARM_CM3/portmacro.h **** typedef unsigned long UBaseType_t;
  58:.\Source\portable\GCC\ARM_CM3/portmacro.h **** 
  59:.\Source\portable\GCC\ARM_CM3/portmacro.h **** #if( configUSE_16_BIT_TICKS == 1 )
  60:.\Source\portable\GCC\ARM_CM3/portmacro.h **** 	typedef uint16_t TickType_t;
  61:.\Source\portable\GCC\ARM_CM3/portmacro.h **** 	#define portMAX_DELAY ( TickType_t ) 0xffff
  62:.\Source\portable\GCC\ARM_CM3/portmacro.h **** #else
  63:.\Source\portable\GCC\ARM_CM3/portmacro.h **** 	typedef uint32_t TickType_t;
  64:.\Source\portable\GCC\ARM_CM3/portmacro.h **** 	#define portMAX_DELAY ( TickType_t ) 0xffffffffUL
  65:.\Source\portable\GCC\ARM_CM3/portmacro.h **** 
  66:.\Source\portable\GCC\ARM_CM3/portmacro.h **** 	/* 32-bit tick type on a 32-bit architecture, so reads of the tick count do
  67:.\Source\portable\GCC\ARM_CM3/portmacro.h **** 	not need to be guarded with a critical section. */
  68:.\Source\portable\GCC\ARM_CM3/portmacro.h **** 	#define portTICK_TYPE_IS_ATOMIC 1
  69:.\Source\portable\GCC\ARM_CM3/portmacro.h **** #endif
  70:.\Source\portable\GCC\ARM_CM3/portmacro.h **** /*-----------------------------------------------------------*/
  71:.\Source\portable\GCC\ARM_CM3/portmacro.h **** 
  72:.\Source\portable\GCC\ARM_CM3/portmacro.h **** /* Architecture specifics. */
  73:.\Source\portable\GCC\ARM_CM3/portmacro.h **** #define portSTACK_GROWTH			( -1 )
  74:.\Source\portable\GCC\ARM_CM3/portmacro.h **** #define portTICK_PERIOD_MS			( ( TickType_t ) 1000 / configTICK_RATE_HZ )
  75:.\Source\portable\GCC\ARM_CM3/portmacro.h **** #define portBYTE_ALIGNMENT			8
  76:.\Source\portable\GCC\ARM_CM3/portmacro.h **** /*-----------------------------------------------------------*/
  77:.\Source\portable\GCC\ARM_CM3/portmacro.h **** 
  78:.\Source\portable\GCC\ARM_CM3/portmacro.h **** /* Scheduler utilities. */
  79:.\Source\portable\GCC\ARM_CM3/portmacro.h **** #define portYIELD() 															\
  80:.\Source\portable\GCC\ARM_CM3/portmacro.h **** {																				\
  81:.\Source\portable\GCC\ARM_CM3/portmacro.h **** 	/* Set a PendSV to request a context switch. */								\
  82:.\Source\portable\GCC\ARM_CM3/portmacro.h **** 	portNVIC_INT_CTRL_REG = portNVIC_PENDSVSET_BIT;								\
  83:.\Source\portable\GCC\ARM_CM3/portmacro.h **** 																				\
  84:.\Source\portable\GCC\ARM_CM3/portmacro.h **** 	/* Barriers are normally not required but do ensure the code is completely	\
  85:.\Source\portable\GCC\ARM_CM3/portmacro.h **** 	within the specified behaviour for the architecture. */						\
  86:.\Source\portable\GCC\ARM_CM3/portmacro.h **** 	__asm volatile( "dsb" ::: "memory" );										\
  87:.\Source\portable\GCC\ARM_CM3/portmacro.h **** 	__asm volatile( "isb" );													\
  88:.\Source\portable\GCC\ARM_CM3/portmacro.h **** }
  89:.\Source\portable\GCC\ARM_CM3/portmacro.h **** 
  90:.\Source\portable\GCC\ARM_CM3/portmacro.h **** #define portNVIC_INT_CTRL_REG		( * ( ( volatile uint32_t * ) 0xe000ed04 ) )
  91:.\Source\portable\GCC\ARM_CM3/portmacro.h **** #define portNVIC_PENDSVSET_BIT		( 1UL << 28UL )
  92:.\Source\portable\GCC\ARM_CM3/portmacro.h **** #define portEND_SWITCHING_ISR( xSwitchRequired ) if( xSwitchRequired != pdFALSE ) portYIELD()
  93:.\Source\portable\GCC\ARM_CM3/portmacro.h **** #define portYIELD_FROM_ISR( x ) portEND_SWITCHING_ISR( x )
  94:.\Source\portable\GCC\ARM_CM3/portmacro.h **** /*-----------------------------------------------------------*/
  95:.\Source\portable\GCC\ARM_CM3/portmacro.h **** 
  96:.\Source\portable\GCC\ARM_CM3/portmacro.h **** /* Critical section management. */
  97:.\Source\portable\GCC\ARM_CM3/portmacro.h **** extern void vPortEnterCritical( void );
  98:.\Source\portable\GCC\ARM_CM3/portmacro.h **** extern void vPortExitCritical( void );
  99:.\Source\portable\GCC\ARM_CM3/portmacro.h **** #define portSET_INTERRUPT_MASK_FROM_ISR()		ulPortRaiseBASEPRI()
 100:.\Source\portable\GCC\ARM_CM3/portmacro.h **** #define portCLEAR_INTERRUPT_MASK_FROM_ISR(x)	vPortSetBASEPRI(x)
 101:.\Source\portable\GCC\ARM_CM3/portmacro.h **** #define portDISABLE_INTERRUPTS()				vPortRaiseBASEPRI()
 102:.\Source\portable\GCC\ARM_CM3/portmacro.h **** #define portENABLE_INTERRUPTS()					vPortSetBASEPRI(0)
 103:.\Source\portable\GCC\ARM_CM3/portmacro.h **** #define portENTER_CRITICAL()					vPortEnterCritical()
 104:.\Source\portable\GCC\ARM_CM3/portmacro.h **** #define portEXIT_CRITICAL()						vPortExitCritical()
 105:.\Source\portable\GCC\ARM_CM3/portmacro.h **** 
 106:.\Source\portable\GCC\ARM_CM3/portmacro.h **** /*-----------------------------------------------------------*/
 107:.\Source\portable\GCC\ARM_CM3/portmacro.h **** 
 108:.\Source\portable\GCC\ARM_CM3/portmacro.h **** /* Task function macros as described on the FreeRTOS.org WEB site.  These are
 109:.\Source\portable\GCC\ARM_CM3/portmacro.h **** not necessary for to use this port.  They are defined so the common demo files
 110:.\Source\portable\GCC\ARM_CM3/portmacro.h **** (which build with all the ports) will build. */
 111:.\Source\portable\GCC\ARM_CM3/portmacro.h **** #define portTASK_FUNCTION_PROTO( vFunction, pvParameters ) void vFunction( void *pvParameters )
ARM GAS  C:\Users\mikke\AppData\Local\Temp\ccIUnQd7.s 			page 49


 112:.\Source\portable\GCC\ARM_CM3/portmacro.h **** #define portTASK_FUNCTION( vFunction, pvParameters ) void vFunction( void *pvParameters )
 113:.\Source\portable\GCC\ARM_CM3/portmacro.h **** /*-----------------------------------------------------------*/
 114:.\Source\portable\GCC\ARM_CM3/portmacro.h **** 
 115:.\Source\portable\GCC\ARM_CM3/portmacro.h **** /* Tickless idle/low power functionality. */
 116:.\Source\portable\GCC\ARM_CM3/portmacro.h **** #ifndef portSUPPRESS_TICKS_AND_SLEEP
 117:.\Source\portable\GCC\ARM_CM3/portmacro.h **** 	extern void vPortSuppressTicksAndSleep( TickType_t xExpectedIdleTime );
 118:.\Source\portable\GCC\ARM_CM3/portmacro.h **** 	#define portSUPPRESS_TICKS_AND_SLEEP( xExpectedIdleTime ) vPortSuppressTicksAndSleep( xExpectedIdl
 119:.\Source\portable\GCC\ARM_CM3/portmacro.h **** #endif
 120:.\Source\portable\GCC\ARM_CM3/portmacro.h **** /*-----------------------------------------------------------*/
 121:.\Source\portable\GCC\ARM_CM3/portmacro.h **** 
 122:.\Source\portable\GCC\ARM_CM3/portmacro.h **** /* Architecture specific optimisations. */
 123:.\Source\portable\GCC\ARM_CM3/portmacro.h **** #ifndef configUSE_PORT_OPTIMISED_TASK_SELECTION
 124:.\Source\portable\GCC\ARM_CM3/portmacro.h **** 	#define configUSE_PORT_OPTIMISED_TASK_SELECTION 1
 125:.\Source\portable\GCC\ARM_CM3/portmacro.h **** #endif
 126:.\Source\portable\GCC\ARM_CM3/portmacro.h **** 
 127:.\Source\portable\GCC\ARM_CM3/portmacro.h **** #if configUSE_PORT_OPTIMISED_TASK_SELECTION == 1
 128:.\Source\portable\GCC\ARM_CM3/portmacro.h **** 
 129:.\Source\portable\GCC\ARM_CM3/portmacro.h **** 	/* Generic helper function. */
 130:.\Source\portable\GCC\ARM_CM3/portmacro.h **** 	__attribute__( ( always_inline ) ) static inline uint8_t ucPortCountLeadingZeros( uint32_t ulBitma
 131:.\Source\portable\GCC\ARM_CM3/portmacro.h **** 	{
 132:.\Source\portable\GCC\ARM_CM3/portmacro.h **** 	uint8_t ucReturn;
 133:.\Source\portable\GCC\ARM_CM3/portmacro.h **** 
 134:.\Source\portable\GCC\ARM_CM3/portmacro.h **** 		__asm volatile ( "clz %0, %1" : "=r" ( ucReturn ) : "r" ( ulBitmap ) : "memory" );
 135:.\Source\portable\GCC\ARM_CM3/portmacro.h **** 		return ucReturn;
 136:.\Source\portable\GCC\ARM_CM3/portmacro.h **** 	}
 137:.\Source\portable\GCC\ARM_CM3/portmacro.h **** 
 138:.\Source\portable\GCC\ARM_CM3/portmacro.h **** 	/* Check the configuration. */
 139:.\Source\portable\GCC\ARM_CM3/portmacro.h **** 	#if( configMAX_PRIORITIES > 32 )
 140:.\Source\portable\GCC\ARM_CM3/portmacro.h **** 		#error configUSE_PORT_OPTIMISED_TASK_SELECTION can only be set to 1 when configMAX_PRIORITIES is 
 141:.\Source\portable\GCC\ARM_CM3/portmacro.h **** 	#endif
 142:.\Source\portable\GCC\ARM_CM3/portmacro.h **** 
 143:.\Source\portable\GCC\ARM_CM3/portmacro.h **** 	/* Store/clear the ready priorities in a bit map. */
 144:.\Source\portable\GCC\ARM_CM3/portmacro.h **** 	#define portRECORD_READY_PRIORITY( uxPriority, uxReadyPriorities ) ( uxReadyPriorities ) |= ( 1UL 
 145:.\Source\portable\GCC\ARM_CM3/portmacro.h **** 	#define portRESET_READY_PRIORITY( uxPriority, uxReadyPriorities ) ( uxReadyPriorities ) &= ~( 1UL 
 146:.\Source\portable\GCC\ARM_CM3/portmacro.h **** 
 147:.\Source\portable\GCC\ARM_CM3/portmacro.h **** 	/*-----------------------------------------------------------*/
 148:.\Source\portable\GCC\ARM_CM3/portmacro.h **** 
 149:.\Source\portable\GCC\ARM_CM3/portmacro.h **** 	#define portGET_HIGHEST_PRIORITY( uxTopPriority, uxReadyPriorities ) uxTopPriority = ( 31UL - ( ui
 150:.\Source\portable\GCC\ARM_CM3/portmacro.h **** 
 151:.\Source\portable\GCC\ARM_CM3/portmacro.h **** #endif /* configUSE_PORT_OPTIMISED_TASK_SELECTION */
 152:.\Source\portable\GCC\ARM_CM3/portmacro.h **** 
 153:.\Source\portable\GCC\ARM_CM3/portmacro.h **** /*-----------------------------------------------------------*/
 154:.\Source\portable\GCC\ARM_CM3/portmacro.h **** 
 155:.\Source\portable\GCC\ARM_CM3/portmacro.h **** #ifdef configASSERT
 156:.\Source\portable\GCC\ARM_CM3/portmacro.h **** 	void vPortValidateInterruptPriority( void );
 157:.\Source\portable\GCC\ARM_CM3/portmacro.h **** 	#define portASSERT_IF_INTERRUPT_PRIORITY_INVALID() 	vPortValidateInterruptPriority()
 158:.\Source\portable\GCC\ARM_CM3/portmacro.h **** #endif
 159:.\Source\portable\GCC\ARM_CM3/portmacro.h **** 
 160:.\Source\portable\GCC\ARM_CM3/portmacro.h **** /* portNOP() is not required by this port. */
 161:.\Source\portable\GCC\ARM_CM3/portmacro.h **** #define portNOP()
 162:.\Source\portable\GCC\ARM_CM3/portmacro.h **** 
 163:.\Source\portable\GCC\ARM_CM3/portmacro.h **** #define portINLINE	__inline
 164:.\Source\portable\GCC\ARM_CM3/portmacro.h **** 
 165:.\Source\portable\GCC\ARM_CM3/portmacro.h **** #ifndef portFORCE_INLINE
 166:.\Source\portable\GCC\ARM_CM3/portmacro.h **** 	#define portFORCE_INLINE inline __attribute__(( always_inline))
 167:.\Source\portable\GCC\ARM_CM3/portmacro.h **** #endif
 168:.\Source\portable\GCC\ARM_CM3/portmacro.h **** 
ARM GAS  C:\Users\mikke\AppData\Local\Temp\ccIUnQd7.s 			page 50


 169:.\Source\portable\GCC\ARM_CM3/portmacro.h **** /*-----------------------------------------------------------*/
 170:.\Source\portable\GCC\ARM_CM3/portmacro.h **** 
 171:.\Source\portable\GCC\ARM_CM3/portmacro.h **** portFORCE_INLINE static BaseType_t xPortIsInsideInterrupt( void )
 172:.\Source\portable\GCC\ARM_CM3/portmacro.h **** {
 173:.\Source\portable\GCC\ARM_CM3/portmacro.h **** uint32_t ulCurrentInterrupt;
 174:.\Source\portable\GCC\ARM_CM3/portmacro.h **** BaseType_t xReturn;
 175:.\Source\portable\GCC\ARM_CM3/portmacro.h **** 
 176:.\Source\portable\GCC\ARM_CM3/portmacro.h **** 	/* Obtain the number of the currently executing interrupt. */
 177:.\Source\portable\GCC\ARM_CM3/portmacro.h **** 	__asm volatile( "mrs %0, ipsr" : "=r"( ulCurrentInterrupt ) :: "memory" );
 178:.\Source\portable\GCC\ARM_CM3/portmacro.h **** 
 179:.\Source\portable\GCC\ARM_CM3/portmacro.h **** 	if( ulCurrentInterrupt == 0 )
 180:.\Source\portable\GCC\ARM_CM3/portmacro.h **** 	{
 181:.\Source\portable\GCC\ARM_CM3/portmacro.h **** 		xReturn = pdFALSE;
 182:.\Source\portable\GCC\ARM_CM3/portmacro.h **** 	}
 183:.\Source\portable\GCC\ARM_CM3/portmacro.h **** 	else
 184:.\Source\portable\GCC\ARM_CM3/portmacro.h **** 	{
 185:.\Source\portable\GCC\ARM_CM3/portmacro.h **** 		xReturn = pdTRUE;
 186:.\Source\portable\GCC\ARM_CM3/portmacro.h **** 	}
 187:.\Source\portable\GCC\ARM_CM3/portmacro.h **** 
 188:.\Source\portable\GCC\ARM_CM3/portmacro.h **** 	return xReturn;
 189:.\Source\portable\GCC\ARM_CM3/portmacro.h **** }
 190:.\Source\portable\GCC\ARM_CM3/portmacro.h **** 
 191:.\Source\portable\GCC\ARM_CM3/portmacro.h **** /*-----------------------------------------------------------*/
 192:.\Source\portable\GCC\ARM_CM3/portmacro.h **** 
 193:.\Source\portable\GCC\ARM_CM3/portmacro.h **** portFORCE_INLINE static void vPortRaiseBASEPRI( void )
 194:.\Source\portable\GCC\ARM_CM3/portmacro.h **** {
 195:.\Source\portable\GCC\ARM_CM3/portmacro.h **** uint32_t ulNewBASEPRI;
 196:.\Source\portable\GCC\ARM_CM3/portmacro.h **** 
 197:.\Source\portable\GCC\ARM_CM3/portmacro.h **** 	__asm volatile
 198:.\Source\portable\GCC\ARM_CM3/portmacro.h **** 	(
 199:.\Source\portable\GCC\ARM_CM3/portmacro.h **** 		"	mov %0, %1												\n" \
 200:.\Source\portable\GCC\ARM_CM3/portmacro.h **** 		"	msr basepri, %0											\n" \
 201:.\Source\portable\GCC\ARM_CM3/portmacro.h **** 		"	isb														\n" \
 202:.\Source\portable\GCC\ARM_CM3/portmacro.h **** 		"	dsb														\n" \
 203:.\Source\portable\GCC\ARM_CM3/portmacro.h **** 		:"=r" (ulNewBASEPRI) : "i" ( configMAX_SYSCALL_INTERRUPT_PRIORITY ) : "memory"
 204:.\Source\portable\GCC\ARM_CM3/portmacro.h **** 	);
 205:.\Source\portable\GCC\ARM_CM3/portmacro.h **** }
 206:.\Source\portable\GCC\ARM_CM3/portmacro.h **** 
 207:.\Source\portable\GCC\ARM_CM3/portmacro.h **** /*-----------------------------------------------------------*/
 208:.\Source\portable\GCC\ARM_CM3/portmacro.h **** 
 209:.\Source\portable\GCC\ARM_CM3/portmacro.h **** portFORCE_INLINE static uint32_t ulPortRaiseBASEPRI( void )
 210:.\Source\portable\GCC\ARM_CM3/portmacro.h **** {
 211:.\Source\portable\GCC\ARM_CM3/portmacro.h **** uint32_t ulOriginalBASEPRI, ulNewBASEPRI;
 212:.\Source\portable\GCC\ARM_CM3/portmacro.h **** 
 213:.\Source\portable\GCC\ARM_CM3/portmacro.h **** 	__asm volatile
 1099              		.loc 2 213 0
 1100              		.syntax unified
 1101              	@ 213 ".\Source\portable\GCC\ARM_CM3/portmacro.h" 1
 1102 0008 EFF31182 			mrs r2, basepri											
 1103 000c 4FF0A003 		mov r3, #160												
 1104 0010 83F31188 		msr basepri, r3											
 1105 0014 BFF36F8F 		isb														
 1106 0018 BFF34F8F 		dsb														
 1107              	
 1108              	@ 0 "" 2
 1109              		.thumb
 1110              		.syntax unified
ARM GAS  C:\Users\mikke\AppData\Local\Temp\ccIUnQd7.s 			page 51


 1111 001c FA60     		str	r2, [r7, #12]
 1112 001e BB60     		str	r3, [r7, #8]
 214:.\Source\portable\GCC\ARM_CM3/portmacro.h **** 	(
 215:.\Source\portable\GCC\ARM_CM3/portmacro.h **** 		"	mrs %0, basepri											\n" \
 216:.\Source\portable\GCC\ARM_CM3/portmacro.h **** 		"	mov %1, %2												\n" \
 217:.\Source\portable\GCC\ARM_CM3/portmacro.h **** 		"	msr basepri, %1											\n" \
 218:.\Source\portable\GCC\ARM_CM3/portmacro.h **** 		"	isb														\n" \
 219:.\Source\portable\GCC\ARM_CM3/portmacro.h **** 		"	dsb														\n" \
 220:.\Source\portable\GCC\ARM_CM3/portmacro.h **** 		:"=r" (ulOriginalBASEPRI), "=r" (ulNewBASEPRI) : "i" ( configMAX_SYSCALL_INTERRUPT_PRIORITY ) : "
 221:.\Source\portable\GCC\ARM_CM3/portmacro.h **** 	);
 222:.\Source\portable\GCC\ARM_CM3/portmacro.h **** 
 223:.\Source\portable\GCC\ARM_CM3/portmacro.h **** 	/* This return will not be reached but is necessary to prevent compiler
 224:.\Source\portable\GCC\ARM_CM3/portmacro.h **** 	warnings. */
 225:.\Source\portable\GCC\ARM_CM3/portmacro.h **** 	return ulOriginalBASEPRI;
 1113              		.loc 2 225 0
 1114 0020 FB68     		ldr	r3, [r7, #12]
 1115              	.LBE30:
 1116              	.LBE29:
1502:Source/tasks.c **** 	TCB_t const *pxTCB;
1503:Source/tasks.c **** 	UBaseType_t uxReturn, uxSavedInterruptState;
1504:Source/tasks.c **** 
1505:Source/tasks.c **** 		/* RTOS ports that support interrupt nesting have the concept of a
1506:Source/tasks.c **** 		maximum	system call (or maximum API call) interrupt priority.
1507:Source/tasks.c **** 		Interrupts that are	above the maximum system call priority are keep
1508:Source/tasks.c **** 		permanently enabled, even when the RTOS kernel is in a critical section,
1509:Source/tasks.c **** 		but cannot make any calls to FreeRTOS API functions.  If configASSERT()
1510:Source/tasks.c **** 		is defined in FreeRTOSConfig.h then
1511:Source/tasks.c **** 		portASSERT_IF_INTERRUPT_PRIORITY_INVALID() will result in an assertion
1512:Source/tasks.c **** 		failure if a FreeRTOS API function is called from an interrupt that has
1513:Source/tasks.c **** 		been assigned a priority above the configured maximum system call
1514:Source/tasks.c **** 		priority.  Only FreeRTOS functions that end in FromISR can be called
1515:Source/tasks.c **** 		from interrupts	that have been assigned a priority at or (logically)
1516:Source/tasks.c **** 		below the maximum system call interrupt priority.  FreeRTOS maintains a
1517:Source/tasks.c **** 		separate interrupt safe API to ensure interrupt entry is as fast and as
1518:Source/tasks.c **** 		simple as possible.  More information (albeit Cortex-M specific) is
1519:Source/tasks.c **** 		provided on the following link:
1520:Source/tasks.c **** 		https://www.freertos.org/RTOS-Cortex-M3-M4.html */
1521:Source/tasks.c **** 		portASSERT_IF_INTERRUPT_PRIORITY_INVALID();
1522:Source/tasks.c **** 
1523:Source/tasks.c **** 		uxSavedInterruptState = portSET_INTERRUPT_MASK_FROM_ISR();
 1117              		.loc 1 1523 0
 1118 0022 BB61     		str	r3, [r7, #24]
1524:Source/tasks.c **** 		{
1525:Source/tasks.c **** 			/* If null is passed in here then it is the priority of the calling
1526:Source/tasks.c **** 			task that is being queried. */
1527:Source/tasks.c **** 			pxTCB = prvGetTCBFromHandle( xTask );
 1119              		.loc 1 1527 0
 1120 0024 7B68     		ldr	r3, [r7, #4]
 1121 0026 002B     		cmp	r3, #0
 1122 0028 02D1     		bne	.L77
 1123              		.loc 1 1527 0 is_stmt 0 discriminator 1
 1124 002a 094B     		ldr	r3, .L80
 1125 002c 1B68     		ldr	r3, [r3]
 1126 002e 00E0     		b	.L78
 1127              	.L77:
 1128              		.loc 1 1527 0 discriminator 2
 1129 0030 7B68     		ldr	r3, [r7, #4]
ARM GAS  C:\Users\mikke\AppData\Local\Temp\ccIUnQd7.s 			page 52


 1130              	.L78:
 1131              		.loc 1 1527 0 discriminator 4
 1132 0032 7B61     		str	r3, [r7, #20]
1528:Source/tasks.c **** 			uxReturn = pxTCB->uxPriority;
 1133              		.loc 1 1528 0 is_stmt 1 discriminator 4
 1134 0034 7B69     		ldr	r3, [r7, #20]
 1135 0036 DB6A     		ldr	r3, [r3, #44]
 1136 0038 3B61     		str	r3, [r7, #16]
 1137 003a BB69     		ldr	r3, [r7, #24]
 1138 003c FB61     		str	r3, [r7, #28]
 1139              	.LBB31:
 1140              	.LBB32:
 226:.\Source\portable\GCC\ARM_CM3/portmacro.h **** }
 227:.\Source\portable\GCC\ARM_CM3/portmacro.h **** /*-----------------------------------------------------------*/
 228:.\Source\portable\GCC\ARM_CM3/portmacro.h **** 
 229:.\Source\portable\GCC\ARM_CM3/portmacro.h **** portFORCE_INLINE static void vPortSetBASEPRI( uint32_t ulNewMaskValue )
 230:.\Source\portable\GCC\ARM_CM3/portmacro.h **** {
 231:.\Source\portable\GCC\ARM_CM3/portmacro.h **** 	__asm volatile
 1141              		.loc 2 231 0 discriminator 4
 1142 003e FB69     		ldr	r3, [r7, #28]
 1143              		.syntax unified
 1144              	@ 231 ".\Source\portable\GCC\ARM_CM3/portmacro.h" 1
 1145 0040 83F31188 			msr basepri, r3	
 1146              	@ 0 "" 2
 1147              		.thumb
 1148              		.syntax unified
 1149              	.LBE32:
 1150              	.LBE31:
1529:Source/tasks.c **** 		}
1530:Source/tasks.c **** 		portCLEAR_INTERRUPT_MASK_FROM_ISR( uxSavedInterruptState );
1531:Source/tasks.c **** 
1532:Source/tasks.c **** 		return uxReturn;
 1151              		.loc 1 1532 0 discriminator 4
 1152 0044 3B69     		ldr	r3, [r7, #16]
1533:Source/tasks.c **** 	}
 1153              		.loc 1 1533 0 discriminator 4
 1154 0046 1846     		mov	r0, r3
 1155 0048 2437     		adds	r7, r7, #36
 1156              		.cfi_def_cfa_offset 4
 1157 004a BD46     		mov	sp, r7
 1158              		.cfi_def_cfa_register 13
 1159              		@ sp needed
 1160 004c 80BC     		pop	{r7}
 1161              		.cfi_restore 7
 1162              		.cfi_def_cfa_offset 0
 1163 004e 7047     		bx	lr
 1164              	.L81:
 1165              		.align	2
 1166              	.L80:
 1167 0050 00000000 		.word	pxCurrentTCB
 1168              		.cfi_endproc
 1169              	.LFE76:
 1170              		.size	uxTaskPriorityGetFromISR, .-uxTaskPriorityGetFromISR
 1171              		.section	.text.vTaskPrioritySet,"ax",%progbits
 1172              		.align	2
 1173              		.global	vTaskPrioritySet
 1174              		.thumb
ARM GAS  C:\Users\mikke\AppData\Local\Temp\ccIUnQd7.s 			page 53


 1175              		.thumb_func
 1176              		.type	vTaskPrioritySet, %function
 1177              	vTaskPrioritySet:
 1178              	.LFB77:
1534:Source/tasks.c **** 
1535:Source/tasks.c **** #endif /* INCLUDE_uxTaskPriorityGet */
1536:Source/tasks.c **** /*-----------------------------------------------------------*/
1537:Source/tasks.c **** 
1538:Source/tasks.c **** #if ( INCLUDE_vTaskPrioritySet == 1 )
1539:Source/tasks.c **** 
1540:Source/tasks.c **** 	void vTaskPrioritySet( TaskHandle_t xTask, UBaseType_t uxNewPriority )
1541:Source/tasks.c **** 	{
 1179              		.loc 1 1541 0
 1180              		.cfi_startproc
 1181              		@ args = 0, pretend = 0, frame = 24
 1182              		@ frame_needed = 1, uses_anonymous_args = 0
 1183 0000 80B5     		push	{r7, lr}
 1184              		.cfi_def_cfa_offset 8
 1185              		.cfi_offset 7, -8
 1186              		.cfi_offset 14, -4
 1187 0002 86B0     		sub	sp, sp, #24
 1188              		.cfi_def_cfa_offset 32
 1189 0004 00AF     		add	r7, sp, #0
 1190              		.cfi_def_cfa_register 7
 1191 0006 7860     		str	r0, [r7, #4]
 1192 0008 3960     		str	r1, [r7]
1542:Source/tasks.c **** 	TCB_t *pxTCB;
1543:Source/tasks.c **** 	UBaseType_t uxCurrentBasePriority, uxPriorityUsedOnEntry;
1544:Source/tasks.c **** 	BaseType_t xYieldRequired = pdFALSE;
 1193              		.loc 1 1544 0
 1194 000a 0023     		movs	r3, #0
 1195 000c 7B61     		str	r3, [r7, #20]
1545:Source/tasks.c **** 
1546:Source/tasks.c **** 		configASSERT( ( uxNewPriority < configMAX_PRIORITIES ) );
1547:Source/tasks.c **** 
1548:Source/tasks.c **** 		/* Ensure the new priority is valid. */
1549:Source/tasks.c **** 		if( uxNewPriority >= ( UBaseType_t ) configMAX_PRIORITIES )
 1196              		.loc 1 1549 0
 1197 000e 3B68     		ldr	r3, [r7]
 1198 0010 042B     		cmp	r3, #4
 1199 0012 01D9     		bls	.L83
1550:Source/tasks.c **** 		{
1551:Source/tasks.c **** 			uxNewPriority = ( UBaseType_t ) configMAX_PRIORITIES - ( UBaseType_t ) 1U;
 1200              		.loc 1 1551 0
 1201 0014 0423     		movs	r3, #4
 1202 0016 3B60     		str	r3, [r7]
 1203              	.L83:
1552:Source/tasks.c **** 		}
1553:Source/tasks.c **** 		else
1554:Source/tasks.c **** 		{
1555:Source/tasks.c **** 			mtCOVERAGE_TEST_MARKER();
1556:Source/tasks.c **** 		}
1557:Source/tasks.c **** 
1558:Source/tasks.c **** 		taskENTER_CRITICAL();
 1204              		.loc 1 1558 0
 1205 0018 FFF7FEFF 		bl	vPortEnterCritical
1559:Source/tasks.c **** 		{
ARM GAS  C:\Users\mikke\AppData\Local\Temp\ccIUnQd7.s 			page 54


1560:Source/tasks.c **** 			/* If null is passed in here then it is the priority of the calling
1561:Source/tasks.c **** 			task that is being changed. */
1562:Source/tasks.c **** 			pxTCB = prvGetTCBFromHandle( xTask );
 1206              		.loc 1 1562 0
 1207 001c 7B68     		ldr	r3, [r7, #4]
 1208 001e 002B     		cmp	r3, #0
 1209 0020 02D1     		bne	.L84
 1210              		.loc 1 1562 0 is_stmt 0 discriminator 1
 1211 0022 414B     		ldr	r3, .L93
 1212 0024 1B68     		ldr	r3, [r3]
 1213 0026 00E0     		b	.L85
 1214              	.L84:
 1215              		.loc 1 1562 0 discriminator 2
 1216 0028 7B68     		ldr	r3, [r7, #4]
 1217              	.L85:
 1218              		.loc 1 1562 0 discriminator 4
 1219 002a 3B61     		str	r3, [r7, #16]
1563:Source/tasks.c **** 
1564:Source/tasks.c **** 			traceTASK_PRIORITY_SET( pxTCB, uxNewPriority );
1565:Source/tasks.c **** 
1566:Source/tasks.c **** 			#if ( configUSE_MUTEXES == 1 )
1567:Source/tasks.c **** 			{
1568:Source/tasks.c **** 				uxCurrentBasePriority = pxTCB->uxBasePriority;
 1220              		.loc 1 1568 0 is_stmt 1 discriminator 4
 1221 002c 3B69     		ldr	r3, [r7, #16]
 1222 002e 1B6C     		ldr	r3, [r3, #64]
 1223 0030 FB60     		str	r3, [r7, #12]
1569:Source/tasks.c **** 			}
1570:Source/tasks.c **** 			#else
1571:Source/tasks.c **** 			{
1572:Source/tasks.c **** 				uxCurrentBasePriority = pxTCB->uxPriority;
1573:Source/tasks.c **** 			}
1574:Source/tasks.c **** 			#endif
1575:Source/tasks.c **** 
1576:Source/tasks.c **** 			if( uxCurrentBasePriority != uxNewPriority )
 1224              		.loc 1 1576 0 discriminator 4
 1225 0032 FA68     		ldr	r2, [r7, #12]
 1226 0034 3B68     		ldr	r3, [r7]
 1227 0036 9A42     		cmp	r2, r3
 1228 0038 6FD0     		beq	.L86
1577:Source/tasks.c **** 			{
1578:Source/tasks.c **** 				/* The priority change may have readied a task of higher
1579:Source/tasks.c **** 				priority than the calling task. */
1580:Source/tasks.c **** 				if( uxNewPriority > uxCurrentBasePriority )
 1229              		.loc 1 1580 0
 1230 003a 3A68     		ldr	r2, [r7]
 1231 003c FB68     		ldr	r3, [r7, #12]
 1232 003e 9A42     		cmp	r2, r3
 1233 0040 0DD9     		bls	.L87
1581:Source/tasks.c **** 				{
1582:Source/tasks.c **** 					if( pxTCB != pxCurrentTCB )
 1234              		.loc 1 1582 0
 1235 0042 394B     		ldr	r3, .L93
 1236 0044 1B68     		ldr	r3, [r3]
 1237 0046 3A69     		ldr	r2, [r7, #16]
 1238 0048 9A42     		cmp	r2, r3
 1239 004a 0FD0     		beq	.L88
ARM GAS  C:\Users\mikke\AppData\Local\Temp\ccIUnQd7.s 			page 55


1583:Source/tasks.c **** 					{
1584:Source/tasks.c **** 						/* The priority of a task other than the currently
1585:Source/tasks.c **** 						running task is being raised.  Is the priority being
1586:Source/tasks.c **** 						raised above that of the running task? */
1587:Source/tasks.c **** 						if( uxNewPriority >= pxCurrentTCB->uxPriority )
 1240              		.loc 1 1587 0
 1241 004c 364B     		ldr	r3, .L93
 1242 004e 1B68     		ldr	r3, [r3]
 1243 0050 DA6A     		ldr	r2, [r3, #44]
 1244 0052 3B68     		ldr	r3, [r7]
 1245 0054 9A42     		cmp	r2, r3
 1246 0056 09D8     		bhi	.L88
1588:Source/tasks.c **** 						{
1589:Source/tasks.c **** 							xYieldRequired = pdTRUE;
 1247              		.loc 1 1589 0
 1248 0058 0123     		movs	r3, #1
 1249 005a 7B61     		str	r3, [r7, #20]
 1250 005c 06E0     		b	.L88
 1251              	.L87:
1590:Source/tasks.c **** 						}
1591:Source/tasks.c **** 						else
1592:Source/tasks.c **** 						{
1593:Source/tasks.c **** 							mtCOVERAGE_TEST_MARKER();
1594:Source/tasks.c **** 						}
1595:Source/tasks.c **** 					}
1596:Source/tasks.c **** 					else
1597:Source/tasks.c **** 					{
1598:Source/tasks.c **** 						/* The priority of the running task is being raised,
1599:Source/tasks.c **** 						but the running task must already be the highest
1600:Source/tasks.c **** 						priority task able to run so no yield is required. */
1601:Source/tasks.c **** 					}
1602:Source/tasks.c **** 				}
1603:Source/tasks.c **** 				else if( pxTCB == pxCurrentTCB )
 1252              		.loc 1 1603 0
 1253 005e 324B     		ldr	r3, .L93
 1254 0060 1B68     		ldr	r3, [r3]
 1255 0062 3A69     		ldr	r2, [r7, #16]
 1256 0064 9A42     		cmp	r2, r3
 1257 0066 01D1     		bne	.L88
1604:Source/tasks.c **** 				{
1605:Source/tasks.c **** 					/* Setting the priority of the running task down means
1606:Source/tasks.c **** 					there may now be another task of higher priority that
1607:Source/tasks.c **** 					is ready to execute. */
1608:Source/tasks.c **** 					xYieldRequired = pdTRUE;
 1258              		.loc 1 1608 0
 1259 0068 0123     		movs	r3, #1
 1260 006a 7B61     		str	r3, [r7, #20]
 1261              	.L88:
1609:Source/tasks.c **** 				}
1610:Source/tasks.c **** 				else
1611:Source/tasks.c **** 				{
1612:Source/tasks.c **** 					/* Setting the priority of any other task down does not
1613:Source/tasks.c **** 					require a yield as the running task must be above the
1614:Source/tasks.c **** 					new priority of the task being modified. */
1615:Source/tasks.c **** 				}
1616:Source/tasks.c **** 
1617:Source/tasks.c **** 				/* Remember the ready list the task might be referenced from
ARM GAS  C:\Users\mikke\AppData\Local\Temp\ccIUnQd7.s 			page 56


1618:Source/tasks.c **** 				before its uxPriority member is changed so the
1619:Source/tasks.c **** 				taskRESET_READY_PRIORITY() macro can function correctly. */
1620:Source/tasks.c **** 				uxPriorityUsedOnEntry = pxTCB->uxPriority;
 1262              		.loc 1 1620 0
 1263 006c 3B69     		ldr	r3, [r7, #16]
 1264 006e DB6A     		ldr	r3, [r3, #44]
 1265 0070 BB60     		str	r3, [r7, #8]
1621:Source/tasks.c **** 
1622:Source/tasks.c **** 				#if ( configUSE_MUTEXES == 1 )
1623:Source/tasks.c **** 				{
1624:Source/tasks.c **** 					/* Only change the priority being used if the task is not
1625:Source/tasks.c **** 					currently using an inherited priority. */
1626:Source/tasks.c **** 					if( pxTCB->uxBasePriority == pxTCB->uxPriority )
 1266              		.loc 1 1626 0
 1267 0072 3B69     		ldr	r3, [r7, #16]
 1268 0074 1A6C     		ldr	r2, [r3, #64]
 1269 0076 3B69     		ldr	r3, [r7, #16]
 1270 0078 DB6A     		ldr	r3, [r3, #44]
 1271 007a 9A42     		cmp	r2, r3
 1272 007c 02D1     		bne	.L89
1627:Source/tasks.c **** 					{
1628:Source/tasks.c **** 						pxTCB->uxPriority = uxNewPriority;
 1273              		.loc 1 1628 0
 1274 007e 3B69     		ldr	r3, [r7, #16]
 1275 0080 3A68     		ldr	r2, [r7]
 1276 0082 DA62     		str	r2, [r3, #44]
 1277              	.L89:
1629:Source/tasks.c **** 					}
1630:Source/tasks.c **** 					else
1631:Source/tasks.c **** 					{
1632:Source/tasks.c **** 						mtCOVERAGE_TEST_MARKER();
1633:Source/tasks.c **** 					}
1634:Source/tasks.c **** 
1635:Source/tasks.c **** 					/* The base priority gets set whatever. */
1636:Source/tasks.c **** 					pxTCB->uxBasePriority = uxNewPriority;
 1278              		.loc 1 1636 0
 1279 0084 3B69     		ldr	r3, [r7, #16]
 1280 0086 3A68     		ldr	r2, [r7]
 1281 0088 1A64     		str	r2, [r3, #64]
1637:Source/tasks.c **** 				}
1638:Source/tasks.c **** 				#else
1639:Source/tasks.c **** 				{
1640:Source/tasks.c **** 					pxTCB->uxPriority = uxNewPriority;
1641:Source/tasks.c **** 				}
1642:Source/tasks.c **** 				#endif
1643:Source/tasks.c **** 
1644:Source/tasks.c **** 				/* Only reset the event list item value if the value is not
1645:Source/tasks.c **** 				being used for anything else. */
1646:Source/tasks.c **** 				if( ( listGET_LIST_ITEM_VALUE( &( pxTCB->xEventListItem ) ) & taskEVENT_LIST_ITEM_VALUE_IN_USE 
 1282              		.loc 1 1646 0
 1283 008a 3B69     		ldr	r3, [r7, #16]
 1284 008c 9B69     		ldr	r3, [r3, #24]
 1285 008e 002B     		cmp	r3, #0
 1286 0090 04DB     		blt	.L90
1647:Source/tasks.c **** 				{
1648:Source/tasks.c **** 					listSET_LIST_ITEM_VALUE( &( pxTCB->xEventListItem ), ( ( TickType_t ) configMAX_PRIORITIES - (
 1287              		.loc 1 1648 0
ARM GAS  C:\Users\mikke\AppData\Local\Temp\ccIUnQd7.s 			page 57


 1288 0092 3B68     		ldr	r3, [r7]
 1289 0094 C3F10502 		rsb	r2, r3, #5
 1290 0098 3B69     		ldr	r3, [r7, #16]
 1291 009a 9A61     		str	r2, [r3, #24]
 1292              	.L90:
1649:Source/tasks.c **** 				}
1650:Source/tasks.c **** 				else
1651:Source/tasks.c **** 				{
1652:Source/tasks.c **** 					mtCOVERAGE_TEST_MARKER();
1653:Source/tasks.c **** 				}
1654:Source/tasks.c **** 
1655:Source/tasks.c **** 				/* If the task is in the blocked or suspended list we need do
1656:Source/tasks.c **** 				nothing more than change its priority variable. However, if
1657:Source/tasks.c **** 				the task is in a ready list it needs to be removed and placed
1658:Source/tasks.c **** 				in the list appropriate to its new priority. */
1659:Source/tasks.c **** 				if( listIS_CONTAINED_WITHIN( &( pxReadyTasksLists[ uxPriorityUsedOnEntry ] ), &( pxTCB->xStateL
 1293              		.loc 1 1659 0
 1294 009c 3B69     		ldr	r3, [r7, #16]
 1295 009e 5969     		ldr	r1, [r3, #20]
 1296 00a0 BA68     		ldr	r2, [r7, #8]
 1297 00a2 1346     		mov	r3, r2
 1298 00a4 9B00     		lsls	r3, r3, #2
 1299 00a6 1344     		add	r3, r3, r2
 1300 00a8 9B00     		lsls	r3, r3, #2
 1301 00aa 204A     		ldr	r2, .L93+4
 1302 00ac 1344     		add	r3, r3, r2
 1303 00ae 9942     		cmp	r1, r3
 1304 00b0 28D1     		bne	.L91
1660:Source/tasks.c **** 				{
1661:Source/tasks.c **** 					/* The task is currently in its ready list - remove before
1662:Source/tasks.c **** 					adding it to it's new ready list.  As we are in a critical
1663:Source/tasks.c **** 					section we can do this even if the scheduler is suspended. */
1664:Source/tasks.c **** 					if( uxListRemove( &( pxTCB->xStateListItem ) ) == ( UBaseType_t ) 0 )
 1305              		.loc 1 1664 0
 1306 00b2 3B69     		ldr	r3, [r7, #16]
 1307 00b4 0433     		adds	r3, r3, #4
 1308 00b6 1846     		mov	r0, r3
 1309 00b8 FFF7FEFF 		bl	uxListRemove
 1310 00bc 0346     		mov	r3, r0
 1311 00be 002B     		cmp	r3, #0
 1312 00c0 09D1     		bne	.L92
1665:Source/tasks.c **** 					{
1666:Source/tasks.c **** 						/* It is known that the task is in its ready list so
1667:Source/tasks.c **** 						there is no need to check again and the port level
1668:Source/tasks.c **** 						reset macro can be called directly. */
1669:Source/tasks.c **** 						portRESET_READY_PRIORITY( uxPriorityUsedOnEntry, uxTopReadyPriority );
 1313              		.loc 1 1669 0
 1314 00c2 0122     		movs	r2, #1
 1315 00c4 BB68     		ldr	r3, [r7, #8]
 1316 00c6 02FA03F3 		lsl	r3, r2, r3
 1317 00ca DA43     		mvns	r2, r3
 1318 00cc 184B     		ldr	r3, .L93+8
 1319 00ce 1B68     		ldr	r3, [r3]
 1320 00d0 1340     		ands	r3, r3, r2
 1321 00d2 174A     		ldr	r2, .L93+8
 1322 00d4 1360     		str	r3, [r2]
 1323              	.L92:
ARM GAS  C:\Users\mikke\AppData\Local\Temp\ccIUnQd7.s 			page 58


1670:Source/tasks.c **** 					}
1671:Source/tasks.c **** 					else
1672:Source/tasks.c **** 					{
1673:Source/tasks.c **** 						mtCOVERAGE_TEST_MARKER();
1674:Source/tasks.c **** 					}
1675:Source/tasks.c **** 					prvAddTaskToReadyList( pxTCB );
 1324              		.loc 1 1675 0
 1325 00d6 3B69     		ldr	r3, [r7, #16]
 1326 00d8 DB6A     		ldr	r3, [r3, #44]
 1327 00da 0122     		movs	r2, #1
 1328 00dc 9A40     		lsls	r2, r2, r3
 1329 00de 144B     		ldr	r3, .L93+8
 1330 00e0 1B68     		ldr	r3, [r3]
 1331 00e2 1343     		orrs	r3, r3, r2
 1332 00e4 124A     		ldr	r2, .L93+8
 1333 00e6 1360     		str	r3, [r2]
 1334 00e8 3B69     		ldr	r3, [r7, #16]
 1335 00ea DA6A     		ldr	r2, [r3, #44]
 1336 00ec 1346     		mov	r3, r2
 1337 00ee 9B00     		lsls	r3, r3, #2
 1338 00f0 1344     		add	r3, r3, r2
 1339 00f2 9B00     		lsls	r3, r3, #2
 1340 00f4 0D4A     		ldr	r2, .L93+4
 1341 00f6 1A44     		add	r2, r2, r3
 1342 00f8 3B69     		ldr	r3, [r7, #16]
 1343 00fa 0433     		adds	r3, r3, #4
 1344 00fc 1946     		mov	r1, r3
 1345 00fe 1046     		mov	r0, r2
 1346 0100 FFF7FEFF 		bl	vListInsertEnd
 1347              	.L91:
1676:Source/tasks.c **** 				}
1677:Source/tasks.c **** 				else
1678:Source/tasks.c **** 				{
1679:Source/tasks.c **** 					mtCOVERAGE_TEST_MARKER();
1680:Source/tasks.c **** 				}
1681:Source/tasks.c **** 
1682:Source/tasks.c **** 				if( xYieldRequired != pdFALSE )
 1348              		.loc 1 1682 0
 1349 0104 7B69     		ldr	r3, [r7, #20]
 1350 0106 002B     		cmp	r3, #0
 1351 0108 07D0     		beq	.L86
1683:Source/tasks.c **** 				{
1684:Source/tasks.c **** 					taskYIELD_IF_USING_PREEMPTION();
 1352              		.loc 1 1684 0
 1353 010a 0A4B     		ldr	r3, .L93+12
 1354 010c 4FF08052 		mov	r2, #268435456
 1355 0110 1A60     		str	r2, [r3]
 1356              		.syntax unified
 1357              	@ 1684 "Source\tasks.c" 1
 1358 0112 BFF34F8F 		dsb
 1359              	@ 0 "" 2
 1360              	@ 1684 "Source\tasks.c" 1
 1361 0116 BFF36F8F 		isb
 1362              	@ 0 "" 2
 1363              		.thumb
 1364              		.syntax unified
 1365              	.L86:
ARM GAS  C:\Users\mikke\AppData\Local\Temp\ccIUnQd7.s 			page 59


1685:Source/tasks.c **** 				}
1686:Source/tasks.c **** 				else
1687:Source/tasks.c **** 				{
1688:Source/tasks.c **** 					mtCOVERAGE_TEST_MARKER();
1689:Source/tasks.c **** 				}
1690:Source/tasks.c **** 
1691:Source/tasks.c **** 				/* Remove compiler warning about unused variables when the port
1692:Source/tasks.c **** 				optimised task selection is not being used. */
1693:Source/tasks.c **** 				( void ) uxPriorityUsedOnEntry;
1694:Source/tasks.c **** 			}
1695:Source/tasks.c **** 		}
1696:Source/tasks.c **** 		taskEXIT_CRITICAL();
 1366              		.loc 1 1696 0
 1367 011a FFF7FEFF 		bl	vPortExitCritical
1697:Source/tasks.c **** 	}
 1368              		.loc 1 1697 0
 1369 011e 00BF     		nop
 1370 0120 1837     		adds	r7, r7, #24
 1371              		.cfi_def_cfa_offset 8
 1372 0122 BD46     		mov	sp, r7
 1373              		.cfi_def_cfa_register 13
 1374              		@ sp needed
 1375 0124 80BD     		pop	{r7, pc}
 1376              	.L94:
 1377 0126 00BF     		.align	2
 1378              	.L93:
 1379 0128 00000000 		.word	pxCurrentTCB
 1380 012c 04000000 		.word	pxReadyTasksLists
 1381 0130 E0000000 		.word	uxTopReadyPriority
 1382 0134 04ED00E0 		.word	-536810236
 1383              		.cfi_endproc
 1384              	.LFE77:
 1385              		.size	vTaskPrioritySet, .-vTaskPrioritySet
 1386              		.section	.text.vTaskSuspend,"ax",%progbits
 1387              		.align	2
 1388              		.global	vTaskSuspend
 1389              		.thumb
 1390              		.thumb_func
 1391              		.type	vTaskSuspend, %function
 1392              	vTaskSuspend:
 1393              	.LFB78:
1698:Source/tasks.c **** 
1699:Source/tasks.c **** #endif /* INCLUDE_vTaskPrioritySet */
1700:Source/tasks.c **** /*-----------------------------------------------------------*/
1701:Source/tasks.c **** 
1702:Source/tasks.c **** #if ( INCLUDE_vTaskSuspend == 1 )
1703:Source/tasks.c **** 
1704:Source/tasks.c **** 	void vTaskSuspend( TaskHandle_t xTaskToSuspend )
1705:Source/tasks.c **** 	{
 1394              		.loc 1 1705 0
 1395              		.cfi_startproc
 1396              		@ args = 0, pretend = 0, frame = 16
 1397              		@ frame_needed = 1, uses_anonymous_args = 0
 1398 0000 80B5     		push	{r7, lr}
 1399              		.cfi_def_cfa_offset 8
 1400              		.cfi_offset 7, -8
 1401              		.cfi_offset 14, -4
ARM GAS  C:\Users\mikke\AppData\Local\Temp\ccIUnQd7.s 			page 60


 1402 0002 84B0     		sub	sp, sp, #16
 1403              		.cfi_def_cfa_offset 24
 1404 0004 00AF     		add	r7, sp, #0
 1405              		.cfi_def_cfa_register 7
 1406 0006 7860     		str	r0, [r7, #4]
1706:Source/tasks.c **** 	TCB_t *pxTCB;
1707:Source/tasks.c **** 
1708:Source/tasks.c **** 		taskENTER_CRITICAL();
 1407              		.loc 1 1708 0
 1408 0008 FFF7FEFF 		bl	vPortEnterCritical
1709:Source/tasks.c **** 		{
1710:Source/tasks.c **** 			/* If null is passed in here then it is the running task that is
1711:Source/tasks.c **** 			being suspended. */
1712:Source/tasks.c **** 			pxTCB = prvGetTCBFromHandle( xTaskToSuspend );
 1409              		.loc 1 1712 0
 1410 000c 7B68     		ldr	r3, [r7, #4]
 1411 000e 002B     		cmp	r3, #0
 1412 0010 02D1     		bne	.L96
 1413              		.loc 1 1712 0 is_stmt 0 discriminator 1
 1414 0012 354B     		ldr	r3, .L108
 1415 0014 1B68     		ldr	r3, [r3]
 1416 0016 00E0     		b	.L97
 1417              	.L96:
 1418              		.loc 1 1712 0 discriminator 2
 1419 0018 7B68     		ldr	r3, [r7, #4]
 1420              	.L97:
 1421              		.loc 1 1712 0 discriminator 4
 1422 001a FB60     		str	r3, [r7, #12]
1713:Source/tasks.c **** 
1714:Source/tasks.c **** 			traceTASK_SUSPEND( pxTCB );
1715:Source/tasks.c **** 
1716:Source/tasks.c **** 			/* Remove task from the ready/delayed list and place in the
1717:Source/tasks.c **** 			suspended list. */
1718:Source/tasks.c **** 			if( uxListRemove( &( pxTCB->xStateListItem ) ) == ( UBaseType_t ) 0 )
 1423              		.loc 1 1718 0 is_stmt 1 discriminator 4
 1424 001c FB68     		ldr	r3, [r7, #12]
 1425 001e 0433     		adds	r3, r3, #4
 1426 0020 1846     		mov	r0, r3
 1427 0022 FFF7FEFF 		bl	uxListRemove
 1428 0026 0346     		mov	r3, r0
 1429 0028 002B     		cmp	r3, #0
 1430 002a 15D1     		bne	.L98
1719:Source/tasks.c **** 			{
1720:Source/tasks.c **** 				taskRESET_READY_PRIORITY( pxTCB->uxPriority );
 1431              		.loc 1 1720 0
 1432 002c FB68     		ldr	r3, [r7, #12]
 1433 002e DA6A     		ldr	r2, [r3, #44]
 1434 0030 2E49     		ldr	r1, .L108+4
 1435 0032 1346     		mov	r3, r2
 1436 0034 9B00     		lsls	r3, r3, #2
 1437 0036 1344     		add	r3, r3, r2
 1438 0038 9B00     		lsls	r3, r3, #2
 1439 003a 0B44     		add	r3, r3, r1
 1440 003c 1B68     		ldr	r3, [r3]
 1441 003e 002B     		cmp	r3, #0
 1442 0040 0AD1     		bne	.L98
 1443              		.loc 1 1720 0 is_stmt 0 discriminator 1
ARM GAS  C:\Users\mikke\AppData\Local\Temp\ccIUnQd7.s 			page 61


 1444 0042 FB68     		ldr	r3, [r7, #12]
 1445 0044 DB6A     		ldr	r3, [r3, #44]
 1446 0046 0122     		movs	r2, #1
 1447 0048 02FA03F3 		lsl	r3, r2, r3
 1448 004c DA43     		mvns	r2, r3
 1449 004e 284B     		ldr	r3, .L108+8
 1450 0050 1B68     		ldr	r3, [r3]
 1451 0052 1340     		ands	r3, r3, r2
 1452 0054 264A     		ldr	r2, .L108+8
 1453 0056 1360     		str	r3, [r2]
 1454              	.L98:
1721:Source/tasks.c **** 			}
1722:Source/tasks.c **** 			else
1723:Source/tasks.c **** 			{
1724:Source/tasks.c **** 				mtCOVERAGE_TEST_MARKER();
1725:Source/tasks.c **** 			}
1726:Source/tasks.c **** 
1727:Source/tasks.c **** 			/* Is the task waiting on an event also? */
1728:Source/tasks.c **** 			if( listLIST_ITEM_CONTAINER( &( pxTCB->xEventListItem ) ) != NULL )
 1455              		.loc 1 1728 0 is_stmt 1
 1456 0058 FB68     		ldr	r3, [r7, #12]
 1457 005a 9B6A     		ldr	r3, [r3, #40]
 1458 005c 002B     		cmp	r3, #0
 1459 005e 04D0     		beq	.L100
1729:Source/tasks.c **** 			{
1730:Source/tasks.c **** 				( void ) uxListRemove( &( pxTCB->xEventListItem ) );
 1460              		.loc 1 1730 0
 1461 0060 FB68     		ldr	r3, [r7, #12]
 1462 0062 1833     		adds	r3, r3, #24
 1463 0064 1846     		mov	r0, r3
 1464 0066 FFF7FEFF 		bl	uxListRemove
 1465              	.L100:
1731:Source/tasks.c **** 			}
1732:Source/tasks.c **** 			else
1733:Source/tasks.c **** 			{
1734:Source/tasks.c **** 				mtCOVERAGE_TEST_MARKER();
1735:Source/tasks.c **** 			}
1736:Source/tasks.c **** 
1737:Source/tasks.c **** 			vListInsertEnd( &xSuspendedTaskList, &( pxTCB->xStateListItem ) );
 1466              		.loc 1 1737 0
 1467 006a FB68     		ldr	r3, [r7, #12]
 1468 006c 0433     		adds	r3, r3, #4
 1469 006e 1946     		mov	r1, r3
 1470 0070 2048     		ldr	r0, .L108+12
 1471 0072 FFF7FEFF 		bl	vListInsertEnd
1738:Source/tasks.c **** 
1739:Source/tasks.c **** 			#if( configUSE_TASK_NOTIFICATIONS == 1 )
1740:Source/tasks.c **** 			{
1741:Source/tasks.c **** 				if( pxTCB->ucNotifyState == taskWAITING_NOTIFICATION )
 1472              		.loc 1 1741 0
 1473 0076 FB68     		ldr	r3, [r7, #12]
 1474 0078 93F84C30 		ldrb	r3, [r3, #76]
 1475 007c DBB2     		uxtb	r3, r3
 1476 007e 012B     		cmp	r3, #1
 1477 0080 03D1     		bne	.L101
1742:Source/tasks.c **** 				{
1743:Source/tasks.c **** 					/* The task was blocked to wait for a notification, but is
ARM GAS  C:\Users\mikke\AppData\Local\Temp\ccIUnQd7.s 			page 62


1744:Source/tasks.c **** 					now suspended, so no notification was received. */
1745:Source/tasks.c **** 					pxTCB->ucNotifyState = taskNOT_WAITING_NOTIFICATION;
 1478              		.loc 1 1745 0
 1479 0082 FB68     		ldr	r3, [r7, #12]
 1480 0084 0022     		movs	r2, #0
 1481 0086 83F84C20 		strb	r2, [r3, #76]
 1482              	.L101:
1746:Source/tasks.c **** 				}
1747:Source/tasks.c **** 			}
1748:Source/tasks.c **** 			#endif
1749:Source/tasks.c **** 		}
1750:Source/tasks.c **** 		taskEXIT_CRITICAL();
 1483              		.loc 1 1750 0
 1484 008a FFF7FEFF 		bl	vPortExitCritical
1751:Source/tasks.c **** 
1752:Source/tasks.c **** 		if( xSchedulerRunning != pdFALSE )
 1485              		.loc 1 1752 0
 1486 008e 1A4B     		ldr	r3, .L108+16
 1487 0090 1B68     		ldr	r3, [r3]
 1488 0092 002B     		cmp	r3, #0
 1489 0094 05D0     		beq	.L102
1753:Source/tasks.c **** 		{
1754:Source/tasks.c **** 			/* Reset the next expected unblock time in case it referred to the
1755:Source/tasks.c **** 			task that is now in the Suspended state. */
1756:Source/tasks.c **** 			taskENTER_CRITICAL();
 1490              		.loc 1 1756 0
 1491 0096 FFF7FEFF 		bl	vPortEnterCritical
1757:Source/tasks.c **** 			{
1758:Source/tasks.c **** 				prvResetNextTaskUnblockTime();
 1492              		.loc 1 1758 0
 1493 009a FFF7FEFF 		bl	prvResetNextTaskUnblockTime
1759:Source/tasks.c **** 			}
1760:Source/tasks.c **** 			taskEXIT_CRITICAL();
 1494              		.loc 1 1760 0
 1495 009e FFF7FEFF 		bl	vPortExitCritical
 1496              	.L102:
1761:Source/tasks.c **** 		}
1762:Source/tasks.c **** 		else
1763:Source/tasks.c **** 		{
1764:Source/tasks.c **** 			mtCOVERAGE_TEST_MARKER();
1765:Source/tasks.c **** 		}
1766:Source/tasks.c **** 
1767:Source/tasks.c **** 		if( pxTCB == pxCurrentTCB )
 1497              		.loc 1 1767 0
 1498 00a2 114B     		ldr	r3, .L108
 1499 00a4 1B68     		ldr	r3, [r3]
 1500 00a6 FA68     		ldr	r2, [r7, #12]
 1501 00a8 9A42     		cmp	r2, r3
 1502 00aa 18D1     		bne	.L107
1768:Source/tasks.c **** 		{
1769:Source/tasks.c **** 			if( xSchedulerRunning != pdFALSE )
 1503              		.loc 1 1769 0
 1504 00ac 124B     		ldr	r3, .L108+16
 1505 00ae 1B68     		ldr	r3, [r3]
 1506 00b0 002B     		cmp	r3, #0
 1507 00b2 08D0     		beq	.L104
1770:Source/tasks.c **** 			{
ARM GAS  C:\Users\mikke\AppData\Local\Temp\ccIUnQd7.s 			page 63


1771:Source/tasks.c **** 				/* The current task has just been suspended. */
1772:Source/tasks.c **** 				configASSERT( uxSchedulerSuspended == 0 );
1773:Source/tasks.c **** 				portYIELD_WITHIN_API();
 1508              		.loc 1 1773 0
 1509 00b4 114B     		ldr	r3, .L108+20
 1510 00b6 4FF08052 		mov	r2, #268435456
 1511 00ba 1A60     		str	r2, [r3]
 1512              		.syntax unified
 1513              	@ 1773 "Source\tasks.c" 1
 1514 00bc BFF34F8F 		dsb
 1515              	@ 0 "" 2
 1516              	@ 1773 "Source\tasks.c" 1
 1517 00c0 BFF36F8F 		isb
 1518              	@ 0 "" 2
1774:Source/tasks.c **** 			}
1775:Source/tasks.c **** 			else
1776:Source/tasks.c **** 			{
1777:Source/tasks.c **** 				/* The scheduler is not running, but the task that was pointed
1778:Source/tasks.c **** 				to by pxCurrentTCB has just been suspended and pxCurrentTCB
1779:Source/tasks.c **** 				must be adjusted to point to a different task. */
1780:Source/tasks.c **** 				if( listCURRENT_LIST_LENGTH( &xSuspendedTaskList ) == uxCurrentNumberOfTasks ) /*lint !e931 Rig
1781:Source/tasks.c **** 				{
1782:Source/tasks.c **** 					/* No other tasks are ready, so set pxCurrentTCB back to
1783:Source/tasks.c **** 					NULL so when the next task is created pxCurrentTCB will
1784:Source/tasks.c **** 					be set to point to it no matter what its relative priority
1785:Source/tasks.c **** 					is. */
1786:Source/tasks.c **** 					pxCurrentTCB = NULL;
1787:Source/tasks.c **** 				}
1788:Source/tasks.c **** 				else
1789:Source/tasks.c **** 				{
1790:Source/tasks.c **** 					vTaskSwitchContext();
1791:Source/tasks.c **** 				}
1792:Source/tasks.c **** 			}
1793:Source/tasks.c **** 		}
1794:Source/tasks.c **** 		else
1795:Source/tasks.c **** 		{
1796:Source/tasks.c **** 			mtCOVERAGE_TEST_MARKER();
1797:Source/tasks.c **** 		}
1798:Source/tasks.c **** 	}
 1519              		.loc 1 1798 0
 1520              		.thumb
 1521              		.syntax unified
 1522 00c4 0BE0     		b	.L107
 1523              	.L104:
1780:Source/tasks.c **** 				{
 1524              		.loc 1 1780 0
 1525 00c6 0B4B     		ldr	r3, .L108+12
 1526 00c8 1A68     		ldr	r2, [r3]
 1527 00ca 0D4B     		ldr	r3, .L108+24
 1528 00cc 1B68     		ldr	r3, [r3]
 1529 00ce 9A42     		cmp	r2, r3
 1530 00d0 03D1     		bne	.L106
1786:Source/tasks.c **** 				}
 1531              		.loc 1 1786 0
 1532 00d2 054B     		ldr	r3, .L108
 1533 00d4 0022     		movs	r2, #0
 1534 00d6 1A60     		str	r2, [r3]
ARM GAS  C:\Users\mikke\AppData\Local\Temp\ccIUnQd7.s 			page 64


 1535              		.loc 1 1798 0
 1536 00d8 01E0     		b	.L107
 1537              	.L106:
1790:Source/tasks.c **** 				}
 1538              		.loc 1 1790 0
 1539 00da FFF7FEFF 		bl	vTaskSwitchContext
 1540              	.L107:
 1541              		.loc 1 1798 0
 1542 00de 00BF     		nop
 1543 00e0 1037     		adds	r7, r7, #16
 1544              		.cfi_def_cfa_offset 8
 1545 00e2 BD46     		mov	sp, r7
 1546              		.cfi_def_cfa_register 13
 1547              		@ sp needed
 1548 00e4 80BD     		pop	{r7, pc}
 1549              	.L109:
 1550 00e6 00BF     		.align	2
 1551              	.L108:
 1552 00e8 00000000 		.word	pxCurrentTCB
 1553 00ec 04000000 		.word	pxReadyTasksLists
 1554 00f0 E0000000 		.word	uxTopReadyPriority
 1555 00f4 C4000000 		.word	xSuspendedTaskList
 1556 00f8 E4000000 		.word	xSchedulerRunning
 1557 00fc 04ED00E0 		.word	-536810236
 1558 0100 D8000000 		.word	uxCurrentNumberOfTasks
 1559              		.cfi_endproc
 1560              	.LFE78:
 1561              		.size	vTaskSuspend, .-vTaskSuspend
 1562              		.section	.text.prvTaskIsTaskSuspended,"ax",%progbits
 1563              		.align	2
 1564              		.thumb
 1565              		.thumb_func
 1566              		.type	prvTaskIsTaskSuspended, %function
 1567              	prvTaskIsTaskSuspended:
 1568              	.LFB79:
1799:Source/tasks.c **** 
1800:Source/tasks.c **** #endif /* INCLUDE_vTaskSuspend */
1801:Source/tasks.c **** /*-----------------------------------------------------------*/
1802:Source/tasks.c **** 
1803:Source/tasks.c **** #if ( INCLUDE_vTaskSuspend == 1 )
1804:Source/tasks.c **** 
1805:Source/tasks.c **** 	static BaseType_t prvTaskIsTaskSuspended( const TaskHandle_t xTask )
1806:Source/tasks.c **** 	{
 1569              		.loc 1 1806 0
 1570              		.cfi_startproc
 1571              		@ args = 0, pretend = 0, frame = 16
 1572              		@ frame_needed = 1, uses_anonymous_args = 0
 1573              		@ link register save eliminated.
 1574 0000 80B4     		push	{r7}
 1575              		.cfi_def_cfa_offset 4
 1576              		.cfi_offset 7, -4
 1577 0002 85B0     		sub	sp, sp, #20
 1578              		.cfi_def_cfa_offset 24
 1579 0004 00AF     		add	r7, sp, #0
 1580              		.cfi_def_cfa_register 7
 1581 0006 7860     		str	r0, [r7, #4]
1807:Source/tasks.c **** 	BaseType_t xReturn = pdFALSE;
ARM GAS  C:\Users\mikke\AppData\Local\Temp\ccIUnQd7.s 			page 65


 1582              		.loc 1 1807 0
 1583 0008 0023     		movs	r3, #0
 1584 000a FB60     		str	r3, [r7, #12]
1808:Source/tasks.c **** 	const TCB_t * const pxTCB = xTask;
 1585              		.loc 1 1808 0
 1586 000c 7B68     		ldr	r3, [r7, #4]
 1587 000e BB60     		str	r3, [r7, #8]
1809:Source/tasks.c **** 
1810:Source/tasks.c **** 		/* Accesses xPendingReadyList so must be called from a critical
1811:Source/tasks.c **** 		section. */
1812:Source/tasks.c **** 
1813:Source/tasks.c **** 		/* It does not make sense to check if the calling task is suspended. */
1814:Source/tasks.c **** 		configASSERT( xTask );
1815:Source/tasks.c **** 
1816:Source/tasks.c **** 		/* Is the task being resumed actually in the suspended list? */
1817:Source/tasks.c **** 		if( listIS_CONTAINED_WITHIN( &xSuspendedTaskList, &( pxTCB->xStateListItem ) ) != pdFALSE )
 1588              		.loc 1 1817 0
 1589 0010 BB68     		ldr	r3, [r7, #8]
 1590 0012 5B69     		ldr	r3, [r3, #20]
 1591 0014 094A     		ldr	r2, .L113
 1592 0016 9342     		cmp	r3, r2
 1593 0018 0AD1     		bne	.L111
1818:Source/tasks.c **** 		{
1819:Source/tasks.c **** 			/* Has the task already been resumed from within an ISR? */
1820:Source/tasks.c **** 			if( listIS_CONTAINED_WITHIN( &xPendingReadyList, &( pxTCB->xEventListItem ) ) == pdFALSE )
 1594              		.loc 1 1820 0
 1595 001a BB68     		ldr	r3, [r7, #8]
 1596 001c 9B6A     		ldr	r3, [r3, #40]
 1597 001e 084A     		ldr	r2, .L113+4
 1598 0020 9342     		cmp	r3, r2
 1599 0022 05D0     		beq	.L111
1821:Source/tasks.c **** 			{
1822:Source/tasks.c **** 				/* Is it in the suspended list because it is in the	Suspended
1823:Source/tasks.c **** 				state, or because is is blocked with no timeout? */
1824:Source/tasks.c **** 				if( listIS_CONTAINED_WITHIN( NULL, &( pxTCB->xEventListItem ) ) != pdFALSE ) /*lint !e961.  The
 1600              		.loc 1 1824 0
 1601 0024 BB68     		ldr	r3, [r7, #8]
 1602 0026 9B6A     		ldr	r3, [r3, #40]
 1603 0028 002B     		cmp	r3, #0
 1604 002a 01D1     		bne	.L111
1825:Source/tasks.c **** 				{
1826:Source/tasks.c **** 					xReturn = pdTRUE;
 1605              		.loc 1 1826 0
 1606 002c 0123     		movs	r3, #1
 1607 002e FB60     		str	r3, [r7, #12]
 1608              	.L111:
1827:Source/tasks.c **** 				}
1828:Source/tasks.c **** 				else
1829:Source/tasks.c **** 				{
1830:Source/tasks.c **** 					mtCOVERAGE_TEST_MARKER();
1831:Source/tasks.c **** 				}
1832:Source/tasks.c **** 			}
1833:Source/tasks.c **** 			else
1834:Source/tasks.c **** 			{
1835:Source/tasks.c **** 				mtCOVERAGE_TEST_MARKER();
1836:Source/tasks.c **** 			}
1837:Source/tasks.c **** 		}
ARM GAS  C:\Users\mikke\AppData\Local\Temp\ccIUnQd7.s 			page 66


1838:Source/tasks.c **** 		else
1839:Source/tasks.c **** 		{
1840:Source/tasks.c **** 			mtCOVERAGE_TEST_MARKER();
1841:Source/tasks.c **** 		}
1842:Source/tasks.c **** 
1843:Source/tasks.c **** 		return xReturn;
 1609              		.loc 1 1843 0
 1610 0030 FB68     		ldr	r3, [r7, #12]
1844:Source/tasks.c **** 	} /*lint !e818 xTask cannot be a pointer to const because it is a typedef. */
 1611              		.loc 1 1844 0
 1612 0032 1846     		mov	r0, r3
 1613 0034 1437     		adds	r7, r7, #20
 1614              		.cfi_def_cfa_offset 4
 1615 0036 BD46     		mov	sp, r7
 1616              		.cfi_def_cfa_register 13
 1617              		@ sp needed
 1618 0038 80BC     		pop	{r7}
 1619              		.cfi_restore 7
 1620              		.cfi_def_cfa_offset 0
 1621 003a 7047     		bx	lr
 1622              	.L114:
 1623              		.align	2
 1624              	.L113:
 1625 003c C4000000 		.word	xSuspendedTaskList
 1626 0040 98000000 		.word	xPendingReadyList
 1627              		.cfi_endproc
 1628              	.LFE79:
 1629              		.size	prvTaskIsTaskSuspended, .-prvTaskIsTaskSuspended
 1630              		.section	.text.vTaskResume,"ax",%progbits
 1631              		.align	2
 1632              		.global	vTaskResume
 1633              		.thumb
 1634              		.thumb_func
 1635              		.type	vTaskResume, %function
 1636              	vTaskResume:
 1637              	.LFB80:
1845:Source/tasks.c **** 
1846:Source/tasks.c **** #endif /* INCLUDE_vTaskSuspend */
1847:Source/tasks.c **** /*-----------------------------------------------------------*/
1848:Source/tasks.c **** 
1849:Source/tasks.c **** #if ( INCLUDE_vTaskSuspend == 1 )
1850:Source/tasks.c **** 
1851:Source/tasks.c **** 	void vTaskResume( TaskHandle_t xTaskToResume )
1852:Source/tasks.c **** 	{
 1638              		.loc 1 1852 0
 1639              		.cfi_startproc
 1640              		@ args = 0, pretend = 0, frame = 16
 1641              		@ frame_needed = 1, uses_anonymous_args = 0
 1642 0000 80B5     		push	{r7, lr}
 1643              		.cfi_def_cfa_offset 8
 1644              		.cfi_offset 7, -8
 1645              		.cfi_offset 14, -4
 1646 0002 84B0     		sub	sp, sp, #16
 1647              		.cfi_def_cfa_offset 24
 1648 0004 00AF     		add	r7, sp, #0
 1649              		.cfi_def_cfa_register 7
 1650 0006 7860     		str	r0, [r7, #4]
ARM GAS  C:\Users\mikke\AppData\Local\Temp\ccIUnQd7.s 			page 67


1853:Source/tasks.c **** 	TCB_t * const pxTCB = xTaskToResume;
 1651              		.loc 1 1853 0
 1652 0008 7B68     		ldr	r3, [r7, #4]
 1653 000a FB60     		str	r3, [r7, #12]
1854:Source/tasks.c **** 
1855:Source/tasks.c **** 		/* It does not make sense to resume the calling task. */
1856:Source/tasks.c **** 		configASSERT( xTaskToResume );
1857:Source/tasks.c **** 
1858:Source/tasks.c **** 		/* The parameter cannot be NULL as it is impossible to resume the
1859:Source/tasks.c **** 		currently executing task. */
1860:Source/tasks.c **** 		if( ( pxTCB != pxCurrentTCB ) && ( pxTCB != NULL ) )
 1654              		.loc 1 1860 0
 1655 000c 204B     		ldr	r3, .L119
 1656 000e 1B68     		ldr	r3, [r3]
 1657 0010 FA68     		ldr	r2, [r7, #12]
 1658 0012 9A42     		cmp	r2, r3
 1659 0014 37D0     		beq	.L118
 1660              		.loc 1 1860 0 is_stmt 0 discriminator 1
 1661 0016 FB68     		ldr	r3, [r7, #12]
 1662 0018 002B     		cmp	r3, #0
 1663 001a 34D0     		beq	.L118
1861:Source/tasks.c **** 		{
1862:Source/tasks.c **** 			taskENTER_CRITICAL();
 1664              		.loc 1 1862 0 is_stmt 1
 1665 001c FFF7FEFF 		bl	vPortEnterCritical
1863:Source/tasks.c **** 			{
1864:Source/tasks.c **** 				if( prvTaskIsTaskSuspended( pxTCB ) != pdFALSE )
 1666              		.loc 1 1864 0
 1667 0020 F868     		ldr	r0, [r7, #12]
 1668 0022 FFF7FEFF 		bl	prvTaskIsTaskSuspended
 1669 0026 0346     		mov	r3, r0
 1670 0028 002B     		cmp	r3, #0
 1671 002a 2AD0     		beq	.L117
1865:Source/tasks.c **** 				{
1866:Source/tasks.c **** 					traceTASK_RESUME( pxTCB );
1867:Source/tasks.c **** 
1868:Source/tasks.c **** 					/* The ready list can be accessed even if the scheduler is
1869:Source/tasks.c **** 					suspended because this is inside a critical section. */
1870:Source/tasks.c **** 					( void ) uxListRemove(  &( pxTCB->xStateListItem ) );
 1672              		.loc 1 1870 0
 1673 002c FB68     		ldr	r3, [r7, #12]
 1674 002e 0433     		adds	r3, r3, #4
 1675 0030 1846     		mov	r0, r3
 1676 0032 FFF7FEFF 		bl	uxListRemove
1871:Source/tasks.c **** 					prvAddTaskToReadyList( pxTCB );
 1677              		.loc 1 1871 0
 1678 0036 FB68     		ldr	r3, [r7, #12]
 1679 0038 DB6A     		ldr	r3, [r3, #44]
 1680 003a 0122     		movs	r2, #1
 1681 003c 9A40     		lsls	r2, r2, r3
 1682 003e 154B     		ldr	r3, .L119+4
 1683 0040 1B68     		ldr	r3, [r3]
 1684 0042 1343     		orrs	r3, r3, r2
 1685 0044 134A     		ldr	r2, .L119+4
 1686 0046 1360     		str	r3, [r2]
 1687 0048 FB68     		ldr	r3, [r7, #12]
 1688 004a DA6A     		ldr	r2, [r3, #44]
ARM GAS  C:\Users\mikke\AppData\Local\Temp\ccIUnQd7.s 			page 68


 1689 004c 1346     		mov	r3, r2
 1690 004e 9B00     		lsls	r3, r3, #2
 1691 0050 1344     		add	r3, r3, r2
 1692 0052 9B00     		lsls	r3, r3, #2
 1693 0054 104A     		ldr	r2, .L119+8
 1694 0056 1A44     		add	r2, r2, r3
 1695 0058 FB68     		ldr	r3, [r7, #12]
 1696 005a 0433     		adds	r3, r3, #4
 1697 005c 1946     		mov	r1, r3
 1698 005e 1046     		mov	r0, r2
 1699 0060 FFF7FEFF 		bl	vListInsertEnd
1872:Source/tasks.c **** 
1873:Source/tasks.c **** 					/* A higher priority task may have just been resumed. */
1874:Source/tasks.c **** 					if( pxTCB->uxPriority >= pxCurrentTCB->uxPriority )
 1700              		.loc 1 1874 0
 1701 0064 FB68     		ldr	r3, [r7, #12]
 1702 0066 DA6A     		ldr	r2, [r3, #44]
 1703 0068 094B     		ldr	r3, .L119
 1704 006a 1B68     		ldr	r3, [r3]
 1705 006c DB6A     		ldr	r3, [r3, #44]
 1706 006e 9A42     		cmp	r2, r3
 1707 0070 07D3     		bcc	.L117
1875:Source/tasks.c **** 					{
1876:Source/tasks.c **** 						/* This yield may not cause the task just resumed to run,
1877:Source/tasks.c **** 						but will leave the lists in the correct state for the
1878:Source/tasks.c **** 						next yield. */
1879:Source/tasks.c **** 						taskYIELD_IF_USING_PREEMPTION();
 1708              		.loc 1 1879 0
 1709 0072 0A4B     		ldr	r3, .L119+12
 1710 0074 4FF08052 		mov	r2, #268435456
 1711 0078 1A60     		str	r2, [r3]
 1712              		.syntax unified
 1713              	@ 1879 "Source\tasks.c" 1
 1714 007a BFF34F8F 		dsb
 1715              	@ 0 "" 2
 1716              	@ 1879 "Source\tasks.c" 1
 1717 007e BFF36F8F 		isb
 1718              	@ 0 "" 2
 1719              		.thumb
 1720              		.syntax unified
 1721              	.L117:
1880:Source/tasks.c **** 					}
1881:Source/tasks.c **** 					else
1882:Source/tasks.c **** 					{
1883:Source/tasks.c **** 						mtCOVERAGE_TEST_MARKER();
1884:Source/tasks.c **** 					}
1885:Source/tasks.c **** 				}
1886:Source/tasks.c **** 				else
1887:Source/tasks.c **** 				{
1888:Source/tasks.c **** 					mtCOVERAGE_TEST_MARKER();
1889:Source/tasks.c **** 				}
1890:Source/tasks.c **** 			}
1891:Source/tasks.c **** 			taskEXIT_CRITICAL();
 1722              		.loc 1 1891 0
 1723 0082 FFF7FEFF 		bl	vPortExitCritical
 1724              	.L118:
1892:Source/tasks.c **** 		}
ARM GAS  C:\Users\mikke\AppData\Local\Temp\ccIUnQd7.s 			page 69


1893:Source/tasks.c **** 		else
1894:Source/tasks.c **** 		{
1895:Source/tasks.c **** 			mtCOVERAGE_TEST_MARKER();
1896:Source/tasks.c **** 		}
1897:Source/tasks.c **** 	}
 1725              		.loc 1 1897 0
 1726 0086 00BF     		nop
 1727 0088 1037     		adds	r7, r7, #16
 1728              		.cfi_def_cfa_offset 8
 1729 008a BD46     		mov	sp, r7
 1730              		.cfi_def_cfa_register 13
 1731              		@ sp needed
 1732 008c 80BD     		pop	{r7, pc}
 1733              	.L120:
 1734 008e 00BF     		.align	2
 1735              	.L119:
 1736 0090 00000000 		.word	pxCurrentTCB
 1737 0094 E0000000 		.word	uxTopReadyPriority
 1738 0098 04000000 		.word	pxReadyTasksLists
 1739 009c 04ED00E0 		.word	-536810236
 1740              		.cfi_endproc
 1741              	.LFE80:
 1742              		.size	vTaskResume, .-vTaskResume
 1743              		.section	.text.xTaskResumeFromISR,"ax",%progbits
 1744              		.align	2
 1745              		.global	xTaskResumeFromISR
 1746              		.thumb
 1747              		.thumb_func
 1748              		.type	xTaskResumeFromISR, %function
 1749              	xTaskResumeFromISR:
 1750              	.LFB81:
1898:Source/tasks.c **** 
1899:Source/tasks.c **** #endif /* INCLUDE_vTaskSuspend */
1900:Source/tasks.c **** 
1901:Source/tasks.c **** /*-----------------------------------------------------------*/
1902:Source/tasks.c **** 
1903:Source/tasks.c **** #if ( ( INCLUDE_xTaskResumeFromISR == 1 ) && ( INCLUDE_vTaskSuspend == 1 ) )
1904:Source/tasks.c **** 
1905:Source/tasks.c **** 	BaseType_t xTaskResumeFromISR( TaskHandle_t xTaskToResume )
1906:Source/tasks.c **** 	{
 1751              		.loc 1 1906 0
 1752              		.cfi_startproc
 1753              		@ args = 0, pretend = 0, frame = 32
 1754              		@ frame_needed = 1, uses_anonymous_args = 0
 1755 0000 80B5     		push	{r7, lr}
 1756              		.cfi_def_cfa_offset 8
 1757              		.cfi_offset 7, -8
 1758              		.cfi_offset 14, -4
 1759 0002 88B0     		sub	sp, sp, #32
 1760              		.cfi_def_cfa_offset 40
 1761 0004 00AF     		add	r7, sp, #0
 1762              		.cfi_def_cfa_register 7
 1763 0006 7860     		str	r0, [r7, #4]
1907:Source/tasks.c **** 	BaseType_t xYieldRequired = pdFALSE;
 1764              		.loc 1 1907 0
 1765 0008 0023     		movs	r3, #0
 1766 000a FB61     		str	r3, [r7, #28]
ARM GAS  C:\Users\mikke\AppData\Local\Temp\ccIUnQd7.s 			page 70


1908:Source/tasks.c **** 	TCB_t * const pxTCB = xTaskToResume;
 1767              		.loc 1 1908 0
 1768 000c 7B68     		ldr	r3, [r7, #4]
 1769 000e BB61     		str	r3, [r7, #24]
 1770              	.LBB33:
 1771              	.LBB34:
 213:.\Source\portable\GCC\ARM_CM3/portmacro.h **** 	(
 1772              		.loc 2 213 0
 1773              		.syntax unified
 1774              	@ 213 ".\Source\portable\GCC\ARM_CM3/portmacro.h" 1
 1775 0010 EFF31182 			mrs r2, basepri											
 1776 0014 4FF0A003 		mov r3, #160												
 1777 0018 83F31188 		msr basepri, r3											
 1778 001c BFF36F8F 		isb														
 1779 0020 BFF34F8F 		dsb														
 1780              	
 1781              	@ 0 "" 2
 1782              		.thumb
 1783              		.syntax unified
 1784 0024 FA60     		str	r2, [r7, #12]
 1785 0026 BB60     		str	r3, [r7, #8]
 225:.\Source\portable\GCC\ARM_CM3/portmacro.h **** }
 1786              		.loc 2 225 0
 1787 0028 FB68     		ldr	r3, [r7, #12]
 1788              	.LBE34:
 1789              	.LBE33:
1909:Source/tasks.c **** 	UBaseType_t uxSavedInterruptStatus;
1910:Source/tasks.c **** 
1911:Source/tasks.c **** 		configASSERT( xTaskToResume );
1912:Source/tasks.c **** 
1913:Source/tasks.c **** 		/* RTOS ports that support interrupt nesting have the concept of a
1914:Source/tasks.c **** 		maximum	system call (or maximum API call) interrupt priority.
1915:Source/tasks.c **** 		Interrupts that are	above the maximum system call priority are keep
1916:Source/tasks.c **** 		permanently enabled, even when the RTOS kernel is in a critical section,
1917:Source/tasks.c **** 		but cannot make any calls to FreeRTOS API functions.  If configASSERT()
1918:Source/tasks.c **** 		is defined in FreeRTOSConfig.h then
1919:Source/tasks.c **** 		portASSERT_IF_INTERRUPT_PRIORITY_INVALID() will result in an assertion
1920:Source/tasks.c **** 		failure if a FreeRTOS API function is called from an interrupt that has
1921:Source/tasks.c **** 		been assigned a priority above the configured maximum system call
1922:Source/tasks.c **** 		priority.  Only FreeRTOS functions that end in FromISR can be called
1923:Source/tasks.c **** 		from interrupts	that have been assigned a priority at or (logically)
1924:Source/tasks.c **** 		below the maximum system call interrupt priority.  FreeRTOS maintains a
1925:Source/tasks.c **** 		separate interrupt safe API to ensure interrupt entry is as fast and as
1926:Source/tasks.c **** 		simple as possible.  More information (albeit Cortex-M specific) is
1927:Source/tasks.c **** 		provided on the following link:
1928:Source/tasks.c **** 		https://www.freertos.org/RTOS-Cortex-M3-M4.html */
1929:Source/tasks.c **** 		portASSERT_IF_INTERRUPT_PRIORITY_INVALID();
1930:Source/tasks.c **** 
1931:Source/tasks.c **** 		uxSavedInterruptStatus = portSET_INTERRUPT_MASK_FROM_ISR();
 1790              		.loc 1 1931 0
 1791 002a 3B61     		str	r3, [r7, #16]
1932:Source/tasks.c **** 		{
1933:Source/tasks.c **** 			if( prvTaskIsTaskSuspended( pxTCB ) != pdFALSE )
 1792              		.loc 1 1933 0
 1793 002c B869     		ldr	r0, [r7, #24]
 1794 002e FFF7FEFF 		bl	prvTaskIsTaskSuspended
 1795 0032 0346     		mov	r3, r0
ARM GAS  C:\Users\mikke\AppData\Local\Temp\ccIUnQd7.s 			page 71


 1796 0034 002B     		cmp	r3, #0
 1797 0036 2FD0     		beq	.L123
1934:Source/tasks.c **** 			{
1935:Source/tasks.c **** 				traceTASK_RESUME_FROM_ISR( pxTCB );
1936:Source/tasks.c **** 
1937:Source/tasks.c **** 				/* Check the ready lists can be accessed. */
1938:Source/tasks.c **** 				if( uxSchedulerSuspended == ( UBaseType_t ) pdFALSE )
 1798              		.loc 1 1938 0
 1799 0038 1C4B     		ldr	r3, .L128
 1800 003a 1B68     		ldr	r3, [r3]
 1801 003c 002B     		cmp	r3, #0
 1802 003e 25D1     		bne	.L124
1939:Source/tasks.c **** 				{
1940:Source/tasks.c **** 					/* Ready lists can be accessed so move the task from the
1941:Source/tasks.c **** 					suspended list to the ready list directly. */
1942:Source/tasks.c **** 					if( pxTCB->uxPriority >= pxCurrentTCB->uxPriority )
 1803              		.loc 1 1942 0
 1804 0040 BB69     		ldr	r3, [r7, #24]
 1805 0042 DA6A     		ldr	r2, [r3, #44]
 1806 0044 1A4B     		ldr	r3, .L128+4
 1807 0046 1B68     		ldr	r3, [r3]
 1808 0048 DB6A     		ldr	r3, [r3, #44]
 1809 004a 9A42     		cmp	r2, r3
 1810 004c 01D3     		bcc	.L125
1943:Source/tasks.c **** 					{
1944:Source/tasks.c **** 						xYieldRequired = pdTRUE;
 1811              		.loc 1 1944 0
 1812 004e 0123     		movs	r3, #1
 1813 0050 FB61     		str	r3, [r7, #28]
 1814              	.L125:
1945:Source/tasks.c **** 					}
1946:Source/tasks.c **** 					else
1947:Source/tasks.c **** 					{
1948:Source/tasks.c **** 						mtCOVERAGE_TEST_MARKER();
1949:Source/tasks.c **** 					}
1950:Source/tasks.c **** 
1951:Source/tasks.c **** 					( void ) uxListRemove( &( pxTCB->xStateListItem ) );
 1815              		.loc 1 1951 0
 1816 0052 BB69     		ldr	r3, [r7, #24]
 1817 0054 0433     		adds	r3, r3, #4
 1818 0056 1846     		mov	r0, r3
 1819 0058 FFF7FEFF 		bl	uxListRemove
1952:Source/tasks.c **** 					prvAddTaskToReadyList( pxTCB );
 1820              		.loc 1 1952 0
 1821 005c BB69     		ldr	r3, [r7, #24]
 1822 005e DB6A     		ldr	r3, [r3, #44]
 1823 0060 0122     		movs	r2, #1
 1824 0062 9A40     		lsls	r2, r2, r3
 1825 0064 134B     		ldr	r3, .L128+8
 1826 0066 1B68     		ldr	r3, [r3]
 1827 0068 1343     		orrs	r3, r3, r2
 1828 006a 124A     		ldr	r2, .L128+8
 1829 006c 1360     		str	r3, [r2]
 1830 006e BB69     		ldr	r3, [r7, #24]
 1831 0070 DA6A     		ldr	r2, [r3, #44]
 1832 0072 1346     		mov	r3, r2
 1833 0074 9B00     		lsls	r3, r3, #2
ARM GAS  C:\Users\mikke\AppData\Local\Temp\ccIUnQd7.s 			page 72


 1834 0076 1344     		add	r3, r3, r2
 1835 0078 9B00     		lsls	r3, r3, #2
 1836 007a 0F4A     		ldr	r2, .L128+12
 1837 007c 1A44     		add	r2, r2, r3
 1838 007e BB69     		ldr	r3, [r7, #24]
 1839 0080 0433     		adds	r3, r3, #4
 1840 0082 1946     		mov	r1, r3
 1841 0084 1046     		mov	r0, r2
 1842 0086 FFF7FEFF 		bl	vListInsertEnd
 1843 008a 05E0     		b	.L123
 1844              	.L124:
1953:Source/tasks.c **** 				}
1954:Source/tasks.c **** 				else
1955:Source/tasks.c **** 				{
1956:Source/tasks.c **** 					/* The delayed or ready lists cannot be accessed so the task
1957:Source/tasks.c **** 					is held in the pending ready list until the scheduler is
1958:Source/tasks.c **** 					unsuspended. */
1959:Source/tasks.c **** 					vListInsertEnd( &( xPendingReadyList ), &( pxTCB->xEventListItem ) );
 1845              		.loc 1 1959 0
 1846 008c BB69     		ldr	r3, [r7, #24]
 1847 008e 1833     		adds	r3, r3, #24
 1848 0090 1946     		mov	r1, r3
 1849 0092 0A48     		ldr	r0, .L128+16
 1850 0094 FFF7FEFF 		bl	vListInsertEnd
 1851              	.L123:
 1852 0098 3B69     		ldr	r3, [r7, #16]
 1853 009a 7B61     		str	r3, [r7, #20]
 1854              	.LBB35:
 1855              	.LBB36:
 1856              		.loc 2 231 0
 1857 009c 7B69     		ldr	r3, [r7, #20]
 1858              		.syntax unified
 1859              	@ 231 ".\Source\portable\GCC\ARM_CM3/portmacro.h" 1
 1860 009e 83F31188 			msr basepri, r3	
 1861              	@ 0 "" 2
 1862              		.thumb
 1863              		.syntax unified
 1864              	.LBE36:
 1865              	.LBE35:
1960:Source/tasks.c **** 				}
1961:Source/tasks.c **** 			}
1962:Source/tasks.c **** 			else
1963:Source/tasks.c **** 			{
1964:Source/tasks.c **** 				mtCOVERAGE_TEST_MARKER();
1965:Source/tasks.c **** 			}
1966:Source/tasks.c **** 		}
1967:Source/tasks.c **** 		portCLEAR_INTERRUPT_MASK_FROM_ISR( uxSavedInterruptStatus );
1968:Source/tasks.c **** 
1969:Source/tasks.c **** 		return xYieldRequired;
 1866              		.loc 1 1969 0
 1867 00a2 FB69     		ldr	r3, [r7, #28]
1970:Source/tasks.c **** 	}
 1868              		.loc 1 1970 0
 1869 00a4 1846     		mov	r0, r3
 1870 00a6 2037     		adds	r7, r7, #32
 1871              		.cfi_def_cfa_offset 8
 1872 00a8 BD46     		mov	sp, r7
ARM GAS  C:\Users\mikke\AppData\Local\Temp\ccIUnQd7.s 			page 73


 1873              		.cfi_def_cfa_register 13
 1874              		@ sp needed
 1875 00aa 80BD     		pop	{r7, pc}
 1876              	.L129:
 1877              		.align	2
 1878              	.L128:
 1879 00ac 00010000 		.word	uxSchedulerSuspended
 1880 00b0 00000000 		.word	pxCurrentTCB
 1881 00b4 E0000000 		.word	uxTopReadyPriority
 1882 00b8 04000000 		.word	pxReadyTasksLists
 1883 00bc 98000000 		.word	xPendingReadyList
 1884              		.cfi_endproc
 1885              	.LFE81:
 1886              		.size	xTaskResumeFromISR, .-xTaskResumeFromISR
 1887              		.section	.rodata
 1888              		.align	2
 1889              	.LC0:
 1890 0000 49444C45 		.ascii	"IDLE\000"
 1890      00
 1891              		.section	.text.vTaskStartScheduler,"ax",%progbits
 1892              		.align	2
 1893              		.global	vTaskStartScheduler
 1894              		.thumb
 1895              		.thumb_func
 1896              		.type	vTaskStartScheduler, %function
 1897              	vTaskStartScheduler:
 1898              	.LFB82:
1971:Source/tasks.c **** 
1972:Source/tasks.c **** #endif /* ( ( INCLUDE_xTaskResumeFromISR == 1 ) && ( INCLUDE_vTaskSuspend == 1 ) ) */
1973:Source/tasks.c **** /*-----------------------------------------------------------*/
1974:Source/tasks.c **** 
1975:Source/tasks.c **** void vTaskStartScheduler( void )
1976:Source/tasks.c **** {
 1899              		.loc 1 1976 0
 1900              		.cfi_startproc
 1901              		@ args = 0, pretend = 0, frame = 8
 1902              		@ frame_needed = 1, uses_anonymous_args = 0
 1903 0000 80B5     		push	{r7, lr}
 1904              		.cfi_def_cfa_offset 8
 1905              		.cfi_offset 7, -8
 1906              		.cfi_offset 14, -4
 1907 0002 84B0     		sub	sp, sp, #16
 1908              		.cfi_def_cfa_offset 24
 1909 0004 02AF     		add	r7, sp, #8
 1910              		.cfi_def_cfa 7, 16
1977:Source/tasks.c **** BaseType_t xReturn;
1978:Source/tasks.c **** 
1979:Source/tasks.c **** 	/* Add the idle task at the lowest priority. */
1980:Source/tasks.c **** 	#if( configSUPPORT_STATIC_ALLOCATION == 1 )
1981:Source/tasks.c **** 	{
1982:Source/tasks.c **** 		StaticTask_t *pxIdleTaskTCBBuffer = NULL;
1983:Source/tasks.c **** 		StackType_t *pxIdleTaskStackBuffer = NULL;
1984:Source/tasks.c **** 		uint32_t ulIdleTaskStackSize;
1985:Source/tasks.c **** 
1986:Source/tasks.c **** 		/* The Idle task is created using user provided RAM - obtain the
1987:Source/tasks.c **** 		address of the RAM then create the idle task. */
1988:Source/tasks.c **** 		vApplicationGetIdleTaskMemory( &pxIdleTaskTCBBuffer, &pxIdleTaskStackBuffer, &ulIdleTaskStackSize
ARM GAS  C:\Users\mikke\AppData\Local\Temp\ccIUnQd7.s 			page 74


1989:Source/tasks.c **** 		xIdleTaskHandle = xTaskCreateStatic(	prvIdleTask,
1990:Source/tasks.c **** 												configIDLE_TASK_NAME,
1991:Source/tasks.c **** 												ulIdleTaskStackSize,
1992:Source/tasks.c **** 												( void * ) NULL, /*lint !e961.  The cast is not redundant for all compilers. */
1993:Source/tasks.c **** 												portPRIVILEGE_BIT, /* In effect ( tskIDLE_PRIORITY | portPRIVILEGE_BIT ), but tskIDLE_P
1994:Source/tasks.c **** 												pxIdleTaskStackBuffer,
1995:Source/tasks.c **** 												pxIdleTaskTCBBuffer ); /*lint !e961 MISRA exception, justified as it is not a redundant
1996:Source/tasks.c **** 
1997:Source/tasks.c **** 		if( xIdleTaskHandle != NULL )
1998:Source/tasks.c **** 		{
1999:Source/tasks.c **** 			xReturn = pdPASS;
2000:Source/tasks.c **** 		}
2001:Source/tasks.c **** 		else
2002:Source/tasks.c **** 		{
2003:Source/tasks.c **** 			xReturn = pdFAIL;
2004:Source/tasks.c **** 		}
2005:Source/tasks.c **** 	}
2006:Source/tasks.c **** 	#else
2007:Source/tasks.c **** 	{
2008:Source/tasks.c **** 		/* The Idle task is being created using dynamically allocated RAM. */
2009:Source/tasks.c **** 		xReturn = xTaskCreate(	prvIdleTask,
 1911              		.loc 1 2009 0
 1912 0006 134B     		ldr	r3, .L133
 1913 0008 0193     		str	r3, [sp, #4]
 1914 000a 0023     		movs	r3, #0
 1915 000c 0093     		str	r3, [sp]
 1916 000e 0023     		movs	r3, #0
 1917 0010 6422     		movs	r2, #100
 1918 0012 1149     		ldr	r1, .L133+4
 1919 0014 1148     		ldr	r0, .L133+8
 1920 0016 FFF7FEFF 		bl	xTaskCreate
 1921 001a 7860     		str	r0, [r7, #4]
2010:Source/tasks.c **** 								configIDLE_TASK_NAME,
2011:Source/tasks.c **** 								configMINIMAL_STACK_SIZE,
2012:Source/tasks.c **** 								( void * ) NULL,
2013:Source/tasks.c **** 								portPRIVILEGE_BIT, /* In effect ( tskIDLE_PRIORITY | portPRIVILEGE_BIT ), but tskIDLE_PRIOR
2014:Source/tasks.c **** 								&xIdleTaskHandle ); /*lint !e961 MISRA exception, justified as it is not a redundant explic
2015:Source/tasks.c **** 	}
2016:Source/tasks.c **** 	#endif /* configSUPPORT_STATIC_ALLOCATION */
2017:Source/tasks.c **** 
2018:Source/tasks.c **** 	#if ( configUSE_TIMERS == 1 )
2019:Source/tasks.c **** 	{
2020:Source/tasks.c **** 		if( xReturn == pdPASS )
2021:Source/tasks.c **** 		{
2022:Source/tasks.c **** 			xReturn = xTimerCreateTimerTask();
2023:Source/tasks.c **** 		}
2024:Source/tasks.c **** 		else
2025:Source/tasks.c **** 		{
2026:Source/tasks.c **** 			mtCOVERAGE_TEST_MARKER();
2027:Source/tasks.c **** 		}
2028:Source/tasks.c **** 	}
2029:Source/tasks.c **** 	#endif /* configUSE_TIMERS */
2030:Source/tasks.c **** 
2031:Source/tasks.c **** 	if( xReturn == pdPASS )
 1922              		.loc 1 2031 0
 1923 001c 7B68     		ldr	r3, [r7, #4]
 1924 001e 012B     		cmp	r3, #1
ARM GAS  C:\Users\mikke\AppData\Local\Temp\ccIUnQd7.s 			page 75


 1925 0020 14D1     		bne	.L132
 1926              	.LBB37:
 1927              	.LBB38:
 197:.\Source\portable\GCC\ARM_CM3/portmacro.h **** 	(
 1928              		.loc 2 197 0
 1929              		.syntax unified
 1930              	@ 197 ".\Source\portable\GCC\ARM_CM3/portmacro.h" 1
 1931 0022 4FF0A003 			mov r3, #160												
 1932 0026 83F31188 		msr basepri, r3											
 1933 002a BFF36F8F 		isb														
 1934 002e BFF34F8F 		dsb														
 1935              	
 1936              	@ 0 "" 2
 1937              		.thumb
 1938              		.syntax unified
 1939 0032 3B60     		str	r3, [r7]
 1940              	.LBE38:
 1941              	.LBE37:
2032:Source/tasks.c **** 	{
2033:Source/tasks.c **** 		/* freertos_tasks_c_additions_init() should only be called if the user
2034:Source/tasks.c **** 		definable macro FREERTOS_TASKS_C_ADDITIONS_INIT() is defined, as that is
2035:Source/tasks.c **** 		the only macro called by the function. */
2036:Source/tasks.c **** 		#ifdef FREERTOS_TASKS_C_ADDITIONS_INIT
2037:Source/tasks.c **** 		{
2038:Source/tasks.c **** 			freertos_tasks_c_additions_init();
2039:Source/tasks.c **** 		}
2040:Source/tasks.c **** 		#endif
2041:Source/tasks.c **** 
2042:Source/tasks.c **** 		/* Interrupts are turned off here, to ensure a tick does not occur
2043:Source/tasks.c **** 		before or during the call to xPortStartScheduler().  The stacks of
2044:Source/tasks.c **** 		the created tasks contain a status word with interrupts switched on
2045:Source/tasks.c **** 		so interrupts will automatically get re-enabled when the first task
2046:Source/tasks.c **** 		starts to run. */
2047:Source/tasks.c **** 		portDISABLE_INTERRUPTS();
2048:Source/tasks.c **** 
2049:Source/tasks.c **** 		#if ( configUSE_NEWLIB_REENTRANT == 1 )
2050:Source/tasks.c **** 		{
2051:Source/tasks.c **** 			/* Switch Newlib's _impure_ptr variable to point to the _reent
2052:Source/tasks.c **** 			structure specific to the task that will run first.
2053:Source/tasks.c **** 			See the third party link http://www.nadler.com/embedded/newlibAndFreeRTOS.html
2054:Source/tasks.c **** 			for additional information. */
2055:Source/tasks.c **** 			_impure_ptr = &( pxCurrentTCB->xNewLib_reent );
2056:Source/tasks.c **** 		}
2057:Source/tasks.c **** 		#endif /* configUSE_NEWLIB_REENTRANT */
2058:Source/tasks.c **** 
2059:Source/tasks.c **** 		xNextTaskUnblockTime = portMAX_DELAY;
 1942              		.loc 1 2059 0
 1943 0034 0A4B     		ldr	r3, .L133+12
 1944 0036 4FF0FF32 		mov	r2, #-1
 1945 003a 1A60     		str	r2, [r3]
2060:Source/tasks.c **** 		xSchedulerRunning = pdTRUE;
 1946              		.loc 1 2060 0
 1947 003c 094B     		ldr	r3, .L133+16
 1948 003e 0122     		movs	r2, #1
 1949 0040 1A60     		str	r2, [r3]
2061:Source/tasks.c **** 		xTickCount = ( TickType_t ) configINITIAL_TICK_COUNT;
 1950              		.loc 1 2061 0
ARM GAS  C:\Users\mikke\AppData\Local\Temp\ccIUnQd7.s 			page 76


 1951 0042 094B     		ldr	r3, .L133+20
 1952 0044 0022     		movs	r2, #0
 1953 0046 1A60     		str	r2, [r3]
2062:Source/tasks.c **** 
2063:Source/tasks.c **** 		/* If configGENERATE_RUN_TIME_STATS is defined then the following
2064:Source/tasks.c **** 		macro must be defined to configure the timer/counter used to generate
2065:Source/tasks.c **** 		the run time counter time base.   NOTE:  If configGENERATE_RUN_TIME_STATS
2066:Source/tasks.c **** 		is set to 0 and the following line fails to build then ensure you do not
2067:Source/tasks.c **** 		have portCONFIGURE_TIMER_FOR_RUN_TIME_STATS() defined in your
2068:Source/tasks.c **** 		FreeRTOSConfig.h file. */
2069:Source/tasks.c **** 		portCONFIGURE_TIMER_FOR_RUN_TIME_STATS();
2070:Source/tasks.c **** 
2071:Source/tasks.c **** 		traceTASK_SWITCHED_IN();
2072:Source/tasks.c **** 
2073:Source/tasks.c **** 		/* Setting up the timer tick is hardware specific and thus in the
2074:Source/tasks.c **** 		portable interface. */
2075:Source/tasks.c **** 		if( xPortStartScheduler() != pdFALSE )
 1954              		.loc 1 2075 0
 1955 0048 FFF7FEFF 		bl	xPortStartScheduler
 1956              	.L132:
2076:Source/tasks.c **** 		{
2077:Source/tasks.c **** 			/* Should not reach here as if the scheduler is running the
2078:Source/tasks.c **** 			function will not return. */
2079:Source/tasks.c **** 		}
2080:Source/tasks.c **** 		else
2081:Source/tasks.c **** 		{
2082:Source/tasks.c **** 			/* Should only reach here if a task calls xTaskEndScheduler(). */
2083:Source/tasks.c **** 		}
2084:Source/tasks.c **** 	}
2085:Source/tasks.c **** 	else
2086:Source/tasks.c **** 	{
2087:Source/tasks.c **** 		/* This line will only be reached if the kernel could not be started,
2088:Source/tasks.c **** 		because there was not enough FreeRTOS heap to create the idle task
2089:Source/tasks.c **** 		or the timer task. */
2090:Source/tasks.c **** 		configASSERT( xReturn != errCOULD_NOT_ALLOCATE_REQUIRED_MEMORY );
2091:Source/tasks.c **** 	}
2092:Source/tasks.c **** 
2093:Source/tasks.c **** 	/* Prevent compiler warnings if INCLUDE_xTaskGetIdleTaskHandle is set to 0,
2094:Source/tasks.c **** 	meaning xIdleTaskHandle is not used anywhere else. */
2095:Source/tasks.c **** 	( void ) xIdleTaskHandle;
2096:Source/tasks.c **** }
 1957              		.loc 1 2096 0
 1958 004c 00BF     		nop
 1959 004e 0837     		adds	r7, r7, #8
 1960              		.cfi_def_cfa_offset 8
 1961 0050 BD46     		mov	sp, r7
 1962              		.cfi_def_cfa_register 13
 1963              		@ sp needed
 1964 0052 80BD     		pop	{r7, pc}
 1965              	.L134:
 1966              		.align	2
 1967              	.L133:
 1968 0054 FC000000 		.word	xIdleTaskHandle
 1969 0058 00000000 		.word	.LC0
 1970 005c 00000000 		.word	prvIdleTask
 1971 0060 F8000000 		.word	xNextTaskUnblockTime
 1972 0064 E4000000 		.word	xSchedulerRunning
ARM GAS  C:\Users\mikke\AppData\Local\Temp\ccIUnQd7.s 			page 77


 1973 0068 DC000000 		.word	xTickCount
 1974              		.cfi_endproc
 1975              	.LFE82:
 1976              		.size	vTaskStartScheduler, .-vTaskStartScheduler
 1977              		.section	.text.vTaskEndScheduler,"ax",%progbits
 1978              		.align	2
 1979              		.global	vTaskEndScheduler
 1980              		.thumb
 1981              		.thumb_func
 1982              		.type	vTaskEndScheduler, %function
 1983              	vTaskEndScheduler:
 1984              	.LFB83:
2097:Source/tasks.c **** /*-----------------------------------------------------------*/
2098:Source/tasks.c **** 
2099:Source/tasks.c **** void vTaskEndScheduler( void )
2100:Source/tasks.c **** {
 1985              		.loc 1 2100 0
 1986              		.cfi_startproc
 1987              		@ args = 0, pretend = 0, frame = 8
 1988              		@ frame_needed = 1, uses_anonymous_args = 0
 1989 0000 80B5     		push	{r7, lr}
 1990              		.cfi_def_cfa_offset 8
 1991              		.cfi_offset 7, -8
 1992              		.cfi_offset 14, -4
 1993 0002 82B0     		sub	sp, sp, #8
 1994              		.cfi_def_cfa_offset 16
 1995 0004 00AF     		add	r7, sp, #0
 1996              		.cfi_def_cfa_register 7
 1997              	.LBB39:
 1998              	.LBB40:
 197:.\Source\portable\GCC\ARM_CM3/portmacro.h **** 	(
 1999              		.loc 2 197 0
 2000              		.syntax unified
 2001              	@ 197 ".\Source\portable\GCC\ARM_CM3/portmacro.h" 1
 2002 0006 4FF0A003 			mov r3, #160												
 2003 000a 83F31188 		msr basepri, r3											
 2004 000e BFF36F8F 		isb														
 2005 0012 BFF34F8F 		dsb														
 2006              	
 2007              	@ 0 "" 2
 2008              		.thumb
 2009              		.syntax unified
 2010 0016 7B60     		str	r3, [r7, #4]
 2011              	.LBE40:
 2012              	.LBE39:
2101:Source/tasks.c **** 	/* Stop the scheduler interrupts and call the portable scheduler end
2102:Source/tasks.c **** 	routine so the original ISRs can be restored if necessary.  The port
2103:Source/tasks.c **** 	layer must ensure interrupts enable	bit is left in the correct state. */
2104:Source/tasks.c **** 	portDISABLE_INTERRUPTS();
2105:Source/tasks.c **** 	xSchedulerRunning = pdFALSE;
 2013              		.loc 1 2105 0
 2014 0018 044B     		ldr	r3, .L136
 2015 001a 0022     		movs	r2, #0
 2016 001c 1A60     		str	r2, [r3]
2106:Source/tasks.c **** 	vPortEndScheduler();
 2017              		.loc 1 2106 0
 2018 001e FFF7FEFF 		bl	vPortEndScheduler
ARM GAS  C:\Users\mikke\AppData\Local\Temp\ccIUnQd7.s 			page 78


2107:Source/tasks.c **** }
 2019              		.loc 1 2107 0
 2020 0022 00BF     		nop
 2021 0024 0837     		adds	r7, r7, #8
 2022              		.cfi_def_cfa_offset 8
 2023 0026 BD46     		mov	sp, r7
 2024              		.cfi_def_cfa_register 13
 2025              		@ sp needed
 2026 0028 80BD     		pop	{r7, pc}
 2027              	.L137:
 2028 002a 00BF     		.align	2
 2029              	.L136:
 2030 002c E4000000 		.word	xSchedulerRunning
 2031              		.cfi_endproc
 2032              	.LFE83:
 2033              		.size	vTaskEndScheduler, .-vTaskEndScheduler
 2034              		.section	.text.vTaskSuspendAll,"ax",%progbits
 2035              		.align	2
 2036              		.global	vTaskSuspendAll
 2037              		.thumb
 2038              		.thumb_func
 2039              		.type	vTaskSuspendAll, %function
 2040              	vTaskSuspendAll:
 2041              	.LFB84:
2108:Source/tasks.c **** /*----------------------------------------------------------*/
2109:Source/tasks.c **** 
2110:Source/tasks.c **** void vTaskSuspendAll( void )
2111:Source/tasks.c **** {
 2042              		.loc 1 2111 0
 2043              		.cfi_startproc
 2044              		@ args = 0, pretend = 0, frame = 0
 2045              		@ frame_needed = 1, uses_anonymous_args = 0
 2046              		@ link register save eliminated.
 2047 0000 80B4     		push	{r7}
 2048              		.cfi_def_cfa_offset 4
 2049              		.cfi_offset 7, -4
 2050 0002 00AF     		add	r7, sp, #0
 2051              		.cfi_def_cfa_register 7
2112:Source/tasks.c **** 	/* A critical section is not required as the variable is of type
2113:Source/tasks.c **** 	BaseType_t.  Please read Richard Barry's reply in the following link to a
2114:Source/tasks.c **** 	post in the FreeRTOS support forum before reporting this as a bug! -
2115:Source/tasks.c **** 	http://goo.gl/wu4acr */
2116:Source/tasks.c **** 
2117:Source/tasks.c **** 	/* portSOFRWARE_BARRIER() is only implemented for emulated/simulated ports that
2118:Source/tasks.c **** 	do not otherwise exhibit real time behaviour. */
2119:Source/tasks.c **** 	portSOFTWARE_BARRIER();
2120:Source/tasks.c **** 
2121:Source/tasks.c **** 	/* The scheduler is suspended if uxSchedulerSuspended is non-zero.  An increment
2122:Source/tasks.c **** 	is used to allow calls to vTaskSuspendAll() to nest. */
2123:Source/tasks.c **** 	++uxSchedulerSuspended;
 2052              		.loc 1 2123 0
 2053 0004 044B     		ldr	r3, .L139
 2054 0006 1B68     		ldr	r3, [r3]
 2055 0008 0133     		adds	r3, r3, #1
 2056 000a 034A     		ldr	r2, .L139
 2057 000c 1360     		str	r3, [r2]
2124:Source/tasks.c **** 
ARM GAS  C:\Users\mikke\AppData\Local\Temp\ccIUnQd7.s 			page 79


2125:Source/tasks.c **** 	/* Enforces ordering for ports and optimised compilers that may otherwise place
2126:Source/tasks.c **** 	the above increment elsewhere. */
2127:Source/tasks.c **** 	portMEMORY_BARRIER();
 2058              		.loc 1 2127 0
2128:Source/tasks.c **** }
 2059              		.loc 1 2128 0
 2060 000e 00BF     		nop
 2061 0010 BD46     		mov	sp, r7
 2062              		.cfi_def_cfa_register 13
 2063              		@ sp needed
 2064 0012 80BC     		pop	{r7}
 2065              		.cfi_restore 7
 2066              		.cfi_def_cfa_offset 0
 2067 0014 7047     		bx	lr
 2068              	.L140:
 2069 0016 00BF     		.align	2
 2070              	.L139:
 2071 0018 00010000 		.word	uxSchedulerSuspended
 2072              		.cfi_endproc
 2073              	.LFE84:
 2074              		.size	vTaskSuspendAll, .-vTaskSuspendAll
 2075              		.section	.text.xTaskResumeAll,"ax",%progbits
 2076              		.align	2
 2077              		.global	xTaskResumeAll
 2078              		.thumb
 2079              		.thumb_func
 2080              		.type	xTaskResumeAll, %function
 2081              	xTaskResumeAll:
 2082              	.LFB85:
2129:Source/tasks.c **** /*----------------------------------------------------------*/
2130:Source/tasks.c **** 
2131:Source/tasks.c **** #if ( configUSE_TICKLESS_IDLE != 0 )
2132:Source/tasks.c **** 
2133:Source/tasks.c **** 	static TickType_t prvGetExpectedIdleTime( void )
2134:Source/tasks.c **** 	{
2135:Source/tasks.c **** 	TickType_t xReturn;
2136:Source/tasks.c **** 	UBaseType_t uxHigherPriorityReadyTasks = pdFALSE;
2137:Source/tasks.c **** 
2138:Source/tasks.c **** 		/* uxHigherPriorityReadyTasks takes care of the case where
2139:Source/tasks.c **** 		configUSE_PREEMPTION is 0, so there may be tasks above the idle priority
2140:Source/tasks.c **** 		task that are in the Ready state, even though the idle task is
2141:Source/tasks.c **** 		running. */
2142:Source/tasks.c **** 		#if( configUSE_PORT_OPTIMISED_TASK_SELECTION == 0 )
2143:Source/tasks.c **** 		{
2144:Source/tasks.c **** 			if( uxTopReadyPriority > tskIDLE_PRIORITY )
2145:Source/tasks.c **** 			{
2146:Source/tasks.c **** 				uxHigherPriorityReadyTasks = pdTRUE;
2147:Source/tasks.c **** 			}
2148:Source/tasks.c **** 		}
2149:Source/tasks.c **** 		#else
2150:Source/tasks.c **** 		{
2151:Source/tasks.c **** 			const UBaseType_t uxLeastSignificantBit = ( UBaseType_t ) 0x01;
2152:Source/tasks.c **** 
2153:Source/tasks.c **** 			/* When port optimised task selection is used the uxTopReadyPriority
2154:Source/tasks.c **** 			variable is used as a bit map.  If bits other than the least
2155:Source/tasks.c **** 			significant bit are set then there are tasks that have a priority
2156:Source/tasks.c **** 			above the idle priority that are in the Ready state.  This takes
ARM GAS  C:\Users\mikke\AppData\Local\Temp\ccIUnQd7.s 			page 80


2157:Source/tasks.c **** 			care of the case where the co-operative scheduler is in use. */
2158:Source/tasks.c **** 			if( uxTopReadyPriority > uxLeastSignificantBit )
2159:Source/tasks.c **** 			{
2160:Source/tasks.c **** 				uxHigherPriorityReadyTasks = pdTRUE;
2161:Source/tasks.c **** 			}
2162:Source/tasks.c **** 		}
2163:Source/tasks.c **** 		#endif
2164:Source/tasks.c **** 
2165:Source/tasks.c **** 		if( pxCurrentTCB->uxPriority > tskIDLE_PRIORITY )
2166:Source/tasks.c **** 		{
2167:Source/tasks.c **** 			xReturn = 0;
2168:Source/tasks.c **** 		}
2169:Source/tasks.c **** 		else if( listCURRENT_LIST_LENGTH( &( pxReadyTasksLists[ tskIDLE_PRIORITY ] ) ) > 1 )
2170:Source/tasks.c **** 		{
2171:Source/tasks.c **** 			/* There are other idle priority tasks in the ready state.  If
2172:Source/tasks.c **** 			time slicing is used then the very next tick interrupt must be
2173:Source/tasks.c **** 			processed. */
2174:Source/tasks.c **** 			xReturn = 0;
2175:Source/tasks.c **** 		}
2176:Source/tasks.c **** 		else if( uxHigherPriorityReadyTasks != pdFALSE )
2177:Source/tasks.c **** 		{
2178:Source/tasks.c **** 			/* There are tasks in the Ready state that have a priority above the
2179:Source/tasks.c **** 			idle priority.  This path can only be reached if
2180:Source/tasks.c **** 			configUSE_PREEMPTION is 0. */
2181:Source/tasks.c **** 			xReturn = 0;
2182:Source/tasks.c **** 		}
2183:Source/tasks.c **** 		else
2184:Source/tasks.c **** 		{
2185:Source/tasks.c **** 			xReturn = xNextTaskUnblockTime - xTickCount;
2186:Source/tasks.c **** 		}
2187:Source/tasks.c **** 
2188:Source/tasks.c **** 		return xReturn;
2189:Source/tasks.c **** 	}
2190:Source/tasks.c **** 
2191:Source/tasks.c **** #endif /* configUSE_TICKLESS_IDLE */
2192:Source/tasks.c **** /*----------------------------------------------------------*/
2193:Source/tasks.c **** 
2194:Source/tasks.c **** BaseType_t xTaskResumeAll( void )
2195:Source/tasks.c **** {
 2083              		.loc 1 2195 0
 2084              		.cfi_startproc
 2085              		@ args = 0, pretend = 0, frame = 16
 2086              		@ frame_needed = 1, uses_anonymous_args = 0
 2087 0000 80B5     		push	{r7, lr}
 2088              		.cfi_def_cfa_offset 8
 2089              		.cfi_offset 7, -8
 2090              		.cfi_offset 14, -4
 2091 0002 84B0     		sub	sp, sp, #16
 2092              		.cfi_def_cfa_offset 24
 2093 0004 00AF     		add	r7, sp, #0
 2094              		.cfi_def_cfa_register 7
2196:Source/tasks.c **** TCB_t *pxTCB = NULL;
 2095              		.loc 1 2196 0
 2096 0006 0023     		movs	r3, #0
 2097 0008 FB60     		str	r3, [r7, #12]
2197:Source/tasks.c **** BaseType_t xAlreadyYielded = pdFALSE;
 2098              		.loc 1 2197 0
ARM GAS  C:\Users\mikke\AppData\Local\Temp\ccIUnQd7.s 			page 81


 2099 000a 0023     		movs	r3, #0
 2100 000c BB60     		str	r3, [r7, #8]
2198:Source/tasks.c **** 
2199:Source/tasks.c **** 	/* If uxSchedulerSuspended is zero then this function does not match a
2200:Source/tasks.c **** 	previous call to vTaskSuspendAll(). */
2201:Source/tasks.c **** 	configASSERT( uxSchedulerSuspended );
2202:Source/tasks.c **** 
2203:Source/tasks.c **** 	/* It is possible that an ISR caused a task to be removed from an event
2204:Source/tasks.c **** 	list while the scheduler was suspended.  If this was the case then the
2205:Source/tasks.c **** 	removed task will have been added to the xPendingReadyList.  Once the
2206:Source/tasks.c **** 	scheduler has been resumed it is safe to move all the pending ready
2207:Source/tasks.c **** 	tasks from this list into their appropriate ready list. */
2208:Source/tasks.c **** 	taskENTER_CRITICAL();
 2101              		.loc 1 2208 0
 2102 000e FFF7FEFF 		bl	vPortEnterCritical
2209:Source/tasks.c **** 	{
2210:Source/tasks.c **** 		--uxSchedulerSuspended;
 2103              		.loc 1 2210 0
 2104 0012 394B     		ldr	r3, .L150
 2105 0014 1B68     		ldr	r3, [r3]
 2106 0016 013B     		subs	r3, r3, #1
 2107 0018 374A     		ldr	r2, .L150
 2108 001a 1360     		str	r3, [r2]
2211:Source/tasks.c **** 
2212:Source/tasks.c **** 		if( uxSchedulerSuspended == ( UBaseType_t ) pdFALSE )
 2109              		.loc 1 2212 0
 2110 001c 364B     		ldr	r3, .L150
 2111 001e 1B68     		ldr	r3, [r3]
 2112 0020 002B     		cmp	r3, #0
 2113 0022 61D1     		bne	.L142
2213:Source/tasks.c **** 		{
2214:Source/tasks.c **** 			if( uxCurrentNumberOfTasks > ( UBaseType_t ) 0U )
 2114              		.loc 1 2214 0
 2115 0024 354B     		ldr	r3, .L150+4
 2116 0026 1B68     		ldr	r3, [r3]
 2117 0028 002B     		cmp	r3, #0
 2118 002a 5DD0     		beq	.L142
2215:Source/tasks.c **** 			{
2216:Source/tasks.c **** 				/* Move any readied tasks from the pending list into the
2217:Source/tasks.c **** 				appropriate ready list. */
2218:Source/tasks.c **** 				while( listLIST_IS_EMPTY( &xPendingReadyList ) == pdFALSE )
 2119              		.loc 1 2218 0
 2120 002c 2EE0     		b	.L143
 2121              	.L144:
2219:Source/tasks.c **** 				{
2220:Source/tasks.c **** 					pxTCB = listGET_OWNER_OF_HEAD_ENTRY( ( &xPendingReadyList ) ); /*lint !e9079 void * is used as
 2122              		.loc 1 2220 0
 2123 002e 344B     		ldr	r3, .L150+8
 2124 0030 DB68     		ldr	r3, [r3, #12]
 2125 0032 DB68     		ldr	r3, [r3, #12]
 2126 0034 FB60     		str	r3, [r7, #12]
2221:Source/tasks.c **** 					( void ) uxListRemove( &( pxTCB->xEventListItem ) );
 2127              		.loc 1 2221 0
 2128 0036 FB68     		ldr	r3, [r7, #12]
 2129 0038 1833     		adds	r3, r3, #24
 2130 003a 1846     		mov	r0, r3
 2131 003c FFF7FEFF 		bl	uxListRemove
ARM GAS  C:\Users\mikke\AppData\Local\Temp\ccIUnQd7.s 			page 82


2222:Source/tasks.c **** 					( void ) uxListRemove( &( pxTCB->xStateListItem ) );
 2132              		.loc 1 2222 0
 2133 0040 FB68     		ldr	r3, [r7, #12]
 2134 0042 0433     		adds	r3, r3, #4
 2135 0044 1846     		mov	r0, r3
 2136 0046 FFF7FEFF 		bl	uxListRemove
2223:Source/tasks.c **** 					prvAddTaskToReadyList( pxTCB );
 2137              		.loc 1 2223 0
 2138 004a FB68     		ldr	r3, [r7, #12]
 2139 004c DB6A     		ldr	r3, [r3, #44]
 2140 004e 0122     		movs	r2, #1
 2141 0050 9A40     		lsls	r2, r2, r3
 2142 0052 2C4B     		ldr	r3, .L150+12
 2143 0054 1B68     		ldr	r3, [r3]
 2144 0056 1343     		orrs	r3, r3, r2
 2145 0058 2A4A     		ldr	r2, .L150+12
 2146 005a 1360     		str	r3, [r2]
 2147 005c FB68     		ldr	r3, [r7, #12]
 2148 005e DA6A     		ldr	r2, [r3, #44]
 2149 0060 1346     		mov	r3, r2
 2150 0062 9B00     		lsls	r3, r3, #2
 2151 0064 1344     		add	r3, r3, r2
 2152 0066 9B00     		lsls	r3, r3, #2
 2153 0068 274A     		ldr	r2, .L150+16
 2154 006a 1A44     		add	r2, r2, r3
 2155 006c FB68     		ldr	r3, [r7, #12]
 2156 006e 0433     		adds	r3, r3, #4
 2157 0070 1946     		mov	r1, r3
 2158 0072 1046     		mov	r0, r2
 2159 0074 FFF7FEFF 		bl	vListInsertEnd
2224:Source/tasks.c **** 
2225:Source/tasks.c **** 					/* If the moved task has a priority higher than the current
2226:Source/tasks.c **** 					task then a yield must be performed. */
2227:Source/tasks.c **** 					if( pxTCB->uxPriority >= pxCurrentTCB->uxPriority )
 2160              		.loc 1 2227 0
 2161 0078 FB68     		ldr	r3, [r7, #12]
 2162 007a DA6A     		ldr	r2, [r3, #44]
 2163 007c 234B     		ldr	r3, .L150+20
 2164 007e 1B68     		ldr	r3, [r3]
 2165 0080 DB6A     		ldr	r3, [r3, #44]
 2166 0082 9A42     		cmp	r2, r3
 2167 0084 02D3     		bcc	.L143
2228:Source/tasks.c **** 					{
2229:Source/tasks.c **** 						xYieldPending = pdTRUE;
 2168              		.loc 1 2229 0
 2169 0086 224B     		ldr	r3, .L150+24
 2170 0088 0122     		movs	r2, #1
 2171 008a 1A60     		str	r2, [r3]
 2172              	.L143:
2218:Source/tasks.c **** 				{
 2173              		.loc 1 2218 0
 2174 008c 1C4B     		ldr	r3, .L150+8
 2175 008e 1B68     		ldr	r3, [r3]
 2176 0090 002B     		cmp	r3, #0
 2177 0092 CCD1     		bne	.L144
2230:Source/tasks.c **** 					}
2231:Source/tasks.c **** 					else
ARM GAS  C:\Users\mikke\AppData\Local\Temp\ccIUnQd7.s 			page 83


2232:Source/tasks.c **** 					{
2233:Source/tasks.c **** 						mtCOVERAGE_TEST_MARKER();
2234:Source/tasks.c **** 					}
2235:Source/tasks.c **** 				}
2236:Source/tasks.c **** 
2237:Source/tasks.c **** 				if( pxTCB != NULL )
 2178              		.loc 1 2237 0
 2179 0094 FB68     		ldr	r3, [r7, #12]
 2180 0096 002B     		cmp	r3, #0
 2181 0098 01D0     		beq	.L145
2238:Source/tasks.c **** 				{
2239:Source/tasks.c **** 					/* A task was unblocked while the scheduler was suspended,
2240:Source/tasks.c **** 					which may have prevented the next unblock time from being
2241:Source/tasks.c **** 					re-calculated, in which case re-calculate it now.  Mainly
2242:Source/tasks.c **** 					important for low power tickless implementations, where
2243:Source/tasks.c **** 					this can prevent an unnecessary exit from low power
2244:Source/tasks.c **** 					state. */
2245:Source/tasks.c **** 					prvResetNextTaskUnblockTime();
 2182              		.loc 1 2245 0
 2183 009a FFF7FEFF 		bl	prvResetNextTaskUnblockTime
 2184              	.L145:
 2185              	.LBB41:
2246:Source/tasks.c **** 				}
2247:Source/tasks.c **** 
2248:Source/tasks.c **** 				/* If any ticks occurred while the scheduler was suspended then
2249:Source/tasks.c **** 				they should be processed now.  This ensures the tick count does
2250:Source/tasks.c **** 				not	slip, and that any delayed tasks are resumed at the correct
2251:Source/tasks.c **** 				time. */
2252:Source/tasks.c **** 				{
2253:Source/tasks.c **** 					TickType_t xPendedCounts = xPendedTicks; /* Non-volatile copy. */
 2186              		.loc 1 2253 0
 2187 009e 1D4B     		ldr	r3, .L150+28
 2188 00a0 1B68     		ldr	r3, [r3]
 2189 00a2 7B60     		str	r3, [r7, #4]
2254:Source/tasks.c **** 
2255:Source/tasks.c **** 					if( xPendedCounts > ( TickType_t ) 0U )
 2190              		.loc 1 2255 0
 2191 00a4 7B68     		ldr	r3, [r7, #4]
 2192 00a6 002B     		cmp	r3, #0
 2193 00a8 10D0     		beq	.L146
 2194              	.L148:
2256:Source/tasks.c **** 					{
2257:Source/tasks.c **** 						do
2258:Source/tasks.c **** 						{
2259:Source/tasks.c **** 							if( xTaskIncrementTick() != pdFALSE )
 2195              		.loc 1 2259 0
 2196 00aa FFF7FEFF 		bl	xTaskIncrementTick
 2197 00ae 0346     		mov	r3, r0
 2198 00b0 002B     		cmp	r3, #0
 2199 00b2 02D0     		beq	.L147
2260:Source/tasks.c **** 							{
2261:Source/tasks.c **** 								xYieldPending = pdTRUE;
 2200              		.loc 1 2261 0
 2201 00b4 164B     		ldr	r3, .L150+24
 2202 00b6 0122     		movs	r2, #1
 2203 00b8 1A60     		str	r2, [r3]
 2204              	.L147:
ARM GAS  C:\Users\mikke\AppData\Local\Temp\ccIUnQd7.s 			page 84


2262:Source/tasks.c **** 							}
2263:Source/tasks.c **** 							else
2264:Source/tasks.c **** 							{
2265:Source/tasks.c **** 								mtCOVERAGE_TEST_MARKER();
2266:Source/tasks.c **** 							}
2267:Source/tasks.c **** 							--xPendedCounts;
 2205              		.loc 1 2267 0
 2206 00ba 7B68     		ldr	r3, [r7, #4]
 2207 00bc 013B     		subs	r3, r3, #1
 2208 00be 7B60     		str	r3, [r7, #4]
2268:Source/tasks.c **** 						} while( xPendedCounts > ( TickType_t ) 0U );
 2209              		.loc 1 2268 0
 2210 00c0 7B68     		ldr	r3, [r7, #4]
 2211 00c2 002B     		cmp	r3, #0
 2212 00c4 F1D1     		bne	.L148
2269:Source/tasks.c **** 
2270:Source/tasks.c **** 						xPendedTicks = 0;
 2213              		.loc 1 2270 0
 2214 00c6 134B     		ldr	r3, .L150+28
 2215 00c8 0022     		movs	r2, #0
 2216 00ca 1A60     		str	r2, [r3]
 2217              	.L146:
 2218              	.LBE41:
2271:Source/tasks.c **** 					}
2272:Source/tasks.c **** 					else
2273:Source/tasks.c **** 					{
2274:Source/tasks.c **** 						mtCOVERAGE_TEST_MARKER();
2275:Source/tasks.c **** 					}
2276:Source/tasks.c **** 				}
2277:Source/tasks.c **** 
2278:Source/tasks.c **** 				if( xYieldPending != pdFALSE )
 2219              		.loc 1 2278 0
 2220 00cc 104B     		ldr	r3, .L150+24
 2221 00ce 1B68     		ldr	r3, [r3]
 2222 00d0 002B     		cmp	r3, #0
 2223 00d2 09D0     		beq	.L142
2279:Source/tasks.c **** 				{
2280:Source/tasks.c **** 					#if( configUSE_PREEMPTION != 0 )
2281:Source/tasks.c **** 					{
2282:Source/tasks.c **** 						xAlreadyYielded = pdTRUE;
 2224              		.loc 1 2282 0
 2225 00d4 0123     		movs	r3, #1
 2226 00d6 BB60     		str	r3, [r7, #8]
2283:Source/tasks.c **** 					}
2284:Source/tasks.c **** 					#endif
2285:Source/tasks.c **** 					taskYIELD_IF_USING_PREEMPTION();
 2227              		.loc 1 2285 0
 2228 00d8 0F4B     		ldr	r3, .L150+32
 2229 00da 4FF08052 		mov	r2, #268435456
 2230 00de 1A60     		str	r2, [r3]
 2231              		.syntax unified
 2232              	@ 2285 "Source\tasks.c" 1
 2233 00e0 BFF34F8F 		dsb
 2234              	@ 0 "" 2
 2235              	@ 2285 "Source\tasks.c" 1
 2236 00e4 BFF36F8F 		isb
 2237              	@ 0 "" 2
ARM GAS  C:\Users\mikke\AppData\Local\Temp\ccIUnQd7.s 			page 85


 2238              		.thumb
 2239              		.syntax unified
 2240              	.L142:
2286:Source/tasks.c **** 				}
2287:Source/tasks.c **** 				else
2288:Source/tasks.c **** 				{
2289:Source/tasks.c **** 					mtCOVERAGE_TEST_MARKER();
2290:Source/tasks.c **** 				}
2291:Source/tasks.c **** 			}
2292:Source/tasks.c **** 		}
2293:Source/tasks.c **** 		else
2294:Source/tasks.c **** 		{
2295:Source/tasks.c **** 			mtCOVERAGE_TEST_MARKER();
2296:Source/tasks.c **** 		}
2297:Source/tasks.c **** 	}
2298:Source/tasks.c **** 	taskEXIT_CRITICAL();
 2241              		.loc 1 2298 0
 2242 00e8 FFF7FEFF 		bl	vPortExitCritical
2299:Source/tasks.c **** 
2300:Source/tasks.c **** 	return xAlreadyYielded;
 2243              		.loc 1 2300 0
 2244 00ec BB68     		ldr	r3, [r7, #8]
2301:Source/tasks.c **** }
 2245              		.loc 1 2301 0
 2246 00ee 1846     		mov	r0, r3
 2247 00f0 1037     		adds	r7, r7, #16
 2248              		.cfi_def_cfa_offset 8
 2249 00f2 BD46     		mov	sp, r7
 2250              		.cfi_def_cfa_register 13
 2251              		@ sp needed
 2252 00f4 80BD     		pop	{r7, pc}
 2253              	.L151:
 2254 00f6 00BF     		.align	2
 2255              	.L150:
 2256 00f8 00010000 		.word	uxSchedulerSuspended
 2257 00fc D8000000 		.word	uxCurrentNumberOfTasks
 2258 0100 98000000 		.word	xPendingReadyList
 2259 0104 E0000000 		.word	uxTopReadyPriority
 2260 0108 04000000 		.word	pxReadyTasksLists
 2261 010c 00000000 		.word	pxCurrentTCB
 2262 0110 EC000000 		.word	xYieldPending
 2263 0114 E8000000 		.word	xPendedTicks
 2264 0118 04ED00E0 		.word	-536810236
 2265              		.cfi_endproc
 2266              	.LFE85:
 2267              		.size	xTaskResumeAll, .-xTaskResumeAll
 2268              		.section	.text.xTaskGetTickCount,"ax",%progbits
 2269              		.align	2
 2270              		.global	xTaskGetTickCount
 2271              		.thumb
 2272              		.thumb_func
 2273              		.type	xTaskGetTickCount, %function
 2274              	xTaskGetTickCount:
 2275              	.LFB86:
2302:Source/tasks.c **** /*-----------------------------------------------------------*/
2303:Source/tasks.c **** 
2304:Source/tasks.c **** TickType_t xTaskGetTickCount( void )
ARM GAS  C:\Users\mikke\AppData\Local\Temp\ccIUnQd7.s 			page 86


2305:Source/tasks.c **** {
 2276              		.loc 1 2305 0
 2277              		.cfi_startproc
 2278              		@ args = 0, pretend = 0, frame = 8
 2279              		@ frame_needed = 1, uses_anonymous_args = 0
 2280              		@ link register save eliminated.
 2281 0000 80B4     		push	{r7}
 2282              		.cfi_def_cfa_offset 4
 2283              		.cfi_offset 7, -4
 2284 0002 83B0     		sub	sp, sp, #12
 2285              		.cfi_def_cfa_offset 16
 2286 0004 00AF     		add	r7, sp, #0
 2287              		.cfi_def_cfa_register 7
2306:Source/tasks.c **** TickType_t xTicks;
2307:Source/tasks.c **** 
2308:Source/tasks.c **** 	/* Critical section required if running on a 16 bit processor. */
2309:Source/tasks.c **** 	portTICK_TYPE_ENTER_CRITICAL();
2310:Source/tasks.c **** 	{
2311:Source/tasks.c **** 		xTicks = xTickCount;
 2288              		.loc 1 2311 0
 2289 0006 044B     		ldr	r3, .L154
 2290 0008 1B68     		ldr	r3, [r3]
 2291 000a 7B60     		str	r3, [r7, #4]
2312:Source/tasks.c **** 	}
2313:Source/tasks.c **** 	portTICK_TYPE_EXIT_CRITICAL();
2314:Source/tasks.c **** 
2315:Source/tasks.c **** 	return xTicks;
 2292              		.loc 1 2315 0
 2293 000c 7B68     		ldr	r3, [r7, #4]
2316:Source/tasks.c **** }
 2294              		.loc 1 2316 0
 2295 000e 1846     		mov	r0, r3
 2296 0010 0C37     		adds	r7, r7, #12
 2297              		.cfi_def_cfa_offset 4
 2298 0012 BD46     		mov	sp, r7
 2299              		.cfi_def_cfa_register 13
 2300              		@ sp needed
 2301 0014 80BC     		pop	{r7}
 2302              		.cfi_restore 7
 2303              		.cfi_def_cfa_offset 0
 2304 0016 7047     		bx	lr
 2305              	.L155:
 2306              		.align	2
 2307              	.L154:
 2308 0018 DC000000 		.word	xTickCount
 2309              		.cfi_endproc
 2310              	.LFE86:
 2311              		.size	xTaskGetTickCount, .-xTaskGetTickCount
 2312              		.section	.text.xTaskGetTickCountFromISR,"ax",%progbits
 2313              		.align	2
 2314              		.global	xTaskGetTickCountFromISR
 2315              		.thumb
 2316              		.thumb_func
 2317              		.type	xTaskGetTickCountFromISR, %function
 2318              	xTaskGetTickCountFromISR:
 2319              	.LFB87:
2317:Source/tasks.c **** /*-----------------------------------------------------------*/
ARM GAS  C:\Users\mikke\AppData\Local\Temp\ccIUnQd7.s 			page 87


2318:Source/tasks.c **** 
2319:Source/tasks.c **** TickType_t xTaskGetTickCountFromISR( void )
2320:Source/tasks.c **** {
 2320              		.loc 1 2320 0
 2321              		.cfi_startproc
 2322              		@ args = 0, pretend = 0, frame = 8
 2323              		@ frame_needed = 1, uses_anonymous_args = 0
 2324              		@ link register save eliminated.
 2325 0000 80B4     		push	{r7}
 2326              		.cfi_def_cfa_offset 4
 2327              		.cfi_offset 7, -4
 2328 0002 83B0     		sub	sp, sp, #12
 2329              		.cfi_def_cfa_offset 16
 2330 0004 00AF     		add	r7, sp, #0
 2331              		.cfi_def_cfa_register 7
2321:Source/tasks.c **** TickType_t xReturn;
2322:Source/tasks.c **** UBaseType_t uxSavedInterruptStatus;
2323:Source/tasks.c **** 
2324:Source/tasks.c **** 	/* RTOS ports that support interrupt nesting have the concept of a maximum
2325:Source/tasks.c **** 	system call (or maximum API call) interrupt priority.  Interrupts that are
2326:Source/tasks.c **** 	above the maximum system call priority are kept permanently enabled, even
2327:Source/tasks.c **** 	when the RTOS kernel is in a critical section, but cannot make any calls to
2328:Source/tasks.c **** 	FreeRTOS API functions.  If configASSERT() is defined in FreeRTOSConfig.h
2329:Source/tasks.c **** 	then portASSERT_IF_INTERRUPT_PRIORITY_INVALID() will result in an assertion
2330:Source/tasks.c **** 	failure if a FreeRTOS API function is called from an interrupt that has been
2331:Source/tasks.c **** 	assigned a priority above the configured maximum system call priority.
2332:Source/tasks.c **** 	Only FreeRTOS functions that end in FromISR can be called from interrupts
2333:Source/tasks.c **** 	that have been assigned a priority at or (logically) below the maximum
2334:Source/tasks.c **** 	system call	interrupt priority.  FreeRTOS maintains a separate interrupt
2335:Source/tasks.c **** 	safe API to ensure interrupt entry is as fast and as simple as possible.
2336:Source/tasks.c **** 	More information (albeit Cortex-M specific) is provided on the following
2337:Source/tasks.c **** 	link: https://www.freertos.org/RTOS-Cortex-M3-M4.html */
2338:Source/tasks.c **** 	portASSERT_IF_INTERRUPT_PRIORITY_INVALID();
2339:Source/tasks.c **** 
2340:Source/tasks.c **** 	uxSavedInterruptStatus = portTICK_TYPE_SET_INTERRUPT_MASK_FROM_ISR();
 2332              		.loc 1 2340 0
 2333 0006 0023     		movs	r3, #0
 2334 0008 7B60     		str	r3, [r7, #4]
2341:Source/tasks.c **** 	{
2342:Source/tasks.c **** 		xReturn = xTickCount;
 2335              		.loc 1 2342 0
 2336 000a 044B     		ldr	r3, .L158
 2337 000c 1B68     		ldr	r3, [r3]
 2338 000e 3B60     		str	r3, [r7]
2343:Source/tasks.c **** 	}
2344:Source/tasks.c **** 	portTICK_TYPE_CLEAR_INTERRUPT_MASK_FROM_ISR( uxSavedInterruptStatus );
2345:Source/tasks.c **** 
2346:Source/tasks.c **** 	return xReturn;
 2339              		.loc 1 2346 0
 2340 0010 3B68     		ldr	r3, [r7]
2347:Source/tasks.c **** }
 2341              		.loc 1 2347 0
 2342 0012 1846     		mov	r0, r3
 2343 0014 0C37     		adds	r7, r7, #12
 2344              		.cfi_def_cfa_offset 4
 2345 0016 BD46     		mov	sp, r7
 2346              		.cfi_def_cfa_register 13
ARM GAS  C:\Users\mikke\AppData\Local\Temp\ccIUnQd7.s 			page 88


 2347              		@ sp needed
 2348 0018 80BC     		pop	{r7}
 2349              		.cfi_restore 7
 2350              		.cfi_def_cfa_offset 0
 2351 001a 7047     		bx	lr
 2352              	.L159:
 2353              		.align	2
 2354              	.L158:
 2355 001c DC000000 		.word	xTickCount
 2356              		.cfi_endproc
 2357              	.LFE87:
 2358              		.size	xTaskGetTickCountFromISR, .-xTaskGetTickCountFromISR
 2359              		.section	.text.uxTaskGetNumberOfTasks,"ax",%progbits
 2360              		.align	2
 2361              		.global	uxTaskGetNumberOfTasks
 2362              		.thumb
 2363              		.thumb_func
 2364              		.type	uxTaskGetNumberOfTasks, %function
 2365              	uxTaskGetNumberOfTasks:
 2366              	.LFB88:
2348:Source/tasks.c **** /*-----------------------------------------------------------*/
2349:Source/tasks.c **** 
2350:Source/tasks.c **** UBaseType_t uxTaskGetNumberOfTasks( void )
2351:Source/tasks.c **** {
 2367              		.loc 1 2351 0
