ARM GAS  C:\Users\mag94\AppData\Local\Temp\cc1OfEWz.s 			page 1


   1              		.syntax unified
   2              		.cpu cortex-m3
   3              		.fpu softvfp
   4              		.eabi_attribute 20, 1
   5              		.eabi_attribute 21, 1
   6              		.eabi_attribute 23, 3
   7              		.eabi_attribute 24, 1
   8              		.eabi_attribute 25, 1
   9              		.eabi_attribute 26, 1
  10              		.eabi_attribute 30, 6
  11              		.eabi_attribute 34, 1
  12              		.eabi_attribute 18, 4
  13              		.thumb
  14              		.syntax unified
  15              		.file	"WaterCondition.c"
  16              		.text
  17              	.Ltext0:
  18              		.cfi_sections	.debug_frame
  19              		.comm	DS18x8_Sensor,32,4
  20              		.comm	DS18x8_DataReady,1,1
  21              		.comm	waterSemph,4,4
  22              		.comm	WaterPumpQueue,4,4
  23              		.comm	WaterState,1,1
  24              		.section	.rodata
  25              		.align	2
  26              	.LC0:
  27 0000 466C6F77 		.ascii	"Flow water\000"
  27      20776174 
  27      657200
  28 000b 00       		.align	2
  29              	.LC1:
  30 000c 57617465 		.ascii	"Water pump\000"
  30      72207075 
  30      6D7000
  31 0017 00       		.align	2
  32              	.LC2:
  33 0018 57617465 		.ascii	"Water Condition controller\000"
  33      7220436F 
  33      6E646974 
  33      696F6E20 
  33      636F6E74 
  34              		.section	.text.vInitWaterCondition,"ax",%progbits
  35              		.align	2
  36              		.global	vInitWaterCondition
  37              		.thumb
  38              		.thumb_func
  39              		.type	vInitWaterCondition, %function
  40              	vInitWaterCondition:
  41              	.LFB68:
  42              		.file 1 "WaterCondition.c"
   1:WaterCondition.c **** /* ========================================
   2:WaterCondition.c ****  *
   3:WaterCondition.c ****  * Copyright YOUR COMPANY, THE YEAR
   4:WaterCondition.c ****  * All Rights Reserved
   5:WaterCondition.c ****  * UNPUBLISHED, LICENSED SOFTWARE.
   6:WaterCondition.c ****  *
   7:WaterCondition.c ****  * CONFIDENTIAL AND PROPRIETARY INFORMATION
ARM GAS  C:\Users\mag94\AppData\Local\Temp\cc1OfEWz.s 			page 2


   8:WaterCondition.c ****  * WHICH IS THE PROPERTY OF your company.
   9:WaterCondition.c ****  *
  10:WaterCondition.c ****  * ========================================
  11:WaterCondition.c **** */
  12:WaterCondition.c **** #include "FreeRTOS.h"
  13:WaterCondition.c **** #include "WaterCondition.h"
  14:WaterCondition.c **** #include "task.h"
  15:WaterCondition.c **** #include "queue.h"
  16:WaterCondition.c **** #include "semphr.h"
  17:WaterCondition.c **** 
  18:WaterCondition.c **** SemaphoreHandle_t waterSemph;
  19:WaterCondition.c **** 
  20:WaterCondition.c **** QueueHandle_t WaterPumpQueue;
  21:WaterCondition.c **** 
  22:WaterCondition.c **** _Bool WaterState; //Variable to determine wheter or not there is water in the pibes. Is the value w
  23:WaterCondition.c **** 
  24:WaterCondition.c **** void vInitWaterCondition(){    
  43              		.loc 1 24 0
  44              		.cfi_startproc
  45              		@ args = 0, pretend = 0, frame = 0
  46              		@ frame_needed = 1, uses_anonymous_args = 0
  47 0000 80B5     		push	{r7, lr}
  48              		.cfi_def_cfa_offset 8
  49              		.cfi_offset 7, -8
  50              		.cfi_offset 14, -4
  51 0002 82B0     		sub	sp, sp, #8
  52              		.cfi_def_cfa_offset 16
  53 0004 02AF     		add	r7, sp, #8
  54              		.cfi_def_cfa 7, 8
  25:WaterCondition.c ****     //Craete the 3 tasks
  26:WaterCondition.c ****     xTaskCreate(vTaskFlowWater , "Flow water", 50 , NULL , 2 , NULL);
  55              		.loc 1 26 0
  56 0006 0023     		movs	r3, #0
  57 0008 0193     		str	r3, [sp, #4]
  58 000a 0223     		movs	r3, #2
  59 000c 0093     		str	r3, [sp]
  60 000e 0023     		movs	r3, #0
  61 0010 3222     		movs	r2, #50
  62 0012 1549     		ldr	r1, .L2
  63 0014 1548     		ldr	r0, .L2+4
  64 0016 FFF7FEFF 		bl	xTaskCreate
  27:WaterCondition.c ****     xTaskCreate(vTaskWaterPump , "Water pump", 50 , NULL , 2 , NULL);
  65              		.loc 1 27 0
  66 001a 0023     		movs	r3, #0
  67 001c 0193     		str	r3, [sp, #4]
  68 001e 0223     		movs	r3, #2
  69 0020 0093     		str	r3, [sp]
  70 0022 0023     		movs	r3, #0
  71 0024 3222     		movs	r2, #50
  72 0026 1249     		ldr	r1, .L2+8
  73 0028 1248     		ldr	r0, .L2+12
  74 002a FFF7FEFF 		bl	xTaskCreate
  28:WaterCondition.c ****     xTaskCreate(vTaskWaterConditionController , "Water Condition controller", 50 , NULL , 2 , NULL)
  75              		.loc 1 28 0
  76 002e 0023     		movs	r3, #0
  77 0030 0193     		str	r3, [sp, #4]
  78 0032 0223     		movs	r3, #2
ARM GAS  C:\Users\mag94\AppData\Local\Temp\cc1OfEWz.s 			page 3


  79 0034 0093     		str	r3, [sp]
  80 0036 0023     		movs	r3, #0
  81 0038 3222     		movs	r2, #50
  82 003a 0F49     		ldr	r1, .L2+16
  83 003c 0F48     		ldr	r0, .L2+20
  84 003e FFF7FEFF 		bl	xTaskCreate
  29:WaterCondition.c ****     
  30:WaterCondition.c ****     //Create queue for controller task to send Waterpump task a message wether it should run or not
  31:WaterCondition.c ****     WaterPumpQueue = xQueueCreate(1 , sizeof(_Bool));
  85              		.loc 1 31 0
  86 0042 0022     		movs	r2, #0
  87 0044 0121     		movs	r1, #1
  88 0046 0120     		movs	r0, #1
  89 0048 FFF7FEFF 		bl	xQueueGenericCreate
  90 004c 0246     		mov	r2, r0
  91 004e 0C4B     		ldr	r3, .L2+24
  92 0050 1A60     		str	r2, [r3]
  32:WaterCondition.c ****     
  33:WaterCondition.c ****     //Create semphore to lock controller task until FlowWater have made a measurement
  34:WaterCondition.c ****     waterSemph = xSemaphoreCreateBinary();
  93              		.loc 1 34 0
  94 0052 0322     		movs	r2, #3
  95 0054 0021     		movs	r1, #0
  96 0056 0120     		movs	r0, #1
  97 0058 FFF7FEFF 		bl	xQueueGenericCreate
  98 005c 0246     		mov	r2, r0
  99 005e 094B     		ldr	r3, .L2+28
 100 0060 1A60     		str	r2, [r3]
  35:WaterCondition.c **** }
 101              		.loc 1 35 0
 102 0062 00BF     		nop
 103 0064 BD46     		mov	sp, r7
 104              		.cfi_def_cfa_register 13
 105              		@ sp needed
 106 0066 80BD     		pop	{r7, pc}
 107              	.L3:
 108              		.align	2
 109              	.L2:
 110 0068 00000000 		.word	.LC0
 111 006c 00000000 		.word	vTaskFlowWater
 112 0070 0C000000 		.word	.LC1
 113 0074 00000000 		.word	vTaskWaterPump
 114 0078 18000000 		.word	.LC2
 115 007c 00000000 		.word	vTaskWaterConditionController
 116 0080 00000000 		.word	WaterPumpQueue
 117 0084 00000000 		.word	waterSemph
 118              		.cfi_endproc
 119              	.LFE68:
 120              		.size	vInitWaterCondition, .-vInitWaterCondition
 121              		.section	.text.vTaskFlowWater,"ax",%progbits
 122              		.align	2
 123              		.global	vTaskFlowWater
 124              		.thumb
 125              		.thumb_func
 126              		.type	vTaskFlowWater, %function
 127              	vTaskFlowWater:
 128              	.LFB69:
ARM GAS  C:\Users\mag94\AppData\Local\Temp\cc1OfEWz.s 			page 4


  36:WaterCondition.c **** 
  37:WaterCondition.c **** 
  38:WaterCondition.c **** void vTaskFlowWater(){
 129              		.loc 1 38 0
 130              		.cfi_startproc
 131              		@ args = 0, pretend = 0, frame = 16
 132              		@ frame_needed = 1, uses_anonymous_args = 0
 133 0000 80B5     		push	{r7, lr}
 134              		.cfi_def_cfa_offset 8
 135              		.cfi_offset 7, -8
 136              		.cfi_offset 14, -4
 137 0002 84B0     		sub	sp, sp, #16
 138              		.cfi_def_cfa_offset 24
 139 0004 00AF     		add	r7, sp, #0
 140              		.cfi_def_cfa_register 7
  39:WaterCondition.c ****     const TickType_t xDelayms = pdMS_TO_TICKS( 2000 ); // Sets the amount of measure ments per seco
 141              		.loc 1 39 0
 142 0006 4FF4FA63 		mov	r3, #2000
 143 000a BB60     		str	r3, [r7, #8]
  40:WaterCondition.c ****     uint8 flowWaterResult;
  41:WaterCondition.c ****     _Bool state = 0; //state for detecting 
 144              		.loc 1 41 0
 145 000c 0023     		movs	r3, #0
 146 000e FB73     		strb	r3, [r7, #15]
 147              	.L9:
  42:WaterCondition.c ****     for(;;){
  43:WaterCondition.c ****         if(state == 0 ){
 148              		.loc 1 43 0
 149 0010 FB7B     		ldrb	r3, [r7, #15]
 150 0012 83F00103 		eor	r3, r3, #1
 151 0016 DBB2     		uxtb	r3, r3
 152 0018 002B     		cmp	r3, #0
 153 001a 04D0     		beq	.L5
  44:WaterCondition.c ****             ADC_Flow_StartConvert(); //Start ACD convertion
 154              		.loc 1 44 0
 155 001c FFF7FEFF 		bl	ADC_Flow_StartConvert
  45:WaterCondition.c ****             state = 1;
 156              		.loc 1 45 0
 157 0020 0123     		movs	r3, #1
 158 0022 FB73     		strb	r3, [r7, #15]
 159 0024 F4E7     		b	.L9
 160              	.L5:
  46:WaterCondition.c ****         }
  47:WaterCondition.c ****         else if(ADC_Flow_IsEndConversion(ADC_Flow_RETURN_STATUS) && state == 1){ //Test if ADC conv
 161              		.loc 1 47 0
 162 0026 0120     		movs	r0, #1
 163 0028 FFF7FEFF 		bl	ADC_Flow_IsEndConversion
 164 002c 0346     		mov	r3, r0
 165 002e 002B     		cmp	r3, #0
 166 0030 EED0     		beq	.L9
 167              		.loc 1 47 0 is_stmt 0 discriminator 1
 168 0032 FB7B     		ldrb	r3, [r7, #15]	@ zero_extendqisi2
 169 0034 002B     		cmp	r3, #0
 170 0036 EBD0     		beq	.L9
  48:WaterCondition.c ****             flowWaterResult = ADC_Flow_GetResult8(); //Get ADC result
 171              		.loc 1 48 0 is_stmt 1
 172 0038 FFF7FEFF 		bl	ADC_Flow_GetResult8
ARM GAS  C:\Users\mag94\AppData\Local\Temp\cc1OfEWz.s 			page 5


 173 003c 0346     		mov	r3, r0
 174 003e FB71     		strb	r3, [r7, #7]
  49:WaterCondition.c ****             //SW_UART_TEST_USB_PutHexByte(flowWaterResult); //test to see what sensor show should b
  50:WaterCondition.c ****             if(flowWaterResult < 50){ //If sensor gives a value under 50 = no water in pipes
 175              		.loc 1 50 0
 176 0040 FB79     		ldrb	r3, [r7, #7]	@ zero_extendqisi2
 177 0042 312B     		cmp	r3, #49
 178 0044 03D8     		bhi	.L7
  51:WaterCondition.c ****                 WaterState = 0; //Set state 0 as th ere is no water in pipes
 179              		.loc 1 51 0
 180 0046 0A4B     		ldr	r3, .L10
 181 0048 0022     		movs	r2, #0
 182 004a 1A70     		strb	r2, [r3]
 183 004c 02E0     		b	.L8
 184              	.L7:
  52:WaterCondition.c ****             }
  53:WaterCondition.c ****             else{
  54:WaterCondition.c ****                 WaterState = 1; //set state 1 as there is water in pipes
 185              		.loc 1 54 0
 186 004e 084B     		ldr	r3, .L10
 187 0050 0122     		movs	r2, #1
 188 0052 1A70     		strb	r2, [r3]
 189              	.L8:
  55:WaterCondition.c ****             }
  56:WaterCondition.c ****             state = 0; //reset intern state so task is ready to make new measurement
 190              		.loc 1 56 0
 191 0054 0023     		movs	r3, #0
 192 0056 FB73     		strb	r3, [r7, #15]
  57:WaterCondition.c ****             xSemaphoreGive(waterSemph); //gives semaphore as WaterState has updated and controll ta
 193              		.loc 1 57 0
 194 0058 064B     		ldr	r3, .L10+4
 195 005a 1868     		ldr	r0, [r3]
 196 005c 0023     		movs	r3, #0
 197 005e 0022     		movs	r2, #0
 198 0060 0021     		movs	r1, #0
 199 0062 FFF7FEFF 		bl	xQueueGenericSend
  58:WaterCondition.c ****             vTaskDelay(xDelayms);
 200              		.loc 1 58 0
 201 0066 B868     		ldr	r0, [r7, #8]
 202 0068 FFF7FEFF 		bl	vTaskDelay
  59:WaterCondition.c ****         }
  60:WaterCondition.c ****     }
 203              		.loc 1 60 0
 204 006c D0E7     		b	.L9
 205              	.L11:
 206 006e 00BF     		.align	2
 207              	.L10:
 208 0070 00000000 		.word	WaterState
 209 0074 00000000 		.word	waterSemph
 210              		.cfi_endproc
 211              	.LFE69:
 212              		.size	vTaskFlowWater, .-vTaskFlowWater
 213              		.section	.text.vTaskWaterPump,"ax",%progbits
 214              		.align	2
 215              		.global	vTaskWaterPump
 216              		.thumb
 217              		.thumb_func
ARM GAS  C:\Users\mag94\AppData\Local\Temp\cc1OfEWz.s 			page 6


 218              		.type	vTaskWaterPump, %function
 219              	vTaskWaterPump:
 220              	.LFB70:
  61:WaterCondition.c **** }
  62:WaterCondition.c **** 
  63:WaterCondition.c **** void vTaskWaterPump(){
 221              		.loc 1 63 0
 222              		.cfi_startproc
 223              		@ args = 0, pretend = 0, frame = 8
 224              		@ frame_needed = 1, uses_anonymous_args = 0
 225 0000 80B5     		push	{r7, lr}
 226              		.cfi_def_cfa_offset 8
 227              		.cfi_offset 7, -8
 228              		.cfi_offset 14, -4
 229 0002 82B0     		sub	sp, sp, #8
 230              		.cfi_def_cfa_offset 16
 231 0004 00AF     		add	r7, sp, #0
 232              		.cfi_def_cfa_register 7
  64:WaterCondition.c ****     _Bool bPumpState = 1;
 233              		.loc 1 64 0
 234 0006 0123     		movs	r3, #1
 235 0008 FB71     		strb	r3, [r7, #7]
 236              	.L15:
  65:WaterCondition.c ****     for(;;){
  66:WaterCondition.c ****         xQueueReceive( WaterPumpQueue , &bPumpState , portMAX_DELAY); //sends task to blocked state
 237              		.loc 1 66 0
 238 000a 0C4B     		ldr	r3, .L16
 239 000c 1B68     		ldr	r3, [r3]
 240 000e F91D     		adds	r1, r7, #7
 241 0010 4FF0FF32 		mov	r2, #-1
 242 0014 1846     		mov	r0, r3
 243 0016 FFF7FEFF 		bl	xQueueReceive
  67:WaterCondition.c ****         if(bPumpState == 1){
 244              		.loc 1 67 0
 245 001a FB79     		ldrb	r3, [r7, #7]	@ zero_extendqisi2
 246 001c 002B     		cmp	r3, #0
 247 001e 03D0     		beq	.L13
  68:WaterCondition.c ****             Pin_WaterPump_Write(1); //sets output pin for waterpump to high
 248              		.loc 1 68 0
 249 0020 0120     		movs	r0, #1
 250 0022 FFF7FEFF 		bl	Pin_WaterPump_Write
 251 0026 F0E7     		b	.L15
 252              	.L13:
  69:WaterCondition.c ****         }
  70:WaterCondition.c ****         else if(bPumpState == 0){
 253              		.loc 1 70 0
 254 0028 FB79     		ldrb	r3, [r7, #7]	@ zero_extendqisi2
 255 002a 83F00103 		eor	r3, r3, #1
 256 002e DBB2     		uxtb	r3, r3
 257 0030 002B     		cmp	r3, #0
 258 0032 EAD0     		beq	.L15
  71:WaterCondition.c ****             Pin_WaterPump_Write(0); //sets output pin for waterpump to low
 259              		.loc 1 71 0
 260 0034 0020     		movs	r0, #0
 261 0036 FFF7FEFF 		bl	Pin_WaterPump_Write
  72:WaterCondition.c ****         }
  73:WaterCondition.c ****     }
ARM GAS  C:\Users\mag94\AppData\Local\Temp\cc1OfEWz.s 			page 7


 262              		.loc 1 73 0
 263 003a E6E7     		b	.L15
 264              	.L17:
 265              		.align	2
 266              	.L16:
 267 003c 00000000 		.word	WaterPumpQueue
 268              		.cfi_endproc
 269              	.LFE70:
 270              		.size	vTaskWaterPump, .-vTaskWaterPump
 271              		.section	.rodata
 272 0033 00       		.align	2
 273              	.LC3:
 274 0034 43207461 		.ascii	"C task\000"
 274      736B00
 275              		.section	.text.vTaskWaterConditionController,"ax",%progbits
 276              		.align	2
 277              		.global	vTaskWaterConditionController
 278              		.thumb
 279              		.thumb_func
 280              		.type	vTaskWaterConditionController, %function
 281              	vTaskWaterConditionController:
 282              	.LFB71:
  74:WaterCondition.c **** }
  75:WaterCondition.c **** 
  76:WaterCondition.c **** void vTaskWaterConditionController(){
 283              		.loc 1 76 0
 284              		.cfi_startproc
 285              		@ args = 0, pretend = 0, frame = 8
 286              		@ frame_needed = 1, uses_anonymous_args = 0
 287 0000 80B5     		push	{r7, lr}
 288              		.cfi_def_cfa_offset 8
 289              		.cfi_offset 7, -8
 290              		.cfi_offset 14, -4
 291 0002 82B0     		sub	sp, sp, #8
 292              		.cfi_def_cfa_offset 16
 293 0004 00AF     		add	r7, sp, #0
 294              		.cfi_def_cfa_register 7
 295              	.L21:
  77:WaterCondition.c ****     for(;;){
  78:WaterCondition.c ****         
  79:WaterCondition.c ****         xSemaphoreTake(waterSemph , portMAX_DELAY);
 296              		.loc 1 79 0
 297 0006 124B     		ldr	r3, .L22
 298 0008 1B68     		ldr	r3, [r3]
 299 000a 4FF0FF31 		mov	r1, #-1
 300 000e 1846     		mov	r0, r3
 301 0010 FFF7FEFF 		bl	xQueueSemaphoreTake
  80:WaterCondition.c ****         SW_UART_TEST_USB_PutString("C task");
 302              		.loc 1 80 0
 303 0014 0F48     		ldr	r0, .L22+4
 304 0016 FFF7FEFF 		bl	SW_UART_TEST_USB_PutString
  81:WaterCondition.c ****         
  82:WaterCondition.c ****         if(WaterState == 1){
 305              		.loc 1 82 0
 306 001a 0F4B     		ldr	r3, .L22+8
 307 001c 1B78     		ldrb	r3, [r3]	@ zero_extendqisi2
 308 001e 002B     		cmp	r3, #0
ARM GAS  C:\Users\mag94\AppData\Local\Temp\cc1OfEWz.s 			page 8


 309 0020 0AD0     		beq	.L19
 310              	.LBB2:
  83:WaterCondition.c ****             //generate package to datalager
  84:WaterCondition.c ****             //do nothing everything is fine
  85:WaterCondition.c ****             _Bool bNewPumpState = 1;
 311              		.loc 1 85 0
 312 0022 0123     		movs	r3, #1
 313 0024 FB71     		strb	r3, [r7, #7]
  86:WaterCondition.c ****             xQueueSend(WaterPumpQueue, &bNewPumpState , portMAX_DELAY);
 314              		.loc 1 86 0
 315 0026 0D4B     		ldr	r3, .L22+12
 316 0028 1868     		ldr	r0, [r3]
 317 002a F91D     		adds	r1, r7, #7
 318 002c 0023     		movs	r3, #0
 319 002e 4FF0FF32 		mov	r2, #-1
 320 0032 FFF7FEFF 		bl	xQueueGenericSend
 321              	.LBE2:
 322 0036 E6E7     		b	.L21
 323              	.L19:
 324              	.LBB3:
  87:WaterCondition.c ****         }
  88:WaterCondition.c ****         else{
  89:WaterCondition.c ****             //Something wrong no water in pipes
  90:WaterCondition.c ****             _Bool bNewPumpState = 0;
 325              		.loc 1 90 0 discriminator 2
 326 0038 0023     		movs	r3, #0
 327 003a BB71     		strb	r3, [r7, #6]
  91:WaterCondition.c ****             xQueueSend(WaterPumpQueue, &bNewPumpState , portMAX_DELAY);
 328              		.loc 1 91 0 discriminator 2
 329 003c 074B     		ldr	r3, .L22+12
 330 003e 1868     		ldr	r0, [r3]
 331 0040 B91D     		adds	r1, r7, #6
 332 0042 0023     		movs	r3, #0
 333 0044 4FF0FF32 		mov	r2, #-1
 334 0048 FFF7FEFF 		bl	xQueueGenericSend
 335              	.LBE3:
  92:WaterCondition.c ****             //make alarm to alarm handler task
  93:WaterCondition.c ****         }
  94:WaterCondition.c ****     }
 336              		.loc 1 94 0 discriminator 2
 337 004c DBE7     		b	.L21
 338              	.L23:
 339 004e 00BF     		.align	2
 340              	.L22:
 341 0050 00000000 		.word	waterSemph
 342 0054 34000000 		.word	.LC3
 343 0058 00000000 		.word	WaterState
 344 005c 00000000 		.word	WaterPumpQueue
 345              		.cfi_endproc
 346              	.LFE71:
 347              		.size	vTaskWaterConditionController, .-vTaskWaterConditionController
 348              		.text
 349              	.Letext0:
 350              		.file 2 "c:\\program files (x86)\\cypress\\psoc creator\\4.3\\psoc creator\\import\\gnu\\arm\\5.4.
 351              		.file 3 "c:\\program files (x86)\\cypress\\psoc creator\\4.3\\psoc creator\\import\\gnu\\arm\\5.4.
 352              		.file 4 "Generated_Source\\PSoC5/cytypes.h"
 353              		.file 5 "Generated_Source\\PSoC5/DS18x8.h"
ARM GAS  C:\Users\mag94\AppData\Local\Temp\cc1OfEWz.s 			page 9


 354              		.file 6 ".\\Source\\portable\\GCC\\ARM_CM3/portmacro.h"
 355              		.file 7 ".\\Source\\include/queue.h"
 356              		.file 8 ".\\Source\\include/semphr.h"
 357              		.file 9 "Generated_Source\\PSoC5/core_cm3.h"