ARM GAS  C:\Users\mag94\AppData\Local\Temp\cctaDFt8.s 			page 1


   1              		.syntax unified
   2              		.cpu cortex-m3
   3              		.fpu softvfp
   4              		.eabi_attribute 20, 1
   5              		.eabi_attribute 21, 1
   6              		.eabi_attribute 23, 3
   7              		.eabi_attribute 24, 1
   8              		.eabi_attribute 25, 1
   9              		.eabi_attribute 26, 1
  10              		.eabi_attribute 30, 1
  11              		.eabi_attribute 34, 1
  12              		.eabi_attribute 18, 4
  13              		.thumb
  14              		.syntax unified
  15              		.file	"SCD30.c"
  16              		.text
  17              	.Ltext0:
  18              		.cfi_sections	.debug_frame
  19              		.section	.text.SCD30_writeCommand,"ax",%progbits
  20              		.align	2
  21              		.global	SCD30_writeCommand
  22              		.thumb
  23              		.thumb_func
  24              		.type	SCD30_writeCommand, %function
  25              	SCD30_writeCommand:
  26              	.LFB71:
  27              		.file 1 "SCD30.c"
   1:SCD30.c       **** /* ========================================
   2:SCD30.c       ****  *
   3:SCD30.c       ****  * Copyright YOUR COMPANY, THE YEAR
   4:SCD30.c       ****  * All Rights Reserved
   5:SCD30.c       ****  * UNPUBLISHED, LICENSED SOFTWARE.
   6:SCD30.c       ****  *
   7:SCD30.c       ****  * CONFIDENTIAL AND PROPRIETARY INFORMATION
   8:SCD30.c       ****  * WHICH IS THE PROPERTY OF your company.
   9:SCD30.c       ****  *
  10:SCD30.c       ****  * ========================================
  11:SCD30.c       **** */
  12:SCD30.c       **** #include "project.h"
  13:SCD30.c       **** #include "SCD30.h"
  14:SCD30.c       **** 
  15:SCD30.c       **** 
  16:SCD30.c       ****      uint8_t devAddr = SCD30_I2C_ADDRESS;
  17:SCD30.c       **** 
  18:SCD30.c       **** 
  19:SCD30.c       **** void SCD30_initialize(void) {
  20:SCD30.c       ****     //Set temperature offset。
  21:SCD30.c       ****     //setTemperatureOffset(0);
  22:SCD30.c       **** 
  23:SCD30.c       ****     SCD30_setMeasurementInterval(2); // 2 seconds between measurements
  24:SCD30.c       ****     SCD30_startPeriodicMeasurment(); // start periodic measuments
  25:SCD30.c       **** 
  26:SCD30.c       ****     //setAutoSelfCalibration(true); // Enable auto-self-calibration
  27:SCD30.c       **** }
  28:SCD30.c       **** 
  29:SCD30.c       **** 
  30:SCD30.c       **** void SCD30_setTemperatureOffset(uint16_t offset) {
ARM GAS  C:\Users\mag94\AppData\Local\Temp\cctaDFt8.s 			page 2


  31:SCD30.c       ****     SCD30_writeCommandWithArguments(SCD30_SET_TEMP_OFFSET, offset);
  32:SCD30.c       **** }
  33:SCD30.c       **** 
  34:SCD30.c       **** _Bool SCD30_isAvailable(void) {
  35:SCD30.c       ****     return SCD30_readRegister(SCD30_GET_DATA_READY);
  36:SCD30.c       **** }
  37:SCD30.c       **** 
  38:SCD30.c       **** void SCD30_setAutoSelfCalibration(_Bool enable) {
  39:SCD30.c       ****     if (enable) {
  40:SCD30.c       ****         SCD30_writeCommandWithArguments(SCD30_AUTOMATIC_SELF_CALIBRATION, 1);    //Activate continu
  41:SCD30.c       ****     } else {
  42:SCD30.c       ****         SCD30_writeCommandWithArguments(SCD30_AUTOMATIC_SELF_CALIBRATION, 0);    //Deactivate conti
  43:SCD30.c       ****     }
  44:SCD30.c       **** }
  45:SCD30.c       **** 
  46:SCD30.c       **** void SCD30_setMeasurementInterval(uint16_t interval) {
  47:SCD30.c       ****     SCD30_writeCommandWithArguments(SCD30_SET_MEASUREMENT_INTERVAL, interval);
  48:SCD30.c       **** }
  49:SCD30.c       **** 
  50:SCD30.c       **** void SCD30_startPeriodicMeasurment(void) {
  51:SCD30.c       ****     SCD30_writeCommandWithArguments(SCD30_CONTINUOUS_MEASUREMENT, 0x0000);
  52:SCD30.c       **** }
  53:SCD30.c       **** 
  54:SCD30.c       **** void SCD30_stopMeasurement(void) {
  55:SCD30.c       ****    SCD30_writeCommand(SCD30_STOP_MEASUREMENT);
  56:SCD30.c       **** }
  57:SCD30.c       **** 
  58:SCD30.c       **** void SCD30_getCarbonDioxideConcentration(float* result) {
  59:SCD30.c       ****     uint8_t buf[18] = { 0 };
  60:SCD30.c       ****     uint32_t co2U32 = 0;
  61:SCD30.c       ****     uint32_t tempU32 = 0;
  62:SCD30.c       ****     uint32_t humU32 = 0;
  63:SCD30.c       ****     float co2Concentration = 0;
  64:SCD30.c       ****     float temperature = 0;
  65:SCD30.c       ****     float humidity = 0;
  66:SCD30.c       **** 
  67:SCD30.c       ****     SCD30_writeCommand(SCD30_READ_MEASUREMENT);
  68:SCD30.c       ****     SCD30_readBuffer(buf, 18);
  69:SCD30.c       **** 
  70:SCD30.c       ****     co2U32 = (uint32_t)((((uint32_t)buf[0]) << 24) | (((uint32_t)buf[1]) << 16) |
  71:SCD30.c       ****                         (((uint32_t)buf[3]) << 8) | ((uint32_t)buf[4]));
  72:SCD30.c       **** 
  73:SCD30.c       ****     tempU32 = (uint32_t)((((uint32_t)buf[6]) << 24) | (((uint32_t)buf[7]) << 16) |
  74:SCD30.c       ****                          (((uint32_t)buf[9]) << 8) | ((uint32_t)buf[10]));
  75:SCD30.c       **** 
  76:SCD30.c       ****     humU32 = (uint32_t)((((uint32_t)buf[12]) << 24) | (((uint32_t)buf[13]) << 16) |
  77:SCD30.c       ****                         (((uint32_t)buf[15]) << 8) | ((uint32_t)buf[16]));
  78:SCD30.c       **** 
  79:SCD30.c       ****     memcpy(&result[0], &co2U32, sizeof(co2Concentration));
  80:SCD30.c       ****     memcpy(&result[1], &tempU32, sizeof(temperature));
  81:SCD30.c       ****     memcpy(&result[2], &humU32, sizeof(humidity));
  82:SCD30.c       **** 
  83:SCD30.c       **** }
  84:SCD30.c       **** 
  85:SCD30.c       **** void SCD30_writeCommand(uint16_t command) {
  28              		.loc 1 85 0
  29              		.cfi_startproc
ARM GAS  C:\Users\mag94\AppData\Local\Temp\cctaDFt8.s 			page 3


  30              		@ args = 0, pretend = 0, frame = 0
  31              		@ frame_needed = 0, uses_anonymous_args = 0
  32              	.LVL0:
  33 0000 10B5     		push	{r4, lr}
  34              		.cfi_def_cfa_offset 8
  35              		.cfi_offset 4, -8
  36              		.cfi_offset 14, -4
  37 0002 0446     		mov	r4, r0
  86:SCD30.c       ****    I2C_MasterSendStart(SCD30_I2C_ADDRESS, 0);
  38              		.loc 1 86 0
  39 0004 0021     		movs	r1, #0
  40 0006 6120     		movs	r0, #97
  41              	.LVL1:
  42 0008 FFF7FEFF 		bl	I2C_MasterSendStart
  43              	.LVL2:
  87:SCD30.c       ****    I2C_MasterWriteByte(command >> 8); // MSB
  44              		.loc 1 87 0
  45 000c 200A     		lsrs	r0, r4, #8
  46 000e FFF7FEFF 		bl	I2C_MasterWriteByte
  47              	.LVL3:
  88:SCD30.c       ****    I2C_MasterWriteByte(command & 0xff); // LSB
  48              		.loc 1 88 0
  49 0012 E0B2     		uxtb	r0, r4
  50 0014 FFF7FEFF 		bl	I2C_MasterWriteByte
  51              	.LVL4:
  89:SCD30.c       ****    I2C_MasterSendStop();
  52              		.loc 1 89 0
  53 0018 FFF7FEFF 		bl	I2C_MasterSendStop
  54              	.LVL5:
  90:SCD30.c       ****                   UART_PutHexInt(command);             UART_PutString("Command Written");       UAR
  55              		.loc 1 90 0
  56 001c 2046     		mov	r0, r4
  57 001e FFF7FEFF 		bl	UART_PutHexInt
  58              	.LVL6:
  59 0022 0348     		ldr	r0, .L3
  60 0024 FFF7FEFF 		bl	UART_PutString
  61              	.LVL7:
  62 0028 0248     		ldr	r0, .L3+4
  63 002a FFF7FEFF 		bl	UART_PutString
  64              	.LVL8:
  65 002e 10BD     		pop	{r4, pc}
  66              	.L4:
  67              		.align	2
  68              	.L3:
  69 0030 00000000 		.word	.LC0
  70 0034 10000000 		.word	.LC1
  71              		.cfi_endproc
  72              	.LFE71:
  73              		.size	SCD30_writeCommand, .-SCD30_writeCommand
  74              		.section	.text.SCD30_stopMeasurement,"ax",%progbits
  75              		.align	2
  76              		.global	SCD30_stopMeasurement
  77              		.thumb
  78              		.thumb_func
  79              		.type	SCD30_stopMeasurement, %function
  80              	SCD30_stopMeasurement:
  81              	.LFB69:
ARM GAS  C:\Users\mag94\AppData\Local\Temp\cctaDFt8.s 			page 4


  54:SCD30.c       ****    SCD30_writeCommand(SCD30_STOP_MEASUREMENT);
  82              		.loc 1 54 0
  83              		.cfi_startproc
  84              		@ args = 0, pretend = 0, frame = 0
  85              		@ frame_needed = 0, uses_anonymous_args = 0
  86 0000 08B5     		push	{r3, lr}
  87              		.cfi_def_cfa_offset 8
  88              		.cfi_offset 3, -8
  89              		.cfi_offset 14, -4
  55:SCD30.c       **** }
  90              		.loc 1 55 0
  91 0002 4FF48270 		mov	r0, #260
  92 0006 FFF7FEFF 		bl	SCD30_writeCommand
  93              	.LVL9:
  94 000a 08BD     		pop	{r3, pc}
  95              		.cfi_endproc
  96              	.LFE69:
  97              		.size	SCD30_stopMeasurement, .-SCD30_stopMeasurement
  98              		.section	.text.SCD30_writeBuffer,"ax",%progbits
  99              		.align	2
 100              		.global	SCD30_writeBuffer
 101              		.thumb
 102              		.thumb_func
 103              		.type	SCD30_writeBuffer, %function
 104              	SCD30_writeBuffer:
 105              	.LFB74:
  91:SCD30.c       **** }
  92:SCD30.c       **** 
  93:SCD30.c       **** void SCD30_writeCommandWithArguments(uint16_t command, uint16_t arguments) {
  94:SCD30.c       ****     uint8_t checkSum, buf[5] = { 0 };
  95:SCD30.c       **** 
  96:SCD30.c       ****     buf[0] = command >> 8;
  97:SCD30.c       ****     buf[1] = command & 0xff;
  98:SCD30.c       ****     buf[2] = arguments >> 8;
  99:SCD30.c       ****     buf[3] = arguments & 0xff;
 100:SCD30.c       ****     checkSum = SCD30_calculateCrc(&buf[2], 2);
 101:SCD30.c       ****     buf[4] = checkSum;
 102:SCD30.c       **** 
 103:SCD30.c       ****     SCD30_writeBuffer(buf, 5);
 104:SCD30.c       **** }
 105:SCD30.c       **** 
 106:SCD30.c       **** uint16_t SCD30_readRegister(uint16_t address) {
 107:SCD30.c       ****     uint8_t buf[2] = { 0 };
 108:SCD30.c       **** 
 109:SCD30.c       ****     SCD30_writeCommand(address);
 110:SCD30.c       ****     SCD30_readBuffer(buf, 2);
 111:SCD30.c       **** 
 112:SCD30.c       ****     return ((((uint16_t)buf[0]) << 8) | buf[1]);
 113:SCD30.c       **** }
 114:SCD30.c       **** 
 115:SCD30.c       **** void SCD30_writeBuffer(uint8_t* data, uint8_t len) {
 106              		.loc 1 115 0
 107              		.cfi_startproc
 108              		@ args = 0, pretend = 0, frame = 0
 109              		@ frame_needed = 0, uses_anonymous_args = 0
 110              	.LVL10:
 111 0000 F8B5     		push	{r3, r4, r5, r6, r7, lr}
ARM GAS  C:\Users\mag94\AppData\Local\Temp\cctaDFt8.s 			page 5


 112              		.cfi_def_cfa_offset 24
 113              		.cfi_offset 3, -24
 114              		.cfi_offset 4, -20
 115              		.cfi_offset 5, -16
 116              		.cfi_offset 6, -12
 117              		.cfi_offset 7, -8
 118              		.cfi_offset 14, -4
 119 0002 0746     		mov	r7, r0
 120 0004 0D46     		mov	r5, r1
 116:SCD30.c       ****     I2C_MasterSendStart(SCD30_I2C_ADDRESS, 0);
 121              		.loc 1 116 0
 122 0006 0021     		movs	r1, #0
 123              	.LVL11:
 124 0008 6120     		movs	r0, #97
 125              	.LVL12:
 126 000a FFF7FEFF 		bl	I2C_MasterSendStart
 127              	.LVL13:
 128              	.LBB2:
 117:SCD30.c       ****     for(int i = 0; i<= len; i++){
 129              		.loc 1 117 0
 130 000e 0024     		movs	r4, #0
 131 0010 03E0     		b	.L8
 132              	.LVL14:
 133              	.L9:
 118:SCD30.c       ****         I2C_MasterWriteByte(data[i]);
 134              		.loc 1 118 0 discriminator 3
 135 0012 385D     		ldrb	r0, [r7, r4]	@ zero_extendqisi2
 136 0014 FFF7FEFF 		bl	I2C_MasterWriteByte
 137              	.LVL15:
 117:SCD30.c       ****     for(int i = 0; i<= len; i++){
 138              		.loc 1 117 0 discriminator 3
 139 0018 0134     		adds	r4, r4, #1
 140              	.LVL16:
 141              	.L8:
 117:SCD30.c       ****     for(int i = 0; i<= len; i++){
 142              		.loc 1 117 0 is_stmt 0 discriminator 1
 143 001a 2E46     		mov	r6, r5
 144 001c AC42     		cmp	r4, r5
 145 001e F8DD     		ble	.L9
 146              	.LBE2:
 119:SCD30.c       ****     }
 120:SCD30.c       ****     I2C_MasterSendStop();
 147              		.loc 1 120 0 is_stmt 1
 148 0020 FFF7FEFF 		bl	I2C_MasterSendStop
 149              	.LVL17:
 150              	.LBB3:
 121:SCD30.c       ****                             for(int k = 0; k <=len; k++){
 151              		.loc 1 121 0
 152 0024 0024     		movs	r4, #0
 153              	.LVL18:
 154 0026 03E0     		b	.L10
 155              	.LVL19:
 156              	.L11:
 122:SCD30.c       ****                             UART_PutHexByte(data);
 157              		.loc 1 122 0 discriminator 3
 158 0028 F8B2     		uxtb	r0, r7
 159 002a FFF7FEFF 		bl	UART_PutHexByte
ARM GAS  C:\Users\mag94\AppData\Local\Temp\cctaDFt8.s 			page 6


 160              	.LVL20:
 121:SCD30.c       ****                             for(int k = 0; k <=len; k++){
 161              		.loc 1 121 0 discriminator 3
 162 002e 0134     		adds	r4, r4, #1
 163              	.LVL21:
 164              	.L10:
 121:SCD30.c       ****                             for(int k = 0; k <=len; k++){
 165              		.loc 1 121 0 is_stmt 0 discriminator 1
 166 0030 B442     		cmp	r4, r6
 167 0032 F9DD     		ble	.L11
 168              	.LBE3:
 123:SCD30.c       ****                             }
 124:SCD30.c       **** }
 169              		.loc 1 124 0 is_stmt 1
 170 0034 F8BD     		pop	{r3, r4, r5, r6, r7, pc}
 171              		.cfi_endproc
 172              	.LFE74:
 173              		.size	SCD30_writeBuffer, .-SCD30_writeBuffer
 174 0036 00BF     		.section	.text.SCD30_readBuffer,"ax",%progbits
 175              		.align	2
 176              		.global	SCD30_readBuffer
 177              		.thumb
 178              		.thumb_func
 179              		.type	SCD30_readBuffer, %function
 180              	SCD30_readBuffer:
 181              	.LFB75:
 125:SCD30.c       **** 
 126:SCD30.c       **** void SCD30_readBuffer(uint8_t* data, uint8_t len) {
 182              		.loc 1 126 0
 183              		.cfi_startproc
 184              		@ args = 0, pretend = 0, frame = 0
 185              		@ frame_needed = 0, uses_anonymous_args = 0
 186              	.LVL22:
 187 0000 F8B5     		push	{r3, r4, r5, r6, r7, lr}
 188              		.cfi_def_cfa_offset 24
 189              		.cfi_offset 3, -24
 190              		.cfi_offset 4, -20
 191              		.cfi_offset 5, -16
 192              		.cfi_offset 6, -12
 193              		.cfi_offset 7, -8
 194              		.cfi_offset 14, -4
 195 0002 0746     		mov	r7, r0
 196 0004 0E46     		mov	r6, r1
 197              	.LVL23:
 127:SCD30.c       ****     uint8_t i = 0;
 128:SCD30.c       ****     I2C_MasterClearReadBuf();
 198              		.loc 1 128 0
 199 0006 FFF7FEFF 		bl	I2C_MasterClearReadBuf
 200              	.LVL24:
 129:SCD30.c       ****     I2C_MasterSendStart(SCD30_I2C_ADDRESS, 1);
 201              		.loc 1 129 0
 202 000a 0121     		movs	r1, #1
 203 000c 6120     		movs	r0, #97
 204 000e FFF7FEFF 		bl	I2C_MasterSendStart
 205              	.LVL25:
 127:SCD30.c       ****     uint8_t i = 0;
 206              		.loc 1 127 0
ARM GAS  C:\Users\mag94\AppData\Local\Temp\cctaDFt8.s 			page 7


 207 0012 0024     		movs	r4, #0
 130:SCD30.c       ****     while (i < len) {
 208              		.loc 1 130 0
 209 0014 06E0     		b	.L14
 210              	.LVL26:
 211              	.L15:
 131:SCD30.c       ****         data[i ++] = I2C_MasterReadByte(I2C_ACK_DATA);
 212              		.loc 1 131 0
 213 0016 651C     		adds	r5, r4, #1
 214 0018 EDB2     		uxtb	r5, r5
 215              	.LVL27:
 216 001a 0120     		movs	r0, #1
 217 001c FFF7FEFF 		bl	I2C_MasterReadByte
 218              	.LVL28:
 219 0020 3855     		strb	r0, [r7, r4]
 220 0022 2C46     		mov	r4, r5
 221              	.LVL29:
 222              	.L14:
 130:SCD30.c       ****     while (i < len) {
 223              		.loc 1 130 0
 224 0024 B442     		cmp	r4, r6
 225 0026 F6D3     		bcc	.L15
 132:SCD30.c       ****     }
 133:SCD30.c       ****     UART_PutString("Data Read");
 226              		.loc 1 133 0
 227 0028 0148     		ldr	r0, .L17
 228 002a FFF7FEFF 		bl	UART_PutString
 229              	.LVL30:
 230 002e F8BD     		pop	{r3, r4, r5, r6, r7, pc}
 231              	.LVL31:
 232              	.L18:
 233              		.align	2
 234              	.L17:
 235 0030 14000000 		.word	.LC2
 236              		.cfi_endproc
 237              	.LFE75:
 238              		.size	SCD30_readBuffer, .-SCD30_readBuffer
 239              		.section	.text.SCD30_getCarbonDioxideConcentration,"ax",%progbits
 240              		.align	2
 241              		.global	SCD30_getCarbonDioxideConcentration
 242              		.thumb
 243              		.thumb_func
 244              		.type	SCD30_getCarbonDioxideConcentration, %function
 245              	SCD30_getCarbonDioxideConcentration:
 246              	.LFB70:
  58:SCD30.c       ****     uint8_t buf[18] = { 0 };
 247              		.loc 1 58 0
 248              		.cfi_startproc
 249              		@ args = 0, pretend = 0, frame = 32
 250              		@ frame_needed = 0, uses_anonymous_args = 0
 251              	.LVL32:
 252 0000 10B5     		push	{r4, lr}
 253              		.cfi_def_cfa_offset 8
 254              		.cfi_offset 4, -8
 255              		.cfi_offset 14, -4
 256 0002 88B0     		sub	sp, sp, #32
 257              		.cfi_def_cfa_offset 40
ARM GAS  C:\Users\mag94\AppData\Local\Temp\cctaDFt8.s 			page 8


 258 0004 0446     		mov	r4, r0
  59:SCD30.c       ****     uint32_t co2U32 = 0;
 259              		.loc 1 59 0
 260 0006 0023     		movs	r3, #0
 261 0008 0393     		str	r3, [sp, #12]
 262 000a 0493     		str	r3, [sp, #16]
 263 000c 0593     		str	r3, [sp, #20]
 264 000e 0693     		str	r3, [sp, #24]
 265 0010 ADF81C30 		strh	r3, [sp, #28]	@ movhi
  60:SCD30.c       ****     uint32_t tempU32 = 0;
 266              		.loc 1 60 0
 267 0014 0293     		str	r3, [sp, #8]
  61:SCD30.c       ****     uint32_t humU32 = 0;
 268              		.loc 1 61 0
 269 0016 0193     		str	r3, [sp, #4]
  62:SCD30.c       ****     float co2Concentration = 0;
 270              		.loc 1 62 0
 271 0018 0093     		str	r3, [sp]
 272              	.LVL33:
  67:SCD30.c       ****     SCD30_readBuffer(buf, 18);
 273              		.loc 1 67 0
 274 001a 4FF44070 		mov	r0, #768
 275              	.LVL34:
 276 001e FFF7FEFF 		bl	SCD30_writeCommand
 277              	.LVL35:
  68:SCD30.c       **** 
 278              		.loc 1 68 0
 279 0022 1221     		movs	r1, #18
 280 0024 03A8     		add	r0, sp, #12
 281 0026 FFF7FEFF 		bl	SCD30_readBuffer
 282              	.LVL36:
  70:SCD30.c       ****                         (((uint32_t)buf[3]) << 8) | ((uint32_t)buf[4]));
 283              		.loc 1 70 0
 284 002a 9DF80C20 		ldrb	r2, [sp, #12]	@ zero_extendqisi2
 285 002e 9DF80D30 		ldrb	r3, [sp, #13]	@ zero_extendqisi2
 286 0032 1B04     		lsls	r3, r3, #16
 287 0034 43EA0263 		orr	r3, r3, r2, lsl #24
  71:SCD30.c       **** 
 288              		.loc 1 71 0
 289 0038 9DF80F20 		ldrb	r2, [sp, #15]	@ zero_extendqisi2
  70:SCD30.c       ****                         (((uint32_t)buf[3]) << 8) | ((uint32_t)buf[4]));
 290              		.loc 1 70 0
 291 003c 43EA0223 		orr	r3, r3, r2, lsl #8
  71:SCD30.c       **** 
 292              		.loc 1 71 0
 293 0040 9DF81020 		ldrb	r2, [sp, #16]	@ zero_extendqisi2
  70:SCD30.c       ****                         (((uint32_t)buf[3]) << 8) | ((uint32_t)buf[4]));
 294              		.loc 1 70 0
 295 0044 1343     		orrs	r3, r3, r2
 296 0046 0293     		str	r3, [sp, #8]
  73:SCD30.c       ****                          (((uint32_t)buf[9]) << 8) | ((uint32_t)buf[10]));
 297              		.loc 1 73 0
 298 0048 9DF81220 		ldrb	r2, [sp, #18]	@ zero_extendqisi2
 299 004c 9DF81330 		ldrb	r3, [sp, #19]	@ zero_extendqisi2
 300 0050 1B04     		lsls	r3, r3, #16
 301 0052 43EA0263 		orr	r3, r3, r2, lsl #24
  74:SCD30.c       **** 
ARM GAS  C:\Users\mag94\AppData\Local\Temp\cctaDFt8.s 			page 9


 302              		.loc 1 74 0
 303 0056 9DF81520 		ldrb	r2, [sp, #21]	@ zero_extendqisi2
  73:SCD30.c       ****                          (((uint32_t)buf[9]) << 8) | ((uint32_t)buf[10]));
 304              		.loc 1 73 0
 305 005a 43EA0223 		orr	r3, r3, r2, lsl #8
  74:SCD30.c       **** 
 306              		.loc 1 74 0
 307 005e 9DF81620 		ldrb	r2, [sp, #22]	@ zero_extendqisi2
  73:SCD30.c       ****                          (((uint32_t)buf[9]) << 8) | ((uint32_t)buf[10]));
 308              		.loc 1 73 0
 309 0062 1343     		orrs	r3, r3, r2
 310 0064 0193     		str	r3, [sp, #4]
  76:SCD30.c       ****                         (((uint32_t)buf[15]) << 8) | ((uint32_t)buf[16]));
 311              		.loc 1 76 0
 312 0066 9DF81820 		ldrb	r2, [sp, #24]	@ zero_extendqisi2
 313 006a 9DF81930 		ldrb	r3, [sp, #25]	@ zero_extendqisi2
 314 006e 1B04     		lsls	r3, r3, #16
 315 0070 43EA0263 		orr	r3, r3, r2, lsl #24
  77:SCD30.c       **** 
 316              		.loc 1 77 0
 317 0074 9DF81B20 		ldrb	r2, [sp, #27]	@ zero_extendqisi2
  76:SCD30.c       ****                         (((uint32_t)buf[15]) << 8) | ((uint32_t)buf[16]));
 318              		.loc 1 76 0
 319 0078 43EA0223 		orr	r3, r3, r2, lsl #8
  77:SCD30.c       **** 
 320              		.loc 1 77 0
 321 007c 9DF81C20 		ldrb	r2, [sp, #28]	@ zero_extendqisi2
  76:SCD30.c       ****                         (((uint32_t)buf[15]) << 8) | ((uint32_t)buf[16]));
 322              		.loc 1 76 0
 323 0080 1343     		orrs	r3, r3, r2
 324 0082 0093     		str	r3, [sp]
  79:SCD30.c       ****     memcpy(&result[1], &tempU32, sizeof(temperature));
 325              		.loc 1 79 0
 326 0084 0298     		ldr	r0, [sp, #8]	@ unaligned
 327 0086 2060     		str	r0, [r4]	@ unaligned
  80:SCD30.c       ****     memcpy(&result[2], &humU32, sizeof(humidity));
 328              		.loc 1 80 0
 329 0088 0198     		ldr	r0, [sp, #4]	@ unaligned
 330 008a 6060     		str	r0, [r4, #4]	@ unaligned
  81:SCD30.c       **** 
 331              		.loc 1 81 0
 332 008c 0098     		ldr	r0, [sp]	@ unaligned
 333 008e A060     		str	r0, [r4, #8]	@ unaligned
  83:SCD30.c       **** 
 334              		.loc 1 83 0
 335 0090 08B0     		add	sp, sp, #32
 336              		.cfi_def_cfa_offset 8
 337              		@ sp needed
 338 0092 10BD     		pop	{r4, pc}
 339              		.cfi_endproc
 340              	.LFE70:
 341              		.size	SCD30_getCarbonDioxideConcentration, .-SCD30_getCarbonDioxideConcentration
 342              		.section	.text.SCD30_readRegister,"ax",%progbits
 343              		.align	2
 344              		.global	SCD30_readRegister
 345              		.thumb
 346              		.thumb_func
ARM GAS  C:\Users\mag94\AppData\Local\Temp\cctaDFt8.s 			page 10


 347              		.type	SCD30_readRegister, %function
 348              	SCD30_readRegister:
 349              	.LFB73:
 106:SCD30.c       ****     uint8_t buf[2] = { 0 };
 350              		.loc 1 106 0
 351              		.cfi_startproc
 352              		@ args = 0, pretend = 0, frame = 8
 353              		@ frame_needed = 0, uses_anonymous_args = 0
 354              	.LVL37:
 355 0000 10B5     		push	{r4, lr}
 356              		.cfi_def_cfa_offset 8
 357              		.cfi_offset 4, -8
 358              		.cfi_offset 14, -4
 359 0002 82B0     		sub	sp, sp, #8
 360              		.cfi_def_cfa_offset 16
 107:SCD30.c       **** 
 361              		.loc 1 107 0
 362 0004 02AC     		add	r4, sp, #8
 363 0006 0023     		movs	r3, #0
 364 0008 24F8043D 		strh	r3, [r4, #-4]!	@ movhi
 109:SCD30.c       ****     SCD30_readBuffer(buf, 2);
 365              		.loc 1 109 0
 366 000c FFF7FEFF 		bl	SCD30_writeCommand
 367              	.LVL38:
 110:SCD30.c       **** 
 368              		.loc 1 110 0
 369 0010 0221     		movs	r1, #2
 370 0012 2046     		mov	r0, r4
 371 0014 FFF7FEFF 		bl	SCD30_readBuffer
 372              	.LVL39:
 112:SCD30.c       **** }
 373              		.loc 1 112 0
 374 0018 9DF80400 		ldrb	r0, [sp, #4]	@ zero_extendqisi2
 375 001c 9DF80530 		ldrb	r3, [sp, #5]	@ zero_extendqisi2
 113:SCD30.c       **** 
 376              		.loc 1 113 0
 377 0020 43EA0020 		orr	r0, r3, r0, lsl #8
 378 0024 02B0     		add	sp, sp, #8
 379              		.cfi_def_cfa_offset 8
 380              		@ sp needed
 381 0026 10BD     		pop	{r4, pc}
 382              		.cfi_endproc
 383              	.LFE73:
 384              		.size	SCD30_readRegister, .-SCD30_readRegister
 385              		.section	.text.SCD30_isAvailable,"ax",%progbits
 386              		.align	2
 387              		.global	SCD30_isAvailable
 388              		.thumb
 389              		.thumb_func
 390              		.type	SCD30_isAvailable, %function
 391              	SCD30_isAvailable:
 392              	.LFB65:
  34:SCD30.c       ****     return SCD30_readRegister(SCD30_GET_DATA_READY);
 393              		.loc 1 34 0
 394              		.cfi_startproc
 395              		@ args = 0, pretend = 0, frame = 0
 396              		@ frame_needed = 0, uses_anonymous_args = 0
ARM GAS  C:\Users\mag94\AppData\Local\Temp\cctaDFt8.s 			page 11


 397 0000 08B5     		push	{r3, lr}
 398              		.cfi_def_cfa_offset 8
 399              		.cfi_offset 3, -8
 400              		.cfi_offset 14, -4
  35:SCD30.c       **** }
 401              		.loc 1 35 0
 402 0002 40F20220 		movw	r0, #514
 403 0006 FFF7FEFF 		bl	SCD30_readRegister
 404              	.LVL40:
  36:SCD30.c       **** 
 405              		.loc 1 36 0
 406 000a 0030     		adds	r0, r0, #0
 407 000c 18BF     		it	ne
 408 000e 0120     		movne	r0, #1
 409 0010 08BD     		pop	{r3, pc}
 410              		.cfi_endproc
 411              	.LFE65:
 412              		.size	SCD30_isAvailable, .-SCD30_isAvailable
 413 0012 00BF     		.section	.text.SCD30_calculateCrc,"ax",%progbits
 414              		.align	2
 415              		.global	SCD30_calculateCrc
 416              		.thumb
 417              		.thumb_func
 418              		.type	SCD30_calculateCrc, %function
 419              	SCD30_calculateCrc:
 420              	.LFB76:
 134:SCD30.c       **** }
 135:SCD30.c       **** 
 136:SCD30.c       **** uint8_t SCD30_calculateCrc(uint8_t data[], uint8_t len) {
 421              		.loc 1 136 0
 422              		.cfi_startproc
 423              		@ args = 0, pretend = 0, frame = 0
 424              		@ frame_needed = 0, uses_anonymous_args = 0
 425              		@ link register save eliminated.
 426              	.LVL41:
 427 0000 10B4     		push	{r4}
 428              		.cfi_def_cfa_offset 4
 429              		.cfi_offset 4, -4
 430 0002 0446     		mov	r4, r0
 431              	.LVL42:
 137:SCD30.c       ****     uint8_t bit, byteCtr, crc = 0xff;
 432              		.loc 1 137 0
 433 0004 FF20     		movs	r0, #255
 434              	.LVL43:
 138:SCD30.c       **** 
 139:SCD30.c       ****     // calculates 8-Bit checksum with given polynomial
 140:SCD30.c       ****     for (byteCtr = 0; byteCtr < len; byteCtr ++) {
 435              		.loc 1 140 0
 436 0006 0022     		movs	r2, #0
 437 0008 13E0     		b	.L26
 438              	.LVL44:
 439              	.L31:
 141:SCD30.c       ****         crc ^= (data[byteCtr]);
 440              		.loc 1 141 0
 441 000a A35C     		ldrb	r3, [r4, r2]	@ zero_extendqisi2
 442 000c 5840     		eors	r0, r0, r3
 443              	.LVL45:
ARM GAS  C:\Users\mag94\AppData\Local\Temp\cctaDFt8.s 			page 12


 142:SCD30.c       **** 
 143:SCD30.c       ****         for (bit = 8; bit > 0; -- bit) {
 444              		.loc 1 143 0
 445 000e 0823     		movs	r3, #8
 446 0010 0BE0     		b	.L27
 447              	.LVL46:
 448              	.L30:
 144:SCD30.c       ****             if (crc & 0x80) {
 449              		.loc 1 144 0
 450 0012 10F0800F 		tst	r0, #128
 451 0016 04D0     		beq	.L28
 145:SCD30.c       ****                 crc = (crc << 1) ^ SCD30_POLYNOMIAL;
 452              		.loc 1 145 0
 453 0018 4000     		lsls	r0, r0, #1
 454              	.LVL47:
 455 001a 80F03100 		eor	r0, r0, #49
 456 001e C0B2     		uxtb	r0, r0
 457              	.LVL48:
 458 0020 01E0     		b	.L29
 459              	.L28:
 146:SCD30.c       ****             } else {
 147:SCD30.c       ****                 crc = (crc << 1);
 460              		.loc 1 147 0
 461 0022 4000     		lsls	r0, r0, #1
 462              	.LVL49:
 463 0024 C0B2     		uxtb	r0, r0
 464              	.LVL50:
 465              	.L29:
 143:SCD30.c       ****             if (crc & 0x80) {
 466              		.loc 1 143 0 discriminator 2
 467 0026 013B     		subs	r3, r3, #1
 468              	.LVL51:
 469 0028 DBB2     		uxtb	r3, r3
 470              	.LVL52:
 471              	.L27:
 143:SCD30.c       ****             if (crc & 0x80) {
 472              		.loc 1 143 0 is_stmt 0 discriminator 1
 473 002a 002B     		cmp	r3, #0
 474 002c F1D1     		bne	.L30
 140:SCD30.c       ****         crc ^= (data[byteCtr]);
 475              		.loc 1 140 0 is_stmt 1 discriminator 2
 476 002e 0132     		adds	r2, r2, #1
 477              	.LVL53:
 478 0030 D2B2     		uxtb	r2, r2
 479              	.LVL54:
 480              	.L26:
 140:SCD30.c       ****         crc ^= (data[byteCtr]);
 481              		.loc 1 140 0 is_stmt 0 discriminator 1
 482 0032 8A42     		cmp	r2, r1
 483 0034 E9D3     		bcc	.L31
 148:SCD30.c       ****             }
 149:SCD30.c       ****         }
 150:SCD30.c       ****     }
 151:SCD30.c       **** 
 152:SCD30.c       ****     return crc;
 153:SCD30.c       **** }
 484              		.loc 1 153 0 is_stmt 1
ARM GAS  C:\Users\mag94\AppData\Local\Temp\cctaDFt8.s 			page 13


 485 0036 10BC     		pop	{r4}
 486              		.cfi_restore 4
 487              		.cfi_def_cfa_offset 0
 488              	.LVL55:
 489 0038 7047     		bx	lr
 490              		.cfi_endproc
 491              	.LFE76:
 492              		.size	SCD30_calculateCrc, .-SCD30_calculateCrc
 493 003a 00BF     		.section	.text.SCD30_writeCommandWithArguments,"ax",%progbits
 494              		.align	2
 495              		.global	SCD30_writeCommandWithArguments
 496              		.thumb
 497              		.thumb_func
 498              		.type	SCD30_writeCommandWithArguments, %function
 499              	SCD30_writeCommandWithArguments:
 500              	.LFB72:
  93:SCD30.c       ****     uint8_t checkSum, buf[5] = { 0 };
 501              		.loc 1 93 0
 502              		.cfi_startproc
 503              		@ args = 0, pretend = 0, frame = 8
 504              		@ frame_needed = 0, uses_anonymous_args = 0
 505              	.LVL56:
 506 0000 00B5     		push	{lr}
 507              		.cfi_def_cfa_offset 4
 508              		.cfi_offset 14, -4
 509 0002 83B0     		sub	sp, sp, #12
 510              		.cfi_def_cfa_offset 16
  94:SCD30.c       **** 
 511              		.loc 1 94 0
 512 0004 0023     		movs	r3, #0
 513 0006 8DF80430 		strb	r3, [sp, #4]
  96:SCD30.c       ****     buf[1] = command & 0xff;
 514              		.loc 1 96 0
 515 000a 030A     		lsrs	r3, r0, #8
 516 000c 8DF80030 		strb	r3, [sp]
  97:SCD30.c       ****     buf[2] = arguments >> 8;
 517              		.loc 1 97 0
 518 0010 8DF80100 		strb	r0, [sp, #1]
  98:SCD30.c       ****     buf[3] = arguments & 0xff;
 519              		.loc 1 98 0
 520 0014 0B0A     		lsrs	r3, r1, #8
 521 0016 8DF80230 		strb	r3, [sp, #2]
  99:SCD30.c       ****     checkSum = SCD30_calculateCrc(&buf[2], 2);
 522              		.loc 1 99 0
 523 001a 8DF80310 		strb	r1, [sp, #3]
 100:SCD30.c       ****     buf[4] = checkSum;
 524              		.loc 1 100 0
 525 001e 0221     		movs	r1, #2
 526              	.LVL57:
 527 0020 0DEB0100 		add	r0, sp, r1
 528              	.LVL58:
 529 0024 FFF7FEFF 		bl	SCD30_calculateCrc
 530              	.LVL59:
 101:SCD30.c       **** 
 531              		.loc 1 101 0
 532 0028 8DF80400 		strb	r0, [sp, #4]
 103:SCD30.c       **** }
ARM GAS  C:\Users\mag94\AppData\Local\Temp\cctaDFt8.s 			page 14


 533              		.loc 1 103 0
 534 002c 0521     		movs	r1, #5
 535 002e 6846     		mov	r0, sp
 536              	.LVL60:
 537 0030 FFF7FEFF 		bl	SCD30_writeBuffer
 538              	.LVL61:
 104:SCD30.c       **** 
 539              		.loc 1 104 0
 540 0034 03B0     		add	sp, sp, #12
 541              		.cfi_def_cfa_offset 4
 542              		@ sp needed
 543 0036 5DF804FB 		ldr	pc, [sp], #4
 544              		.cfi_endproc
 545              	.LFE72:
 546              		.size	SCD30_writeCommandWithArguments, .-SCD30_writeCommandWithArguments
 547 003a 00BF     		.section	.text.SCD30_setTemperatureOffset,"ax",%progbits
 548              		.align	2
 549              		.global	SCD30_setTemperatureOffset
 550              		.thumb
 551              		.thumb_func
 552              		.type	SCD30_setTemperatureOffset, %function
 553              	SCD30_setTemperatureOffset:
 554              	.LFB64:
  30:SCD30.c       ****     SCD30_writeCommandWithArguments(SCD30_SET_TEMP_OFFSET, offset);
 555              		.loc 1 30 0
 556              		.cfi_startproc
 557              		@ args = 0, pretend = 0, frame = 0
 558              		@ frame_needed = 0, uses_anonymous_args = 0
 559              	.LVL62:
 560 0000 08B5     		push	{r3, lr}
 561              		.cfi_def_cfa_offset 8
 562              		.cfi_offset 3, -8
 563              		.cfi_offset 14, -4
  31:SCD30.c       **** }
 564              		.loc 1 31 0
 565 0002 0146     		mov	r1, r0
 566 0004 45F20340 		movw	r0, #21507
 567              	.LVL63:
 568 0008 FFF7FEFF 		bl	SCD30_writeCommandWithArguments
 569              	.LVL64:
 570 000c 08BD     		pop	{r3, pc}
 571              		.cfi_endproc
 572              	.LFE64:
 573              		.size	SCD30_setTemperatureOffset, .-SCD30_setTemperatureOffset
 574 000e 00BF     		.section	.text.SCD30_setAutoSelfCalibration,"ax",%progbits
 575              		.align	2
 576              		.global	SCD30_setAutoSelfCalibration
 577              		.thumb
 578              		.thumb_func
 579              		.type	SCD30_setAutoSelfCalibration, %function
 580              	SCD30_setAutoSelfCalibration:
 581              	.LFB66:
  38:SCD30.c       ****     if (enable) {
 582              		.loc 1 38 0
 583              		.cfi_startproc
 584              		@ args = 0, pretend = 0, frame = 0
 585              		@ frame_needed = 0, uses_anonymous_args = 0
ARM GAS  C:\Users\mag94\AppData\Local\Temp\cctaDFt8.s 			page 15


 586              	.LVL65:
 587 0000 08B5     		push	{r3, lr}
 588              		.cfi_def_cfa_offset 8
 589              		.cfi_offset 3, -8
 590              		.cfi_offset 14, -4
  39:SCD30.c       ****         SCD30_writeCommandWithArguments(SCD30_AUTOMATIC_SELF_CALIBRATION, 1);    //Activate continu
 591              		.loc 1 39 0
 592 0002 28B1     		cbz	r0, .L38
  40:SCD30.c       ****     } else {
 593              		.loc 1 40 0
 594 0004 0121     		movs	r1, #1
 595 0006 45F20630 		movw	r0, #21254
 596              	.LVL66:
 597 000a FFF7FEFF 		bl	SCD30_writeCommandWithArguments
 598              	.LVL67:
 599 000e 08BD     		pop	{r3, pc}
 600              	.LVL68:
 601              	.L38:
  42:SCD30.c       ****     }
 602              		.loc 1 42 0
 603 0010 0021     		movs	r1, #0
 604 0012 45F20630 		movw	r0, #21254
 605              	.LVL69:
 606 0016 FFF7FEFF 		bl	SCD30_writeCommandWithArguments
 607              	.LVL70:
 608 001a 08BD     		pop	{r3, pc}
 609              		.cfi_endproc
 610              	.LFE66:
 611              		.size	SCD30_setAutoSelfCalibration, .-SCD30_setAutoSelfCalibration
 612              		.section	.text.SCD30_setMeasurementInterval,"ax",%progbits
 613              		.align	2
 614              		.global	SCD30_setMeasurementInterval
 615              		.thumb
 616              		.thumb_func
 617              		.type	SCD30_setMeasurementInterval, %function
 618              	SCD30_setMeasurementInterval:
 619              	.LFB67:
  46:SCD30.c       ****     SCD30_writeCommandWithArguments(SCD30_SET_MEASUREMENT_INTERVAL, interval);
 620              		.loc 1 46 0
 621              		.cfi_startproc
 622              		@ args = 0, pretend = 0, frame = 0
 623              		@ frame_needed = 0, uses_anonymous_args = 0
 624              	.LVL71:
 625 0000 08B5     		push	{r3, lr}
 626              		.cfi_def_cfa_offset 8
 627              		.cfi_offset 3, -8
 628              		.cfi_offset 14, -4
  47:SCD30.c       **** }
 629              		.loc 1 47 0
 630 0002 0146     		mov	r1, r0
 631 0004 4FF48C40 		mov	r0, #17920
 632              	.LVL72:
 633 0008 FFF7FEFF 		bl	SCD30_writeCommandWithArguments
 634              	.LVL73:
 635 000c 08BD     		pop	{r3, pc}
 636              		.cfi_endproc
 637              	.LFE67:
ARM GAS  C:\Users\mag94\AppData\Local\Temp\cctaDFt8.s 			page 16


 638              		.size	SCD30_setMeasurementInterval, .-SCD30_setMeasurementInterval
 639 000e 00BF     		.section	.text.SCD30_startPeriodicMeasurment,"ax",%progbits
 640              		.align	2
 641              		.global	SCD30_startPeriodicMeasurment
 642              		.thumb
 643              		.thumb_func
 644              		.type	SCD30_startPeriodicMeasurment, %function
 645              	SCD30_startPeriodicMeasurment:
 646              	.LFB68:
  50:SCD30.c       ****     SCD30_writeCommandWithArguments(SCD30_CONTINUOUS_MEASUREMENT, 0x0000);
 647              		.loc 1 50 0
 648              		.cfi_startproc
 649              		@ args = 0, pretend = 0, frame = 0
 650              		@ frame_needed = 0, uses_anonymous_args = 0
 651 0000 08B5     		push	{r3, lr}
 652              		.cfi_def_cfa_offset 8
 653              		.cfi_offset 3, -8
 654              		.cfi_offset 14, -4
  51:SCD30.c       **** }
 655              		.loc 1 51 0
 656 0002 0021     		movs	r1, #0
 657 0004 1020     		movs	r0, #16
 658 0006 FFF7FEFF 		bl	SCD30_writeCommandWithArguments
 659              	.LVL74:
 660 000a 08BD     		pop	{r3, pc}
 661              		.cfi_endproc
 662              	.LFE68:
 663              		.size	SCD30_startPeriodicMeasurment, .-SCD30_startPeriodicMeasurment
 664              		.section	.text.SCD30_initialize,"ax",%progbits
 665              		.align	2
 666              		.global	SCD30_initialize
 667              		.thumb
 668              		.thumb_func
 669              		.type	SCD30_initialize, %function
 670              	SCD30_initialize:
 671              	.LFB63:
  19:SCD30.c       ****     //Set temperature offset。
 672              		.loc 1 19 0
 673              		.cfi_startproc
 674              		@ args = 0, pretend = 0, frame = 0
 675              		@ frame_needed = 0, uses_anonymous_args = 0
 676 0000 08B5     		push	{r3, lr}
 677              		.cfi_def_cfa_offset 8
 678              		.cfi_offset 3, -8
 679              		.cfi_offset 14, -4
  23:SCD30.c       ****     SCD30_startPeriodicMeasurment(); // start periodic measuments
 680              		.loc 1 23 0
 681 0002 0220     		movs	r0, #2
 682 0004 FFF7FEFF 		bl	SCD30_setMeasurementInterval
 683              	.LVL75:
  24:SCD30.c       **** 
 684              		.loc 1 24 0
 685 0008 FFF7FEFF 		bl	SCD30_startPeriodicMeasurment
 686              	.LVL76:
 687 000c 08BD     		pop	{r3, pc}
 688              		.cfi_endproc
 689              	.LFE63:
ARM GAS  C:\Users\mag94\AppData\Local\Temp\cctaDFt8.s 			page 17


 690              		.size	SCD30_initialize, .-SCD30_initialize
 691              		.global	devAddr
 692 000e 00BF     		.data
 693              		.type	devAddr, %object
 694              		.size	devAddr, 1
 695              	devAddr:
 696 0000 61       		.byte	97
 697              		.section	.rodata.str1.4,"aMS",%progbits,1
 698              		.align	2
 699              	.LC0:
 700 0000 436F6D6D 		.ascii	"Command Written\000"
 700      616E6420 
 700      57726974 
 700      74656E00 
 701              	.LC1:
 702 0010 200A2000 		.ascii	" \012 \000"
 703              	.LC2:
 704 0014 44617461 		.ascii	"Data Read\000"
 704      20526561 
 704      6400
 705              		.text
 706              	.Letext0:
 707              		.file 2 "c:\\program files (x86)\\cypress\\psoc creator\\4.3\\psoc creator\\import\\gnu\\arm\\5.4.
 708              		.file 3 "c:\\program files (x86)\\cypress\\psoc creator\\4.3\\psoc creator\\import\\gnu\\arm\\5.4.
 709              		.file 4 "Generated_Source\\PSoC5/core_cm3.h"
 710              		.file 5 "Generated_Source\\PSoC5/I2C.h"
 711              		.file 6 "Generated_Source\\PSoC5/UART.h"